(dp0
S'class_sl'
p1
(dp2
S'STD-NR'
p3
(I7
I14
tp4
sS'HSD-NR'
p5
(I0
I7
tp6
ssS'class_hierarchy'
p7
(dp8
g3
(lp9
S'STD-NR_subcl'
p10
asg5
(lp11
S'HSD-NR_subcl'
p12
assS'feats'
p13
(dp14
S'Bacteria.Firmicutes.Clostridia.Oscillospirales.Ruminococcaceae.Ruminococcaceae'
p15
(lp16
F0.0
aF0.0
aF114.54117581723395
aF0.0
aF0.0
aF0.0
aF0.0
aF0.0
aF0.0
aF0.0
aF0.0
aF0.0
aF0.0
aF0.0
asS'Bacteria.Proteobacteria.Alphaproteobacteria.Rhizobiales.Beijerinckiaceae.Microvirga'
p17
(lp18
F0.0
aF0.0
aF0.0
aF0.0
aF0.0
aF0.0
aF0.0
aF0.0
aF0.0
aF0.0
aF0.0
aF0.0
aF0.0
aF883.838383838384
asS'Bacteria.Firmicutes.Clostridia.Lachnospirales.Lachnospiraceae.Marvinbryantia'
p19
(lp20
F0.0
aF0.0
aF0.0
aF0.0
aF0.0
aF1209.6232247659152
aF0.0
aF0.0
aF0.0
aF1334.1653934711974
aF0.0
aF0.0
aF0.0
aF0.0
asS'Bacteria.Campilobacterota.Campylobacteria.Campylobacterales.Helicobacteraceae.Helicobacter'
p21
(lp22
F0.0
aF639.4476509702471
aF458.1647032689358
aF2299.516558329863
aF0.0
aF0.0
aF0.0
aF0.0
aF0.0
aF193.66917002001253
aF0.0
aF0.0
aF0.0
aF0.0
asS'Bacteria.Firmicutes.Clostridia.Lachnospirales.Lachnospiraceae.Lachnospiraceae'
p23
(lp24
F0.0
aF259.122577517355
aF0.0
aF0.0
aF0.0
aF0.0
aF0.0
aF0.0
aF0.0
aF0.0
aF0.0
aF0.0
aF0.0
aF0.0
asS'Bacteria.Firmicutes.Clostridia.Oscillospirales.Butyricicoccaceae'
p25
(lp26
F0.0
aF2904.6805060413185
aF135.3668441476401
aF9578.301254775572
aF511.16033395808495
aF7212.938488418976
aF3503.8542396636303
aF529.1779726854094
aF0.0
aF3830.34580706247
aF406.0965240675643
aF1107.874845880314
aF262.56945385553604
aF0.0
asS'Bacteria.Desulfobacterota.Desulfovibrionia.Desulfovibrionales.Desulfovibrionaceae.Desulfovibrio'
p27
(lp28
F0.0
aF1099.1812562429736
aF3196.7400887173476
aF12004.562820257474
aF14369.284943488388
aF0.0
aF0.0
aF0.0
aF0.0
aF0.0
aF0.0
aF0.0
aF0.0
aF0.0
asS'Bacteria.Firmicutes.Negativicutes.Veillonellales_Selenomonadales.Veillonellaceae.Veillonella'
p29
(lp30
F0.0
aF522.4245514462802
aF152.72156775631194
aF0.0
aF0.0
aF0.0
aF0.0
aF0.0
aF0.0
aF0.0
aF0.0
aF0.0
aF0.0
aF0.0
asS'Bacteria.Firmicutes.Bacilli.Erysipelotrichales'
p31
(lp32
F0.0
aF10799.560327497507
aF70078.37393181676
aF18034.003874775935
aF49582.55239393424
aF29613.368576676665
aF71478.62648913806
aF10144.454327437315
aF1771.5901363587566
aF667.0826967355987
aF14898.666226728765
aF93168.70074870899
aF110109.7709716764
aF105744.9494949495
asS'Bacteria.Actinobacteriota.Actinobacteria.Bifidobacteriales'
p33
(lp34
F0.0
aF0.0
aF1978.4384913885863
aF0.0
aF13801.329016868292
aF49146.543613637376
aF5606.166783461808
aF2826.035556256122
aF1342.1137396657246
aF0.0
aF1376.921026916585
aF5932.4911101978105
aF6725.166011654697
aF883.838383838384
asS'Bacteria.Bacteroidota.Bacteroidia'
p35
(lp36
F193023.94324563997
aF769000.5809361015
aF519301.92359756486
aF89137.9528870702
aF507809.3939910264
aF116079.02871735136
aF87946.74141555712
aF556002.7922582389
aF697237.035181275
aF184459.1250457275
aF256817.97992360312
aF16796.812179475728
aF12916.723133215888
aF9469.696969696972
asS'Bacteria.Firmicutes.Clostridia.Clostridiales.Clostridiaceae.Candidatus_Arthromitus'
p37
(lp38
F0.0
aF0.0
aF0.0
aF597.5121765739013
aF0.0
aF0.0
aF0.0
aF0.0
aF0.0
aF0.0
aF736.0499498724603
aF0.0
aF0.0
aF0.0
asS'Bacteria.Acidobacteriota.Acidobacteriae.Bryobacterales'
p39
(lp40
F0.0
aF0.0
aF0.0
aF0.0
aF681.5471119441132
aF0.0
aF0.0
aF0.0
aF0.0
aF0.0
aF0.0
aF0.0
aF0.0
aF0.0
asS'Bacteria.Actinobacteriota.Actinobacteria.Streptomycetales'
p41
(lp42
F0.0
aF0.0
aF0.0
aF0.0
aF0.0
aF0.0
aF3503.8542396636303
aF0.0
aF0.0
aF0.0
aF0.0
aF0.0
aF0.0
aF0.0
asS'Bacteria.Firmicutes.Clostridia.Lachnospirales.Lachnospiraceae.Lachnospiraceae_UCG_006'
p43
(lp44
F0.0
aF0.0
aF298.5012460691551
aF4417.968820728241
aF0.0
aF0.0
aF0.0
aF1199.0947678935338
aF2272.645932500627
aF1183.5338167889654
aF1148.4917321285805
aF4538.713078283868
aF3396.4629353570954
aF0.0
asS'Bacteria.Firmicutes.Bacilli.Acholeplasmatales'
p45
(lp46
F0.0
aF0.0
aF0.0
aF253.49001430407938
aF0.0
aF0.0
aF0.0
aF0.0
aF214.73819834651596
aF0.0
aF0.0
aF0.0
aF0.0
aF1704.5454545454547
asS'Bacteria.Proteobacteria.Alphaproteobacteria.Sphingomonadales.Sphingomonadaceae'
p47
(lp48
F0.0
aF0.0
aF65.94794971295289
aF0.0
aF0.0
aF0.0
aF0.0
aF0.0
aF0.0
aF0.0
aF0.0
aF0.0
aF0.0
aF0.0
asS'Bacteria.Firmicutes.Clostridia.Oscillospirales.Oscillospiraceae.Intestinimonas'
p49
(lp50
F0.0
aF62.69094617355364
aF0.0
aF0.0
aF0.0
aF0.0
aF0.0
aF0.0
aF0.0
aF0.0
aF0.0
aF0.0
aF0.0
aF0.0
asS'Bacteria.Bacteroidota.Bacteroidia.Bacteroidales.Prevotellaceae.Prevotellaceae_UCG_003'
p51
(lp52
F0.0
aF105872.46989789739
aF19284.568873956116
aF0.0
aF0.0
aF0.0
aF3153.4688156972675
aF0.0
aF0.0
aF0.0
aF0.0
aF0.0
aF0.0
aF0.0
asS'Bacteria.Proteobacteria.Gammaproteobacteria.Xanthomonadales.Xanthomonadaceae.Stenotrophomonas'
p53
(lp54
F0.0
aF0.0
aF0.0
aF0.0
aF0.0
aF0.0
aF0.0
aF0.0
aF0.0
aF0.0
aF0.0
aF89.3447456355092
aF0.0
aF0.0
asS'Bacteria.Bacteroidota.Bacteroidia.Bacteroidales.Prevotellaceae.Prevotellaceae_UCG_001'
p55
(lp56
F0.0
aF40314.457786006555
aF933.6841301465435
aF2553.0065726339426
aF5054.807746918839
aF761.6146230007614
aF0.0
aF2780.9991330488533
aF16051.680326402065
aF559.4887133911473
aF5025.444485336108
aF303.77213516073124
aF0.0
aF631.3131313131314
asS'Bacteria.Firmicutes.Clostridia.Lachnospirales.Lachnospiraceae.Lachnospiraceae_UCG_001'
p57
(lp58
F0.0
aF0.0
aF0.0
aF0.0
aF0.0
aF0.0
aF0.0
aF0.0
aF0.0
aF9425.232940973943
aF0.0
aF2805.4250129549887
aF5700.298143379863
aF0.0
asS'Bacteria.Proteobacteria.Gammaproteobacteria'
p59
(lp60
F11232.633757020396
aF8133.105416915692
aF5591.691946714057
aF12656.394285610819
aF30328.84648151304
aF29254.961695264545
aF63770.14716187807
aF5218.595539142281
aF2469.4892809849334
aF4217.684147102495
aF3718.321298493636
aF12061.54066079374
aF9672.719880742648
aF56502.525252525265
asS'Bacteria.Proteobacteria.Alphaproteobacteria'
p61
(lp62
F0.0
aF1776.243474917353
aF277.675577738749
aF0.0
aF1249.5030385642076
aF224.0043008825769
aF0.0
aF264.58898634270463
aF0.0
aF0.0
aF0.0
aF0.0
aF135.51971811898633
aF1893.9393939393942
asS'Bacteria.Firmicutes.Clostridia.Clostridia_vadinBB60_group.Clostridia_vadinBB60_group'
p63
(lp64
F0.0
aF3753.097977590078
aF173.5472360867181
aF561.2993173876044
aF0.0
aF0.0
aF0.0
aF816.2851706317484
aF0.0
aF731.6390867422696
aF387.06074950189725
aF339.510033414935
aF398.0891719745224
aF315.6565656565657
asS'Bacteria.Proteobacteria.Alphaproteobacteria.Rhodospirillales'
p65
(lp66
F0.0
aF1776.243474917353
aF0.0
aF0.0
aF0.0
aF0.0
aF0.0
aF174.5161399281669
aF0.0
aF0.0
aF0.0
aF0.0
aF0.0
aF0.0
asS'Bacteria.Actinobacteriota.Actinobacteria.Micrococcales.Micrococcaceae.Rothia'
p67
(lp68
F0.0
aF121.20249593553703
aF128.4249547041714
aF416.4478806424161
aF0.0
aF0.0
aF0.0
aF90.07284641453775
aF0.0
aF0.0
aF0.0
aF0.0
aF0.0
aF1767.676767676768
asS'Bacteria.Firmicutes.Clostridia.Lachnospirales.Lachnospiraceae.Tyzzerella'
p69
(lp70
F0.0
aF0.0
aF0.0
aF0.0
aF0.0
aF0.0
aF0.0
aF0.0
aF0.0
aF150.63157668223195
aF120.55990558255816
aF0.0
aF0.0
aF0.0
asS'Bacteria.Proteobacteria.Alphaproteobacteria.Rhodospirillales.uncultured.uncultured'
p71
(lp72
F0.0
aF1776.243474917353
aF0.0
aF0.0
aF0.0
aF0.0
aF0.0
aF174.5161399281669
aF0.0
aF0.0
aF0.0
aF0.0
aF0.0
aF0.0
asS'Bacteria.Firmicutes.Bacilli.Erysipelotrichales.Erysipelatoclostridiaceae.Erysipelotrichaceae_UCG_003'
p73
(lp74
F0.0
aF0.0
aF0.0
aF5468.141737130854
aF0.0
aF0.0
aF0.0
aF0.0
aF0.0
aF0.0
aF0.0
aF0.0
aF0.0
aF0.0
asS'Bacteria.Actinobacteriota.Actinobacteria.Bifidobacteriales.Bifidobacteriaceae'
p75
(lp76
F0.0
aF0.0
aF1978.4384913885863
aF0.0
aF13801.329016868292
aF49146.543613637376
aF5606.166783461808
aF2826.035556256122
aF1342.1137396657246
aF0.0
aF1376.921026916585
aF5932.4911101978105
aF6725.166011654697
aF883.838383838384
asS'Bacteria.Bacteroidota.Bacteroidia.Chitinophagales.Chitinophagaceae'
p77
(lp78
F0.0
aF0.0
aF0.0
aF0.0
aF851.9338899301415
aF0.0
aF0.0
aF0.0
aF0.0
aF0.0
aF0.0
aF0.0
aF0.0
aF0.0
asS'Bacteria.Bacteroidota.Bacteroidia.Bacteroidales.Rikenellaceae'
p79
(lp80
F0.0
aF906.9290213107427
aF0.0
aF1140.7050643683572
aF0.0
aF4300.882576945476
aF0.0
aF5438.148102277717
aF4491.607315414625
aF774.6766800800501
aF3921.369560527418
aF607.5442703214625
aF321.85933053259254
aF0.0
asS'Bacteria.Bacteroidota.Bacteroidia.Bacteroidales.Marinifilaceae.Odoribacter'
p81
(lp82
F0.0
aF37.61456770413218
aF86.77361804335905
aF0.0
aF0.0
aF0.0
aF0.0
aF0.0
aF0.0
aF0.0
aF0.0
aF0.0
aF0.0
aF0.0
asS'Bacteria.Verrucomicrobiota.Verrucomicrobiae.Verrucomicrobiales.Akkermansiaceae.Akkermansia'
p83
(lp84
F0.0
aF0.0
aF0.0
aF1068.2793459957632
aF908.7294825921509
aF55508.26575870255
aF142606.86755430975
aF7909.521825776597
aF465.2660964174512
aF16698.58621505886
aF87133.08544524678
aF5342.81578900345
aF6149.207209649006
aF0.0
asS'Bacteria.Firmicutes.Clostridia.Eubacteriales.Eubacteriaceae.Eubacterium'
p85
(lp86
F0.0
aF91.94672105454534
aF0.0
aF0.0
aF0.0
aF0.0
aF0.0
aF0.0
aF0.0
aF0.0
aF0.0
aF0.0
aF0.0
aF0.0
asS'Bacteria.Bacteroidota.Bacteroidia.Bacteroidales.Muribaculaceae.Muribaculum'
p87
(lp88
F0.0
aF0.0
aF0.0
aF0.0
aF0.0
aF0.0
aF0.0
aF1187.8356620917166
aF2057.9077341541115
aF817.7142734178307
aF875.6456300206855
aF0.0
aF0.0
aF0.0
asS'Bacteria.Proteobacteria.Alphaproteobacteria.Sphingomonadales.Sphingomonadaceae.Sphingomonas'
p89
(lp90
F0.0
aF0.0
aF65.94794971295289
aF0.0
aF0.0
aF0.0
aF0.0
aF0.0
aF0.0
aF0.0
aF0.0
aF0.0
aF0.0
aF0.0
asS'Bacteria.Bacteroidota.Bacteroidia.Bacteroidales.Rikenellaceae.Alistipes'
p91
(lp92
F0.0
aF476.4511909190076
aF0.0
aF1140.7050643683572
aF0.0
aF4300.882576945476
aF0.0
aF5438.148102277717
aF4491.607315414625
aF774.6766800800501
aF3921.369560527418
aF607.5442703214625
aF321.85933053259254
aF0.0
asS'Bacteria.Firmicutes.Clostridia.Lachnospirales.Lachnospiraceae.Lachnospiraceae_NK4A136_group'
p93
(lp94
F12415.016257759386
aF0.0
aF7573.601382824379
aF4073.9466584584184
aF8292.156528653377
aF5331.30236100533
aF0.0
aF30844.320344078275
aF33248.63104398555
aF17602.375675152252
aF110325.00412441783
aF47585.011525472204
aF41308.10407914352
aF4482.323232323233
asS'Bacteria.Firmicutes.Bacilli.Exiguobacterales.Exiguobacteraceae.Exiguobacterium'
p95
(lp96
F0.0
aF0.0
aF0.0
aF0.0
aF0.0
aF716.813762824246
aF0.0
aF0.0
aF0.0
aF0.0
aF0.0
aF0.0
aF0.0
aF0.0
asS'Bacteria.Firmicutes.Clostridia.Lachnospirales.Lachnospiraceae.Roseburia'
p97
(lp98
F0.0
aF0.0
aF4522.640972419874
aF2353.8358471093084
aF0.0
aF358.406881412123
aF0.0
aF4655.64024905142
aF0.0
aF3313.894687009103
aF18045.914288252392
aF768.3648124653791
aF1592.3566878980896
aF0.0
asS'Bacteria.Firmicutes.Clostridia.Lachnospirales.Lachnospiraceae.Anaerostipes'
p99
(lp100
F0.0
aF1951.7781242033032
aF0.0
aF3041.880171648953
aF0.0
aF0.0
aF0.0
aF0.0
aF0.0
aF0.0
aF0.0
aF0.0
aF0.0
aF0.0
asS'Bacteria.Firmicutes.Clostridia.Peptococcales.Peptococcaceae.Peptococcus'
p101
(lp102
F0.0
aF0.0
aF27.767557773874895
aF0.0
aF0.0
aF0.0
aF0.0
aF123.85016381998942
aF0.0
aF0.0
aF0.0
aF0.0
aF203.2795771784795
aF0.0
asS'Bacteria.Firmicutes.Bacilli.Erysipelotrichales.Erysipelotrichaceae.uncultured'
p103
(lp104
F0.0
aF0.0
aF3686.1432944818926
aF2661.6451501928336
aF14369.284943488388
aF0.0
aF0.0
aF1807.0864811916638
aF769.4785440750154
aF172.15037335112225
aF691.6331425525705
aF804.1027107195828
aF330.3293129150292
aF4040.404040404041
asS'Bacteria.Firmicutes.Negativicutes'
p105
(lp106
F0.0
aF7619.039658292551
aF1197.4759289983551
aF0.0
aF0.0
aF0.0
aF0.0
aF0.0
aF0.0
aF0.0
aF0.0
aF0.0
aF0.0
aF0.0
asS'Bacteria.Bacteroidota.Bacteroidia.Bacteroidales'
p107
(lp108
F193023.94324563997
aF769000.5809361015
aF519301.92359756486
aF88884.46287276612
aF506957.46010109625
aF116079.02871735136
aF87946.74141555712
aF556002.7922582389
aF697237.035181275
aF184459.1250457275
aF256817.97992360312
aF16796.812179475728
aF12916.723133215888
aF9469.696969696972
asS'Bacteria.Firmicutes.Clostridia.Lachnospirales.Lachnospiraceae.Lachnospiraceae_NC2004_group'
p109
(lp110
F0.0
aF0.0
aF0.0
aF0.0
aF0.0
aF0.0
aF0.0
aF0.0
aF0.0
aF0.0
aF380.71549131334154
aF0.0
aF0.0
aF0.0
asS'Bacteria.Cyanobacteria.Cyanobacteriia.Chloroplast.Chloroplast'
p111
(lp112
F0.0
aF0.0
aF0.0
aF0.0
aF454.36474129607547
aF0.0
aF0.0
aF0.0
aF0.0
aF0.0
aF0.0
aF0.0
aF0.0
aF0.0
asS'Bacteria.Actinobacteriota.Actinobacteria.Bifidobacteriales.Bifidobacteriaceae.Bifidobacterium'
p113
(lp114
F0.0
aF0.0
aF1978.4384913885863
aF0.0
aF13801.329016868292
aF49146.543613637376
aF5606.166783461808
aF2826.035556256122
aF1342.1137396657246
aF0.0
aF1376.921026916585
aF5932.4911101978105
aF6725.166011654697
aF883.838383838384
asS'Bacteria.Firmicutes.Clostridia.Oscillospirales.Ruminococcaceae.Anaerofilum'
p115
(lp116
F0.0
aF0.0
aF65.94794971295289
aF0.0
aF0.0
aF0.0
aF0.0
aF84.44329351362914
aF0.0
aF0.0
aF0.0
aF0.0
aF0.0
aF0.0
asS'Bacteria.Firmicutes.Bacilli.Lactobacillales.Lactobacillaceae.Lactobacillus'
p117
(lp118
F388117.0558675732
aF9140.33995210412
aF14768.86979097971
aF5450.035307537707
aF13687.737831544275
aF4704.090318534115
aF0.0
aF42756.4542824009
aF50535.056010880086
aF266058.4020141594
aF1294.4326704653613
aF25802.762539535055
aF59679.49586664861
aF130744.94949494951
asS'Bacteria.Firmicutes.Bacilli.Staphylococcales.Staphylococcaceae.Staphylococcus'
p119
(lp120
F0.0
aF0.0
aF76.36078387815597
aF561.2993173876044
aF1931.0501505083207
aF0.0
aF0.0
aF0.0
aF0.0
aF0.0
aF0.0
aF0.0
aF0.0
aF0.0
asS'Bacteria.Firmicutes.Bacilli.RF39.RF39.RF39'
p121
(lp122
F0.0
aF41.79396411570243
aF6136.6302680263525
aF3440.22162269822
aF13914.920202192312
aF1120.0215044128843
aF0.0
aF4925.858788295033
aF858.9527933860638
aF24273.202642508237
aF2335.055013388495
aF5700.194771545486
aF7004.675430275106
aF11868.68686868687
asS'Bacteria.Firmicutes.Bacilli.Erysipelotrichales.Erysipelotrichaceae.Allobaculum'
p123
(lp124
F0.0
aF0.0
aF1266.8948234330421
aF1303.662930706694
aF1703.867779860283
aF20205.187939608433
aF56061.667834618085
aF0.0
aF0.0
aF0.0
aF1345.1947359738067
aF0.0
aF0.0
aF5113.636363636364
asS'Bacteria.Firmicutes.Bacilli.Bacillales'
p125
(lp126
F0.0
aF0.0
aF79.83172859989033
aF0.0
aF0.0
aF0.0
aF0.0
aF0.0
aF0.0
aF0.0
aF0.0
aF0.0
aF0.0
aF0.0
asS'Bacteria.Proteobacteria.Alphaproteobacteria.Rhizobiales.Rhizobiaceae'
p127
(lp128
F0.0
aF0.0
aF211.7276280257961
aF0.0
aF0.0
aF224.0043008825769
aF0.0
aF0.0
aF0.0
aF0.0
aF0.0
aF0.0
aF135.51971811898633
aF1010.1010101010103
asS'Bacteria.Proteobacteria.Alphaproteobacteria.Rhodobacterales'
p129
(lp130
F0.0
aF0.0
aF0.0
aF0.0
aF1249.5030385642076
aF0.0
aF0.0
aF0.0
aF0.0
aF0.0
aF0.0
aF0.0
aF0.0
aF0.0
asS'Bacteria.Desulfobacterota'
p131
(lp132
F0.0
aF3723.842202709086
aF3404.9967720214095
aF12004.562820257474
aF14369.284943488388
aF0.0
aF0.0
aF0.0
aF0.0
aF0.0
aF0.0
aF0.0
aF0.0
aF0.0
asS'Bacteria.Firmicutes.Bacilli.Lactobacillales.Aerococcaceae.Aerococcus'
p133
(lp134
F0.0
aF0.0
aF0.0
aF271.5964438972279
aF0.0
aF0.0
aF0.0
aF0.0
aF0.0
aF0.0
aF0.0
aF0.0
aF0.0
aF0.0
asS'Bacteria.Actinobacteriota.Coriobacteriia.Coriobacteriales.uncultured.uncultured'
p135
(lp136
F0.0
aF0.0
aF531.0545424253573
aF7224.465407666262
aF2385.4148918043966
aF3180.8610725325916
aF0.0
aF146.36837542362386
aF0.0
aF624.0451033978181
aF596.4542697242351
aF268.0342369065276
aF220.2195419433528
aF5871.212121212122
asS'Bacteria.Firmicutes.Bacilli.Erysipelotrichales.Erysipelotrichaceae.Faecalibaculum'
p137
(lp138
F0.0
aF0.0
aF118.01212053896832
aF633.7250357601985
aF0.0
aF0.0
aF0.0
aF0.0
aF0.0
aF0.0
aF774.1214990037945
aF3484.445079784859
aF2422.414961376881
aF1452.0202020202023
asS'Bacteria.Bacteroidota.Bacteroidia.Bacteroidales.Marinifilaceae'
p139
(lp140
F0.0
aF388.6838662760326
aF86.77361804335905
aF0.0
aF0.0
aF0.0
aF0.0
aF0.0
aF0.0
aF0.0
aF0.0
aF0.0
aF0.0
aF0.0
asS'Bacteria.Firmicutes.Clostridia.Monoglobales'
p141
(lp142
F23056.458764410287
aF0.0
aF2276.9397374577416
aF11533.795650835613
aF14312.489350826378
aF30330.182339500912
aF7358.093903293623
aF168.8865870272583
aF0.0
aF2087.3232768823573
aF0.0
aF196.5584403981202
aF67.75985905949317
aF35353.53535353536
asS'Bacteria.Firmicutes.Bacilli.Erysipelotrichales.Erysipelotrichaceae.Dubosiella'
p143
(lp144
F0.0
aF75.22913540826436
aF56027.98969823607
aF2480.580854261348
aF23910.944510705973
aF7078.53590788943
aF11562.71899088998
aF0.0
aF0.0
aF0.0
aF7588.928793512608
aF446.723728177546
aF160.92966526629627
aF24873.73737373738
asS'Bacteria.Firmicutes.Bacilli.Staphylococcales'
p145
(lp146
F0.0
aF0.0
aF76.36078387815597
aF905.3214796574264
aF1931.0501505083207
aF0.0
aF0.0
aF0.0
aF0.0
aF0.0
aF0.0
aF0.0
aF0.0
aF0.0
asS'Bacteria.Cyanobacteria.Vampirivibrionia'
p147
(lp148
F0.0
aF0.0
aF111.07023109549958
aF1321.7693602998424
aF0.0
aF0.0
aF0.0
aF4396.680815609624
aF6388.461400808849
aF0.0
aF50.76206550844554
aF0.0
aF0.0
aF1073.2323232323233
asS'Bacteria.Firmicutes.Clostridia.Oscillospirales.Ruminococcaceae.Candidatus_Soleaferrea'
p149
(lp150
F0.0
aF417.93964115702425
aF104.12834165203085
aF0.0
aF0.0
aF0.0
aF0.0
aF0.0
aF0.0
aF0.0
aF0.0
aF0.0
aF0.0
aF0.0
asS'Bacteria.Bacteroidota.Bacteroidia.Bacteroidales.Muribaculaceae.Muribaculaceae'
p151
(lp152
F146615.43009163463
aF397891.0765707218
aF491405.9408689858
aF78726.7558710098
aF462372.91986141884
aF82567.98530531785
aF67974.77224947442
aF533653.4672416317
aF564922.5153000968
aF165694.73435045517
aF236164.1645198543
aF15635.33048621411
aF11612.345846320643
aF8838.38383838384
asS'Bacteria.Proteobacteria.Alphaproteobacteria.Rickettsiales'
p153
(lp154
F0.0
aF0.0
aF0.0
aF0.0
aF0.0
aF0.0
aF0.0
aF90.07284641453775
aF0.0
aF0.0
aF0.0
aF0.0
aF0.0
aF0.0
asS'Bacteria.Deferribacterota'
p155
(lp156
F0.0
aF0.0
aF0.0
aF0.0
aF0.0
aF0.0
aF0.0
aF67.55463481090332
aF0.0
aF0.0
aF0.0
aF410.98582992334235
aF0.0
aF0.0
asS'Bacteria.Actinobacteriota.Coriobacteriia.Coriobacteriales'
p157
(lp158
F0.0
aF472.2717945074374
aF2030.502662214602
aF21763.92837096453
aF7780.996194695292
aF22624.434389140264
aF23475.823405746323
aF782.5078532262968
aF214.73819834651596
aF5444.255557229241
aF10717.141080470563
aF13419.580794453483
aF10562.0680308985
aF23484.848484848488
asS'Bacteria.Deferribacterota.Deferribacteres.Deferribacterales'
p159
(lp160
F0.0
aF0.0
aF0.0
aF0.0
aF0.0
aF0.0
aF0.0
aF67.55463481090332
aF0.0
aF0.0
aF0.0
aF410.98582992334235
aF0.0
aF0.0
asS'Bacteria.Proteobacteria.Alphaproteobacteria.Rhizobiales.Rhizobiaceae.Allorhizobium_Neorhizobium_Pararhizobium_Rhizobium'
p161
(lp162
F0.0
aF0.0
aF152.72156775631194
aF0.0
aF0.0
aF224.0043008825769
aF0.0
aF0.0
aF0.0
aF0.0
aF0.0
aF0.0
aF135.51971811898633
aF1010.1010101010103
asS'Bacteria.Bacteroidota.Bacteroidia.Bacteroidales.Prevotellaceae.Prevotellaceae_NK3B31_group'
p163
(lp164
F46408.51315400532
aF171.35525287437994
aF4807.258439602091
aF3566.9666298502602
aF8405.747713977396
aF18861.162134312974
aF14015.416958654521
aF3006.1812490851976
aF92212.16133996639
aF11426.481031180738
aF450.5133313874541
aF0.0
aF110.1097709716764
aF0.0
asS'Bacteria.Bacteroidota.Bacteroidia.Bacteroidales.Tannerellaceae.Parabacteroides'
p165
(lp166
F0.0
aF27479.531406074344
aF492.87415048627946
aF217.2771551177823
aF0.0
aF5420.904081358361
aF0.0
aF945.7648873526464
aF2773.7017286424975
aF0.0
aF7087.653396616708
aF0.0
aF152.4596828838596
aF0.0
asS'Bacteria.Bacteroidota.Bacteroidia.Chitinophagales.Chitinophagaceae.Sediminibacterium'
p167
(lp168
F0.0
aF0.0
aF0.0
aF0.0
aF851.9338899301415
aF0.0
aF0.0
aF0.0
aF0.0
aF0.0
aF0.0
aF0.0
aF0.0
aF0.0
asS'Bacteria.Chloroflexi.Anaerolineae.Anaerolineales.Anaerolineaceae.uncultured'
p169
(lp170
F0.0
aF0.0
aF0.0
aF0.0
aF454.36474129607547
aF0.0
aF0.0
aF0.0
aF0.0
aF0.0
aF0.0
aF0.0
aF0.0
aF0.0
asS'Bacteria.Firmicutes.Clostridia.Lachnospirales.Lachnospiraceae.Frisingicoccus'
p171
(lp172
F0.0
aF2085.518809373551
aF0.0
aF0.0
aF0.0
aF0.0
aF0.0
aF422.21646756814573
aF0.0
aF0.0
aF564.7279787814566
aF0.0
aF0.0
aF0.0
asS'Bacteria.Desulfobacterota.Desulfovibrionia'
p173
(lp174
F0.0
aF3723.842202709086
aF3404.9967720214095
aF12004.562820257474
aF14369.284943488388
aF0.0
aF0.0
aF0.0
aF0.0
aF0.0
aF0.0
aF0.0
aF0.0
aF0.0
asS'Bacteria.Firmicutes.Clostridia.Clostridia_UCG_014.Clostridia_UCG_014'
p175
(lp176
F80402.01005025125
aF8.358792823140485
aF175754.75692974115
aF335222.4374875518
aF128528.42619412734
aF97441.87088392096
aF74632.09530483533
aF70588.96382449307
aF52127.69764861675
aF71270.25456736461
aF92482.13809819921
aF220270.53588978437
aF53835.20802276732
aF166224.74747474748
asS'Bacteria.Firmicutes.Bacilli.Erysipelotrichales.Erysipelatoclostridiaceae.Erysipelatoclostridiaceae'
p177
(lp178
F0.0
aF0.0
aF0.0
aF0.0
aF0.0
aF0.0
aF0.0
aF22.518211603634438
aF0.0
aF0.0
aF0.0
aF0.0
aF0.0
aF0.0
asS'Bacteria.Firmicutes.Clostridia.Oscillospirales.Oscillospiraceae.Flavonifractor'
p179
(lp180
F0.0
aF769.0089397289246
aF0.0
aF0.0
aF0.0
aF0.0
aF0.0
aF0.0
aF0.0
aF0.0
aF0.0
aF0.0
aF0.0
aF0.0
asS'Bacteria.Actinobacteriota.Coriobacteriia.Coriobacteriales.Coriobacteriales_Incertae_Sedis'
p181
(lp182
F0.0
aF0.0
aF0.0
aF506.98002860815876
aF0.0
aF0.0
aF1751.9271198318152
aF0.0
aF0.0
aF0.0
aF0.0
aF0.0
aF0.0
aF0.0
asS'Bacteria.Firmicutes.Clostridia.Oscillospirales.Oscillospiraceae.NK4A214_group'
p183
(lp184
F0.0
aF0.0
aF4866.264499871576
aF5287.07744119937
aF3180.5531890725283
aF2374.445589355315
aF0.0
aF5764.662170530416
aF3561.0751225797226
aF2969.5939403068587
aF8915.087754920747
aF321.6410842878331
aF796.1783439490448
aF0.0
asS'Bacteria.Desulfobacterota.Desulfovibrionia.Desulfovibrionales'
p185
(lp186
F0.0
aF3723.842202709086
aF3404.9967720214095
aF12004.562820257474
aF14369.284943488388
aF0.0
aF0.0
aF0.0
aF0.0
aF0.0
aF0.0
aF0.0
aF0.0
aF0.0
asS'Bacteria.Actinobacteriota.Coriobacteriia.Coriobacteriales.Coriobacteriales_Incertae_Sedis.uncultured'
p187
(lp188
F0.0
aF0.0
aF0.0
aF506.98002860815876
aF0.0
aF0.0
aF1751.9271198318152
aF0.0
aF0.0
aF0.0
aF0.0
aF0.0
aF0.0
aF0.0
asS'Bacteria.Deferribacterota.Deferribacteres.Deferribacterales.Deferribacteraceae.Mucispirillum'
p189
(lp190
F0.0
aF0.0
aF0.0
aF0.0
aF0.0
aF0.0
aF0.0
aF67.55463481090332
aF0.0
aF0.0
aF0.0
aF410.98582992334235
aF0.0
aF0.0
asS'Bacteria.Firmicutes.Bacilli.RF39.RF39'
p191
(lp192
F0.0
aF41.79396411570243
aF6136.6302680263525
aF3440.22162269822
aF13914.920202192312
aF1120.0215044128843
aF0.0
aF4925.858788295033
aF858.9527933860638
aF24273.202642508237
aF2335.055013388495
aF5700.194771545486
aF7004.675430275106
aF11868.68686868687
asS'Bacteria.Proteobacteria.Gammaproteobacteria.Pseudomonadales.Moraxellaceae.Acinetobacter'
p193
(lp194
F0.0
aF0.0
aF0.0
aF0.0
aF0.0
aF672.0129026477307
aF0.0
aF28.147764504543048
aF0.0
aF0.0
aF0.0
aF53.60684738130552
aF0.0
aF2083.3333333333335
asS'Bacteria.Firmicutes.Clostridia.Clostridia_vadinBB60_group'
p195
(lp196
F0.0
aF3753.097977590078
aF173.5472360867181
aF561.2993173876044
aF0.0
aF0.0
aF0.0
aF816.2851706317484
aF0.0
aF731.6390867422696
aF387.06074950189725
aF339.510033414935
aF398.0891719745224
aF315.6565656565657
asS'Bacteria.Firmicutes.Bacilli.Izemoplasmatales.Izemoplasmatales.Izemoplasmatales'
p197
(lp198
F0.0
aF0.0
aF0.0
aF0.0
aF0.0
aF0.0
aF0.0
aF236.4412218381616
aF0.0
aF0.0
aF0.0
aF0.0
aF0.0
aF0.0
asS'Bacteria.Firmicutes.Bacilli.Erysipelotrichales.Erysipelatoclostridiaceae.UCG_004'
p199
(lp200
F0.0
aF0.0
aF20.82566833040617
aF0.0
aF0.0
aF0.0
aF0.0
aF219.55256313543578
aF214.73819834651596
aF494.93232338447643
aF0.0
aF0.0
aF0.0
aF0.0
asS'Bacteria.Bacteroidota.Bacteroidia.Chitinophagales'
p201
(lp202
F0.0
aF0.0
aF0.0
aF0.0
aF851.9338899301415
aF0.0
aF0.0
aF0.0
aF0.0
aF0.0
aF0.0
aF0.0
aF0.0
aF0.0
asS'Bacteria.Cyanobacteria.Vampirivibrionia.Gastranaerophilales.Gastranaerophilales'
p203
(lp204
F0.0
aF0.0
aF111.07023109549958
aF1321.7693602998424
aF0.0
aF0.0
aF0.0
aF4396.680815609624
aF6388.461400808849
aF0.0
aF50.76206550844554
aF0.0
aF0.0
aF1073.2323232323233
asS'Bacteria.Proteobacteria.Gammaproteobacteria.Burkholderiales.Alcaligenaceae.Achromobacter'
p205
(lp206
F0.0
aF0.0
aF284.6174671822177
aF0.0
aF0.0
aF896.0172035303076
aF0.0
aF0.0
aF0.0
aF0.0
aF158.6314547138923
aF0.0
aF177.86963003116958
aF0.0
asS'Bacteria.Firmicutes.Clostridia.Oscillospirales.Oscillospiraceae.Colidextribacter'
p207
(lp208
F0.0
aF0.0
aF142.30873359110885
aF1593.3658041970702
aF851.9338899301415
aF0.0
aF0.0
aF1598.7930238580452
aF0.0
aF0.0
aF2379.4718207083847
aF0.0
aF372.6792248272124
aF0.0
asS'Bacteria.Proteobacteria.Gammaproteobacteria.Pseudomonadales.Moraxellaceae.Psychrobacter'
p209
(lp210
F0.0
aF0.0
aF0.0
aF0.0
aF0.0
aF0.0
aF0.0
aF0.0
aF0.0
aF0.0
aF82.488356451224
aF0.0
aF0.0
aF0.0
asS'Bacteria.Firmicutes.Negativicutes.Veillonellales_Selenomonadales.Veillonellaceae'
p211
(lp212
F0.0
aF522.4245514462802
aF152.72156775631194
aF0.0
aF0.0
aF0.0
aF0.0
aF0.0
aF0.0
aF0.0
aF0.0
aF0.0
aF0.0
aF0.0
asS'Bacteria.Firmicutes.Clostridia.Oscillospirales.Ruminococcaceae.Pygmaiobacter'
p213
(lp214
F0.0
aF0.0
aF0.0
aF0.0
aF0.0
aF0.0
aF0.0
aF332.14362115360797
aF375.7918471064029
aF0.0
aF0.0
aF0.0
aF0.0
aF0.0
asS'Bacteria.Firmicutes.Clostridia.Clostridiales.Clostridiaceae.Clostridium_sensu_stricto_1'
p215
(lp216
F3251.55187703222
aF1028.1315172462796
aF20516.754250171813
aF9723.15269152076
aF14994.036462770491
aF1612.8309663545538
aF0.0
aF821.914723532657
aF0.0
aF0.0
aF24867.06684094976
aF190482.9976949056
aF293705.1090933732
aF48484.84848484849
asS'Bacteria.Actinobacteriota.Actinobacteria.Pseudonocardiales.Pseudonocardiaceae.Prauserella'
p217
(lp218
F0.0
aF0.0
aF0.0
aF0.0
aF0.0
aF0.0
aF0.0
aF0.0
aF0.0
aF0.0
aF0.0
aF0.0
aF101.63978858923976
aF0.0
asS'Bacteria.Proteobacteria.Gammaproteobacteria.Pseudomonadales.Moraxellaceae'
p219
(lp220
F0.0
aF0.0
aF0.0
aF0.0
aF0.0
aF672.0129026477307
aF0.0
aF28.147764504543048
aF0.0
aF0.0
aF82.488356451224
aF53.60684738130552
aF0.0
aF2083.3333333333335
asS'Archaea'
p221
(lp222
F0.0
aF83.58792823140486
aF461.6356479906701
aF0.0
aF0.0
aF0.0
aF0.0
aF0.0
aF0.0
aF0.0
aF0.0
aF0.0
aF0.0
aF0.0
asS'Bacteria.Elusimicrobiota.Elusimicrobia.Elusimicrobiales'
p223
(lp224
F0.0
aF91.94672105454534
aF190.9019596953899
aF0.0
aF0.0
aF0.0
aF0.0
aF0.0
aF0.0
aF0.0
aF0.0
aF0.0
aF0.0
aF0.0
asS'Bacteria.Campilobacterota.Campylobacteria.Campylobacterales'
p225
(lp226
F0.0
aF639.4476509702471
aF458.1647032689358
aF2299.516558329863
aF0.0
aF0.0
aF0.0
aF0.0
aF0.0
aF193.66917002001253
aF0.0
aF0.0
aF0.0
aF0.0
asS'Bacteria.Proteobacteria.Gammaproteobacteria.Xanthomonadales.Xanthomonadaceae'
p227
(lp228
F0.0
aF0.0
aF0.0
aF0.0
aF0.0
aF0.0
aF0.0
aF0.0
aF0.0
aF0.0
aF0.0
aF89.3447456355092
aF0.0
aF0.0
asS'Bacteria.Firmicutes.Clostridia.Peptostreptococcales_Tissierellales.Anaerovoracaceae.Anaerovorax'
p229
(lp230
F0.0
aF0.0
aF0.0
aF0.0
aF0.0
aF0.0
aF0.0
aF591.1030545954039
aF518.9506460040802
aF0.0
aF2817.2946357187275
aF0.0
aF0.0
aF0.0
asS'Bacteria.Proteobacteria.Alphaproteobacteria.Rhizobiales'
p231
(lp232
F0.0
aF0.0
aF211.7276280257961
aF0.0
aF0.0
aF224.0043008825769
aF0.0
aF0.0
aF0.0
aF0.0
aF0.0
aF0.0
aF135.51971811898633
aF1893.9393939393942
asS'Bacteria.Firmicutes.Clostridia.Lachnospirales'
p233
(lp234
F142477.09133904817
aF108492.95144795193
aF31377.34028447863
aF289069.14845461625
aF37712.27352757427
aF289279.15415975987
aF250175.19271198323
aF129355.86655707801
aF78862.603342758
aF210733.57577844252
aF356514.67658219015
aF99976.77036613479
aF106247.4590052853
aF59406.56565656566
asS'Bacteria.Firmicutes.Clostridia.Lachnospirales.Defluviitaleaceae.Defluviitaleaceae_UCG_011'
p235
(lp236
F0.0
aF0.0
aF45.12228138254671
aF1285.5565011135454
aF0.0
aF0.0
aF0.0
aF782.5078532262968
aF0.0
aF215.1879666889028
aF82.488356451224
aF553.937422940157
aF0.0
aF0.0
asS'Bacteria.Firmicutes.Bacilli.RF39'
p237
(lp238
F0.0
aF41.79396411570243
aF6136.6302680263525
aF3440.22162269822
aF13914.920202192312
aF1120.0215044128843
aF0.0
aF4925.858788295033
aF858.9527933860638
aF24273.202642508237
aF2335.055013388495
aF5700.194771545486
aF7004.675430275106
aF11868.68686868687
asS'Bacteria.Firmicutes.Clostridia.Peptostreptococcales_Tissierellales'
p239
(lp240
F0.0
aF5052.890261588423
aF8590.588186292547
aF26200.003621285923
aF7042.65349008917
aF5107.298060122754
aF5255.781359495445
aF11602.508528772645
aF2433.699581260514
aF3636.6766370424575
aF13851.698625617077
aF202240.76622053862
aF236371.79834665946
aF54482.32323232324
asS'Bacteria.Firmicutes.Clostridia.Peptococcales'
p241
(lp242
F0.0
aF0.0
aF236.0242410779366
aF778.5764725053867
aF0.0
aF851.2163433537921
aF0.0
aF6851.165880405779
aF2791.5965785047074
aF516.4511200533667
aF1072.348633865912
aF0.0
aF482.78899579888883
aF1325.757575757576
asS'Bacteria.Patescibacteria.Saccharimonadia.Saccharimonadales.Saccharimonadaceae'
p243
(lp244
F2955.9562518474727
aF0.0
aF22804.106821794758
aF2299.516558329863
aF28284.2051456807
aF851.2163433537921
aF0.0
aF332.14362115360797
aF0.0
aF2151.879666889028
aF2804.604119341616
aF1179.3506423887216
aF3828.4320368613644
aF15782.828282828286
asS'Bacteria.Verrucomicrobiota'
p245
(lp246
F0.0
aF0.0
aF0.0
aF1068.2793459957632
aF908.7294825921509
aF55508.26575870255
aF142606.86755430975
aF7909.521825776597
aF465.2660964174512
aF16698.58621505886
aF87133.08544524678
aF5342.81578900345
aF6149.207209649006
aF0.0
asS'Bacteria.Firmicutes.Clostridia.Peptostreptococcales_Tissierellales.Anaerovoracaceae.Family_XIII_UCG_001'
p247
(lp248
F0.0
aF0.0
aF62.47700499121851
aF0.0
aF0.0
aF0.0
aF0.0
aF84.44329351362914
aF0.0
aF1269.6090034645265
aF0.0
aF0.0
aF0.0
aF0.0
asS'Bacteria.Firmicutes.Clostridia.Christensenellales.Christensenellaceae.Christensenellaceae_R_7_group'
p249
(lp250
F0.0
aF0.0
aF2589.3247624138344
aF13851.418638758623
aF21298.347248253536
aF1568.0301061780383
aF0.0
aF3996.982559645113
aF1932.6437851186436
aF1334.1653934711974
aF4784.324674170992
aF786.2337615924808
aF525.1389077110721
aF177588.38383838386
asS'Bacteria.Cyanobacteria.Vampirivibrionia.Gastranaerophilales'
p251
(lp252
F0.0
aF0.0
aF111.07023109549958
aF1321.7693602998424
aF0.0
aF0.0
aF0.0
aF4396.680815609624
aF6388.461400808849
aF0.0
aF50.76206550844554
aF0.0
aF0.0
aF1073.2323232323233
asS'Bacteria.Patescibacteria'
p253
(lp254
F2955.9562518474727
aF0.0
aF22804.106821794758
aF2408.155135888754
aF28284.2051456807
aF851.2163433537921
aF0.0
aF332.14362115360797
aF0.0
aF2151.879666889028
aF2804.604119341616
aF1179.3506423887216
aF3828.4320368613644
aF15782.828282828286
asS'Bacteria.Firmicutes.Clostridia.Oscillospirales.Ruminococcaceae.Anaerotruncus'
p255
(lp256
F0.0
aF0.0
aF0.0
aF0.0
aF0.0
aF0.0
aF0.0
aF0.0
aF0.0
aF0.0
aF310.9176512392289
aF0.0
aF0.0
aF0.0
asS'Bacteria.Actinobacteriota.Actinobacteria.Micrococcales.Dermabacteraceae'
p257
(lp258
F0.0
aF0.0
aF0.0
aF217.2771551177823
aF0.0
aF0.0
aF0.0
aF0.0
aF0.0
aF0.0
aF0.0
aF0.0
aF0.0
aF0.0
asS'Bacteria.Firmicutes.Clostridia.Lachnospirales.Lachnospiraceae.A2'
p259
(lp260
F0.0
aF0.0
aF0.0
aF0.0
aF0.0
aF0.0
aF0.0
aF0.0
aF0.0
aF0.0
aF18090.33109557228
aF4931.829959080108
aF2820.504133351403
aF0.0
asS'Bacteria.Actinobacteriota.Coriobacteriia'
p261
(lp262
F0.0
aF472.2717945074374
aF2030.502662214602
aF21763.92837096453
aF7780.996194695292
aF22624.434389140264
aF23475.823405746323
aF782.5078532262968
aF214.73819834651596
aF5444.255557229241
aF10717.141080470563
aF13419.580794453483
aF10562.0680308985
aF23484.848484848488
asS'Bacteria.Firmicutes.Clostridia.Lachnospirales.Lachnospiraceae.Tuzzerella'
p263
(lp264
F0.0
aF0.0
aF138.8377888693745
aF0.0
aF0.0
aF0.0
aF0.0
aF422.21646756814573
aF0.0
aF0.0
aF0.0
aF196.5584403981202
aF0.0
aF0.0
asS'Bacteria.Firmicutes.Clostridia.Clostridia.Hungateiclostridiaceae'
p265
(lp266
F0.0
aF0.0
aF76.36078387815597
aF0.0
aF0.0
aF0.0
aF0.0
aF112.59105801817219
aF0.0
aF0.0
aF0.0
aF0.0
aF0.0
aF0.0
asS'Bacteria.Cyanobacteria'
p267
(lp268
F0.0
aF0.0
aF111.07023109549958
aF1321.7693602998424
aF454.36474129607547
aF0.0
aF0.0
aF4396.680815609624
aF6388.461400808849
aF0.0
aF50.76206550844554
aF0.0
aF0.0
aF1073.2323232323233
asS'Bacteria.Firmicutes.Clostridia.Oscillospirales.Oscillospiraceae.uncultured'
p269
(lp270
F0.0
aF296.7371452214872
aF853.8524015466531
aF2625.4322910065366
aF8632.930084625435
aF0.0
aF0.0
aF31092.020671718252
aF16624.315521992776
aF3679.714230380238
aF7271.665884084824
aF482.46162643174966
aF296.44938338528266
aF0.0
asS'Bacteria.Firmicutes.Clostridia.Oscillospirales.Ruminococcaceae.Paludicola'
p271
(lp272
F0.0
aF0.0
aF0.0
aF0.0
aF0.0
aF0.0
aF0.0
aF0.0
aF0.0
aF301.2631533644639
aF0.0
aF0.0
aF0.0
aF0.0
asS'Bacteria.Proteobacteria.Gammaproteobacteria.Xanthomonadales'
p273
(lp274
F0.0
aF0.0
aF0.0
aF0.0
aF0.0
aF0.0
aF0.0
aF0.0
aF0.0
aF0.0
aF0.0
aF89.3447456355092
aF0.0
aF0.0
asS'Bacteria.Cyanobacteria.Cyanobacteriia.Chloroplast.Chloroplast.Chloroplast'
p275
(lp276
F0.0
aF0.0
aF0.0
aF0.0
aF454.36474129607547
aF0.0
aF0.0
aF0.0
aF0.0
aF0.0
aF0.0
aF0.0
aF0.0
aF0.0
asS'Bacteria.Firmicutes.Clostridia.Lachnospirales.Lachnospiraceae._Eubacterium__ventriosum_group'
p277
(lp278
F0.0
aF0.0
aF0.0
aF977.7471980300205
aF0.0
aF0.0
aF0.0
aF0.0
aF0.0
aF0.0
aF1211.944314014137
aF0.0
aF0.0
aF0.0
asS'Bacteria.Campilobacterota'
p279
(lp280
F0.0
aF639.4476509702471
aF458.1647032689358
aF2299.516558329863
aF0.0
aF0.0
aF0.0
aF0.0
aF0.0
aF193.66917002001253
aF0.0
aF0.0
aF0.0
aF0.0
asS'Bacteria.Firmicutes.Clostridia.Lachnospirales.Lachnospiraceae.Lachnoclostridium'
p281
(lp282
F0.0
aF42813.736840125566
aF544.9383213122949
aF488.87359901501026
aF0.0
aF0.0
aF0.0
aF546.0666313881351
aF0.0
aF1205.0526134578556
aF2182.768816863158
aF0.0
aF186.3396124136062
aF2777.7777777777783
asS'Bacteria.Proteobacteria.Alphaproteobacteria.Rhodobacterales.Rhodobacteraceae'
p283
(lp284
F0.0
aF0.0
aF0.0
aF0.0
aF1249.5030385642076
aF0.0
aF0.0
aF0.0
aF0.0
aF0.0
aF0.0
aF0.0
aF0.0
aF0.0
asS'Archaea.Euryarchaeota.Methanobacteria.Methanobacteriales.Methanobacteriaceae'
p285
(lp286
F0.0
aF83.58792823140486
aF461.6356479906701
aF0.0
aF0.0
aF0.0
aF0.0
aF0.0
aF0.0
aF0.0
aF0.0
aF0.0
aF0.0
aF0.0
asS'Bacteria.Firmicutes.Clostridia.Lachnospirales.Defluviitaleaceae'
p287
(lp288
F0.0
aF0.0
aF45.12228138254671
aF1285.5565011135454
aF0.0
aF0.0
aF0.0
aF782.5078532262968
aF0.0
aF215.1879666889028
aF82.488356451224
aF553.937422940157
aF0.0
aF0.0
asS'Bacteria.Firmicutes.Clostridia.Lachnospirales.Lachnospiraceae.Acetatifactor'
p289
(lp290
F0.0
aF0.0
aF0.0
aF0.0
aF0.0
aF0.0
aF0.0
aF337.7731740545166
aF0.0
aF0.0
aF348.9892003705631
aF0.0
aF0.0
aF0.0
asS'Bacteria.Firmicutes.Clostridia.Lachnospirales.Lachnospiraceae.Hungatella'
p291
(lp292
F0.0
aF14398.020637859485
aF0.0
aF0.0
aF0.0
aF0.0
aF0.0
aF0.0
aF0.0
aF0.0
aF0.0
aF0.0
aF0.0
aF0.0
asS'Bacteria.Actinobacteriota.Actinobacteria.Streptomycetales.Streptomycetaceae.Streptomyces'
p293
(lp294
F0.0
aF0.0
aF0.0
aF0.0
aF0.0
aF0.0
aF3503.8542396636303
aF0.0
aF0.0
aF0.0
aF0.0
aF0.0
aF0.0
aF0.0
asS'Bacteria.Firmicutes.Negativicutes.Veillonellales_Selenomonadales'
p295
(lp296
F0.0
aF7619.039658292551
aF1197.4759289983551
aF0.0
aF0.0
aF0.0
aF0.0
aF0.0
aF0.0
aF0.0
aF0.0
aF0.0
aF0.0
aF0.0
asS'Bacteria.Firmicutes.Clostridia.Oscillospirales.UCG_010.UCG_010'
p297
(lp298
F0.0
aF121.20249593553703
aF2231.817456075195
aF651.831465353347
aF0.0
aF0.0
aF0.0
aF4284.089757591451
aF930.5321928349024
aF0.0
aF615.4900442899021
aF0.0
aF321.85933053259254
aF0.0
asS'Bacteria.Bacteroidota.Bacteroidia.Bacteroidales.Bacteroidaceae'
p299
(lp300
F0.0
aF40795.08837333714
aF312.3850249560926
aF2082.2394032120806
aF31123.984778781167
aF4166.47999641593
aF2803.083391730904
aF8990.39598275105
aF14727.46143659855
aF5186.029997202558
aF3293.1889998604042
aF250.16528777942574
aF719.948502507115
aF0.0
asS'Bacteria.Firmicutes.Bacilli.Staphylococcales.Staphylococcaceae.Jeotgalicoccus'
p301
(lp302
F0.0
aF0.0
aF0.0
aF344.022162269822
aF0.0
aF0.0
aF0.0
aF0.0
aF0.0
aF0.0
aF0.0
aF0.0
aF0.0
aF0.0
asS'Bacteria.Proteobacteria.Alphaproteobacteria.Rickettsiales.Mitochondria.Mitochondria'
p303
(lp304
F0.0
aF0.0
aF0.0
aF0.0
aF0.0
aF0.0
aF0.0
aF90.07284641453775
aF0.0
aF0.0
aF0.0
aF0.0
aF0.0
aF0.0
asS'Bacteria.Firmicutes.Clostridia.Oscillospirales.Ruminococcaceae.UBA1819'
p305
(lp306
F0.0
aF5846.975579786769
aF72.8898391564216
aF0.0
aF0.0
aF0.0
aF0.0
aF1519.9792832453247
aF3221.072975197739
aF2022.7668868756862
aF6231.04354116169
aF250.16528777942574
aF220.2195419433528
aF0.0
asS'Bacteria.Firmicutes.Clostridia.Oscillospirales.UCG_010'
p307
(lp308
F0.0
aF121.20249593553703
aF2231.817456075195
aF651.831465353347
aF0.0
aF0.0
aF0.0
aF4284.089757591451
aF930.5321928349024
aF0.0
aF615.4900442899021
aF0.0
aF321.85933053259254
aF0.0
asS'Bacteria.Cyanobacteria.Vampirivibrionia.Gastranaerophilales.Gastranaerophilales.Gastranaerophilales'
p309
(lp310
F0.0
aF0.0
aF111.07023109549958
aF1321.7693602998424
aF0.0
aF0.0
aF0.0
aF4396.680815609624
aF6388.461400808849
aF0.0
aF50.76206550844554
aF0.0
aF0.0
aF1073.2323232323233
asS'Bacteria.Proteobacteria.Gammaproteobacteria.Enterobacterales.Enterobacteriaceae'
p311
(lp312
F11232.633757020396
aF936.1847961917343
aF1690.3500794846343
aF5757.844610621231
aF21411.938433577558
aF12320.236548541729
aF30133.146461107222
aF1784.5682695880294
aF250.52789807093527
aF2582.255600266834
aF2017.7921039607104
aF7647.910226399587
aF7004.675430275106
aF27904.040404040406
asS'Bacteria.Elusimicrobiota.Elusimicrobia'
p313
(lp314
F0.0
aF91.94672105454534
aF190.9019596953899
aF0.0
aF0.0
aF0.0
aF0.0
aF0.0
aF0.0
aF0.0
aF0.0
aF0.0
aF0.0
aF0.0
asS'Bacteria.Proteobacteria.Alphaproteobacteria.Rhodobacterales.Rhodobacteraceae.Rubellimicrobium'
p315
(lp316
F0.0
aF0.0
aF0.0
aF0.0
aF1249.5030385642076
aF0.0
aF0.0
aF0.0
aF0.0
aF0.0
aF0.0
aF0.0
aF0.0
aF0.0
asS'Bacteria.Proteobacteria.Gammaproteobacteria.Pasteurellales.Pasteurellaceae'
p317
(lp318
F0.0
aF1391.739005052891
aF666.4213865729974
aF0.0
aF0.0
aF672.0129026477307
aF0.0
aF0.0
aF0.0
aF1205.0526134578556
aF285.5366184850061
aF0.0
aF0.0
aF0.0
asS'Bacteria.Firmicutes.Bacilli.Acholeplasmatales.Acholeplasmataceae'
p319
(lp320
F0.0
aF0.0
aF0.0
aF253.49001430407938
aF0.0
aF0.0
aF0.0
aF0.0
aF214.73819834651596
aF0.0
aF0.0
aF0.0
aF0.0
aF1704.5454545454547
asS'Bacteria.Elusimicrobiota.Elusimicrobia.Elusimicrobiales.Elusimicrobiaceae.Elusimicrobium'
p321
(lp322
F0.0
aF91.94672105454534
aF190.9019596953899
aF0.0
aF0.0
aF0.0
aF0.0
aF0.0
aF0.0
aF0.0
aF0.0
aF0.0
aF0.0
aF0.0
asS'Bacteria.Firmicutes.Bacilli.Staphylococcales.Staphylococcaceae'
p323
(lp324
F0.0
aF0.0
aF76.36078387815597
aF905.3214796574264
aF1931.0501505083207
aF0.0
aF0.0
aF0.0
aF0.0
aF0.0
aF0.0
aF0.0
aF0.0
aF0.0
asS'Bacteria.Chloroflexi.Anaerolineae.Anaerolineales'
p325
(lp326
F0.0
aF0.0
aF0.0
aF0.0
aF454.36474129607547
aF0.0
aF0.0
aF0.0
aF0.0
aF0.0
aF0.0
aF0.0
aF0.0
aF0.0
asS'Bacteria.Firmicutes.Clostridia.Monoglobales.Monoglobaceae'
p327
(lp328
F23056.458764410287
aF0.0
aF2276.9397374577416
aF11533.795650835613
aF14312.489350826378
aF30330.182339500912
aF7358.093903293623
aF168.8865870272583
aF0.0
aF2087.3232768823573
aF0.0
aF196.5584403981202
aF67.75985905949317
aF35353.53535353536
asS'Bacteria.Firmicutes.Clostridia.Oscillospirales.Butyricicoccaceae.uncultured'
p329
(lp330
F0.0
aF0.0
aF0.0
aF8473.80904959351
aF0.0
aF7212.938488418976
aF0.0
aF0.0
aF0.0
aF0.0
aF0.0
aF0.0
aF0.0
aF0.0
asS'Bacteria.Cyanobacteria.Cyanobacteriia'
p331
(lp332
F0.0
aF0.0
aF0.0
aF0.0
aF454.36474129607547
aF0.0
aF0.0
aF0.0
aF0.0
aF0.0
aF0.0
aF0.0
aF0.0
aF0.0
asS'Bacteria.Chloroflexi.Anaerolineae.Anaerolineales.Anaerolineaceae'
p333
(lp334
F0.0
aF0.0
aF0.0
aF0.0
aF454.36474129607547
aF0.0
aF0.0
aF0.0
aF0.0
aF0.0
aF0.0
aF0.0
aF0.0
aF0.0
asS'Bacteria.Elusimicrobiota.Elusimicrobia.Elusimicrobiales.Elusimicrobiaceae'
p335
(lp336
F0.0
aF91.94672105454534
aF190.9019596953899
aF0.0
aF0.0
aF0.0
aF0.0
aF0.0
aF0.0
aF0.0
aF0.0
aF0.0
aF0.0
aF0.0
asS'Bacteria.Firmicutes.Bacilli.Lactobacillales.Lactobacillaceae'
p337
(lp338
F388117.0558675732
aF9140.33995210412
aF14768.86979097971
aF5450.035307537707
aF13687.737831544275
aF4704.090318534115
aF0.0
aF42756.4542824009
aF50535.056010880086
aF266058.4020141594
aF1294.4326704653613
aF25802.762539535055
aF59679.49586664861
aF130744.94949494951
asS'Bacteria.Firmicutes.Bacilli.Izemoplasmatales'
p339
(lp340
F0.0
aF0.0
aF0.0
aF0.0
aF0.0
aF0.0
aF0.0
aF236.4412218381616
aF0.0
aF0.0
aF0.0
aF0.0
aF0.0
aF0.0
asS'Bacteria.Chloroflexi'
p341
(lp342
F0.0
aF0.0
aF0.0
aF0.0
aF454.36474129607547
aF0.0
aF0.0
aF0.0
aF0.0
aF0.0
aF0.0
aF0.0
aF0.0
aF0.0
asS'Bacteria.Firmicutes.Clostridia.Clostridia_UCG_014.Clostridia_UCG_014.Clostridia_UCG_014'
p343
(lp344
F80402.01005025125
aF8.358792823140485
aF175754.75692974115
aF335222.4374875518
aF128528.42619412734
aF97441.87088392096
aF74632.09530483533
aF70588.96382449307
aF52127.69764861675
aF71270.25456736461
aF92482.13809819921
aF220270.53588978437
aF53835.20802276732
aF166224.74747474748
asS'Bacteria.Firmicutes.Negativicutes.Veillonellales_Selenomonadales.Selenomonadaceae'
p345
(lp346
F0.0
aF7096.615106846272
aF1044.7543612420432
aF0.0
aF0.0
aF0.0
aF0.0
aF0.0
aF0.0
aF0.0
aF0.0
aF0.0
aF0.0
aF0.0
asS'Bacteria.Firmicutes.Clostridia.Peptococcales.Peptococcaceae'
p347
(lp348
F0.0
aF0.0
aF236.0242410779366
aF778.5764725053867
aF0.0
aF851.2163433537921
aF0.0
aF6851.165880405779
aF2791.5965785047074
aF516.4511200533667
aF1072.348633865912
aF0.0
aF482.78899579888883
aF1325.757575757576
asS'Bacteria.Proteobacteria.Alphaproteobacteria.Rickettsiales.Mitochondria'
p349
(lp350
F0.0
aF0.0
aF0.0
aF0.0
aF0.0
aF0.0
aF0.0
aF90.07284641453775
aF0.0
aF0.0
aF0.0
aF0.0
aF0.0
aF0.0
asS'Bacteria.Firmicutes.Clostridia.Lachnospirales.Lachnospiraceae._Eubacterium__xylanophilum_group'
p351
(lp352
F0.0
aF0.0
aF8597.530075736015
aF3585.0730594434085
aF1476.6854092122453
aF0.0
aF10511.56271899089
aF17333.39338189761
aF3578.9699724419324
aF40304.7061608315
aF22208.403659944925
aF964.9232528634993
aF4692.370239869902
aF2840.9090909090914
asS'Archaea.Euryarchaeota.Methanobacteria.Methanobacteriales.Methanobacteriaceae.Methanosphaera'
p353
(lp354
F0.0
aF83.58792823140486
aF461.6356479906701
aF0.0
aF0.0
aF0.0
aF0.0
aF0.0
aF0.0
aF0.0
aF0.0
aF0.0
aF0.0
aF0.0
asS'Bacteria.Proteobacteria.Gammaproteobacteria.Pasteurellales.Pasteurellaceae.Rodentibacter'
p355
(lp356
F0.0
aF1391.739005052891
aF666.4213865729974
aF0.0
aF0.0
aF672.0129026477307
aF0.0
aF0.0
aF0.0
aF1205.0526134578556
aF285.5366184850061
aF0.0
aF0.0
aF0.0
asS'Bacteria.Bacteroidota'
p357
(lp358
F193023.94324563997
aF769000.5809361015
aF519301.92359756486
aF89137.9528870702
aF507809.3939910264
aF116079.02871735136
aF87946.74141555712
aF556002.7922582389
aF697237.035181275
aF184459.1250457275
aF256817.97992360312
aF16796.812179475728
aF12916.723133215888
aF9469.696969696972
asS'Bacteria.Firmicutes.Clostridia.Eubacteriales.Anaerofustaceae'
p359
(lp360
F0.0
aF0.0
aF0.0
aF0.0
aF0.0
aF1702.4326867075843
aF0.0
aF0.0
aF0.0
aF0.0
aF0.0
aF357.3789825420368
aF0.0
aF0.0
asS'Bacteria.Elusimicrobiota'
p361
(lp362
F0.0
aF91.94672105454534
aF190.9019596953899
aF0.0
aF0.0
aF0.0
aF0.0
aF0.0
aF0.0
aF0.0
aF0.0
aF0.0
aF0.0
aF0.0
asS'Bacteria.Actinobacteriota.Coriobacteriia.Coriobacteriales.Atopobiaceae.Coriobacteriaceae_UCG_002'
p363
(lp364
F0.0
aF41.79396411570243
aF767.0787835032941
aF3566.9666298502602
aF681.5471119441132
aF13037.050311365974
aF5606.166783461808
aF281.4776450454305
aF0.0
aF0.0
aF8305.942968819401
aF3716.7414184371823
aF3845.3720016262373
aF0.0
asS'Bacteria.Proteobacteria.Gammaproteobacteria.Pseudomonadales.Pseudomonadaceae'
p365
(lp366
F0.0
aF0.0
aF572.7058790861697
aF1629.5786633833673
aF0.0
aF2105.640428296223
aF15066.573230553611
aF0.0
aF0.0
aF0.0
aF272.84610210789475
aF1876.239658345693
aF457.3790486515789
aF5997.474747474747
asS'Bacteria.Desulfobacterota.Desulfovibrionia.Desulfovibrionales.Desulfovibrionaceae.uncultured'
p367
(lp368
F0.0
aF2624.6609464661124
aF208.2566833040617
aF0.0
aF0.0
aF0.0
aF0.0
aF0.0
aF0.0
aF0.0
aF0.0
aF0.0
aF0.0
aF0.0
asS'Bacteria.Bacteroidota.Bacteroidia.Bacteroidales.Muribaculaceae'
p369
(lp370
F146615.43009163463
aF397891.0765707218
aF491405.9408689858
aF78726.7558710098
aF462372.91986141884
aF82567.98530531785
aF67974.77224947442
aF534841.3029037233
aF566980.423034251
aF166512.448623873
aF237039.810149875
aF15635.33048621411
aF11612.345846320643
aF8838.38383838384
asS'Bacteria.Proteobacteria.Alphaproteobacteria.Rhizobiales.Rhizobiaceae.uncultured'
p371
(lp372
F0.0
aF0.0
aF59.00606026948416
aF0.0
aF0.0
aF0.0
aF0.0
aF0.0
aF0.0
aF0.0
aF0.0
aF0.0
aF0.0
aF0.0
asS'Bacteria.Proteobacteria.Gammaproteobacteria.Pseudomonadales.Pseudomonadaceae.Pseudomonas'
p373
(lp374
F0.0
aF0.0
aF572.7058790861697
aF1629.5786633833673
aF0.0
aF2105.640428296223
aF15066.573230553611
aF0.0
aF0.0
aF0.0
aF272.84610210789475
aF1876.239658345693
aF457.3790486515789
aF5997.474747474747
asS'Bacteria.Firmicutes.Clostridia'
p375
(lp376
F393733.3727460833
aF185661.3267911849
aF348378.72172047786
aF826793.8945119412
aF314022.83182825014
aF656556.6058868328
aF596355.9915907499
aF357020.61542272306
aF234565.69199384426
aF492457.66176755406
aF618853.0311298369
aF819094.7590372212
aF771852.5545466866
aF606755.0505050506
asS'Bacteria.Firmicutes.Clostridia.Clostridia.Hungateiclostridiaceae.Ruminiclostridium'
p377
(lp378
F0.0
aF0.0
aF0.0
aF0.0
aF0.0
aF0.0
aF0.0
aF0.0
aF0.0
aF0.0
aF57.107323697001235
aF0.0
aF0.0
aF0.0
asS'Bacteria.Firmicutes.Clostridia.Lachnospirales.Lachnospiraceae.GCA_900066575'
p379
(lp380
F0.0
aF0.0
aF354.0363616169049
aF851.0021908779808
aF0.0
aF0.0
aF0.0
aF731.8418771181192
aF0.0
aF0.0
aF8179.037805048287
aF0.0
aF228.68952432578945
aF0.0
asS'Bacteria.Campilobacterota.Campylobacteria'
p381
(lp382
F0.0
aF639.4476509702471
aF458.1647032689358
aF2299.516558329863
aF0.0
aF0.0
aF0.0
aF0.0
aF0.0
aF193.66917002001253
aF0.0
aF0.0
aF0.0
aF0.0
asS'Bacteria.Actinobacteriota.Actinobacteria.Micrococcales'
p383
(lp384
F0.0
aF121.20249593553703
aF128.4249547041714
aF633.7250357601985
aF0.0
aF0.0
aF0.0
aF90.07284641453775
aF0.0
aF0.0
aF0.0
aF0.0
aF0.0
aF1767.676767676768
asS'Bacteria.Firmicutes.Bacilli.Erysipelotrichales.Erysipelotrichaceae'
p385
(lp386
F0.0
aF6862.568907798339
aF70057.54826348636
aF11135.454199786345
aF49582.55239393424
aF29613.368576676665
aF71478.62648913806
aF9902.383552698246
aF1556.8519380122407
aF172.15037335112225
aF14898.666226728765
aF93168.70074870899
aF110109.7709716764
aF103472.22222222223
asS'Bacteria.Cyanobacteria.Cyanobacteriia.Chloroplast'
p387
(lp388
F0.0
aF0.0
aF0.0
aF0.0
aF454.36474129607547
aF0.0
aF0.0
aF0.0
aF0.0
aF0.0
aF0.0
aF0.0
aF0.0
aF0.0
asS'Bacteria.Actinobacteriota'
p389
(lp390
F0.0
aF593.4742904429744
aF4137.366108307359
aF22397.653406724727
aF21582.325211563584
aF103893.19474933918
aF37841.625788367215
aF3698.6162558969572
aF1556.8519380122407
aF5444.255557229241
aF12094.062107387148
aF19352.07190465129
aF17388.873831142435
aF26136.36363636364
asS'Bacteria.Bacteroidota.Bacteroidia.Bacteroidales.Marinifilaceae.Butyricimonas'
p391
(lp392
F0.0
aF351.0692985719004
aF0.0
aF0.0
aF0.0
aF0.0
aF0.0
aF0.0
aF0.0
aF0.0
aF0.0
aF0.0
aF0.0
aF0.0
asS'Bacteria.Actinobacteriota.Coriobacteriia.Coriobacteriales.Eggerthellaceae.Enterorhabdus'
p393
(lp394
F0.0
aF0.0
aF468.5775374341389
aF1919.281536873744
aF4714.034190946783
aF1299.224945118946
aF0.0
aF0.0
aF214.73819834651596
aF365.8195433711348
aF755.0857244381274
aF3984.7756553437102
aF2278.4252608754578
aF14141.414141414143
asS'Bacteria.Firmicutes.Clostridia.Lachnospirales.Lachnospiraceae._Bacteroides__pectinophilus_group'
p395
(lp396
F4729.530002955957
aF0.0
aF1173.1793159462143
aF0.0
aF0.0
aF0.0
aF0.0
aF0.0
aF0.0
aF817.7142734178307
aF2868.056701227173
aF0.0
aF0.0
aF820.7070707070708
asS'Bacteria.Proteobacteria.Gammaproteobacteria.Burkholderiales'
p397
(lp398
F0.0
aF5566.956020211564
aF2662.214601570255
aF5268.9710116062215
aF8916.908047935482
aF13485.05891313113
aF18570.427470217244
aF3405.8795050497088
aF2218.961382913998
aF430.3759333778056
aF1059.6581174888006
aF2394.4391830316467
aF2210.6654018159647
aF20517.67676767677
asS'Bacteria.Firmicutes.Clostridia.Peptostreptococcales_Tissierellales.Anaerovoracaceae'
p399
(lp400
F0.0
aF0.0
aF0.0
aF488.87359901501026
aF0.0
aF0.0
aF0.0
aF118.2206109190808
aF0.0
aF1032.9022401067334
aF0.0
aF804.1027107195828
aF347.26927767990253
aF1893.9393939393942
asS'Bacteria.Firmicutes'
p401
(lp402
F792787.4667454923
aF215957.77137865764
aF443260.46663380833
aF856705.7161998226
aF393877.4351110354
aF694189.3284351057
aF667834.6180798879
aF422109.5060630285
aF291882.8961025018
aF786834.8001979731
aF637381.1850404196
aF944856.4229937638
aF949908.52419027
aF889141.4141414142
asS'Bacteria.Firmicutes.Clostridia.Oscillospirales.Ruminococcaceae.Ruminococcus'
p403
(lp404
F11232.633757020396
aF2031.1866560231379
aF39370.92597863287
aF11171.66705897264
aF11472.709717725906
aF10080.19353971596
aF4555.010511562719
aF13904.995665244265
aF14297.985039905521
aF19990.96210539907
aF11713.346616073808
aF26785.554741525655
aF30661.336224420662
aF15782.828282828286
asS'Bacteria.Firmicutes.Clostridia.Monoglobales.Monoglobaceae.Monoglobus'
p405
(lp406
F23056.458764410287
aF0.0
aF2276.9397374577416
aF11533.795650835613
aF14312.489350826378
aF30330.182339500912
aF7358.093903293623
aF168.8865870272583
aF0.0
aF2087.3232768823573
aF0.0
aF196.5584403981202
aF67.75985905949317
aF35353.53535353536
asS'Bacteria.Proteobacteria'
p407
(lp408
F11232.633757020396
aF9909.348891833046
aF5869.367524452806
aF12656.394285610819
aF31578.34952007724
aF29478.96599614712
aF63770.14716187807
aF5483.184525484986
aF2469.4892809849334
aF4217.684147102495
aF3718.321298493636
aF12061.54066079374
aF9808.239598861635
aF58396.46464646466
asS'Bacteria.Proteobacteria.Gammaproteobacteria.Burkholderiales.Alcaligenaceae.Alcaligenes'
p409
(lp410
F0.0
aF0.0
aF0.0
aF0.0
aF0.0
aF0.0
aF0.0
aF0.0
aF0.0
aF0.0
aF0.0
aF250.16528777942574
aF0.0
aF0.0
asS'Bacteria.Firmicutes.Clostridia.Oscillospirales'
p411
(lp412
F0.0
aF0.0
aF0.0
aF325.9157326766735
aF0.0
aF0.0
aF0.0
aF0.0
aF0.0
aF0.0
aF0.0
aF0.0
aF0.0
aF0.0
asS'Bacteria.Actinobacteriota.Coriobacteriia.Coriobacteriales.Atopobiaceae'
p413
(lp414
F0.0
aF41.79396411570243
aF767.0787835032941
aF3566.9666298502602
aF681.5471119441132
aF13037.050311365974
aF5606.166783461808
aF281.4776450454305
aF0.0
aF0.0
aF8305.942968819401
aF3716.7414184371823
aF3845.3720016262373
aF0.0
asS'Bacteria.Proteobacteria.Gammaproteobacteria.Burkholderiales.Comamonadaceae'
p415
(lp416
F0.0
aF0.0
aF513.6998188166856
aF2245.197269550418
aF2839.779633100472
aF761.6146230007614
aF8409.250175192714
aF0.0
aF0.0
aF0.0
aF0.0
aF0.0
aF160.92966526629627
aF14583.333333333336
asS'Bacteria.Firmicutes.Bacilli.Erysipelotrichales.Erysipelatoclostridiaceae'
p417
(lp418
F0.0
aF3936.991419699168
aF20.82566833040617
aF6898.549674989589
aF0.0
aF0.0
aF0.0
aF242.0707747390702
aF214.73819834651596
aF494.93232338447643
aF0.0
aF0.0
aF0.0
aF2272.727272727273
asS'Bacteria.Firmicutes.Clostridia.Lachnospirales.Lachnospiraceae.ASF356'
p419
(lp420
F0.0
aF0.0
aF0.0
aF0.0
aF0.0
aF0.0
aF0.0
aF151.99792832453247
aF0.0
aF0.0
aF0.0
aF0.0
aF0.0
aF0.0
asS'Bacteria.Firmicutes.Bacilli.Acholeplasmatales.Acholeplasmataceae.Anaeroplasma'
p421
(lp422
F0.0
aF0.0
aF0.0
aF253.49001430407938
aF0.0
aF0.0
aF0.0
aF0.0
aF214.73819834651596
aF0.0
aF0.0
aF0.0
aF0.0
aF1704.5454545454547
asS'Bacteria.Actinobacteriota.Coriobacteriia.Coriobacteriales.Eggerthellaceae'
p423
(lp424
F0.0
aF430.477830391735
aF732.3693362859505
aF10465.516304839848
aF4714.034190946783
aF6406.523005241699
aF16117.7295024527
aF354.66183275724245
aF214.73819834651596
aF4820.2104538314225
aF1814.743841926928
aF9434.805139109772
aF6496.476487328908
aF17613.636363636368
asS'Bacteria.Firmicutes.Bacilli.Lactobacillales.Enterococcaceae'
p425
(lp426
F0.0
aF79.40853181983461
aF0.0
aF0.0
aF0.0
aF0.0
aF0.0
aF0.0
aF0.0
aF0.0
aF0.0
aF0.0
aF0.0
aF0.0
asS'Bacteria.Firmicutes.Clostridia.Lachnospirales.Lachnospiraceae._Eubacterium__ruminantium_group'
p427
(lp428
F0.0
aF0.0
aF0.0
aF0.0
aF0.0
aF0.0
aF0.0
aF0.0
aF0.0
aF98147.23160680858
aF50152.92072234419
aF14366.63509818988
aF18532.321452771383
aF0.0
asS'Bacteria.Firmicutes.Clostridia.Christensenellales'
p429
(lp430
F0.0
aF0.0
aF2887.8260084829894
aF13851.418638758623
aF21298.347248253536
aF1568.0301061780383
aF0.0
aF3996.982559645113
aF1932.6437851186436
aF1334.1653934711974
aF4784.324674170992
aF786.2337615924808
aF525.1389077110721
aF177588.38383838386
asS'Bacteria.Proteobacteria.Gammaproteobacteria.Burkholderiales.Sutterellaceae.Parasutterella'
p431
(lp432
F0.0
aF5395.600767337183
aF1596.6345719978065
aF470.7671694218617
aF0.0
aF8019.353971596252
aF0.0
aF3327.065764436988
aF2218.961382913998
aF430.3759333778056
aF107.86938920544677
aF0.0
aF0.0
aF0.0
asS'Bacteria.Firmicutes.Clostridia.uncultured.uncultured.uncultured'
p433
(lp434
F0.0
aF0.0
aF114.54117581723395
aF597.5121765739013
aF0.0
aF716.813762824246
aF0.0
aF0.0
aF0.0
aF0.0
aF0.0
aF0.0
aF186.3396124136062
aF0.0
asS'Bacteria.Bacteroidota.Bacteroidia.Bacteroidales.Prevotellaceae.Prevotellaceae_Ga6A1_group'
p435
(lp436
F0.0
aF20445.60724540163
aF0.0
aF0.0
aF0.0
aF0.0
aF0.0
aF0.0
aF0.0
aF0.0
aF0.0
aF0.0
aF0.0
aF0.0
asS'Bacteria.Proteobacteria.Gammaproteobacteria.Burkholderiales.Comamonadaceae.Comamonas'
p437
(lp438
F0.0
aF0.0
aF0.0
aF325.9157326766735
aF0.0
aF0.0
aF0.0
aF0.0
aF0.0
aF0.0
aF0.0
aF0.0
aF0.0
aF1641.4141414141416
asS'Bacteria.Acidobacteriota'
p439
(lp440
F0.0
aF0.0
aF0.0
aF0.0
aF681.5471119441132
aF0.0
aF0.0
aF0.0
aF0.0
aF0.0
aF0.0
aF0.0
aF0.0
aF0.0
asS'Bacteria.Proteobacteria.Gammaproteobacteria.Burkholderiales.Sutterellaceae'
p441
(lp442
F0.0
aF5395.600767337183
aF1596.6345719978065
aF470.7671694218617
aF0.0
aF8019.353971596252
aF0.0
aF3327.065764436988
aF2218.961382913998
aF430.3759333778056
aF107.86938920544677
aF0.0
aF0.0
aF0.0
asS'Bacteria.Chloroflexi.Anaerolineae'
p443
(lp444
F0.0
aF0.0
aF0.0
aF0.0
aF454.36474129607547
aF0.0
aF0.0
aF0.0
aF0.0
aF0.0
aF0.0
aF0.0
aF0.0
aF0.0
asS'Bacteria.Firmicutes.Clostridia.Oscillospirales.Ruminococcaceae._Eubacterium__siraeum_group'
p445
(lp446
F0.0
aF0.0
aF3727.794631142705
aF235.38358471093085
aF23399.784176747886
aF1568.0301061780383
aF0.0
aF0.0
aF0.0
aF17042.8869617611
aF0.0
aF0.0
aF0.0
aF0.0
asS'Bacteria.Firmicutes.Clostridia.Lachnospirales.Lachnospiraceae.Fusicatenibacter'
p447
(lp448
F0.0
aF0.0
aF0.0
aF189284.6149667747
aF0.0
aF188342.81618207064
aF159425.3679046952
aF0.0
aF0.0
aF0.0
aF0.0
aF0.0
aF0.0
aF0.0
asS'Bacteria.Bacteroidota.Bacteroidia.Bacteroidales.Prevotellaceae.Prevotella'
p449
(lp450
F0.0
aF130384.62985175685
aF780.9625623902315
aF597.5121765739013
aF0.0
aF0.0
aF0.0
aF0.0
aF0.0
aF0.0
aF0.0
aF0.0
aF0.0
aF0.0
asS'Bacteria.Firmicutes.Clostridia.Clostridia'
p451
(lp452
F0.0
aF0.0
aF76.36078387815597
aF0.0
aF0.0
aF0.0
aF0.0
aF112.59105801817219
aF0.0
aF0.0
aF57.107323697001235
aF0.0
aF0.0
aF0.0
asS'Bacteria.Firmicutes.Bacilli.Erysipelotrichales.Erysipelotrichaceae.Turicibacter'
p453
(lp454
F0.0
aF2892.142316806608
aF8958.50832679639
aF4055.84022886527
aF9598.455159879593
aF1075.220644236369
aF3854.2396636299936
aF8095.297071506581
aF787.3733939372252
aF0.0
aF4498.7880556859855
aF88433.429230027
aF107196.0970321182
aF67992.42424242425
asS'Bacteria.Acidobacteriota.Acidobacteriae.Bryobacterales.Bryobacteraceae'
p455
(lp456
F0.0
aF0.0
aF0.0
aF0.0
aF681.5471119441132
aF0.0
aF0.0
aF0.0
aF0.0
aF0.0
aF0.0
aF0.0
aF0.0
aF0.0
asS'Bacteria.Actinobacteriota.Actinobacteria.Pseudonocardiales.Pseudonocardiaceae'
p457
(lp458
F0.0
aF0.0
aF0.0
aF0.0
aF0.0
aF32122.21674656153
aF5255.781359495445
aF0.0
aF0.0
aF0.0
aF0.0
aF0.0
aF101.63978858923976
aF0.0
asS'Bacteria.Firmicutes.Bacilli.Lactobacillales.Streptococcaceae.Streptococcus'
p459
(lp460
F0.0
aF894.3908320760319
aF787.9044518337001
aF995.853627623169
aF0.0
aF627.2120424712153
aF0.0
aF180.1456928290755
aF0.0
aF0.0
aF0.0
aF0.0
aF0.0
aF4356.060606060607
asS'Bacteria.Actinobacteriota.Actinobacteria.Pseudonocardiales.Pseudonocardiaceae.Pseudonocardia'
p461
(lp462
F0.0
aF0.0
aF0.0
aF0.0
aF0.0
aF0.0
aF5255.781359495445
aF0.0
aF0.0
aF0.0
aF0.0
aF0.0
aF0.0
aF0.0
asS'Bacteria.Firmicutes.Bacilli.Lactobacillales.Streptococcaceae'
p463
(lp464
F0.0
aF894.3908320760319
aF787.9044518337001
aF995.853627623169
aF0.0
aF627.2120424712153
aF0.0
aF180.1456928290755
aF0.0
aF0.0
aF0.0
aF0.0
aF0.0
aF4356.060606060607
asS'Bacteria.Bacteroidota.Bacteroidia.Bacteroidales.Prevotellaceae'
p465
(lp466
F0.0
aF4350.751664444622
aF1197.475928998355
aF0.0
aF0.0
aF0.0
aF0.0
aF0.0
aF0.0
aF0.0
aF0.0
aF0.0
aF0.0
aF0.0
asS'Bacteria.Proteobacteria.Gammaproteobacteria.Burkholderiales.Alcaligenaceae'
p467
(lp468
F0.0
aF0.0
aF284.6174671822177
aF0.0
aF0.0
aF896.0172035303076
aF0.0
aF0.0
aF0.0
aF0.0
aF158.6314547138923
aF250.16528777942574
aF177.86963003116958
aF0.0
asS'Bacteria.Firmicutes.Clostridia.Lachnospirales.Lachnospiraceae.Robinsoniella'
p469
(lp470
F0.0
aF117.02309952396679
aF0.0
aF0.0
aF0.0
aF0.0
aF0.0
aF0.0
aF0.0
aF0.0
aF0.0
aF0.0
aF0.0
aF0.0
asS'Bacteria.Firmicutes.Bacilli.Lactobacillales.Enterococcaceae.Enterococcus'
p471
(lp472
F0.0
aF79.40853181983461
aF0.0
aF0.0
aF0.0
aF0.0
aF0.0
aF0.0
aF0.0
aF0.0
aF0.0
aF0.0
aF0.0
aF0.0
asS'Bacteria.Firmicutes.Bacilli.Exiguobacterales'
p473
(lp474
F0.0
aF0.0
aF0.0
aF0.0
aF0.0
aF716.813762824246
aF0.0
aF0.0
aF0.0
aF0.0
aF0.0
aF0.0
aF0.0
aF0.0
asS'Bacteria.Firmicutes.Clostridia.Eubacteriales'
p475
(lp476
F0.0
aF91.94672105454534
aF0.0
aF0.0
aF0.0
aF1702.4326867075843
aF0.0
aF0.0
aF0.0
aF0.0
aF0.0
aF357.3789825420368
aF0.0
aF0.0
asS'Bacteria.Firmicutes.Clostridia.Oscillospirales.Ruminococcaceae.Incertae_Sedis'
p477
(lp478
F19509.31126219332
aF631.0888581471065
aF1721.5885819802436
aF19265.241087110033
aF8632.930084625435
aF1971.2378477666766
aF0.0
aF1401.7586723262439
aF322.1072975197739
aF2797.4435669557365
aF18889.833627330296
aF160.82054214391655
aF160.92966526629627
aF18813.131313131315
asS'Bacteria.Firmicutes.Clostridia.Peptostreptococcales_Tissierellales.Peptostreptococcaceae.Romboutsia'
p479
(lp480
F0.0
aF5052.890261588423
aF7542.362880328768
aF25294.68214162849
aF7042.65349008917
aF5107.298060122754
aF5255.781359495445
aF10347.118231870025
aF1914.748935256434
aF0.0
aF9803.423901318545
aF200882.72608687886
aF235719.60970321187
aF50883.83838383839
asS'Bacteria.Firmicutes.Bacilli.Erysipelotrichales.Erysipelatoclostridiaceae.Coprobacillus'
p481
(lp482
F0.0
aF3280.82618308264
aF0.0
aF0.0
aF0.0
aF0.0
aF0.0
aF0.0
aF0.0
aF0.0
aF0.0
aF0.0
aF0.0
aF0.0
asS'Bacteria.Proteobacteria.Alphaproteobacteria.Rhodospirillales.uncultured'
p483
(lp484
F0.0
aF1776.243474917353
aF0.0
aF0.0
aF0.0
aF0.0
aF0.0
aF174.5161399281669
aF0.0
aF0.0
aF0.0
aF0.0
aF0.0
aF0.0
asS'Bacteria.Proteobacteria.Gammaproteobacteria.Pasteurellales'
p485
(lp486
F0.0
aF1391.739005052891
aF666.4213865729974
aF0.0
aF0.0
aF672.0129026477307
aF0.0
aF0.0
aF0.0
aF1205.0526134578556
aF285.5366184850061
aF0.0
aF0.0
aF0.0
asS'Bacteria.Proteobacteria.Gammaproteobacteria.Burkholderiales.Burkholderiaceae'
p487
(lp488
F0.0
aF171.35525287437994
aF267.26274357354583
aF2553.0065726339426
aF6077.12841483501
aF3808.0731150038073
aF10161.177295024529
aF78.81374061272055
aF0.0
aF0.0
aF793.1572735694615
aF2144.273895252221
aF1871.866106518499
aF5934.343434343435
asS'Bacteria.Firmicutes.Bacilli'
p489
(lp490
F10937.03813183565
aF1721.91132156694
aF1756.298029197587
aF561.2993173876044
aF738.3427046061227
aF851.2163433537921
aF0.0
aF6845.536327504869
aF3936.866969686126
aF3378.451077015774
aF0.0
aF1090.005896753212
aF1262.0273749830603
aF27967.17171717172
asS'Bacteria.Acidobacteriota.Acidobacteriae'
p491
(lp492
F0.0
aF0.0
aF0.0
aF0.0
aF681.5471119441132
aF0.0
aF0.0
aF0.0
aF0.0
aF0.0
aF0.0
aF0.0
aF0.0
aF0.0
asS'Archaea.Euryarchaeota'
p493
(lp494
F0.0
aF83.58792823140486
aF461.6356479906701
aF0.0
aF0.0
aF0.0
aF0.0
aF0.0
aF0.0
aF0.0
aF0.0
aF0.0
aF0.0
aF0.0
asS'Bacteria.Firmicutes.Clostridia.Oscillospirales.Ruminococcaceae.Negativibacillus'
p495
(lp496
F0.0
aF0.0
aF0.0
aF669.9378949464955
aF0.0
aF0.0
aF0.0
aF0.0
aF0.0
aF0.0
aF0.0
aF0.0
aF0.0
aF0.0
asS'Bacteria.Proteobacteria.Gammaproteobacteria.Enterobacterales.Morganellaceae.Proteus'
p497
(lp498
F0.0
aF238.2255954595038
aF0.0
aF0.0
aF0.0
aF0.0
aF0.0
aF0.0
aF0.0
aF0.0
aF0.0
aF0.0
aF0.0
aF0.0
asS'Bacteria.Verrucomicrobiota.Verrucomicrobiae'
p499
(lp500
F0.0
aF0.0
aF0.0
aF1068.2793459957632
aF908.7294825921509
aF55508.26575870255
aF142606.86755430975
aF7909.521825776597
aF465.2660964174512
aF16698.58621505886
aF87133.08544524678
aF5342.81578900345
aF6149.207209649006
aF0.0
asS'Bacteria.Bacteroidota.Bacteroidia.Flavobacteriales'
p501
(lp502
F0.0
aF0.0
aF0.0
aF253.49001430407938
aF0.0
aF0.0
aF0.0
aF0.0
aF0.0
aF0.0
aF0.0
aF0.0
aF0.0
aF0.0
asS'Bacteria.Firmicutes.Clostridia.Peptostreptococcales_Tissierellales.Anaerovoracaceae._Eubacterium__nodatum_group'
p503
(lp504
F0.0
aF0.0
aF478.9903715993419
aF416.4478806424161
aF0.0
aF0.0
aF0.0
aF0.0
aF0.0
aF1334.1653934711974
aF0.0
aF0.0
aF0.0
aF0.0
asS'Bacteria.Firmicutes.Clostridia.Oscillospirales.Oscillospiraceae.Papillibacter'
p505
(lp506
F0.0
aF0.0
aF177.01818080845246
aF0.0
aF0.0
aF0.0
aF0.0
aF1277.9085085062543
aF1055.79614187037
aF5164.511200533668
aF3838.881204076194
aF1375.9090827868415
aF389.6191895920857
aF0.0
asS'Bacteria.Firmicutes.Clostridia.Lachnospirales.Lachnospiraceae.Eisenbergiella'
p507
(lp508
F0.0
aF1914.163556499171
aF0.0
aF506.98002860815876
aF0.0
aF0.0
aF0.0
aF0.0
aF0.0
aF0.0
aF0.0
aF0.0
aF0.0
aF0.0
asS'Bacteria.Firmicutes.Bacilli.Izemoplasmatales.Izemoplasmatales'
p509
(lp510
F0.0
aF0.0
aF0.0
aF0.0
aF0.0
aF0.0
aF0.0
aF236.4412218381616
aF0.0
aF0.0
aF0.0
aF0.0
aF0.0
aF0.0
asS'Bacteria.Bacteroidota.Bacteroidia.Bacteroidales.Rikenellaceae.Rikenella'
p511
(lp512
F0.0
aF430.477830391735
aF0.0
aF0.0
aF0.0
aF0.0
aF0.0
aF0.0
aF0.0
aF0.0
aF0.0
aF0.0
aF0.0
aF0.0
asS'Bacteria.Proteobacteria.Alphaproteobacteria.Sphingomonadales'
p513
(lp514
F0.0
aF0.0
aF65.94794971295289
aF0.0
aF0.0
aF0.0
aF0.0
aF0.0
aF0.0
aF0.0
aF0.0
aF0.0
aF0.0
aF0.0
asS'Bacteria.Deferribacterota.Deferribacteres.Deferribacterales.Deferribacteraceae'
p515
(lp516
F0.0
aF0.0
aF0.0
aF0.0
aF0.0
aF0.0
aF0.0
aF67.55463481090332
aF0.0
aF0.0
aF0.0
aF410.98582992334235
aF0.0
aF0.0
asS'Bacteria.Firmicutes.Bacilli.Bacillales.Bacillaceae.Bacillus'
p517
(lp518
F0.0
aF0.0
aF79.83172859989033
aF0.0
aF0.0
aF0.0
aF0.0
aF0.0
aF0.0
aF0.0
aF0.0
aF0.0
aF0.0
aF0.0
asS'Bacteria.Campilobacterota.Campylobacteria.Campylobacterales.Helicobacteraceae'
p519
(lp520
F0.0
aF639.4476509702471
aF458.1647032689358
aF2299.516558329863
aF0.0
aF0.0
aF0.0
aF0.0
aF0.0
aF193.66917002001253
aF0.0
aF0.0
aF0.0
aF0.0
asS'Bacteria.Firmicutes.Clostridia.Clostridia_UCG_014'
p521
(lp522
F80402.01005025125
aF8.358792823140485
aF175754.75692974115
aF335222.4374875518
aF128528.42619412734
aF97441.87088392096
aF74632.09530483533
aF70588.96382449307
aF52127.69764861675
aF71270.25456736461
aF92482.13809819921
aF220270.53588978437
aF53835.20802276732
aF166224.74747474748
asS'Bacteria.Proteobacteria.Gammaproteobacteria.Enterobacterales.Enterobacteriaceae.Escherichia_Shigella'
p523
(lp524
F11232.633757020396
aF936.1847961917343
aF1690.3500794846343
aF5757.844610621231
aF21411.938433577558
aF12320.236548541729
aF30133.146461107222
aF1784.5682695880294
aF250.52789807093527
aF2582.255600266834
aF2017.7921039607104
aF7647.910226399587
aF7004.675430275106
aF27904.040404040406
asS'Bacteria.Verrucomicrobiota.Verrucomicrobiae.Verrucomicrobiales.Akkermansiaceae'
p525
(lp526
F0.0
aF0.0
aF0.0
aF1068.2793459957632
aF908.7294825921509
aF55508.26575870255
aF142606.86755430975
aF7909.521825776597
aF465.2660964174512
aF16698.58621505886
aF87133.08544524678
aF5342.81578900345
aF6149.207209649006
aF0.0
asS'Bacteria.Firmicutes.Clostridia.Oscillospirales._Eubacterium__coprostanoligenes_group._Eubacterium__coprostanoligenes_group'
p527
(lp528
F90747.85693171741
aF50010.65746084952
aF38579.550582077434
aF25475.746437559977
aF6701.879934117113
aF13619.461493660674
aF0.0
aF18628.190549106588
aF31745.46365555994
aF106001.59239095352
aF26383.58354801457
aF48728.62426960671
aF39097.43867732756
aF7386.363636363637
asS'Bacteria.Firmicutes.Bacilli.Exiguobacterales.Exiguobacteraceae'
p529
(lp530
F0.0
aF0.0
aF0.0
aF0.0
aF0.0
aF716.813762824246
aF0.0
aF0.0
aF0.0
aF0.0
aF0.0
aF0.0
aF0.0
aF0.0
asS'Bacteria.Firmicutes.Clostridia.Lachnospirales.Lachnospiraceae.uncultured'
p531
(lp532
F0.0
aF0.0
aF0.0
aF0.0
aF0.0
aF0.0
aF0.0
aF213.92301023452717
aF0.0
aF0.0
aF139.59568014822523
aF250.16528777942574
aF355.73926006233916
aF0.0
asS'Bacteria.Desulfobacterota.Desulfovibrionia.Desulfovibrionales.Desulfovibrionaceae'
p533
(lp534
F0.0
aF3723.842202709086
aF3404.9967720214095
aF12004.562820257474
aF14369.284943488388
aF0.0
aF0.0
aF0.0
aF0.0
aF0.0
aF0.0
aF0.0
aF0.0
aF0.0
asS'Bacteria.Proteobacteria.Gammaproteobacteria.Pseudomonadales'
p535
(lp536
F0.0
aF0.0
aF572.7058790861697
aF1629.5786633833673
aF0.0
aF2777.6533309439537
aF15066.573230553611
aF28.147764504543048
aF0.0
aF0.0
aF355.33445855911873
aF1929.8465057269984
aF457.3790486515789
aF8080.808080808082
asS'Bacteria.Firmicutes.Clostridia.Oscillospirales.Butyricicoccaceae.UCG_008'
p537
(lp538
F0.0
aF0.0
aF0.0
aF0.0
aF0.0
aF0.0
aF3503.8542396636303
aF0.0
aF0.0
aF1936.6917002001253
aF0.0
aF0.0
aF0.0
aF0.0
asS'Bacteria.Firmicutes.Clostridia.Oscillospirales.Butyricicoccaceae.UCG_009'
p539
(lp540
F0.0
aF0.0
aF135.3668441476401
aF1104.4922051820602
aF0.0
aF0.0
aF0.0
aF529.1779726854094
aF0.0
aF1527.8345634912098
aF0.0
aF1107.874845880314
aF262.56945385553604
aF0.0
asS'Bacteria.Firmicutes.Clostridia.Oscillospirales.Butyricicoccaceae.Butyricicoccus'
p541
(lp542
F0.0
aF2904.6805060413185
aF0.0
aF0.0
aF511.16033395808495
aF0.0
aF0.0
aF0.0
aF0.0
aF365.8195433711348
aF406.0965240675643
aF0.0
aF0.0
aF0.0
asS'Bacteria.Firmicutes.Clostridia.Peptostreptococcales_Tissierellales.Anaerovoracaceae.Family_XIII_AD3011_group'
p543
(lp544
F0.0
aF0.0
aF447.7518691037327
aF0.0
aF0.0
aF0.0
aF0.0
aF382.8095972617854
aF0.0
aF0.0
aF0.0
aF196.5584403981202
aF304.9193657677192
aF0.0
asS'Bacteria.Proteobacteria.Alphaproteobacteria.Rhizobiales.Beijerinckiaceae'
p545
(lp546
F0.0
aF0.0
aF0.0
aF0.0
aF0.0
aF0.0
aF0.0
aF0.0
aF0.0
aF0.0
aF0.0
aF0.0
aF0.0
aF883.838383838384
asS'Bacteria.Bacteroidota.Bacteroidia.Bacteroidales.Bacteroidaceae.Bacteroides'
p547
(lp548
F0.0
aF40795.08837333714
aF312.3850249560926
aF2082.2394032120806
aF31123.984778781167
aF4166.47999641593
aF2803.083391730904
aF8990.39598275105
aF14727.46143659855
aF5186.029997202558
aF3293.1889998604042
aF250.16528777942574
aF719.948502507115
aF0.0
asS'Bacteria.Firmicutes.Bacilli.Erysipelotrichales.Erysipelotrichaceae._Clostridium__innocuum_group'
p549
(lp550
F0.0
aF2461.664486414873
aF0.0
aF0.0
aF0.0
aF0.0
aF0.0
aF0.0
aF0.0
aF0.0
aF0.0
aF0.0
aF0.0
aF0.0
asS'Bacteria.Firmicutes.Clostridia.Christensenellales.Christensenellaceae'
p551
(lp552
F0.0
aF0.0
aF2887.8260084829894
aF13851.418638758623
aF21298.347248253536
aF1568.0301061780383
aF0.0
aF3996.982559645113
aF1932.6437851186436
aF1334.1653934711974
aF4784.324674170992
aF786.2337615924808
aF525.1389077110721
aF177588.38383838386
asS'Bacteria.Deferribacterota.Deferribacteres'
p553
(lp554
F0.0
aF0.0
aF0.0
aF0.0
aF0.0
aF0.0
aF0.0
aF67.55463481090332
aF0.0
aF0.0
aF0.0
aF410.98582992334235
aF0.0
aF0.0
asS'Bacteria.Firmicutes.Clostridia.Clostridiales'
p555
(lp556
F3251.55187703222
aF1028.1315172462796
aF20516.754250171813
aF10320.66486809466
aF14994.036462770491
aF1612.8309663545538
aF0.0
aF821.914723532657
aF0.0
aF0.0
aF25603.11679082222
aF190482.9976949056
aF293705.1090933732
aF48484.84848484849
asS'Bacteria.Firmicutes.Clostridia.Eubacteriales.Anaerofustaceae.Anaerofustis'
p557
(lp558
F0.0
aF0.0
aF0.0
aF0.0
aF0.0
aF1702.4326867075843
aF0.0
aF0.0
aF0.0
aF0.0
aF0.0
aF357.3789825420368
aF0.0
aF0.0
asS'Bacteria.Firmicutes.Bacilli.Lactobacillales'
p559
(lp560
F388117.0558675732
aF10114.139315999986
aF15556.774242813412
aF6717.485379058104
aF13687.737831544275
aF5331.30236100533
aF0.0
aF42936.59997522997
aF50535.056010880086
aF266058.4020141594
aF1294.4326704653613
aF25802.762539535055
aF59679.49586664861
aF135101.01010101012
asS'Bacteria.Actinobacteriota.Actinobacteria'
p561
(lp562
F0.0
aF121.20249593553703
aF2106.863446092758
aF633.7250357601985
aF13801.329016868292
aF81268.7603601989
aF14365.802382620885
aF2916.10840267066
aF1342.1137396657246
aF0.0
aF1376.921026916585
aF5932.4911101978105
aF6826.805800243937
aF2651.515151515152
asS'Bacteria.Firmicutes.Clostridia.Peptostreptococcales_Tissierellales.Anaerovoracaceae._Eubacterium__brachy_group'
p563
(lp564
F0.0
aF0.0
aF59.00606026948416
aF0.0
aF0.0
aF0.0
aF0.0
aF78.81374061272055
aF0.0
aF0.0
aF1230.9800885798043
aF357.3789825420368
aF0.0
aF1704.5454545454547
asS'Bacteria.Actinobacteriota.Coriobacteriia.Coriobacteriales.uncultured'
p565
(lp566
F0.0
aF0.0
aF531.0545424253573
aF7224.465407666262
aF2385.4148918043966
aF3180.8610725325916
aF0.0
aF146.36837542362386
aF0.0
aF624.0451033978181
aF596.4542697242351
aF268.0342369065276
aF220.2195419433528
aF5871.212121212122
asS'Bacteria.Bacteroidota.Bacteroidia.Flavobacteriales.Weeksellaceae.Chryseobacterium'
p567
(lp568
F0.0
aF0.0
aF0.0
aF253.49001430407938
aF0.0
aF0.0
aF0.0
aF0.0
aF0.0
aF0.0
aF0.0
aF0.0
aF0.0
aF0.0
asS'Bacteria.Firmicutes.Clostridia.uncultured.uncultured'
p569
(lp570
F0.0
aF0.0
aF114.54117581723395
aF597.5121765739013
aF0.0
aF716.813762824246
aF0.0
aF0.0
aF0.0
aF0.0
aF0.0
aF0.0
aF186.3396124136062
aF0.0
asS'Bacteria.Firmicutes.Clostridia.Oscillospirales.Ruminococcaceae'
p571
(lp572
F14484.185634052616
aF292.557748809917
aF999.6320798594961
aF1738.2172409422585
aF3748.509115692623
aF9452.981497244744
aF4204.625087596357
aF5849.105464044045
aF7587.416341576896
aF4217.684147102495
aF19543.395220751532
aF607.5442703214625
aF1677.056511722456
aF820.7070707070708
asS'Bacteria.Bacteroidota.Bacteroidia.Flavobacteriales.Weeksellaceae'
p573
(lp574
F0.0
aF0.0
aF0.0
aF253.49001430407938
aF0.0
aF0.0
aF0.0
aF0.0
aF0.0
aF0.0
aF0.0
aF0.0
aF0.0
aF0.0
asS'Bacteria.Acidobacteriota.Acidobacteriae.Bryobacterales.Bryobacteraceae.Bryobacter'
p575
(lp576
F0.0
aF0.0
aF0.0
aF0.0
aF681.5471119441132
aF0.0
aF0.0
aF0.0
aF0.0
aF0.0
aF0.0
aF0.0
aF0.0
aF0.0
asS'Bacteria.Actinobacteriota.Actinobacteria.Pseudonocardiales.Pseudonocardiaceae.Saccharopolyspora'
p577
(lp578
F0.0
aF0.0
aF0.0
aF0.0
aF0.0
aF32122.21674656153
aF0.0
aF0.0
aF0.0
aF0.0
aF0.0
aF0.0
aF0.0
aF0.0
asS'Bacteria.Firmicutes.Clostridia.Oscillospirales.Ruminococcaceae.uncultured'
p579
(lp580
F0.0
aF530.7833442694208
aF59.00606026948416
aF1285.5565011135454
aF1135.9118532401887
aF0.0
aF0.0
aF844.4329351362915
aF0.0
aF129.11278001334168
aF234.7745529765606
aF0.0
aF0.0
aF0.0
asS'Archaea.Euryarchaeota.Methanobacteria.Methanobacteriales'
p581
(lp582
F0.0
aF83.58792823140486
aF461.6356479906701
aF0.0
aF0.0
aF0.0
aF0.0
aF0.0
aF0.0
aF0.0
aF0.0
aF0.0
aF0.0
aF0.0
asS'Bacteria.Firmicutes.Clostridia.Oscillospirales.Oscillospiraceae.Oscillibacter'
p583
(lp584
F0.0
aF317.63412727933843
aF1086.4056979028553
aF832.8957612848322
aF0.0
aF492.80946194166916
aF0.0
aF4858.30415348413
aF1234.7446404924667
aF989.8646467689529
aF1744.9460018528155
aF285.9031860336294
aF127.04973573654969
aF0.0
asS'Bacteria.Firmicutes.Clostridia.Lachnospirales.Lachnospiraceae.Coprococcus'
p585
(lp586
F0.0
aF0.0
aF0.0
aF0.0
aF0.0
aF4256.081716768961
aF4905.395935529083
aF0.0
aF0.0
aF0.0
aF0.0
aF0.0
aF0.0
aF5618.686868686869
asS'Bacteria.Patescibacteria.Saccharimonadia.Saccharimonadales.Saccharimonadaceae.Candidatus_Saccharimonas'
p587
(lp588
F2955.9562518474727
aF0.0
aF22804.106821794758
aF2299.516558329863
aF28284.2051456807
aF851.2163433537921
aF0.0
aF332.14362115360797
aF0.0
aF2151.879666889028
aF2804.604119341616
aF1179.3506423887216
aF3828.4320368613644
aF15782.828282828286
asS'Bacteria.Firmicutes.Clostridia.Lachnospirales.Lachnospiraceae'
p589
(lp590
F125332.54507833283
aF22305.438648550386
aF8049.120809701985
aF34420.32265657535
aF26864.315329130462
aF16173.110523722053
aF24176.59425367905
aF70791.62772892576
aF39762.35639382987
aF37033.849067160176
aF120464.72670972983
aF21943.069528081058
aF26036.72584361025
aF42866.16161616162
asS'Bacteria.Firmicutes.Bacilli.Erysipelotrichales.Erysipelatoclostridiaceae.Erysipelatoclostridium'
p591
(lp592
F0.0
aF656.1652366165281
aF0.0
aF1430.4079378587337
aF0.0
aF0.0
aF0.0
aF0.0
aF0.0
aF0.0
aF0.0
aF0.0
aF0.0
aF2272.727272727273
asS'Bacteria.Proteobacteria.Gammaproteobacteria.Burkholderiales.Burkholderiaceae.Burkholderia_Caballeronia_Paraburkholderia'
p593
(lp594
F0.0
aF171.35525287437994
aF267.26274357354583
aF2553.0065726339426
aF6077.12841483501
aF3808.0731150038073
aF10161.177295024529
aF78.81374061272055
aF0.0
aF0.0
aF793.1572735694615
aF2144.273895252221
aF1871.866106518499
aF5934.343434343435
asS'Bacteria.Patescibacteria.Saccharimonadia'
p595
(lp596
F2955.9562518474727
aF0.0
aF22804.106821794758
aF2408.155135888754
aF28284.2051456807
aF851.2163433537921
aF0.0
aF332.14362115360797
aF0.0
aF2151.879666889028
aF2804.604119341616
aF1179.3506423887216
aF3828.4320368613644
aF15782.828282828286
asS'Bacteria.Bacteroidota.Bacteroidia.Bacteroidales.Tannerellaceae'
p597
(lp598
F0.0
aF27479.531406074344
aF492.87415048627946
aF217.2771551177823
aF0.0
aF5420.904081358361
aF0.0
aF945.7648873526464
aF2773.7017286424975
aF0.0
aF7087.653396616708
aF0.0
aF152.4596828838596
aF0.0
asS'Bacteria.Firmicutes.Clostridia.Peptostreptococcales_Tissierellales.Peptostreptococcaceae'
p599
(lp600
F0.0
aF5052.890261588423
aF7542.362880328768
aF25294.68214162849
aF7042.65349008917
aF5107.298060122754
aF5255.781359495445
aF10347.118231870025
aF1914.748935256434
aF0.0
aF9803.423901318545
aF200882.72608687886
aF235719.60970321187
aF50883.83838383839
asS'Bacteria.Firmicutes.Bacilli.Erysipelotrichales.Erysipelotrichaceae.Holdemania'
p601
(lp602
F0.0
aF1433.5329691685934
aF0.0
aF0.0
aF0.0
aF1254.4240849424307
aF0.0
aF0.0
aF0.0
aF0.0
aF0.0
aF0.0
aF0.0
aF0.0
asS'Bacteria.Firmicutes.Clostridia.Oscillospirales._Eubacterium__coprostanoligenes_group'
p603
(lp604
F90747.85693171741
aF50010.65746084952
aF38579.550582077434
aF25475.746437559977
aF6701.879934117113
aF13619.461493660674
aF0.0
aF18628.190549106588
aF31745.46365555994
aF106001.59239095352
aF26383.58354801457
aF48728.62426960671
aF39097.43867732756
aF7386.363636363637
asS'Bacteria.Firmicutes.Negativicutes.Veillonellales_Selenomonadales.Selenomonadaceae.Quinella'
p605
(lp606
F0.0
aF7096.615106846272
aF1044.7543612420432
aF0.0
aF0.0
aF0.0
aF0.0
aF0.0
aF0.0
aF0.0
aF0.0
aF0.0
aF0.0
aF0.0
asS'Bacteria.Firmicutes.Clostridia.Peptococcales.Peptococcaceae.uncultured'
p607
(lp608
F0.0
aF0.0
aF208.2566833040617
aF778.5764725053867
aF0.0
aF851.2163433537921
aF0.0
aF6727.315716585789
aF2791.5965785047074
aF516.4511200533667
aF1072.348633865912
aF0.0
aF279.50941862040935
aF1325.757575757576
asS'Bacteria.Verrucomicrobiota.Verrucomicrobiae.Verrucomicrobiales'
p609
(lp610
F0.0
aF0.0
aF0.0
aF1068.2793459957632
aF908.7294825921509
aF55508.26575870255
aF142606.86755430975
aF7909.521825776597
aF465.2660964174512
aF16698.58621505886
aF87133.08544524678
aF5342.81578900345
aF6149.207209649006
aF0.0
asS'Bacteria.Actinobacteriota.Coriobacteriia.Coriobacteriales.Eggerthellaceae.uncultured'
p611
(lp612
F0.0
aF0.0
aF0.0
aF0.0
aF0.0
aF0.0
aF0.0
aF0.0
aF0.0
aF0.0
aF260.1555857307834
aF0.0
aF0.0
aF0.0
asS'Bacteria.Actinobacteriota.Actinobacteria.Micrococcales.Dermabacteraceae.Brachybacterium'
p613
(lp614
F0.0
aF0.0
aF0.0
aF217.2771551177823
aF0.0
aF0.0
aF0.0
aF0.0
aF0.0
aF0.0
aF0.0
aF0.0
aF0.0
aF0.0
asS'Bacteria.Firmicutes.Clostridia.Clostridiales.Clostridiaceae'
p615
(lp616
F3251.55187703222
aF1028.1315172462796
aF20516.754250171813
aF10320.66486809466
aF14994.036462770491
aF1612.8309663545538
aF0.0
aF821.914723532657
aF0.0
aF0.0
aF25603.11679082222
aF190482.9976949056
aF293705.1090933732
aF48484.84848484849
asS'Bacteria.Actinobacteriota.Actinobacteria.Pseudonocardiales'
p617
(lp618
F0.0
aF0.0
aF0.0
aF0.0
aF0.0
aF32122.21674656153
aF5255.781359495445
aF0.0
aF0.0
aF0.0
aF0.0
aF0.0
aF101.63978858923976
aF0.0
asS'Bacteria.Proteobacteria.Gammaproteobacteria.Enterobacterales.Morganellaceae'
p619
(lp620
F0.0
aF238.2255954595038
aF0.0
aF0.0
aF0.0
aF0.0
aF0.0
aF0.0
aF0.0
aF0.0
aF0.0
aF0.0
aF0.0
aF0.0
asS'Bacteria.Patescibacteria.Saccharimonadia.Saccharimonadales'
p621
(lp622
F0.0
aF0.0
aF0.0
aF108.63857755889116
aF0.0
aF0.0
aF0.0
aF0.0
aF0.0
aF0.0
aF0.0
aF0.0
aF0.0
aF0.0
asS'Bacteria.Firmicutes.Clostridia.Lachnospirales.Lachnospiraceae.Blautia'
p623
(lp624
F0.0
aF22648.149154299143
aF79.83172859989033
aF43781.346756233135
aF1079.1162605781794
aF73607.81327001477
aF51156.271899089006
aF923.2466757490121
aF0.0
aF0.0
aF0.0
aF1072.1369476261104
aF1397.5470931020466
aF0.0
asS'Bacteria.Firmicutes.Bacilli.Bacillales.Bacillaceae'
p625
(lp626
F0.0
aF0.0
aF79.83172859989033
aF0.0
aF0.0
aF0.0
aF0.0
aF0.0
aF0.0
aF0.0
aF0.0
aF0.0
aF0.0
aF0.0
asS'Archaea.Euryarchaeota.Methanobacteria'
p627
(lp628
F0.0
aF83.58792823140486
aF461.6356479906701
aF0.0
aF0.0
aF0.0
aF0.0
aF0.0
aF0.0
aF0.0
aF0.0
aF0.0
aF0.0
aF0.0
asS'Bacteria.Proteobacteria.Gammaproteobacteria.Enterobacterales'
p629
(lp630
F11232.633757020396
aF1174.4103916512381
aF1690.3500794846343
aF5757.844610621231
aF21411.938433577558
aF12320.236548541729
aF30133.146461107222
aF1784.5682695880294
aF250.52789807093527
aF2582.255600266834
aF2017.7921039607104
aF7647.910226399587
aF7004.675430275106
aF27904.040404040406
asS'Bacteria.Firmicutes.Clostridia.Oscillospirales.Ruminococcaceae.Fournierella'
p631
(lp632
F0.0
aF0.0
aF277.675577738749
aF0.0
aF0.0
aF0.0
aF0.0
aF6243.174167107649
aF1431.587988976773
aF0.0
aF329.953425804896
aF0.0
aF0.0
aF0.0
asS'Bacteria.Firmicutes.Clostridia.Oscillospirales.Ruminococcaceae.Subdoligranulum'
p633
(lp634
F0.0
aF0.0
aF48.59322610428107
aF923.4279092505749
aF454.36474129607547
aF177321.80457864786
aF246671.3384723196
aF0.0
aF0.0
aF0.0
aF0.0
aF0.0
aF0.0
aF0.0
asS'Bacteria.Firmicutes.Clostridia.Clostridia_vadinBB60_group.Clostridia_vadinBB60_group.Clostridia_vadinBB60_group'
p635
(lp636
F0.0
aF3753.097977590078
aF173.5472360867181
aF561.2993173876044
aF0.0
aF0.0
aF0.0
aF816.2851706317484
aF0.0
aF731.6390867422696
aF387.06074950189725
aF339.510033414935
aF398.0891719745224
aF315.6565656565657
asS'Bacteria.Firmicutes.Clostridia.uncultured'
p637
(lp638
F0.0
aF0.0
aF114.54117581723395
aF597.5121765739013
aF0.0
aF716.813762824246
aF0.0
aF0.0
aF0.0
aF0.0
aF0.0
aF0.0
aF186.3396124136062
aF0.0
asS'Bacteria.Proteobacteria.Gammaproteobacteria.Burkholderiales.Comamonadaceae.Delftia'
p639
(lp640
F0.0
aF0.0
aF513.6998188166856
aF1919.281536873744
aF2839.779633100472
aF761.6146230007614
aF8409.250175192714
aF0.0
aF0.0
aF0.0
aF0.0
aF0.0
aF160.92966526629627
aF12941.919191919193
asS'Bacteria.Firmicutes.Clostridia.Oscillospirales.Ruminococcaceae.Harryflintia'
p641
(lp642
F0.0
aF0.0
aF0.0
aF0.0
aF0.0
aF0.0
aF0.0
aF0.0
aF0.0
aF0.0
aF177.66722927955936
aF0.0
aF0.0
aF0.0
asS'Bacteria.Actinobacteriota.Actinobacteria.Micrococcales.Micrococcaceae'
p643
(lp644
F0.0
aF121.20249593553703
aF128.4249547041714
aF416.4478806424161
aF0.0
aF0.0
aF0.0
aF90.07284641453775
aF0.0
aF0.0
aF0.0
aF0.0
aF0.0
aF1767.676767676768
asS'Bacteria.Firmicutes.Clostridia.Eubacteriales.Eubacteriaceae'
p645
(lp646
F0.0
aF91.94672105454534
aF0.0
aF0.0
aF0.0
aF0.0
aF0.0
aF0.0
aF0.0
aF0.0
aF0.0
aF0.0
aF0.0
aF0.0
asS'Bacteria.Actinobacteriota.Coriobacteriia.Coriobacteriales.Eggerthellaceae.Adlercreutzia'
p647
(lp648
F0.0
aF430.477830391735
aF263.79179885181156
aF8546.234767966105
aF0.0
aF5107.298060122754
aF16117.7295024527
aF354.66183275724245
aF0.0
aF4454.390910460288
aF799.5025317580172
aF5450.029483766061
aF4218.05122645345
aF3472.2222222222226
asS'Bacteria.Firmicutes.Bacilli.Lactobacillales.Aerococcaceae'
p649
(lp650
F0.0
aF0.0
aF0.0
aF271.5964438972279
aF0.0
aF0.0
aF0.0
aF0.0
aF0.0
aF0.0
aF0.0
aF0.0
aF0.0
aF0.0
asS'Bacteria.Firmicutes.Clostridia.Oscillospirales.Oscillospiraceae'
p651
(lp652
F8572.273130357671
aF3000.8066235074343
aF10961.243431237115
aF50788.53500878162
aF18742.545578463112
aF2822.4541911204687
aF0.0
aF33113.030163144445
aF14029.562291972376
aF18398.57115190119
aF13597.888298074848
aF8684.309275771493
aF3582.8025477707015
aF20075.75757575758
asS'Bacteria.Firmicutes.Clostridia.Oscillospirales.Oscillospiraceae.UCG_003'
p653
(lp654
F0.0
aF0.0
aF0.0
aF0.0
aF0.0
aF0.0
aF0.0
aF0.0
aF0.0
aF0.0
aF158.6314547138923
aF0.0
aF0.0
aF0.0
asS'Bacteria.Firmicutes.Clostridia.Christensenellales.Christensenellaceae.uncultured'
p655
(lp656
F0.0
aF0.0
aF298.5012460691551
aF0.0
aF0.0
aF0.0
aF0.0
aF0.0
aF0.0
aF0.0
aF0.0
aF0.0
aF0.0
aF0.0
asS'Bacteria.Firmicutes.Clostridia.Oscillospirales.Oscillospiraceae.UCG_005'
p657
(lp658
F0.0
aF0.0
aF520.6417082601544
aF6210.505350449945
aF2669.3928551144436
aF1030.4197840598538
aF0.0
aF1249.7607440017114
aF0.0
aF14611.2629381765
aF1357.8852523509183
aF15653.19943534121
aF2066.6757013145416
aF694.4444444444446
asS'Bacteria'
p659
(lp660
F1000000.0
aF999916.4120717687
aF999538.3643520094
aF1000000.0
aF1000000.0
aF1000000.0
aF1000000.0
aF1000000.0
aF1000000.0
aF1000000.0
aF1000000.0
aF1000000.0
aF1000000.0
aF1000000.0
asS'Bacteria.Firmicutes.Clostridia.Oscillospirales.Oscillospiraceae.UCG_007'
p661
(lp662
F0.0
aF0.0
aF256.8499094083428
aF0.0
aF0.0
aF0.0
aF0.0
aF129.479716720898
aF0.0
aF0.0
aF0.0
aF0.0
aF0.0
aF0.0
asS'Bacteria.Actinobacteriota.Actinobacteria.Streptomycetales.Streptomycetaceae'
p663
(lp664
F0.0
aF0.0
aF0.0
aF0.0
aF0.0
aF0.0
aF3503.8542396636303
aF0.0
aF0.0
aF0.0
aF0.0
aF0.0
aF0.0
aF0.0
assS'subclass_sl'
p665
(dp666
g12
(I0
I7
tp667
sg10
(I7
I14
tp668
ssS'norm'
p669
F1000000.0
sS'cls'
p670
(dp671
S'class'
p672
(S'HSD-NR'
p673
S'HSD-NR'
p674
S'HSD-NR'
p675
S'HSD-NR'
p676
S'HSD-NR'
p677
S'HSD-NR'
p678
g5
S'STD-NR'
p679
S'STD-NR'
p680
S'STD-NR'
p681
S'STD-NR'
p682
S'STD-NR'
p683
S'STD-NR'
p684
g3
tp685
sS'subclass'
p686
(lp687
S'HSD-NR_subcl'
p688
aS'HSD-NR_subcl'
p689
aS'HSD-NR_subcl'
p690
aS'HSD-NR_subcl'
p691
aS'HSD-NR_subcl'
p692
aS'HSD-NR_subcl'
p693
ag12
aS'STD-NR_subcl'
p694
aS'STD-NR_subcl'
p695
aS'STD-NR_subcl'
p696
aS'STD-NR_subcl'
p697
aS'STD-NR_subcl'
p698
aS'STD-NR_subcl'
p699
ag10
asS'subject'
p700
(S'S210421121704'
p701
S'S210421121705'
p702
S'S210421121706'
p703
S'S210421121707'
p704
S'S210421121708'
p705
S'S210421121709'
p706
S'S210421121710'
p707
S'S210421121685'
p708
S'S210421121686'
p709
S'S210421121687'
p710
S'S210421121691'
p711
S'S210421121692'
p712
S'S210421121693'
p713
S'S210421121703'
p714
tp715
ss.