(dp0
S'class_sl'
p1
(dp2
S'STD-NR'
p3
(I7
I14
tp4
sS'HSD-NR'
p5
(I0
I7
tp6
ssS'class_hierarchy'
p7
(dp8
g3
(lp9
S'STD-NR_subcl'
p10
asg5
(lp11
S'HSD-NR_subcl'
p12
assS'feats'
p13
(dp14
S'Bacteria.Firmicutes.Clostridia.Lachnospirales.Lachnospiraceae._Eubacterium__ventriosum_group.uncultured_Clostridiales'
p15
(lp16
F0.0
aF0.0
aF0.0
aF235.3835847109308
aF0.0
aF0.0
aF0.0
aF0.0
aF0.0
aF0.0
aF1211.9443140141373
aF0.0
aF0.0
aF0.0
asS'Bacteria.Firmicutes.Bacilli.Acholeplasmatales'
p17
(lp18
F0.0
aF0.0
aF0.0
aF253.49001430407932
aF0.0
aF0.0
aF0.0
aF0.0
aF214.73819834651587
aF0.0
aF0.0
aF0.0
aF0.0
aF1704.545454545455
asS'Bacteria.Firmicutes.Bacilli.Lactobacillales.Streptococcaceae'
p19
(lp20
F0.0
aF894.3908320760313
aF787.9044518336999
aF995.8536276231688
aF0.0
aF627.2120424712157
aF0.0
aF180.14569282907547
aF0.0
aF0.0
aF0.0
aF0.0
aF0.0
aF4356.060606060607
asS'Bacteria.Firmicutes.Bacilli.Lactobacillales.Streptococcaceae.Streptococcus'
p21
(lp22
F0.0
aF221.5080098132227
aF0.0
aF995.8536276231688
aF0.0
aF627.2120424712157
aF0.0
aF180.14569282907547
aF0.0
aF0.0
aF0.0
aF0.0
aF0.0
aF4356.060606060607
asS'Bacteria.Firmicutes.Clostridia.Oscillospirales.Ruminococcaceae.uncultured.uncultured_bacterium'
p23
(lp24
F0.0
aF397.0426590991728
aF0.0
aF506.98002860815865
aF1135.9118532401887
aF0.0
aF0.0
aF540.4370784872264
aF0.0
aF0.0
aF158.6314547138923
aF0.0
aF0.0
aF0.0
asS'Bacteria.Firmicutes.Clostridia.Clostridiales.Clostridiaceae.Candidatus_Arthromitus'
p25
(lp26
F0.0
aF0.0
aF0.0
aF597.5121765739012
aF0.0
aF0.0
aF0.0
aF0.0
aF0.0
aF0.0
aF736.0499498724604
aF0.0
aF0.0
aF0.0
asS'Bacteria.Acidobacteriota.Acidobacteriae.Bryobacterales'
p27
(lp28
F0.0
aF0.0
aF0.0
aF0.0
aF681.5471119441132
aF0.0
aF0.0
aF0.0
aF0.0
aF0.0
aF0.0
aF0.0
aF0.0
aF0.0
asS'Bacteria.Firmicutes.Clostridia.Lachnospirales.Lachnospiraceae.Lachnospiraceae_UCG_006'
p29
(lp30
F0.0
aF0.0
aF298.501246069155
aF4417.96882072824
aF0.0
aF0.0
aF0.0
aF1199.0947678935336
aF2272.6459325006263
aF1183.5338167889656
aF1148.4917321285805
aF4538.713078283868
aF3396.4629353570954
aF0.0
asS'Bacteria.Firmicutes.Clostridia.Lachnospirales.Lachnospiraceae.Lachnospiraceae_UCG_001'
p31
(lp32
F0.0
aF0.0
aF0.0
aF0.0
aF0.0
aF0.0
aF0.0
aF0.0
aF0.0
aF3873.3834004002515
aF0.0
aF0.0
aF0.0
aF0.0
asS'Bacteria.Actinobacteriota.Actinobacteria.Bifidobacteriales.Bifidobacteriaceae.Bifidobacterium.Bifidobacterium_animalis'
p33
(lp34
F0.0
aF0.0
aF1978.4384913885856
aF0.0
aF0.0
aF49146.5436136374
aF5606.166783461807
aF2516.410146706148
aF1342.113739665724
aF0.0
aF0.0
aF911.3164054821939
aF711.4785201246783
aF883.8383838383841
asS'Bacteria.Bacteroidota.Bacteroidia.Bacteroidales.Prevotellaceae.Prevotellaceae_Ga6A1_group.uncultured_bacterium'
p35
(lp36
F0.0
aF20445.607245401614
aF0.0
aF0.0
aF0.0
aF0.0
aF0.0
aF0.0
aF0.0
aF0.0
aF0.0
aF0.0
aF0.0
aF0.0
asS'Archaea.Euryarchaeota.Methanobacteria.Methanobacteriales'
p37
(lp38
F0.0
aF83.5879282314048
aF461.63564799066995
aF0.0
aF0.0
aF0.0
aF0.0
aF0.0
aF0.0
aF0.0
aF0.0
aF0.0
aF0.0
aF0.0
asS'Bacteria.Bacteroidota.Bacteroidia.Bacteroidales.Marinifilaceae.Odoribacter'
p39
(lp40
F0.0
aF37.614567704132156
aF86.77361804335902
aF0.0
aF0.0
aF0.0
aF0.0
aF0.0
aF0.0
aF0.0
aF0.0
aF0.0
aF0.0
aF0.0
asS'Bacteria.Verrucomicrobiota.Verrucomicrobiae.Verrucomicrobiales.Akkermansiaceae.Akkermansia'
p41
(lp42
F0.0
aF0.0
aF0.0
aF1068.279345995763
aF908.7294825921509
aF55508.26575870258
aF142606.86755430975
aF7909.5218257765955
aF465.266096417451
aF16698.586215058862
aF87133.08544524678
aF5342.81578900345
aF6149.207209649006
aF0.0
asS'Bacteria.Firmicutes.Clostridia.Oscillospirales.Oscillospiraceae.UCG_005.uncultured_rumen'
p43
(lp44
F0.0
aF0.0
aF0.0
aF0.0
aF0.0
aF0.0
aF0.0
aF236.44122183816154
aF0.0
aF0.0
aF0.0
aF0.0
aF0.0
aF0.0
asS'Bacteria.Firmicutes.Bacilli.Bacillales.Bacillaceae.Bacillus'
p45
(lp46
F0.0
aF0.0
aF79.8317285998903
aF0.0
aF0.0
aF0.0
aF0.0
aF0.0
aF0.0
aF0.0
aF0.0
aF0.0
aF0.0
aF0.0
asS'Bacteria.Firmicutes.Clostridia.Christensenellales.Christensenellaceae.Christensenellaceae_R_7_group.uncultured_prokaryote'
p47
(lp48
F0.0
aF0.0
aF1332.8427731459944
aF235.3835847109308
aF0.0
aF0.0
aF0.0
aF365.92093855905955
aF536.8454958662896
aF1334.1653934711976
aF0.0
aF428.85477905044417
aF372.6792248272124
aF0.0
asS'Bacteria.Firmicutes.Bacilli.Exiguobacterales.Exiguobacteraceae.Exiguobacterium'
p49
(lp50
F0.0
aF0.0
aF0.0
aF0.0
aF0.0
aF716.8137628242464
aF0.0
aF0.0
aF0.0
aF0.0
aF0.0
aF0.0
aF0.0
aF0.0
asS'Bacteria.Firmicutes.Clostridia.Oscillospirales.Ruminococcaceae.Negativibacillus.uncultured_bacterium'
p51
(lp52
F0.0
aF0.0
aF0.0
aF669.9378949464954
aF0.0
aF0.0
aF0.0
aF0.0
aF0.0
aF0.0
aF0.0
aF0.0
aF0.0
aF0.0
asS'Bacteria.Firmicutes.Negativicutes.Veillonellales_Selenomonadales.Veillonellaceae'
p53
(lp54
F0.0
aF522.42455144628
aF152.72156775631188
aF0.0
aF0.0
aF0.0
aF0.0
aF0.0
aF0.0
aF0.0
aF0.0
aF0.0
aF0.0
aF0.0
asS'Bacteria.Firmicutes.Clostridia.Oscillospirales.Ruminococcaceae.Anaerofilum'
p55
(lp56
F0.0
aF0.0
aF65.94794971295286
aF0.0
aF0.0
aF0.0
aF0.0
aF84.44329351362913
aF0.0
aF0.0
aF0.0
aF0.0
aF0.0
aF0.0
asS'Bacteria.Firmicutes.Bacilli.Lactobacillales.Lactobacillaceae.Lactobacillus'
p57
(lp58
F363287.02335205436
aF8517.60988678015
aF6178.281604687162
aF5450.035307537705
aF13687.737831544275
aF4704.090318534117
aF0.0
aF32516.297555648125
aF28345.442181740094
aF266058.4020141595
aF1294.4326704653615
aF25802.762539535055
aF59679.49586664861
aF112752.52525252529
asS'Bacteria.Firmicutes.Clostridia.Oscillospirales.Ruminococcaceae.Incertae_Sedis.uncultured_organism'
p59
(lp60
F0.0
aF0.0
aF0.0
aF0.0
aF0.0
aF0.0
aF0.0
aF0.0
aF0.0
aF0.0
aF16891.077297935255
aF0.0
aF0.0
aF0.0
asS'Bacteria.Actinobacteriota.Actinobacteria.Bifidobacteriales'
p61
(lp62
F0.0
aF0.0
aF1978.4384913885856
aF0.0
aF13801.329016868292
aF49146.5436136374
aF5606.166783461807
aF2826.0355562561213
aF1342.113739665724
aF0.0
aF1376.9210269165853
aF5932.4911101978105
aF6725.166011654697
aF883.8383838383841
asS'Bacteria.Firmicutes.Clostridia.Oscillospirales.Oscillospiraceae.UCG_003.uncultured_bacterium'
p63
(lp64
F0.0
aF0.0
aF0.0
aF0.0
aF0.0
aF0.0
aF0.0
aF0.0
aF0.0
aF0.0
aF158.6314547138923
aF0.0
aF0.0
aF0.0
asS'Bacteria.Desulfobacterota.Desulfovibrionia'
p65
(lp66
F0.0
aF3723.8422027090837
aF3404.996772021408
aF12004.56282025747
aF14369.284943488388
aF0.0
aF0.0
aF0.0
aF0.0
aF0.0
aF0.0
aF0.0
aF0.0
aF0.0
asS'Bacteria.Firmicutes.Bacilli.Erysipelotrichales.Erysipelotrichaceae.Faecalibaculum'
p67
(lp68
F0.0
aF0.0
aF118.01212053896828
aF633.7250357601982
aF0.0
aF0.0
aF0.0
aF0.0
aF0.0
aF0.0
aF774.1214990037945
aF3484.445079784859
aF2422.414961376881
aF1452.0202020202023
asS'Bacteria.Firmicutes.Clostridia.Peptostreptococcales_Tissierellales.Anaerovoracaceae.Family_XIII_UCG_001'
p69
(lp70
F0.0
aF0.0
aF62.477004991218486
aF0.0
aF0.0
aF0.0
aF0.0
aF84.44329351362913
aF0.0
aF1269.609003464527
aF0.0
aF0.0
aF0.0
aF0.0
asS'Bacteria.Cyanobacteria.Vampirivibrionia'
p71
(lp72
F0.0
aF0.0
aF111.07023109549954
aF1321.7693602998422
aF0.0
aF0.0
aF0.0
aF4396.680815609623
aF6388.461400808847
aF0.0
aF50.762065508445545
aF0.0
aF0.0
aF1073.2323232323236
asS'Bacteria.Firmicutes.Clostridia.Lachnospirales.Lachnospiraceae.Anaerostipes.Anaerostipes_sp_'
p73
(lp74
F0.0
aF0.0
aF0.0
aF3041.880171648952
aF0.0
aF0.0
aF0.0
aF0.0
aF0.0
aF0.0
aF0.0
aF0.0
aF0.0
aF0.0
asS'Bacteria.Bacteroidota.Bacteroidia.Bacteroidales.Muribaculaceae.Muribaculaceae'
p75
(lp76
F5911.912503694945
aF117741.9557067568
aF68641.40281701872
aF14575.675822484562
aF29476.9125915829
aF1881.6361274136468
aF0.0
aF108656.00054043705
aF91764.79009341111
aF7208.796884078245
aF28661.531237706065
aF1036.3990493719066
aF110.1097709716764
aF0.0
asS'Bacteria.Firmicutes.Clostridia.Lachnospirales.Lachnospiraceae.Frisingicoccus'
p77
(lp78
F0.0
aF2085.5188093735496
aF0.0
aF0.0
aF0.0
aF0.0
aF0.0
aF422.2164675681456
aF0.0
aF0.0
aF564.7279787814566
aF0.0
aF0.0
aF0.0
asS'Bacteria.Proteobacteria.Gammaproteobacteria.Pasteurellales'
p79
(lp80
F0.0
aF1391.73900505289
aF666.4213865729972
aF0.0
aF0.0
aF672.0129026477309
aF0.0
aF0.0
aF0.0
aF1205.0526134578558
aF285.53661848500616
aF0.0
aF0.0
aF0.0
asS'Bacteria.Firmicutes.Clostridia.Oscillospirales.Oscillospiraceae.UCG_007'
p81
(lp82
F0.0
aF0.0
aF256.8499094083427
aF0.0
aF0.0
aF0.0
aF0.0
aF129.47971672089798
aF0.0
aF0.0
aF0.0
aF0.0
aF0.0
aF0.0
asS'Bacteria.Proteobacteria.Gammaproteobacteria.Pseudomonadales.Moraxellaceae.Acinetobacter'
p83
(lp84
F0.0
aF0.0
aF0.0
aF0.0
aF0.0
aF672.0129026477309
aF0.0
aF28.14776450454304
aF0.0
aF0.0
aF0.0
aF53.60684738130552
aF0.0
aF2083.333333333334
asS'Bacteria.Firmicutes.Clostridia.Clostridia_vadinBB60_group'
p85
(lp86
F0.0
aF3753.097977590075
aF173.54723608671804
aF561.2993173876042
aF0.0
aF0.0
aF0.0
aF816.2851706317483
aF0.0
aF731.6390867422697
aF387.06074950189725
aF339.510033414935
aF398.0891719745224
aF315.65656565656576
asS'Bacteria.Firmicutes.Bacilli.Erysipelotrichales.Erysipelatoclostridiaceae.UCG_004'
p87
(lp88
F0.0
aF0.0
aF20.825668330406163
aF0.0
aF0.0
aF0.0
aF0.0
aF219.55256313543572
aF214.73819834651587
aF494.93232338447655
aF0.0
aF0.0
aF0.0
aF0.0
asS'Bacteria.Firmicutes.Clostridia.Oscillospirales.Oscillospiraceae.Colidextribacter'
p89
(lp90
F0.0
aF0.0
aF142.3087335911088
aF0.0
aF851.9338899301415
aF0.0
aF0.0
aF1598.7930238580448
aF0.0
aF0.0
aF2379.471820708385
aF0.0
aF372.6792248272124
aF0.0
asS'Bacteria.Bacteroidota.Bacteroidia.Bacteroidales.Tannerellaceae'
p91
(lp92
F0.0
aF27479.53140607433
aF492.8741504862793
aF217.27715511778226
aF0.0
aF5420.904081358363
aF0.0
aF945.7648873526462
aF2773.7017286424966
aF0.0
aF7087.653396616709
aF0.0
aF152.4596828838596
aF0.0
asS'Bacteria.Firmicutes.Clostridia.Peptostreptococcales_Tissierellales.Anaerovoracaceae.Family_XIII_UCG_001.uncultured_bacterium'
p93
(lp94
F0.0
aF0.0
aF62.477004991218486
aF0.0
aF0.0
aF0.0
aF0.0
aF84.44329351362913
aF0.0
aF1269.609003464527
aF0.0
aF0.0
aF0.0
aF0.0
asS'Bacteria.Bacteroidota.Bacteroidia.Bacteroidales.Muribaculaceae'
p95
(lp96
F146615.43009163463
aF397891.0765707216
aF491405.9408689856
aF78726.75587100978
aF462372.91986141884
aF82567.98530531787
aF67974.77224947442
aF534841.3029037232
aF566980.4230342507
aF166512.44862387303
aF237039.81014987503
aF15635.33048621411
aF11612.345846320643
aF8838.38383838384
asS'Bacteria.Proteobacteria.Alphaproteobacteria.Rhizobiales'
p97
(lp98
F0.0
aF0.0
aF211.727628025796
aF0.0
aF0.0
aF224.00430088257698
aF0.0
aF0.0
aF0.0
aF0.0
aF0.0
aF0.0
aF135.51971811898633
aF1893.9393939393944
asS'Bacteria.Bacteroidota.Bacteroidia.Bacteroidales.Muribaculaceae.Muribaculaceae.uncultured_Bacteroidales'
p99
(lp100
F0.0
aF0.0
aF0.0
aF0.0
aF0.0
aF0.0
aF0.0
aF7363.45519438846
aF2702.122329193658
aF2496.1804135912735
aF2468.3054353481643
aF0.0
aF152.4596828838596
aF0.0
asS'Bacteria.Firmicutes.Clostridia.Lachnospirales.Defluviitaleaceae.Defluviitaleaceae_UCG_011'
p101
(lp102
F0.0
aF0.0
aF45.122281382546696
aF1140.705064368357
aF0.0
aF0.0
aF0.0
aF281.47764504543045
aF0.0
aF215.18796668890286
aF0.0
aF553.937422940157
aF0.0
aF0.0
asS'Bacteria.Verrucomicrobiota'
p103
(lp104
F0.0
aF0.0
aF0.0
aF1068.279345995763
aF908.7294825921509
aF55508.26575870258
aF142606.86755430975
aF7909.5218257765955
aF465.266096417451
aF16698.586215058862
aF87133.08544524678
aF5342.81578900345
aF6149.207209649006
aF0.0
asS'Bacteria.Firmicutes.Bacilli.Lactobacillales'
p105
(lp106
F388117.0558675732
aF10114.139315999983
aF15556.774242813406
aF6717.485379058103
aF13687.737831544275
aF5331.302361005332
aF0.0
aF42936.59997522996
aF50535.05601088007
aF266058.4020141595
aF1294.4326704653615
aF25802.762539535055
aF59679.49586664861
aF135101.01010101015
asS'Bacteria.Firmicutes.Clostridia.Oscillospirales.Ruminococcaceae.Candidatus_Soleaferrea'
p107
(lp108
F0.0
aF417.939641157024
aF104.12834165203083
aF0.0
aF0.0
aF0.0
aF0.0
aF0.0
aF0.0
aF0.0
aF0.0
aF0.0
aF0.0
aF0.0
asS'Bacteria.Firmicutes.Clostridia.Oscillospirales.Oscillospiraceae.UCG_007.uncultured_bacterium'
p109
(lp110
F0.0
aF0.0
aF256.8499094083427
aF0.0
aF0.0
aF0.0
aF0.0
aF129.47971672089798
aF0.0
aF0.0
aF0.0
aF0.0
aF0.0
aF0.0
asS'Bacteria.Bacteroidota.Bacteroidia.Bacteroidales.Muribaculaceae.Muribaculaceae.uncultured_Barnesiella'
p111
(lp112
F3842.7431274017144
aF1132.616427535535
aF6577.440247686614
aF506.98002860815865
aF0.0
aF0.0
aF0.0
aF0.0
aF0.0
aF0.0
aF0.0
aF0.0
aF0.0
aF0.0
asS'Bacteria.Bacteroidota.Bacteroidia.Bacteroidales'
p113
(lp114
F193023.94324564
aF769000.580936101
aF519301.92359756463
aF88884.4628727661
aF506957.46010109625
aF116079.0287173514
aF87946.74141555712
aF556002.7922582387
aF697237.0351812748
aF184459.12504572756
aF256817.9799236031
aF16796.812179475728
aF12916.723133215888
aF9469.696969696972
asS'Bacteria.Firmicutes.Clostridia.Oscillospirales.Oscillospiraceae.Intestinimonas.Intestinimonas_butyriciproducens'
p115
(lp116
F0.0
aF62.690946173553606
aF0.0
aF0.0
aF0.0
aF0.0
aF0.0
aF0.0
aF0.0
aF0.0
aF0.0
aF0.0
aF0.0
aF0.0
asS'Bacteria.Cyanobacteria'
p117
(lp118
F0.0
aF0.0
aF111.07023109549954
aF1321.7693602998422
aF454.36474129607547
aF0.0
aF0.0
aF4396.680815609623
aF6388.461400808847
aF0.0
aF50.762065508445545
aF0.0
aF0.0
aF1073.2323232323236
asS'Bacteria.Cyanobacteria.Cyanobacteriia.Chloroplast.Chloroplast.Chloroplast'
p119
(lp120
F0.0
aF0.0
aF0.0
aF0.0
aF454.36474129607547
aF0.0
aF0.0
aF0.0
aF0.0
aF0.0
aF0.0
aF0.0
aF0.0
aF0.0
asS'Bacteria.Firmicutes.Bacilli.RF39.RF39.RF39.unidentified'
p121
(lp122
F0.0
aF0.0
aF142.3087335911088
aF253.49001430407932
aF0.0
aF0.0
aF0.0
aF337.7731740545165
aF0.0
aF473.4135267155863
aF469.5491059531213
aF0.0
aF110.1097709716764
aF0.0
asS'Bacteria.Firmicutes.Clostridia.Peptococcales'
p123
(lp124
F0.0
aF0.0
aF236.02424107793652
aF778.5764725053864
aF0.0
aF851.2163433537926
aF0.0
aF6851.165880405777
aF2791.5965785047065
aF516.4511200533668
aF1072.3486338659122
aF0.0
aF482.78899579888883
aF1325.7575757575762
asS'Bacteria.Firmicutes.Clostridia.Lachnospirales.Lachnospiraceae.Hungatella'
p125
(lp126
F0.0
aF14398.020637859476
aF0.0
aF0.0
aF0.0
aF0.0
aF0.0
aF0.0
aF0.0
aF0.0
aF0.0
aF0.0
aF0.0
aF0.0
asS'Bacteria.Firmicutes.Bacilli.Staphylococcales.Staphylococcaceae.Jeotgalicoccus'
p127
(lp128
F0.0
aF0.0
aF0.0
aF344.02216226982193
aF0.0
aF0.0
aF0.0
aF0.0
aF0.0
aF0.0
aF0.0
aF0.0
aF0.0
aF0.0
asS'Bacteria.Firmicutes.Clostridia.Oscillospirales.Ruminococcaceae.UBA1819'
p129
(lp130
F0.0
aF0.0
aF0.0
aF0.0
aF0.0
aF0.0
aF0.0
aF0.0
aF0.0
aF774.6766800800503
aF50.762065508445545
aF250.16528777942574
aF220.2195419433528
aF0.0
asS'Bacteria.Proteobacteria.Alphaproteobacteria.Rhodobacterales.Rhodobacteraceae.Rubellimicrobium'
p131
(lp132
F0.0
aF0.0
aF0.0
aF0.0
aF1249.5030385642076
aF0.0
aF0.0
aF0.0
aF0.0
aF0.0
aF0.0
aF0.0
aF0.0
aF0.0
asS'Bacteria.Firmicutes.Clostridia.Oscillospirales.Ruminococcaceae.Anaerofilum.uncultured_bacterium'
p133
(lp134
F0.0
aF0.0
aF65.94794971295286
aF0.0
aF0.0
aF0.0
aF0.0
aF84.44329351362913
aF0.0
aF0.0
aF0.0
aF0.0
aF0.0
aF0.0
asS'Bacteria.Firmicutes.Clostridia.Clostridia_UCG_014.Clostridia_UCG_014.Clostridia_UCG_014.uncultured_bacterium'
p135
(lp136
F0.0
aF0.0
aF7781.858066128437
aF43364.89887559071
aF9655.250752541604
aF0.0
aF7358.093903293623
aF13983.809405856984
aF7820.0493897856195
aF4755.654063824753
aF19359.38273328342
aF13651.877133105805
aF2210.6654018159647
aF14835.85858585859
asS'Bacteria.Firmicutes.Clostridia.Oscillospirales.UCG_010'
p137
(lp138
F0.0
aF121.20249593553696
aF2231.817456075194
aF651.8314653533469
aF0.0
aF0.0
aF0.0
aF4284.0897575914505
aF930.532192834902
aF0.0
aF615.4900442899022
aF0.0
aF321.85933053259254
aF0.0
asS'Bacteria.Firmicutes.Negativicutes.Veillonellales_Selenomonadales.Selenomonadaceae'
p139
(lp140
F0.0
aF7096.615106846268
aF1044.7543612420427
aF0.0
aF0.0
aF0.0
aF0.0
aF0.0
aF0.0
aF0.0
aF0.0
aF0.0
aF0.0
aF0.0
asS'Bacteria.Firmicutes.Clostridia.Oscillospirales.UCG_010.UCG_010.unidentified'
p141
(lp142
F0.0
aF0.0
aF267.2627435735458
aF0.0
aF0.0
aF0.0
aF0.0
aF2054.7868088316422
aF626.319745177338
aF0.0
aF380.71549131334154
aF0.0
aF0.0
aF0.0
asS'Bacteria.Proteobacteria.Alphaproteobacteria.Rickettsiales.Mitochondria'
p143
(lp144
F0.0
aF0.0
aF0.0
aF0.0
aF0.0
aF0.0
aF0.0
aF90.07284641453774
aF0.0
aF0.0
aF0.0
aF0.0
aF0.0
aF0.0
asS'Bacteria.Proteobacteria.Alphaproteobacteria.Sphingomonadales.Sphingomonadaceae.Sphingomonas'
p145
(lp146
F0.0
aF0.0
aF65.94794971295286
aF0.0
aF0.0
aF0.0
aF0.0
aF0.0
aF0.0
aF0.0
aF0.0
aF0.0
aF0.0
aF0.0
asS'Bacteria.Firmicutes.Clostridia.Eubacteriales.Anaerofustaceae'
p147
(lp148
F0.0
aF0.0
aF0.0
aF0.0
aF0.0
aF1702.4326867075852
aF0.0
aF0.0
aF0.0
aF0.0
aF0.0
aF357.3789825420368
aF0.0
aF0.0
asS'Bacteria.Elusimicrobiota'
p149
(lp150
F0.0
aF91.94672105454528
aF190.90195969538985
aF0.0
aF0.0
aF0.0
aF0.0
aF0.0
aF0.0
aF0.0
aF0.0
aF0.0
aF0.0
aF0.0
asS'Bacteria.Proteobacteria.Gammaproteobacteria.Pseudomonadales.Pseudomonadaceae'
p151
(lp152
F0.0
aF0.0
aF572.7058790861696
aF1629.578663383367
aF0.0
aF2105.640428296224
aF15066.57323055361
aF0.0
aF0.0
aF0.0
aF272.8461021078948
aF1876.239658345693
aF457.3790486515789
aF5997.474747474748
asS'Bacteria.Firmicutes.Bacilli.Izemoplasmatales.Izemoplasmatales'
p153
(lp154
F0.0
aF0.0
aF0.0
aF0.0
aF0.0
aF0.0
aF0.0
aF236.44122183816154
aF0.0
aF0.0
aF0.0
aF0.0
aF0.0
aF0.0
asS'Bacteria.Firmicutes.Clostridia.Eubacteriales.Anaerofustaceae.Anaerofustis.Anaerofustis_stercorihominis'
p155
(lp156
F0.0
aF0.0
aF0.0
aF0.0
aF0.0
aF1702.4326867075852
aF0.0
aF0.0
aF0.0
aF0.0
aF0.0
aF0.0
aF0.0
aF0.0
asS'Bacteria.Proteobacteria.Gammaproteobacteria.Pseudomonadales.Pseudomonadaceae.Pseudomonas'
p157
(lp158
F0.0
aF0.0
aF572.7058790861696
aF1629.578663383367
aF0.0
aF2105.640428296224
aF15066.57323055361
aF0.0
aF0.0
aF0.0
aF272.8461021078948
aF1876.239658345693
aF457.3790486515789
aF5997.474747474748
asS'Bacteria.Firmicutes.Bacilli.Staphylococcales.Staphylococcaceae.Jeotgalicoccus.Jeotgalicoccus_schoeneichii'
p159
(lp160
F0.0
aF0.0
aF0.0
aF344.02216226982193
aF0.0
aF0.0
aF0.0
aF0.0
aF0.0
aF0.0
aF0.0
aF0.0
aF0.0
aF0.0
asS'Bacteria.Firmicutes.Clostridia.uncultured.uncultured.uncultured.uncultured_bacterium'
p161
(lp162
F0.0
aF0.0
aF114.54117581723392
aF597.5121765739012
aF0.0
aF716.8137628242464
aF0.0
aF0.0
aF0.0
aF0.0
aF0.0
aF0.0
aF186.3396124136062
aF0.0
asS'Bacteria.Firmicutes.Clostridia.Clostridia.Hungateiclostridiaceae.Ruminiclostridium'
p163
(lp164
F0.0
aF0.0
aF0.0
aF0.0
aF0.0
aF0.0
aF0.0
aF0.0
aF0.0
aF0.0
aF57.107323697001235
aF0.0
aF0.0
aF0.0
asS'Bacteria.Actinobacteriota.Actinobacteria.Micrococcales.Micrococcaceae'
p165
(lp166
F0.0
aF121.20249593553696
aF128.42495470417134
aF416.447880642416
aF0.0
aF0.0
aF0.0
aF90.07284641453774
aF0.0
aF0.0
aF0.0
aF0.0
aF0.0
aF1767.6767676767681
asS'Bacteria.Bacteroidota.Bacteroidia.Bacteroidales.Marinifilaceae.Odoribacter.uncultured_bacterium'
p167
(lp168
F0.0
aF37.614567704132156
aF86.77361804335902
aF0.0
aF0.0
aF0.0
aF0.0
aF0.0
aF0.0
aF0.0
aF0.0
aF0.0
aF0.0
aF0.0
asS'Bacteria.Proteobacteria.Gammaproteobacteria.Burkholderiales'
p169
(lp170
F0.0
aF5566.95602021156
aF2662.214601570254
aF5268.971011606221
aF8916.908047935482
aF13485.058913131135
aF18570.42747021724
aF3405.879505049708
aF2218.961382913997
aF430.3759333778057
aF1059.6581174888006
aF2394.4391830316467
aF2210.6654018159647
aF20517.676767676774
asS'Bacteria.Firmicutes.Clostridia.Oscillospirales.Ruminococcaceae.Ruminococcus'
p171
(lp172
F0.0
aF0.0
aF39370.925978632855
aF11171.667058972638
aF6077.12841483501
aF10080.193539715965
aF4555.010511562719
aF7110.125313847572
aF5583.193157009413
aF0.0
aF2132.006751354713
aF26606.86525025464
aF30390.296788182688
aF4608.58585858586
asS'Archaea.Euryarchaeota.Methanobacteria.Methanobacteriales.Methanobacteriaceae'
p173
(lp174
F0.0
aF83.5879282314048
aF461.63564799066995
aF0.0
aF0.0
aF0.0
aF0.0
aF0.0
aF0.0
aF0.0
aF0.0
aF0.0
aF0.0
aF0.0
asS'Bacteria.Firmicutes.Clostridia.Lachnospirales.Lachnospiraceae.ASF356'
p175
(lp176
F0.0
aF0.0
aF0.0
aF0.0
aF0.0
aF0.0
aF0.0
aF151.99792832453244
aF0.0
aF0.0
aF0.0
aF0.0
aF0.0
aF0.0
asS'Bacteria.Firmicutes.Clostridia.Lachnospirales.Lachnospiraceae.A2.unidentified'
p177
(lp178
F0.0
aF0.0
aF0.0
aF0.0
aF0.0
aF0.0
aF0.0
aF0.0
aF0.0
aF0.0
aF6370.639221309915
aF1786.894912710184
aF1795.636265076569
aF0.0
asS'Bacteria.Firmicutes.Clostridia.Christensenellales'
p179
(lp180
F0.0
aF0.0
aF2887.8260084829885
aF13851.41863875862
aF21298.347248253536
aF1568.030106178039
aF0.0
aF3996.982559645112
aF1932.6437851186429
aF1334.1653934711976
aF4784.324674170993
aF786.233761592481
aF525.1389077110721
aF177588.3838383839
asS'Bacteria.Bacteroidota.Bacteroidia.Bacteroidales.Prevotellaceae.Prevotellaceae_Ga6A1_group'
p181
(lp182
F0.0
aF20445.607245401614
aF0.0
aF0.0
aF0.0
aF0.0
aF0.0
aF0.0
aF0.0
aF0.0
aF0.0
aF0.0
aF0.0
aF0.0
asS'Bacteria.Patescibacteria.Saccharimonadia.Saccharimonadales.Saccharimonadaceae.Candidatus_Saccharimonas.uncultured_bacterium'
p183
(lp184
F2955.9562518474727
aF0.0
aF22804.10682179475
aF2299.5165583298626
aF28284.2051456807
aF851.2163433537926
aF0.0
aF332.14362115360785
aF0.0
aF2151.8796668890286
aF2804.6041193416163
aF1179.3506423887216
aF3828.4320368613644
aF15782.828282828288
asS'Bacteria.Bacteroidota.Bacteroidia.Bacteroidales.Prevotellaceae.Prevotella'
p185
(lp186
F0.0
aF130384.62985175678
aF780.9625623902311
aF597.5121765739012
aF0.0
aF0.0
aF0.0
aF0.0
aF0.0
aF0.0
aF0.0
aF0.0
aF0.0
aF0.0
asS'Bacteria.Acidobacteriota.Acidobacteriae.Bryobacterales.Bryobacteraceae'
p187
(lp188
F0.0
aF0.0
aF0.0
aF0.0
aF681.5471119441132
aF0.0
aF0.0
aF0.0
aF0.0
aF0.0
aF0.0
aF0.0
aF0.0
aF0.0
asS'Bacteria.Cyanobacteria.Vampirivibrionia.Gastranaerophilales.Gastranaerophilales'
p189
(lp190
F0.0
aF0.0
aF111.07023109549954
aF1321.7693602998422
aF0.0
aF0.0
aF0.0
aF4396.680815609623
aF6388.461400808847
aF0.0
aF50.762065508445545
aF0.0
aF0.0
aF1073.2323232323236
asS'Bacteria.Bacteroidota.Bacteroidia.Bacteroidales.Prevotellaceae'
p191
(lp192
F0.0
aF4350.75166444462
aF1197.4759289983544
aF0.0
aF0.0
aF0.0
aF0.0
aF0.0
aF0.0
aF0.0
aF0.0
aF0.0
aF0.0
aF0.0
asS'Bacteria.Firmicutes.Clostridia.Oscillospirales.Ruminococcaceae.Incertae_Sedis'
p193
(lp194
F0.0
aF631.0888581471062
aF152.72156775631188
aF0.0
aF0.0
aF0.0
aF0.0
aF320.8845153517907
aF0.0
aF0.0
aF0.0
aF0.0
aF160.92966526629627
aF0.0
asS'Bacteria.Firmicutes.Clostridia.Lachnospirales.Lachnospiraceae.Lachnospiraceae_UCG_001.unidentified'
p195
(lp196
F0.0
aF0.0
aF0.0
aF0.0
aF0.0
aF0.0
aF0.0
aF0.0
aF0.0
aF5551.849540573694
aF0.0
aF2805.4250129549887
aF5564.778425260876
aF0.0
asS'Bacteria.Proteobacteria.Gammaproteobacteria.Burkholderiales.Burkholderiaceae'
p197
(lp198
F0.0
aF171.35525287437983
aF267.2627435735458
aF2553.0065726339417
aF6077.12841483501
aF3808.073115003809
aF10161.177295024529
aF78.81374061272052
aF0.0
aF0.0
aF793.1572735694616
aF2144.273895252221
aF1871.866106518499
aF5934.343434343436
asS'Bacteria.Proteobacteria.Gammaproteobacteria.Enterobacterales.Morganellaceae.Proteus'
p199
(lp200
F0.0
aF238.22559545950367
aF0.0
aF0.0
aF0.0
aF0.0
aF0.0
aF0.0
aF0.0
aF0.0
aF0.0
aF0.0
aF0.0
aF0.0
asS'Bacteria.Firmicutes.Clostridia.Oscillospirales.Ruminococcaceae.Anaerotruncus.uncultured_bacterium'
p201
(lp202
F0.0
aF0.0
aF0.0
aF0.0
aF0.0
aF0.0
aF0.0
aF0.0
aF0.0
aF0.0
aF310.9176512392289
aF0.0
aF0.0
aF0.0
asS'Bacteria.Firmicutes.Clostridia.Lachnospirales.Lachnospiraceae.Eisenbergiella'
p203
(lp204
F0.0
aF1914.1635564991698
aF0.0
aF506.98002860815865
aF0.0
aF0.0
aF0.0
aF0.0
aF0.0
aF0.0
aF0.0
aF0.0
aF0.0
aF0.0
asS'Bacteria.Firmicutes.Clostridia.Oscillospirales.Ruminococcaceae.uncultured._Clostridium__leptum'
p205
(lp206
F0.0
aF0.0
aF0.0
aF0.0
aF0.0
aF0.0
aF0.0
aF78.81374061272052
aF0.0
aF0.0
aF0.0
aF0.0
aF0.0
aF0.0
asS'Bacteria.Desulfobacterota.Desulfovibrionia.Desulfovibrionales.Desulfovibrionaceae'
p207
(lp208
F0.0
aF3723.8422027090837
aF3404.996772021408
aF12004.56282025747
aF14369.284943488388
aF0.0
aF0.0
aF0.0
aF0.0
aF0.0
aF0.0
aF0.0
aF0.0
aF0.0
asS'Bacteria.Proteobacteria.Gammaproteobacteria.Pseudomonadales'
p209
(lp210
F0.0
aF0.0
aF572.7058790861696
aF1629.578663383367
aF0.0
aF2777.653330943955
aF15066.57323055361
aF28.14776450454304
aF0.0
aF0.0
aF355.3344585591188
aF1929.8465057269984
aF457.3790486515789
aF8080.808080808083
asS'Bacteria.Firmicutes.Clostridia.Oscillospirales.Butyricicoccaceae.UCG_008'
p211
(lp212
F0.0
aF0.0
aF0.0
aF0.0
aF0.0
aF0.0
aF3503.85423966363
aF0.0
aF0.0
aF1936.6917002001258
aF0.0
aF0.0
aF0.0
aF0.0
asS'Bacteria.Firmicutes.Clostridia.Oscillospirales.Butyricicoccaceae.UCG_009'
p213
(lp214
F0.0
aF0.0
aF135.36684414764008
aF1104.49220518206
aF0.0
aF0.0
aF0.0
aF529.1779726854093
aF0.0
aF1527.8345634912102
aF0.0
aF1107.874845880314
aF262.56945385553604
aF0.0
asS'Bacteria.Proteobacteria.Alphaproteobacteria.Rhizobiales.Beijerinckiaceae'
p215
(lp216
F0.0
aF0.0
aF0.0
aF0.0
aF0.0
aF0.0
aF0.0
aF0.0
aF0.0
aF0.0
aF0.0
aF0.0
aF0.0
aF883.8383838383841
asS'Bacteria.Firmicutes.Bacilli.Lactobacillales.Lactobacillaceae.Lactobacillus.Lactobacillus_intestinalis'
p217
(lp218
F0.0
aF405.4014519223133
aF329.7397485647643
aF0.0
aF0.0
aF0.0
aF0.0
aF3107.5132013015523
aF0.0
aF0.0
aF0.0
aF0.0
aF0.0
aF17992.424242424247
asS'Bacteria.Firmicutes.Clostridia.Monoglobales.Monoglobaceae.Monoglobus.uncultured_rumen'
p219
(lp220
F0.0
aF0.0
aF0.0
aF579.4057469807527
aF0.0
aF358.4068814121232
aF0.0
aF0.0
aF0.0
aF0.0
aF0.0
aF0.0
aF0.0
aF5871.212121212122
asS'Bacteria.Deferribacterota.Deferribacteres'
p221
(lp222
F0.0
aF0.0
aF0.0
aF0.0
aF0.0
aF0.0
aF0.0
aF67.5546348109033
aF0.0
aF0.0
aF0.0
aF410.98582992334235
aF0.0
aF0.0
asS'Bacteria.Firmicutes.Clostridia.Oscillospirales.Oscillospiraceae.Colidextribacter.uncultured_bacterium'
p223
(lp224
F0.0
aF0.0
aF0.0
aF1593.36580419707
aF0.0
aF0.0
aF0.0
aF0.0
aF0.0
aF0.0
aF0.0
aF0.0
aF0.0
aF0.0
asS'Bacteria.Deferribacterota.Deferribacteres.Deferribacterales.Deferribacteraceae.Mucispirillum.Mucispirillum_schaedleri'
p225
(lp226
F0.0
aF0.0
aF0.0
aF0.0
aF0.0
aF0.0
aF0.0
aF67.5546348109033
aF0.0
aF0.0
aF0.0
aF410.98582992334235
aF0.0
aF0.0
asS'Bacteria.Actinobacteriota.Actinobacteria.Micrococcales.Dermabacteraceae'
p227
(lp228
F0.0
aF0.0
aF0.0
aF217.27715511778226
aF0.0
aF0.0
aF0.0
aF0.0
aF0.0
aF0.0
aF0.0
aF0.0
aF0.0
aF0.0
asS'Bacteria.Firmicutes.Clostridia.Lachnospirales.Lachnospiraceae.Lachnoclostridium.Extibacter_muris'
p229
(lp230
F0.0
aF1203.666166532229
aF0.0
aF0.0
aF0.0
aF0.0
aF0.0
aF0.0
aF0.0
aF0.0
aF0.0
aF0.0
aF0.0
aF0.0
asS'Bacteria.Firmicutes.Clostridia.Lachnospirales.Lachnospiraceae.Lachnospiraceae_NK4A136_group.uncultured_bacterium'
p231
(lp232
F0.0
aF0.0
aF0.0
aF0.0
aF0.0
aF0.0
aF0.0
aF816.2851706317483
aF0.0
aF2818.9623636246274
aF793.1572735694616
aF6629.380126154782
aF2744.2742919094735
aF0.0
asS'Bacteria.Verrucomicrobiota.Verrucomicrobiae.Verrucomicrobiales'
p233
(lp234
F0.0
aF0.0
aF0.0
aF1068.279345995763
aF908.7294825921509
aF55508.26575870258
aF142606.86755430975
aF7909.5218257765955
aF465.266096417451
aF16698.586215058862
aF87133.08544524678
aF5342.81578900345
aF6149.207209649006
aF0.0
asS'Bacteria.Firmicutes.Negativicutes.Veillonellales_Selenomonadales.Selenomonadaceae.Quinella'
p235
(lp236
F0.0
aF7096.615106846268
aF1044.7543612420427
aF0.0
aF0.0
aF0.0
aF0.0
aF0.0
aF0.0
aF0.0
aF0.0
aF0.0
aF0.0
aF0.0
asS'Bacteria.Cyanobacteria.Vampirivibrionia.Gastranaerophilales.Gastranaerophilales.Gastranaerophilales.Acinetobacter_sp_'
p237
(lp238
F0.0
aF0.0
aF0.0
aF0.0
aF0.0
aF0.0
aF0.0
aF0.0
aF1861.064385669804
aF0.0
aF0.0
aF0.0
aF0.0
aF0.0
asS'Bacteria.Actinobacteriota.Actinobacteria.Micrococcales.Dermabacteraceae.Brachybacterium'
p239
(lp240
F0.0
aF0.0
aF0.0
aF217.27715511778226
aF0.0
aF0.0
aF0.0
aF0.0
aF0.0
aF0.0
aF0.0
aF0.0
aF0.0
aF0.0
asS'Bacteria.Firmicutes.Clostridia.Lachnospirales.Lachnospiraceae.Lachnospiraceae_UCG_001.uncultured_bacterium'
p241
(lp242
F0.0
aF0.0
aF0.0
aF0.0
aF0.0
aF0.0
aF0.0
aF0.0
aF0.0
aF0.0
aF0.0
aF0.0
aF135.51971811898633
aF0.0
asS'Bacteria.Firmicutes.Clostridia.Oscillospirales.Butyricicoccaceae.Butyricicoccus.bacterium_NLAE_zl_H60'
p243
(lp244
F0.0
aF2904.6805060413167
aF0.0
aF0.0
aF0.0
aF0.0
aF0.0
aF0.0
aF0.0
aF0.0
aF0.0
aF0.0
aF0.0
aF0.0
asS'Bacteria.Firmicutes.Clostridia.Lachnospirales.Lachnospiraceae.Blautia'
p245
(lp246
F0.0
aF22648.14915429913
aF79.8317285998903
aF43781.34675623313
aF1079.1162605781794
aF73607.8132700148
aF51156.271899089
aF0.0
aF0.0
aF0.0
aF0.0
aF0.0
aF0.0
aF0.0
asS'Bacteria.Firmicutes.Clostridia.Oscillospirales.Oscillospiraceae.NK4A214_group.unidentified'
p247
(lp248
F0.0
aF0.0
aF256.8499094083427
aF2860.8158757174665
aF1987.84574317033
aF0.0
aF0.0
aF2370.041771282524
aF393.68669696861247
aF1915.1729035312355
aF2176.4235586746026
aF321.6410842878331
aF796.1783439490448
aF0.0
asS'Bacteria.Deferribacterota.Deferribacteres.Deferribacterales.Deferribacteraceae'
p249
(lp250
F0.0
aF0.0
aF0.0
aF0.0
aF0.0
aF0.0
aF0.0
aF67.5546348109033
aF0.0
aF0.0
aF0.0
aF410.98582992334235
aF0.0
aF0.0
asS'Bacteria.Firmicutes.Clostridia.Oscillospirales.Oscillospiraceae.UCG_003'
p251
(lp252
F0.0
aF0.0
aF0.0
aF0.0
aF0.0
aF0.0
aF0.0
aF0.0
aF0.0
aF0.0
aF158.6314547138923
aF0.0
aF0.0
aF0.0
asS'Bacteria.Firmicutes.Clostridia.Oscillospirales.Oscillospiraceae.UCG_005'
p253
(lp254
F0.0
aF0.0
aF520.6417082601541
aF1140.705064368357
aF2669.3928551144436
aF0.0
aF0.0
aF416.586914667237
aF0.0
aF301.26315336446396
aF253.81032754222772
aF0.0
aF59.289876677056526
aF0.0
asS'Bacteria.Firmicutes.Clostridia.Christensenellales.Christensenellaceae.uncultured.uncultured_bacterium'
p255
(lp256
F0.0
aF0.0
aF298.501246069155
aF0.0
aF0.0
aF0.0
aF0.0
aF0.0
aF0.0
aF0.0
aF0.0
aF0.0
aF0.0
aF0.0
asS'Bacteria.Firmicutes.Clostridia.Peptostreptococcales_Tissierellales.Anaerovoracaceae'
p257
(lp258
F0.0
aF0.0
aF0.0
aF488.87359901501014
aF0.0
aF0.0
aF0.0
aF118.22061091908077
aF0.0
aF1032.9022401067336
aF0.0
aF804.1027107195828
aF347.26927767990253
aF1893.9393939393944
asS'Bacteria.Actinobacteriota.Actinobacteria.Streptomycetales'
p259
(lp260
F0.0
aF0.0
aF0.0
aF0.0
aF0.0
aF0.0
aF3503.85423966363
aF0.0
aF0.0
aF0.0
aF0.0
aF0.0
aF0.0
aF0.0
asS'Bacteria.Proteobacteria.Gammaproteobacteria.Pseudomonadales.Moraxellaceae.Psychrobacter'
p261
(lp262
F0.0
aF0.0
aF0.0
aF0.0
aF0.0
aF0.0
aF0.0
aF0.0
aF0.0
aF0.0
aF82.48835645122402
aF0.0
aF0.0
aF0.0
asS'Bacteria.Firmicutes.Bacilli.RF39'
p263
(lp264
F0.0
aF41.7939641157024
aF6136.630268026351
aF3440.221622698219
aF13914.92020219231
aF1120.021504412885
aF0.0
aF4925.858788295032
aF858.9527933860635
aF24273.202642508244
aF2335.055013388495
aF5700.194771545487
aF7004.675430275106
aF11868.686868686871
asS'Bacteria.Bacteroidota.Bacteroidia.Bacteroidales.Rikenellaceae.Rikenella.uncultured_bacterium'
p265
(lp266
F0.0
aF430.47783039173476
aF0.0
aF0.0
aF0.0
aF0.0
aF0.0
aF0.0
aF0.0
aF0.0
aF0.0
aF0.0
aF0.0
aF0.0
asS'Bacteria.Bacteroidota.Bacteroidia.Bacteroidales.Rikenellaceae.Alistipes.Alistipes_finegoldii'
p267
(lp268
F0.0
aF0.0
aF0.0
aF0.0
aF0.0
aF0.0
aF0.0
aF377.18004436087676
aF0.0
aF0.0
aF767.7762408152389
aF0.0
aF0.0
aF0.0
asS'Bacteria.Firmicutes.Clostridia.Oscillospirales.Oscillospiraceae.uncultured.uncultured_Clostridiales'
p269
(lp270
F0.0
aF0.0
aF0.0
aF0.0
aF5054.807746918839
aF0.0
aF0.0
aF0.0
aF1360.008589527934
aF0.0
aF387.06074950189725
aF0.0
aF0.0
aF0.0
asS'Bacteria.Firmicutes.Clostridia.Lachnospirales.Lachnospiraceae.Tyzzerella'
p271
(lp272
F0.0
aF0.0
aF0.0
aF0.0
aF0.0
aF0.0
aF0.0
aF0.0
aF0.0
aF150.63157668223198
aF120.55990558255817
aF0.0
aF0.0
aF0.0
asS'Bacteria.Proteobacteria.Alphaproteobacteria.Rhodospirillales.uncultured.uncultured'
p273
(lp274
F0.0
aF1776.243474917352
aF0.0
aF0.0
aF0.0
aF0.0
aF0.0
aF174.51613992816687
aF0.0
aF0.0
aF0.0
aF0.0
aF0.0
aF0.0
asS'Bacteria.Bacteroidota.Bacteroidia.Chitinophagales.Chitinophagaceae'
p275
(lp276
F0.0
aF0.0
aF0.0
aF0.0
aF851.9338899301415
aF0.0
aF0.0
aF0.0
aF0.0
aF0.0
aF0.0
aF0.0
aF0.0
aF0.0
asS'Bacteria.Firmicutes.Clostridia.Peptostreptococcales_Tissierellales.Peptostreptococcaceae.Romboutsia'
p277
(lp278
F0.0
aF5052.89026158842
aF7542.362880328766
aF25294.682141628487
aF7042.65349008917
aF5107.2980601227555
aF5255.781359495445
aF10347.118231870023
aF1914.7489352564332
aF0.0
aF9803.423901318545
aF200882.72608687886
aF235719.60970321187
aF50883.838383838396
asS'Bacteria.Firmicutes.Bacilli.Lactobacillales.Aerococcaceae'
p279
(lp280
F0.0
aF0.0
aF0.0
aF271.59644389722786
aF0.0
aF0.0
aF0.0
aF0.0
aF0.0
aF0.0
aF0.0
aF0.0
aF0.0
aF0.0
asS'Bacteria.Firmicutes.Clostridia.Lachnospirales.Lachnospiraceae.Roseburia'
p281
(lp282
F0.0
aF0.0
aF3842.335806959937
aF923.4279092505747
aF0.0
aF0.0
aF0.0
aF2139.2301023452715
aF0.0
aF2689.8495836112857
aF17163.92340004315
aF768.3648124653791
aF1592.3566878980896
aF0.0
asS'Bacteria.Firmicutes.Clostridia.Peptococcales.Peptococcaceae.Peptococcus'
p283
(lp284
F0.0
aF0.0
aF27.767557773874884
aF0.0
aF0.0
aF0.0
aF0.0
aF123.85016381998939
aF0.0
aF0.0
aF0.0
aF0.0
aF203.2795771784795
aF0.0
asS'Bacteria.Firmicutes.Clostridia.Lachnospirales.Lachnospiraceae.Roseburia.uncultured_bacterium'
p285
(lp286
F0.0
aF0.0
aF680.3051654599348
aF1430.4079378587332
aF0.0
aF358.4068814121232
aF0.0
aF2516.410146706148
aF0.0
aF624.0451033978184
aF494.93013870734404
aF0.0
aF0.0
aF0.0
asS'Bacteria.Firmicutes.Clostridia.Peptostreptococcales_Tissierellales.Anaerovoracaceae.Family_XIII_AD3011_group.uncultured_bacterium'
p287
(lp288
F0.0
aF0.0
aF225.61140691273346
aF0.0
aF0.0
aF0.0
aF0.0
aF382.80959726178537
aF0.0
aF0.0
aF0.0
aF196.5584403981202
aF0.0
aF0.0
asS'Bacteria.Firmicutes.Clostridia.Oscillospirales.Butyricicoccaceae.UCG_009.uncultured_organism'
p289
(lp290
F0.0
aF0.0
aF0.0
aF0.0
aF0.0
aF0.0
aF0.0
aF123.85016381998939
aF0.0
aF0.0
aF0.0
aF0.0
aF0.0
aF0.0
asS'Bacteria.Proteobacteria'
p291
(lp292
F11232.633757020396
aF9909.348891833039
aF5869.367524452804
aF12656.394285610817
aF31578.34952007724
aF29478.965996147133
aF63770.14716187806
aF5483.184525484984
aF2469.4892809849325
aF4217.684147102496
aF3718.3212984936363
aF12061.54066079374
aF9808.239598861635
aF58396.46464646465
asS'Bacteria.Bacteroidota.Bacteroidia'
p293
(lp294
F193023.94324564
aF769000.580936101
aF519301.92359756463
aF89137.95288707018
aF507809.3939910264
aF116079.0287173514
aF87946.74141555712
aF556002.7922582387
aF697237.0351812748
aF184459.12504572756
aF256817.9799236031
aF16796.812179475728
aF12916.723133215888
aF9469.696969696972
asS'Bacteria.Firmicutes.Clostridia.Clostridia_vadinBB60_group.Clostridia_vadinBB60_group.Clostridia_vadinBB60_group.unidentified'
p295
(lp296
F0.0
aF96.12611746611552
aF0.0
aF307.80930308352487
aF0.0
aF0.0
aF0.0
aF202.66390443270993
aF0.0
aF0.0
aF107.86938920544678
aF339.510033414935
aF67.75985905949317
aF0.0
asS'Bacteria.Proteobacteria.Gammaproteobacteria.Xanthomonadales.Xanthomonadaceae.Stenotrophomonas'
p297
(lp298
F0.0
aF0.0
aF0.0
aF0.0
aF0.0
aF0.0
aF0.0
aF0.0
aF0.0
aF0.0
aF0.0
aF89.3447456355092
aF0.0
aF0.0
asS'Bacteria.Firmicutes.Bacilli.Erysipelotrichales.Erysipelotrichaceae.Allobaculum.uncultured_bacterium'
p299
(lp300
F0.0
aF0.0
aF1176.6502606679483
aF0.0
aF0.0
aF0.0
aF0.0
aF0.0
aF0.0
aF0.0
aF1345.194735973807
aF0.0
aF0.0
aF0.0
asS'Bacteria.Proteobacteria.Gammaproteobacteria.Xanthomonadales.Xanthomonadaceae.Stenotrophomonas.Stenotrophomonas_rhizophila'
p301
(lp302
F0.0
aF0.0
aF0.0
aF0.0
aF0.0
aF0.0
aF0.0
aF0.0
aF0.0
aF0.0
aF0.0
aF89.3447456355092
aF0.0
aF0.0
asS'Bacteria.Proteobacteria.Alphaproteobacteria.Rhizobiales.Rhizobiaceae'
p303
(lp304
F0.0
aF0.0
aF211.727628025796
aF0.0
aF0.0
aF224.00430088257698
aF0.0
aF0.0
aF0.0
aF0.0
aF0.0
aF0.0
aF135.51971811898633
aF1010.1010101010104
asS'Bacteria.Proteobacteria.Alphaproteobacteria.Rhodobacterales'
p305
(lp306
F0.0
aF0.0
aF0.0
aF0.0
aF1249.5030385642076
aF0.0
aF0.0
aF0.0
aF0.0
aF0.0
aF0.0
aF0.0
aF0.0
aF0.0
asS'Bacteria.Firmicutes.Bacilli.Erysipelotrichales.Erysipelotrichaceae.Dubosiella.uncultured_bacterium'
p307
(lp308
F0.0
aF75.22913540826431
aF56027.98969823605
aF2480.5808542613477
aF23910.944510705973
aF7078.5359078894335
aF11562.718990889978
aF0.0
aF0.0
aF0.0
aF7588.9287935126085
aF446.723728177546
aF160.92966526629627
aF24873.737373737382
asS'Bacteria.Firmicutes.Clostridia.Oscillospirales.Ruminococcaceae.Harryflintia.uncultured_bacterium'
p309
(lp310
F0.0
aF0.0
aF0.0
aF0.0
aF0.0
aF0.0
aF0.0
aF0.0
aF0.0
aF0.0
aF177.6672292795594
aF0.0
aF0.0
aF0.0
asS'Bacteria.Actinobacteriota.Coriobacteriia.Coriobacteriales'
p311
(lp312
F0.0
aF472.2717945074371
aF2030.5026622146013
aF21763.928370964528
aF7780.996194695292
aF22624.434389140275
aF23475.823405746323
aF782.5078532262966
aF214.73819834651587
aF5444.255557229242
aF10717.141080470565
aF13419.580794453483
aF10562.0680308985
aF23484.848484848488
asS'Bacteria.Proteobacteria.Alphaproteobacteria.Rhizobiales.Rhizobiaceae.Allorhizobium_Neorhizobium_Pararhizobium_Rhizobium'
p313
(lp314
F0.0
aF0.0
aF152.72156775631188
aF0.0
aF0.0
aF224.00430088257698
aF0.0
aF0.0
aF0.0
aF0.0
aF0.0
aF0.0
aF135.51971811898633
aF1010.1010101010104
asS'Bacteria.Bacteroidota.Bacteroidia.Bacteroidales.Bacteroidaceae.Bacteroides.Bacteroides_caecimuris'
p315
(lp316
F0.0
aF7648.295433173539
aF0.0
aF0.0
aF0.0
aF1120.021504412885
aF0.0
aF382.80959726178537
aF2004.2231845674814
aF1269.609003464527
aF0.0
aF0.0
aF0.0
aF0.0
asS'Bacteria.Firmicutes.Bacilli.Acholeplasmatales.Acholeplasmataceae.Anaeroplasma.uncultured_bacterium'
p317
(lp318
F0.0
aF0.0
aF0.0
aF253.49001430407932
aF0.0
aF0.0
aF0.0
aF0.0
aF214.73819834651587
aF0.0
aF0.0
aF0.0
aF0.0
aF1704.545454545455
asS'Bacteria.Firmicutes.Bacilli.Erysipelotrichales.Erysipelotrichaceae.uncultured.uncultured_Allobaculum'
p319
(lp320
F0.0
aF0.0
aF2592.7957071355677
aF0.0
aF13630.942238882264
aF0.0
aF0.0
aF1047.0968395690013
aF769.4785440750152
aF0.0
aF57.107323697001235
aF804.1027107195828
aF330.3293129150292
aF4040.4040404040416
asS'Bacteria.Firmicutes.Clostridia.Oscillospirales.Oscillospiraceae.UCG_005.uncultured_Clostridiales'
p321
(lp322
F0.0
aF0.0
aF0.0
aF0.0
aF0.0
aF0.0
aF0.0
aF596.7326074963125
aF0.0
aF731.6390867422697
aF1104.0749248086904
aF0.0
aF0.0
aF0.0
asS'Bacteria.Firmicutes.Clostridia.Clostridia_UCG_014.Clostridia_UCG_014'
p323
(lp324
F80402.01005025125
aF8.35879282314048
aF175754.7569297411
aF335222.43748755177
aF128528.42619412734
aF97441.870883921
aF74632.09530483533
aF70588.96382449304
aF52127.697648616726
aF71270.25456736462
aF92482.13809819923
aF220270.5358897844
aF53835.20802276732
aF166224.7474747475
asS'Bacteria.Firmicutes.Clostridia.Lachnospirales.Lachnospiraceae.Coprococcus'
p325
(lp326
F0.0
aF0.0
aF0.0
aF0.0
aF0.0
aF4256.081716768963
aF4905.395935529082
aF0.0
aF0.0
aF0.0
aF0.0
aF0.0
aF0.0
aF5618.68686868687
asS'Bacteria.Firmicutes.Clostridia.Oscillospirales.Oscillospiraceae.Flavonifractor'
p327
(lp328
F0.0
aF769.0089397289241
aF0.0
aF0.0
aF0.0
aF0.0
aF0.0
aF0.0
aF0.0
aF0.0
aF0.0
aF0.0
aF0.0
aF0.0
asS'Bacteria.Deferribacterota.Deferribacteres.Deferribacterales.Deferribacteraceae.Mucispirillum'
p329
(lp330
F0.0
aF0.0
aF0.0
aF0.0
aF0.0
aF0.0
aF0.0
aF67.5546348109033
aF0.0
aF0.0
aF0.0
aF410.98582992334235
aF0.0
aF0.0
asS'Bacteria.Firmicutes.Bacilli.RF39.RF39'
p331
(lp332
F0.0
aF41.7939641157024
aF6136.630268026351
aF3440.221622698219
aF13914.92020219231
aF1120.021504412885
aF0.0
aF4925.858788295032
aF858.9527933860635
aF24273.202642508244
aF2335.055013388495
aF5700.194771545487
aF7004.675430275106
aF11868.686868686871
asS'Bacteria.Proteobacteria.Gammaproteobacteria.Burkholderiales.Alcaligenaceae.Achromobacter'
p333
(lp334
F0.0
aF0.0
aF284.6174671822176
aF0.0
aF0.0
aF896.0172035303079
aF0.0
aF0.0
aF0.0
aF0.0
aF158.6314547138923
aF0.0
aF177.86963003116958
aF0.0
asS'Bacteria.Actinobacteriota.Actinobacteria.Pseudonocardiales.Pseudonocardiaceae.Prauserella'
p335
(lp336
F0.0
aF0.0
aF0.0
aF0.0
aF0.0
aF0.0
aF0.0
aF0.0
aF0.0
aF0.0
aF0.0
aF0.0
aF101.63978858923976
aF0.0
asS'Bacteria.Elusimicrobiota.Elusimicrobia.Elusimicrobiales'
p337
(lp338
F0.0
aF91.94672105454528
aF190.90195969538985
aF0.0
aF0.0
aF0.0
aF0.0
aF0.0
aF0.0
aF0.0
aF0.0
aF0.0
aF0.0
aF0.0
asS'Bacteria.Proteobacteria.Gammaproteobacteria.Xanthomonadales.Xanthomonadaceae'
p339
(lp340
F0.0
aF0.0
aF0.0
aF0.0
aF0.0
aF0.0
aF0.0
aF0.0
aF0.0
aF0.0
aF0.0
aF89.3447456355092
aF0.0
aF0.0
asS'Bacteria.Firmicutes.Bacilli.Erysipelotrichales.Erysipelotrichaceae.Turicibacter.uncultured_bacterium'
p341
(lp342
F0.0
aF2892.1423168066062
aF8958.508326796386
aF4055.840228865269
aF9598.455159879593
aF1075.2206442363695
aF3854.239663629993
aF8095.297071506579
aF787.3733939372249
aF0.0
aF4498.788055685986
aF88433.429230027
aF107196.0970321182
aF67992.42424242425
asS'Bacteria.Firmicutes.Clostridia.Christensenellales.Christensenellaceae.Christensenellaceae_R_7_group.bacterium_YE57'
p343
(lp344
F0.0
aF0.0
aF118.01212053896828
aF0.0
aF0.0
aF0.0
aF0.0
aF349.03227985633373
aF0.0
aF0.0
aF0.0
aF0.0
aF0.0
aF0.0
asS'Bacteria.Bacteroidota.Bacteroidia.Bacteroidales.Marinifilaceae'
p345
(lp346
F0.0
aF388.68386627603235
aF86.77361804335902
aF0.0
aF0.0
aF0.0
aF0.0
aF0.0
aF0.0
aF0.0
aF0.0
aF0.0
aF0.0
aF0.0
asS'Bacteria.Firmicutes.Clostridia.Oscillospirales.Butyricicoccaceae'
p347
(lp348
F0.0
aF2904.6805060413167
aF135.36684414764008
aF9578.30125477557
aF511.16033395808495
aF7212.938488418979
aF3503.85423966363
aF529.1779726854093
aF0.0
aF3830.3458070624706
aF406.09652406756436
aF1107.874845880314
aF262.56945385553604
aF0.0
asS'Bacteria.Firmicutes.Clostridia.Oscillospirales._Eubacterium__coprostanoligenes_group._Eubacterium__coprostanoligenes_group.uncultured_Clostridium'
p349
(lp350
F0.0
aF0.0
aF0.0
aF0.0
aF0.0
aF0.0
aF0.0
aF1210.3538736953508
aF697.8991446261766
aF667.0826967355988
aF0.0
aF0.0
aF0.0
aF0.0
asS'Bacteria.Firmicutes.Clostridia.Oscillospirales.Butyricicoccaceae.Butyricicoccus.uncultured_bacterium'
p351
(lp352
F0.0
aF0.0
aF0.0
aF0.0
aF511.16033395808495
aF0.0
aF0.0
aF0.0
aF0.0
aF365.81954337113484
aF406.09652406756436
aF0.0
aF0.0
aF0.0
asS'Bacteria.Firmicutes.Clostridia.Oscillospirales.Ruminococcaceae.Pygmaiobacter'
p353
(lp354
F0.0
aF0.0
aF0.0
aF0.0
aF0.0
aF0.0
aF0.0
aF332.14362115360785
aF375.79184710640277
aF0.0
aF0.0
aF0.0
aF0.0
aF0.0
asS'Bacteria.Firmicutes.Clostridia.Lachnospirales.Lachnospiraceae.Lachnospiraceae_NK4A136_group.Trichinella_pseudospiralis'
p355
(lp356
F12415.016257759386
aF0.0
aF4585.117977411091
aF0.0
aF2101.436928494349
aF0.0
aF0.0
aF15486.900030399582
aF8893.740381518199
aF0.0
aF2557.139049987944
aF3091.328198988618
aF508.19894294619877
aF0.0
asS'Bacteria.Firmicutes.Clostridia.Oscillospirales.Oscillospiraceae.uncultured'
p357
(lp358
F0.0
aF296.737145221487
aF853.8524015466528
aF2625.432291006536
aF3578.1223377065944
aF0.0
aF0.0
aF30405.215217807396
aF15264.306932464837
aF3679.714230380239
aF6884.605134582926
aF482.46162643174966
aF296.44938338528266
aF0.0
asS'Bacteria.Firmicutes.Clostridia.Oscillospirales.Ruminococcaceae.Paludicola'
p359
(lp360
F0.0
aF0.0
aF0.0
aF0.0
aF0.0
aF0.0
aF0.0
aF0.0
aF0.0
aF301.26315336446396
aF0.0
aF0.0
aF0.0
aF0.0
asS'Bacteria.Proteobacteria.Gammaproteobacteria.Xanthomonadales'
p361
(lp362
F0.0
aF0.0
aF0.0
aF0.0
aF0.0
aF0.0
aF0.0
aF0.0
aF0.0
aF0.0
aF0.0
aF89.3447456355092
aF0.0
aF0.0
asS'Bacteria.Firmicutes.Clostridia.Clostridia_vadinBB60_group.Clostridia_vadinBB60_group.Clostridia_vadinBB60_group.uncultured_bacterium'
p363
(lp364
F0.0
aF3468.8990216032994
aF163.13440192151498
aF253.49001430407932
aF0.0
aF0.0
aF0.0
aF433.47557336996283
aF0.0
aF473.4135267155863
aF279.1913602964505
aF0.0
aF330.3293129150292
aF315.65656565656576
asS'Bacteria.Proteobacteria.Alphaproteobacteria.Rhodobacterales.Rhodobacteraceae'
p365
(lp366
F0.0
aF0.0
aF0.0
aF0.0
aF1249.5030385642076
aF0.0
aF0.0
aF0.0
aF0.0
aF0.0
aF0.0
aF0.0
aF0.0
aF0.0
asS'Bacteria.Patescibacteria'
p367
(lp368
F2955.9562518474727
aF0.0
aF22804.10682179475
aF2408.1551358887536
aF28284.2051456807
aF851.2163433537926
aF0.0
aF332.14362115360785
aF0.0
aF2151.8796668890286
aF2804.6041193416163
aF1179.3506423887216
aF3828.4320368613644
aF15782.828282828288
asS'Bacteria.Firmicutes.Clostridia.Oscillospirales.Oscillospiraceae.Papillibacter.uncultured_bacterium'
p369
(lp370
F0.0
aF0.0
aF177.0181808084524
aF0.0
aF0.0
aF0.0
aF0.0
aF1277.908508506254
aF1055.7961418703696
aF5164.511200533669
aF3838.8812040761945
aF1375.9090827868415
aF389.6191895920857
aF0.0
asS'Bacteria.Firmicutes.Clostridia.Oscillospirales.UCG_010.UCG_010'
p371
(lp372
F0.0
aF121.20249593553696
aF728.8983915642158
aF325.91573267667343
aF0.0
aF0.0
aF0.0
aF1812.7160340925718
aF304.21244765756416
aF0.0
aF234.77455297656064
aF0.0
aF0.0
aF0.0
asS'Bacteria.Bacteroidota.Bacteroidia.Bacteroidales.Bacteroidaceae'
p373
(lp374
F0.0
aF40795.08837333711
aF312.3850249560925
aF2082.23940321208
aF31123.984778781167
aF4166.479996415932
aF2803.0833917309037
aF8990.395982751048
aF14727.461436598545
aF5186.029997202559
aF3293.1889998604047
aF250.16528777942574
aF719.948502507115
aF0.0
asS'Bacteria.Bacteroidota.Bacteroidia.Bacteroidales.Bacteroidaceae.Bacteroides.Bacteroides_fragilis'
p375
(lp376
F0.0
aF342.71050574875966
aF0.0
aF1285.556501113545
aF0.0
aF0.0
aF0.0
aF422.2164675681456
aF697.8991446261766
aF0.0
aF2633.2821482506124
aF0.0
aF0.0
aF0.0
asS'Bacteria.Firmicutes.Bacilli.Erysipelotrichales'
p377
(lp378
F0.0
aF10799.5603274975
aF70078.37393181675
aF18034.003874775928
aF49582.55239393423
aF29613.36857667668
aF71478.62648913806
aF10144.454327437314
aF1771.590136358756
aF667.0826967355988
aF14898.666226728767
aF93168.70074870899
aF110109.7709716764
aF105744.94949494951
asS'Bacteria.Proteobacteria.Alphaproteobacteria'
p379
(lp380
F0.0
aF1776.243474917352
aF277.67557773874887
aF0.0
aF1249.5030385642076
aF224.00430088257698
aF0.0
aF264.5889863427046
aF0.0
aF0.0
aF0.0
aF0.0
aF135.51971811898633
aF1893.9393939393944
asS'Bacteria.Actinobacteriota.Coriobacteriia.Coriobacteriales.Eggerthellaceae.Enterorhabdus.mouse_gut'
p381
(lp382
F0.0
aF0.0
aF0.0
aF0.0
aF0.0
aF0.0
aF0.0
aF0.0
aF0.0
aF0.0
aF0.0
aF553.937422940157
aF0.0
aF0.0
asS'Bacteria.Firmicutes.Clostridia.Oscillospirales.Ruminococcaceae.Candidatus_Soleaferrea.Ruminococcaceae_bacterium'
p383
(lp384
F0.0
aF417.939641157024
aF104.12834165203083
aF0.0
aF0.0
aF0.0
aF0.0
aF0.0
aF0.0
aF0.0
aF0.0
aF0.0
aF0.0
aF0.0
asS'Bacteria.Firmicutes.Clostridia.Oscillospirales.UCG_010.UCG_010.uncultured_bacterium'
p385
(lp386
F0.0
aF0.0
aF163.13440192151498
aF325.91573267667343
aF0.0
aF0.0
aF0.0
aF416.586914667237
aF0.0
aF0.0
aF0.0
aF0.0
aF110.1097709716764
aF0.0
asS'Bacteria.Firmicutes.Clostridia.Oscillospirales.Ruminococcaceae.Ruminococcus.uncultured_Ruminococcus'
p387
(lp388
F4138.338752586462
aF2031.1866560231367
aF0.0
aF0.0
aF5395.581302890896
aF0.0
aF0.0
aF0.0
aF0.0
aF2216.4360568956995
aF0.0
aF178.6894912710184
aF271.03943623797267
aF9532.828282828286
asS'Bacteria.Firmicutes.Bacilli.Bacillales.Bacillaceae'
p389
(lp390
F0.0
aF0.0
aF79.8317285998903
aF0.0
aF0.0
aF0.0
aF0.0
aF0.0
aF0.0
aF0.0
aF0.0
aF0.0
aF0.0
aF0.0
asS'Bacteria.Firmicutes.Clostridia.Oscillospirales.UCG_010.UCG_010.uncultured_rumen'
p391
(lp392
F0.0
aF0.0
aF55.53511554774977
aF0.0
aF0.0
aF0.0
aF0.0
aF0.0
aF0.0
aF0.0
aF0.0
aF0.0
aF0.0
aF0.0
asS'Bacteria.Proteobacteria.Gammaproteobacteria.Pasteurellales.Pasteurellaceae.Rodentibacter'
p393
(lp394
F0.0
aF1391.73900505289
aF666.4213865729972
aF0.0
aF0.0
aF672.0129026477309
aF0.0
aF0.0
aF0.0
aF1205.0526134578558
aF0.0
aF0.0
aF0.0
aF0.0
asS'Bacteria.Proteobacteria.Alphaproteobacteria.Rhodospirillales.uncultured.uncultured.unidentified_rumen'
p395
(lp396
F0.0
aF91.94672105454528
aF0.0
aF0.0
aF0.0
aF0.0
aF0.0
aF0.0
aF0.0
aF0.0
aF0.0
aF0.0
aF0.0
aF0.0
asS'Archaea'
p397
(lp398
F0.0
aF83.5879282314048
aF461.63564799066995
aF0.0
aF0.0
aF0.0
aF0.0
aF0.0
aF0.0
aF0.0
aF0.0
aF0.0
aF0.0
aF0.0
asS'Bacteria.Firmicutes.Clostridia.Lachnospirales.Lachnospiraceae.Marvinbryantia'
p399
(lp400
F0.0
aF0.0
aF0.0
aF0.0
aF0.0
aF1209.6232247659157
aF0.0
aF0.0
aF0.0
aF1334.1653934711976
aF0.0
aF0.0
aF0.0
aF0.0
asS'Bacteria.Campilobacterota.Campylobacteria'
p401
(lp402
F0.0
aF639.4476509702467
aF458.1647032689357
aF2299.5165583298626
aF0.0
aF0.0
aF0.0
aF0.0
aF0.0
aF193.6691700200126
aF0.0
aF0.0
aF0.0
aF0.0
asS'Bacteria.Patescibacteria.Saccharimonadia.Saccharimonadales.Saccharimonadaceae'
p403
(lp404
F2955.9562518474727
aF0.0
aF22804.10682179475
aF2299.5165583298626
aF28284.2051456807
aF851.2163433537926
aF0.0
aF332.14362115360785
aF0.0
aF2151.8796668890286
aF2804.6041193416163
aF1179.3506423887216
aF3828.4320368613644
aF15782.828282828288
asS'Bacteria.Firmicutes.Clostridia.Oscillospirales.Ruminococcaceae.Pygmaiobacter.uncultured_bacterium'
p405
(lp406
F0.0
aF0.0
aF0.0
aF0.0
aF0.0
aF0.0
aF0.0
aF332.14362115360785
aF375.79184710640277
aF0.0
aF0.0
aF0.0
aF0.0
aF0.0
asS'Bacteria.Firmicutes'
p407
(lp408
F792787.4667454921
aF215957.77137865755
aF443260.46663380816
aF856705.7161998226
aF393877.43511103536
aF694189.3284351061
aF667834.6180798878
aF422109.50606302836
aF291882.8961025016
aF786834.800197973
aF637381.1850404198
aF944856.4229937637
aF949908.5241902698
aF889141.4141414142
asS'Bacteria.Proteobacteria.Gammaproteobacteria.Burkholderiales.Alcaligenaceae.Alcaligenes'
p409
(lp410
F0.0
aF0.0
aF0.0
aF0.0
aF0.0
aF0.0
aF0.0
aF0.0
aF0.0
aF0.0
aF0.0
aF250.16528777942574
aF0.0
aF0.0
asS'Bacteria.Firmicutes.Clostridia.Oscillospirales'
p411
(lp412
F0.0
aF0.0
aF0.0
aF325.91573267667343
aF0.0
aF0.0
aF0.0
aF0.0
aF0.0
aF0.0
aF0.0
aF0.0
aF0.0
aF0.0
asS'Bacteria.Actinobacteriota.Coriobacteriia.Coriobacteriales.Atopobiaceae'
p413
(lp414
F0.0
aF41.7939641157024
aF767.0787835032938
aF3566.9666298502593
aF681.5471119441132
aF13037.050311365982
aF5606.166783461807
aF281.47764504543045
aF0.0
aF0.0
aF8305.942968819403
aF3716.7414184371823
aF3845.3720016262373
aF0.0
asS'Bacteria.Firmicutes.Bacilli.Erysipelotrichales.Erysipelatoclostridiaceae'
p415
(lp416
F0.0
aF3936.991419699166
aF20.825668330406163
aF6898.549674989587
aF0.0
aF0.0
aF0.0
aF242.07077473907015
aF214.73819834651587
aF494.93232338447655
aF0.0
aF0.0
aF0.0
aF2272.727272727273
asS'Bacteria.Firmicutes.Bacilli.Acholeplasmatales.Acholeplasmataceae.Anaeroplasma'
p417
(lp418
F0.0
aF0.0
aF0.0
aF253.49001430407932
aF0.0
aF0.0
aF0.0
aF0.0
aF214.73819834651587
aF0.0
aF0.0
aF0.0
aF0.0
aF1704.545454545455
asS'Bacteria.Firmicutes.Clostridia.Lachnospirales.Lachnospiraceae.uncultured'
p419
(lp420
F0.0
aF0.0
aF0.0
aF0.0
aF0.0
aF0.0
aF0.0
aF213.92301023452714
aF0.0
aF0.0
aF139.59568014822526
aF0.0
aF355.73926006233916
aF0.0
asS'Bacteria.Proteobacteria.Gammaproteobacteria.Burkholderiales.Sutterellaceae.Parasutterella'
p421
(lp422
F0.0
aF5395.60076733718
aF1596.634571997806
aF470.7671694218616
aF0.0
aF8019.353971596257
aF0.0
aF3327.0657644369876
aF2218.961382913997
aF430.3759333778057
aF107.86938920544678
aF0.0
aF0.0
aF0.0
asS'Bacteria.Firmicutes.Bacilli.Erysipelotrichales.Erysipelotrichaceae.Dubosiella'
p423
(lp424
F0.0
aF75.22913540826431
aF56027.98969823605
aF2480.5808542613477
aF23910.944510705973
aF7078.5359078894335
aF11562.718990889978
aF0.0
aF0.0
aF0.0
aF7588.9287935126085
aF446.723728177546
aF160.92966526629627
aF24873.737373737382
asS'Bacteria.Firmicutes.Bacilli.Exiguobacterales.Exiguobacteraceae'
p425
(lp426
F0.0
aF0.0
aF0.0
aF0.0
aF0.0
aF716.8137628242464
aF0.0
aF0.0
aF0.0
aF0.0
aF0.0
aF0.0
aF0.0
aF0.0
asS'Bacteria.Firmicutes.Clostridia.Clostridia'
p427
(lp428
F0.0
aF0.0
aF76.36078387815594
aF0.0
aF0.0
aF0.0
aF0.0
aF112.59105801817216
aF0.0
aF0.0
aF57.107323697001235
aF0.0
aF0.0
aF0.0
asS'Bacteria.Firmicutes.Clostridia.Lachnospirales.Lachnospiraceae.A2'
p429
(lp430
F0.0
aF0.0
aF0.0
aF0.0
aF0.0
aF0.0
aF0.0
aF0.0
aF0.0
aF0.0
aF7189.1775276336
aF3144.9350463699234
aF1024.8678682748343
aF0.0
asS'Bacteria.Firmicutes.Negativicutes'
p431
(lp432
F0.0
aF7619.039658292548
aF1197.4759289983547
aF0.0
aF0.0
aF0.0
aF0.0
aF0.0
aF0.0
aF0.0
aF0.0
aF0.0
aF0.0
aF0.0
asS'Bacteria.Firmicutes.Bacilli.Exiguobacterales'
p433
(lp434
F0.0
aF0.0
aF0.0
aF0.0
aF0.0
aF716.8137628242464
aF0.0
aF0.0
aF0.0
aF0.0
aF0.0
aF0.0
aF0.0
aF0.0
asS'Bacteria.Firmicutes.Clostridia.Lachnospirales.Lachnospiraceae.uncultured.uncultured_bacterium'
p435
(lp436
F0.0
aF0.0
aF0.0
aF0.0
aF0.0
aF0.0
aF0.0
aF0.0
aF0.0
aF0.0
aF0.0
aF250.16528777942574
aF0.0
aF0.0
asS'Bacteria.Firmicutes.Clostridia.Oscillospirales.Ruminococcaceae.Negativibacillus'
p437
(lp438
F0.0
aF0.0
aF0.0
aF669.9378949464954
aF0.0
aF0.0
aF0.0
aF0.0
aF0.0
aF0.0
aF0.0
aF0.0
aF0.0
aF0.0
asS'Bacteria.Verrucomicrobiota.Verrucomicrobiae'
p439
(lp440
F0.0
aF0.0
aF0.0
aF1068.279345995763
aF908.7294825921509
aF55508.26575870258
aF142606.86755430975
aF7909.5218257765955
aF465.266096417451
aF16698.586215058862
aF87133.08544524678
aF5342.81578900345
aF6149.207209649006
aF0.0
asS'Bacteria.Cyanobacteria.Cyanobacteriia.Chloroplast'
p441
(lp442
F0.0
aF0.0
aF0.0
aF0.0
aF454.36474129607547
aF0.0
aF0.0
aF0.0
aF0.0
aF0.0
aF0.0
aF0.0
aF0.0
aF0.0
asS'Bacteria.Actinobacteriota.Actinobacteria.Bifidobacteriales.Bifidobacteriaceae'
p443
(lp444
F0.0
aF0.0
aF1978.4384913885856
aF0.0
aF13801.329016868292
aF49146.5436136374
aF5606.166783461807
aF2826.0355562561213
aF1342.113739665724
aF0.0
aF1376.9210269165853
aF5932.4911101978105
aF6725.166011654697
aF883.8383838383841
asS'Bacteria.Firmicutes.Clostridia.Monoglobales.Monoglobaceae.Monoglobus.uncultured_bacterium'
p445
(lp446
F0.0
aF0.0
aF1006.5739693029647
aF0.0
aF0.0
aF0.0
aF0.0
aF0.0
aF0.0
aF0.0
aF0.0
aF0.0
aF0.0
aF0.0
asS'Bacteria.Campilobacterota.Campylobacteria.Campylobacterales.Helicobacteraceae'
p447
(lp448
F0.0
aF639.4476509702467
aF458.1647032689357
aF2299.5165583298626
aF0.0
aF0.0
aF0.0
aF0.0
aF0.0
aF193.6691700200126
aF0.0
aF0.0
aF0.0
aF0.0
asS'Bacteria.Firmicutes.Clostridia.Oscillospirales._Eubacterium__coprostanoligenes_group._Eubacterium__coprostanoligenes_group'
p449
(lp450
F90747.85693171741
aF25.076378469421442
aF30964.297862592233
aF24787.70211302033
aF1817.4589651843019
aF537.6103221181847
aF0.0
aF14141.436887082426
aF31047.564510933753
aF105334.50969421795
aF26263.023642432014
aF48728.62426960671
aF36996.88304648327
aF7386.363636363638
asS'Bacteria.Bacteroidota.Bacteroidia.Bacteroidales.Prevotellaceae.Prevotellaceae_UCG_001.uncultured_bacterium'
p451
(lp452
F0.0
aF40314.45778600653
aF933.6841301465431
aF2553.0065726339417
aF5054.807746918839
aF761.6146230007618
aF0.0
aF2780.999133048853
aF16051.68032640206
aF559.4887133911475
aF5025.444485336109
aF303.77213516073124
aF0.0
aF631.3131313131315
asS'Bacteria.Firmicutes.Clostridia.Peptococcales.Peptococcaceae.uncultured.unidentified'
p453
(lp454
F0.0
aF0.0
aF142.3087335911088
aF0.0
aF0.0
aF0.0
aF0.0
aF6727.315716585787
aF2791.5965785047065
aF0.0
aF304.57239305067327
aF0.0
aF0.0
aF1325.7575757575762
asS'Bacteria.Proteobacteria.Gammaproteobacteria.Enterobacterales.Enterobacteriaceae.Escherichia_Shigella'
p455
(lp456
F11232.633757020396
aF936.1847961917338
aF1690.3500794846336
aF5757.84461062123
aF21411.938433577558
aF12320.236548541734
aF30133.14646110722
aF1784.568269588029
aF250.52789807093518
aF2582.2556002668343
aF2017.7921039607106
aF7647.910226399587
aF7004.675430275106
aF27904.04040404041
asS'Bacteria.Firmicutes.Clostridia.Lachnospirales.Lachnospiraceae.Lachnospiraceae.Cuneatibacter_caecimuris'
p457
(lp458
F0.0
aF259.1225775173549
aF0.0
aF0.0
aF0.0
aF0.0
aF0.0
aF0.0
aF0.0
aF0.0
aF0.0
aF0.0
aF0.0
aF0.0
asS'Bacteria.Bacteroidota.Bacteroidia.Bacteroidales.Bacteroidaceae.Bacteroides'
p459
(lp460
F0.0
aF8835.244014059486
aF312.3850249560925
aF470.7671694218616
aF31123.984778781167
aF3046.458492003047
aF2803.0833917309037
aF8185.369917921117
aF12025.339107404889
aF3916.4209937380324
aF659.9068516097922
aF250.16528777942574
aF719.948502507115
aF0.0
asS'Bacteria.Firmicutes.Bacilli.Erysipelotrichales.Erysipelotrichaceae._Clostridium__innocuum_group'
p461
(lp462
F0.0
aF2461.6644864148716
aF0.0
aF0.0
aF0.0
aF0.0
aF0.0
aF0.0
aF0.0
aF0.0
aF0.0
aF0.0
aF0.0
aF0.0
asS'Bacteria.Firmicutes.Clostridia.Lachnospirales.Lachnospiraceae.Lachnospiraceae_UCG_006.uncultured_bacterium'
p463
(lp464
F0.0
aF0.0
aF298.501246069155
aF4417.96882072824
aF0.0
aF0.0
aF0.0
aF1199.0947678935336
aF2272.6459325006263
aF1183.5338167889656
aF1148.4917321285805
aF4538.713078283868
aF3396.4629353570954
aF0.0
asS'Bacteria.Actinobacteriota.Actinobacteria'
p465
(lp466
F0.0
aF121.20249593553696
aF2106.863446092757
aF633.7250357601982
aF13801.329016868292
aF81268.76036019894
aF14365.802382620883
aF2916.1084026706594
aF1342.113739665724
aF0.0
aF1376.9210269165853
aF5932.4911101978105
aF6826.805800243937
aF2651.5151515151524
asS'Bacteria.Actinobacteriota.Actinobacteria.Pseudonocardiales.Pseudonocardiaceae.Pseudonocardia.Pseudonocardia_spinosispora'
p467
(lp468
F0.0
aF0.0
aF0.0
aF0.0
aF0.0
aF0.0
aF5255.781359495445
aF0.0
aF0.0
aF0.0
aF0.0
aF0.0
aF0.0
aF0.0
asS'Bacteria.Proteobacteria.Gammaproteobacteria.Enterobacterales.Morganellaceae'
p469
(lp470
F0.0
aF238.22559545950367
aF0.0
aF0.0
aF0.0
aF0.0
aF0.0
aF0.0
aF0.0
aF0.0
aF0.0
aF0.0
aF0.0
aF0.0
asS'Bacteria.Firmicutes.Clostridia.uncultured.uncultured'
p471
(lp472
F0.0
aF0.0
aF114.54117581723392
aF597.5121765739012
aF0.0
aF716.8137628242464
aF0.0
aF0.0
aF0.0
aF0.0
aF0.0
aF0.0
aF186.3396124136062
aF0.0
asS'Bacteria.Bacteroidota.Bacteroidia.Bacteroidales.Muribaculaceae.Muribaculaceae.uncultured_bacterium'
p473
(lp474
F136860.774460538
aF278347.801010578
aF414149.6532526222
aF63644.10001991706
aF432896.0072698359
aF80686.34917790422
aF67974.77224947442
aF417634.011506806
aF470455.6028774919
aF155989.7570527857
aF205034.32784680012
aF14598.931436842202
aF11349.776392465106
aF8838.38383838384
asS'Bacteria.Firmicutes.Clostridia.Clostridia.Hungateiclostridiaceae.Ruminiclostridium.uncultured_organism'
p475
(lp476
F0.0
aF0.0
aF0.0
aF0.0
aF0.0
aF0.0
aF0.0
aF0.0
aF0.0
aF0.0
aF57.107323697001235
aF0.0
aF0.0
aF0.0
asS'Bacteria.Bacteroidota.Bacteroidia.Flavobacteriales.Weeksellaceae'
p477
(lp478
F0.0
aF0.0
aF0.0
aF253.49001430407932
aF0.0
aF0.0
aF0.0
aF0.0
aF0.0
aF0.0
aF0.0
aF0.0
aF0.0
aF0.0
asS'Bacteria.Acidobacteriota.Acidobacteriae.Bryobacterales.Bryobacteraceae.Bryobacter'
p479
(lp480
F0.0
aF0.0
aF0.0
aF0.0
aF681.5471119441132
aF0.0
aF0.0
aF0.0
aF0.0
aF0.0
aF0.0
aF0.0
aF0.0
aF0.0
asS'Bacteria.Firmicutes.Clostridia.Oscillospirales.Oscillospiraceae.Oscillibacter'
p481
(lp482
F0.0
aF0.0
aF0.0
aF0.0
aF0.0
aF0.0
aF0.0
aF1621.3112354616794
aF0.0
aF0.0
aF0.0
aF0.0
aF0.0
aF0.0
asS'Bacteria.Actinobacteriota.Coriobacteriia.Coriobacteriales.Coriobacteriales_Incertae_Sedis.uncultured'
p483
(lp484
F0.0
aF0.0
aF0.0
aF506.98002860815865
aF0.0
aF0.0
aF1751.927119831815
aF0.0
aF0.0
aF0.0
aF0.0
aF0.0
aF0.0
aF0.0
asS'Bacteria.Firmicutes.Clostridia.Clostridia_UCG_014.Clostridia_UCG_014.Clostridia_UCG_014.unidentified_rumen'
p485
(lp486
F0.0
aF0.0
aF2558.086259918224
aF1520.940085824476
aF4486.851820298745
aF22714.036109493307
aF0.0
aF0.0
aF0.0
aF0.0
aF0.0
aF0.0
aF0.0
aF0.0
asS'Bacteria.Firmicutes.Clostridia.Lachnospirales.Lachnospiraceae'
p487
(lp488
F125332.54507833283
aF22305.43864855037
aF8049.120809701983
aF34420.32265657534
aF26864.315329130462
aF16173.11052372206
aF24176.594253679046
aF70791.62772892574
aF39762.356393829854
aF37033.84906716018
aF120464.72670972983
aF21943.069528081058
aF26036.72584361025
aF42866.161616161626
asS'Bacteria.Firmicutes.Clostridia.Peptostreptococcales_Tissierellales.Peptostreptococcaceae'
p489
(lp490
F0.0
aF5052.89026158842
aF7542.362880328766
aF25294.682141628487
aF7042.65349008917
aF5107.2980601227555
aF5255.781359495445
aF10347.118231870023
aF1914.7489352564332
aF0.0
aF9803.423901318545
aF200882.72608687886
aF235719.60970321187
aF50883.838383838396
asS'Bacteria.Firmicutes.Bacilli.Erysipelotrichales.Erysipelotrichaceae.Holdemania'
p491
(lp492
F0.0
aF1433.5329691685924
aF0.0
aF0.0
aF0.0
aF1254.4240849424314
aF0.0
aF0.0
aF0.0
aF0.0
aF0.0
aF0.0
aF0.0
aF0.0
asS'Bacteria.Actinobacteriota.Coriobacteriia.Coriobacteriales.Eggerthellaceae.uncultured'
p493
(lp494
F0.0
aF0.0
aF0.0
aF0.0
aF0.0
aF0.0
aF0.0
aF0.0
aF0.0
aF0.0
aF260.15558573078346
aF0.0
aF0.0
aF0.0
asS'Bacteria.Firmicutes.Clostridia.Clostridiales.Clostridiaceae'
p495
(lp496
F3251.55187703222
aF1028.1315172462791
aF20516.75425017181
aF10320.664868094658
aF14994.036462770491
aF1612.8309663545544
aF0.0
aF821.9147235326568
aF0.0
aF0.0
aF25603.116790822223
aF190482.9976949056
aF293705.1090933732
aF48484.848484848495
asS'Bacteria.Firmicutes.Clostridia.Oscillospirales.Oscillospiraceae.Oscillibacter.uncultured_bacterium'
p497
(lp498
F0.0
aF317.63412727933826
aF1086.405697902855
aF832.895761284832
aF0.0
aF492.8094619416694
aF0.0
aF3236.99291802245
aF1234.7446404924663
aF989.8646467689531
aF1744.9460018528157
aF285.9031860336294
aF127.04973573654969
aF0.0
asS'Bacteria.Firmicutes.Clostridia.Oscillospirales.Ruminococcaceae.UBA1819.uncultured_organism'
p499
(lp500
F0.0
aF5846.975579786766
aF0.0
aF0.0
aF0.0
aF0.0
aF0.0
aF0.0
aF0.0
aF0.0
aF0.0
aF0.0
aF0.0
aF0.0
asS'Bacteria.Firmicutes.Clostridia.Clostridia_vadinBB60_group.Clostridia_vadinBB60_group.Clostridia_vadinBB60_group'
p501
(lp502
F0.0
aF0.0
aF10.412834165203082
aF0.0
aF0.0
aF0.0
aF0.0
aF180.14569282907547
aF0.0
aF258.2255600266834
aF0.0
aF0.0
aF0.0
aF0.0
asS'Bacteria.Firmicutes.Clostridia.Eubacteriales.Anaerofustaceae.Anaerofustis'
p503
(lp504
F0.0
aF0.0
aF0.0
aF0.0
aF0.0
aF1702.4326867075852
aF0.0
aF0.0
aF0.0
aF0.0
aF0.0
aF357.3789825420368
aF0.0
aF0.0
asS'Bacteria.Firmicutes.Bacilli.RF39.RF39.RF39.uncultured_bacterium'
p505
(lp506
F0.0
aF41.7939641157024
aF881.6199593205276
aF579.4057469807527
aF0.0
aF0.0
aF0.0
aF3586.0251978787837
aF0.0
aF21949.172602268092
aF786.812015380906
aF3001.983453353109
aF3565.862583005828
aF2462.1212121212125
asS'Bacteria.Firmicutes.Clostridia.Clostridia_UCG_014.Clostridia_UCG_014.Clostridia_UCG_014.uncultured_Clostridiales'
p507
(lp508
F0.0
aF0.0
aF0.0
aF1611.4722337902185
aF0.0
aF0.0
aF0.0
aF844.4329351362912
aF0.0
aF0.0
aF1541.8977398190334
aF0.0
aF0.0
aF7702.020202020204
asS'Bacteria.Firmicutes.Clostridia.Oscillospirales.Oscillospiraceae.UCG_005.uncultured_bacterium'
p509
(lp510
F0.0
aF0.0
aF0.0
aF5069.800286081586
aF0.0
aF0.0
aF0.0
aF0.0
aF0.0
aF13578.360698069771
aF0.0
aF15653.19943534121
aF2007.385824637485
aF694.4444444444447
asS'Bacteria.Actinobacteriota.Coriobacteriia.Coriobacteriales.Eggerthellaceae.Adlercreutzia.uncultured_bacterium'
p511
(lp512
F0.0
aF0.0
aF263.79179885181145
aF6699.378949464954
aF0.0
aF5107.2980601227555
aF16117.729502452697
aF354.66183275724234
aF0.0
aF0.0
aF0.0
aF0.0
aF0.0
aF3472.2222222222226
asS'Bacteria.Firmicutes.Clostridia.Christensenellales.Christensenellaceae.uncultured'
p513
(lp514
F0.0
aF0.0
aF298.501246069155
aF0.0
aF0.0
aF0.0
aF0.0
aF0.0
aF0.0
aF0.0
aF0.0
aF0.0
aF0.0
aF0.0
asS'Bacteria.Actinobacteriota.Actinobacteria.Streptomycetales.Streptomycetaceae'
p515
(lp516
F0.0
aF0.0
aF0.0
aF0.0
aF0.0
aF0.0
aF3503.85423966363
aF0.0
aF0.0
aF0.0
aF0.0
aF0.0
aF0.0
aF0.0
asS'Bacteria.Campilobacterota.Campylobacteria.Campylobacterales.Helicobacteraceae.Helicobacter'
p517
(lp518
F0.0
aF639.4476509702467
aF458.1647032689357
aF0.0
aF0.0
aF0.0
aF0.0
aF0.0
aF0.0
aF0.0
aF0.0
aF0.0
aF0.0
aF0.0
asS'Bacteria.Bacteroidota.Bacteroidia.Bacteroidales.Rikenellaceae.Alistipes.uncultured_bacterium'
p519
(lp520
F0.0
aF330.17231651404893
aF0.0
aF1140.705064368357
aF0.0
aF716.8137628242464
aF0.0
aF4244.682887285091
aF4491.607315414624
aF0.0
aF3153.5933197121794
aF607.5442703214625
aF321.85933053259254
aF0.0
asS'Bacteria.Desulfobacterota.Desulfovibrionia.Desulfovibrionales.Desulfovibrionaceae.Desulfovibrio'
p521
(lp522
F0.0
aF1099.181256242973
aF3196.7400887173467
aF12004.56282025747
aF14369.284943488388
aF0.0
aF0.0
aF0.0
aF0.0
aF0.0
aF0.0
aF0.0
aF0.0
aF0.0
asS'Bacteria.Cyanobacteria.Vampirivibrionia.Gastranaerophilales.Gastranaerophilales.Gastranaerophilales.uncultured_bacterium'
p523
(lp524
F0.0
aF0.0
aF31.238502495609243
aF1321.7693602998422
aF0.0
aF0.0
aF0.0
aF2398.189535787067
aF1413.6931391145629
aF0.0
aF50.762065508445545
aF0.0
aF0.0
aF1073.2323232323236
asS'Bacteria.Bacteroidota.Bacteroidia.Bacteroidales.Rikenellaceae.Alistipes.Alistipes_timonensis'
p525
(lp526
F0.0
aF146.2788744049584
aF0.0
aF0.0
aF0.0
aF0.0
aF0.0
aF129.47971672089798
aF0.0
aF0.0
aF0.0
aF0.0
aF0.0
aF0.0
asS'Bacteria.Firmicutes.Clostridia.Oscillospirales.Oscillospiraceae.Intestinimonas'
p527
(lp528
F0.0
aF62.690946173553606
aF0.0
aF0.0
aF0.0
aF0.0
aF0.0
aF0.0
aF0.0
aF0.0
aF0.0
aF0.0
aF0.0
aF0.0
asS'Bacteria.Bacteroidota.Bacteroidia.Bacteroidales.Prevotellaceae.Prevotellaceae_UCG_003'
p529
(lp530
F0.0
aF105872.46989789733
aF19284.56887395611
aF0.0
aF0.0
aF0.0
aF3153.468815697267
aF0.0
aF0.0
aF0.0
aF0.0
aF0.0
aF0.0
aF0.0
asS'Bacteria.Bacteroidota.Bacteroidia.Bacteroidales.Prevotellaceae.Prevotellaceae_UCG_001'
p531
(lp532
F0.0
aF40314.45778600653
aF933.6841301465431
aF2553.0065726339417
aF5054.807746918839
aF761.6146230007618
aF0.0
aF2780.999133048853
aF16051.68032640206
aF559.4887133911475
aF5025.444485336109
aF303.77213516073124
aF0.0
aF631.3131313131315
asS'Bacteria.Proteobacteria.Gammaproteobacteria'
p533
(lp534
F11232.633757020396
aF8133.105416915688
aF5591.691946714055
aF12656.394285610817
aF30328.84648151304
aF29254.961695264556
aF63770.14716187806
aF5218.59553914228
aF2469.4892809849325
aF4217.684147102496
aF3718.3212984936363
aF12061.54066079374
aF9672.719880742648
aF56502.52525252526
asS'Bacteria.Bacteroidota'
p535
(lp536
F193023.94324564
aF769000.580936101
aF519301.92359756463
aF89137.95288707018
aF507809.3939910264
aF116079.0287173514
aF87946.74141555712
aF556002.7922582387
aF697237.0351812748
aF184459.12504572756
aF256817.9799236031
aF16796.812179475728
aF12916.723133215888
aF9469.696969696972
asS'Bacteria.Bacteroidota.Bacteroidia.Bacteroidales.Rikenellaceae'
p537
(lp538
F0.0
aF906.9290213107421
aF0.0
aF1140.705064368357
aF0.0
aF4300.882576945478
aF0.0
aF5438.148102277716
aF4491.607315414624
aF774.6766800800503
aF3921.3695605274183
aF607.5442703214625
aF321.85933053259254
aF0.0
asS'Bacteria.Acidobacteriota'
p539
(lp540
F0.0
aF0.0
aF0.0
aF0.0
aF681.5471119441132
aF0.0
aF0.0
aF0.0
aF0.0
aF0.0
aF0.0
aF0.0
aF0.0
aF0.0
asS'Bacteria.Actinobacteriota.Actinobacteria.Pseudonocardiales.Pseudonocardiaceae'
p541
(lp542
F0.0
aF0.0
aF0.0
aF0.0
aF0.0
aF32122.216746561546
aF5255.781359495445
aF0.0
aF0.0
aF0.0
aF0.0
aF0.0
aF101.63978858923976
aF0.0
asS'Bacteria.Firmicutes.Clostridia.Oscillospirales.Butyricicoccaceae.UCG_009.uncultured_bacterium'
p543
(lp544
F0.0
aF0.0
aF135.36684414764008
aF1104.49220518206
aF0.0
aF0.0
aF0.0
aF405.32780886541985
aF0.0
aF1527.8345634912102
aF0.0
aF1107.874845880314
aF262.56945385553604
aF0.0
asS'Bacteria.Elusimicrobiota.Elusimicrobia'
p545
(lp546
F0.0
aF91.94672105454528
aF190.90195969538985
aF0.0
aF0.0
aF0.0
aF0.0
aF0.0
aF0.0
aF0.0
aF0.0
aF0.0
aF0.0
aF0.0
asS'Bacteria.Bacteroidota.Bacteroidia.Bacteroidales.Rikenellaceae.Alistipes'
p547
(lp548
F0.0
aF0.0
aF0.0
aF0.0
aF0.0
aF3584.0688141212318
aF0.0
aF686.8054539108502
aF0.0
aF774.6766800800503
aF0.0
aF0.0
aF0.0
aF0.0
asS'Bacteria.Firmicutes.Clostridia.Lachnospirales.Lachnospiraceae.Lachnospiraceae_NK4A136_group'
p549
(lp550
F0.0
aF0.0
aF2988.483405413285
aF4073.946658458417
aF6190.719600159028
aF5331.302361005332
aF0.0
aF14541.135143046935
aF24354.890662467344
aF14783.413311527627
aF106974.70780086043
aF37864.3032003288
aF37555.901883724095
aF4482.323232323233
asS'Bacteria.Firmicutes.Clostridia.Eubacteriales.Anaerofustaceae.Anaerofustis.uncultured_bacterium'
p551
(lp552
F0.0
aF0.0
aF0.0
aF0.0
aF0.0
aF0.0
aF0.0
aF0.0
aF0.0
aF0.0
aF0.0
aF357.3789825420368
aF0.0
aF0.0
asS'Bacteria.Firmicutes.Clostridia.Lachnospirales.Lachnospiraceae.Anaerostipes'
p553
(lp554
F0.0
aF1951.778124203302
aF0.0
aF0.0
aF0.0
aF0.0
aF0.0
aF0.0
aF0.0
aF0.0
aF0.0
aF0.0
aF0.0
aF0.0
asS'Bacteria.Firmicutes.Clostridia.Christensenellales.Christensenellaceae'
p555
(lp556
F0.0
aF0.0
aF2887.8260084829885
aF13851.41863875862
aF21298.347248253536
aF1568.030106178039
aF0.0
aF3996.982559645112
aF1932.6437851186429
aF1334.1653934711976
aF4784.324674170993
aF786.233761592481
aF525.1389077110721
aF177588.3838383839
asS'Bacteria.Actinobacteriota.Actinobacteria.Bifidobacteriales.Bifidobacteriaceae.Bifidobacterium'
p557
(lp558
F0.0
aF0.0
aF0.0
aF0.0
aF13801.329016868292
aF0.0
aF0.0
aF309.6254095499735
aF0.0
aF0.0
aF1376.9210269165853
aF5021.174704715617
aF6013.687491530019
aF0.0
asS'Bacteria.Firmicutes.Bacilli.Erysipelotrichales.Erysipelotrichaceae.Allobaculum'
p559
(lp560
F0.0
aF0.0
aF90.24456276509339
aF1303.6629307066937
aF1703.867779860283
aF20205.187939608444
aF56061.66783461808
aF0.0
aF0.0
aF0.0
aF0.0
aF0.0
aF0.0
aF5113.636363636365
asS'Bacteria.Desulfobacterota'
p561
(lp562
F0.0
aF3723.8422027090837
aF3404.996772021408
aF12004.56282025747
aF14369.284943488388
aF0.0
aF0.0
aF0.0
aF0.0
aF0.0
aF0.0
aF0.0
aF0.0
aF0.0
asS'Bacteria.Actinobacteriota.Coriobacteriia.Coriobacteriales.uncultured.uncultured'
p563
(lp564
F0.0
aF0.0
aF531.0545424253572
aF7224.46540766626
aF2385.4148918043966
aF3180.861072532593
aF0.0
aF146.3683754236238
aF0.0
aF624.0451033978184
aF596.4542697242351
aF268.0342369065276
aF220.2195419433528
aF5871.212121212122
asS'Bacteria.Firmicutes.Bacilli.Staphylococcales.Staphylococcaceae'
p565
(lp566
F0.0
aF0.0
aF76.36078387815594
aF905.3214796574262
aF1931.0501505083207
aF0.0
aF0.0
aF0.0
aF0.0
aF0.0
aF0.0
aF0.0
aF0.0
aF0.0
asS'Bacteria.Firmicutes.Clostridia.Oscillospirales.Ruminococcaceae.Incertae_Sedis.uncultured_Clostridiales'
p567
(lp568
F0.0
aF0.0
aF0.0
aF0.0
aF0.0
aF896.0172035303079
aF0.0
aF365.92093855905955
aF322.1072975197738
aF1162.0150201200754
aF0.0
aF160.82054214391655
aF0.0
aF0.0
asS'Bacteria.Bacteroidota.Bacteroidia.Bacteroidales.Prevotellaceae.Prevotellaceae_NK3B31_group'
p569
(lp570
F46408.51315400532
aF171.35525287437983
aF4807.258439602089
aF3566.9666298502593
aF8405.747713977396
aF18861.16213431298
aF14015.41695865452
aF3006.1812490851967
aF92212.16133996636
aF11426.481031180741
aF450.5133313874542
aF0.0
aF110.1097709716764
aF0.0
asS'Bacteria.Bacteroidota.Bacteroidia.Bacteroidales.Tannerellaceae.Parabacteroides'
p571
(lp572
F0.0
aF6720.469429804946
aF492.8741504862793
aF0.0
aF0.0
aF0.0
aF0.0
aF0.0
aF0.0
aF0.0
aF0.0
aF0.0
aF0.0
aF0.0
asS'Bacteria.Actinobacteriota.Coriobacteriia.Coriobacteriales.Eggerthellaceae.Enterorhabdus.uncultured_bacterium'
p573
(lp574
F0.0
aF0.0
aF468.5775374341387
aF1919.2815368737436
aF4714.034190946783
aF1299.2249451189466
aF0.0
aF0.0
aF214.73819834651587
aF365.81954337113484
aF755.0857244381275
aF3430.8382324035533
aF2278.4252608754578
aF14141.414141414145
asS'Bacteria.Firmicutes.Clostridia.Peptostreptococcales_Tissierellales.Anaerovoracaceae.Family_XIII_AD3011_group.uncultured_organism'
p575
(lp576
F0.0
aF0.0
aF131.89589942590572
aF0.0
aF0.0
aF0.0
aF0.0
aF0.0
aF0.0
aF0.0
aF0.0
aF0.0
aF0.0
aF0.0
asS'Bacteria.Firmicutes.Bacilli.Erysipelotrichales.Erysipelatoclostridiaceae.Erysipelatoclostridiaceae'
p577
(lp578
F0.0
aF0.0
aF0.0
aF0.0
aF0.0
aF0.0
aF0.0
aF22.518211603634434
aF0.0
aF0.0
aF0.0
aF0.0
aF0.0
aF0.0
asS'Bacteria.Firmicutes.Bacilli.Izemoplasmatales.Izemoplasmatales.Izemoplasmatales.gut_metagenome'
p579
(lp580
F0.0
aF0.0
aF0.0
aF0.0
aF0.0
aF0.0
aF0.0
aF236.44122183816154
aF0.0
aF0.0
aF0.0
aF0.0
aF0.0
aF0.0
asS'Bacteria.Firmicutes.Clostridia.Lachnospirales.Lachnospiraceae._Eubacterium__xylanophilum_group.uncultured_bacterium'
p581
(lp582
F0.0
aF0.0
aF8500.343623527451
aF3585.0730594434076
aF0.0
aF0.0
aF10511.56271899089
aF7003.163808730309
aF3578.969972441931
aF22766.886875685923
aF22208.403659944925
aF964.9232528634993
aF1863.396124136062
aF0.0
asS'Bacteria.Firmicutes.Bacilli.Izemoplasmatales.Izemoplasmatales.Izemoplasmatales'
p583
(lp584
F0.0
aF0.0
aF0.0
aF0.0
aF0.0
aF0.0
aF0.0
aF236.44122183816154
aF0.0
aF0.0
aF0.0
aF0.0
aF0.0
aF0.0
asS'Bacteria.Acidobacteriota.Acidobacteriae'
p585
(lp586
F0.0
aF0.0
aF0.0
aF0.0
aF681.5471119441132
aF0.0
aF0.0
aF0.0
aF0.0
aF0.0
aF0.0
aF0.0
aF0.0
aF0.0
asS'Bacteria.Proteobacteria.Gammaproteobacteria.Burkholderiales.Sutterellaceae'
p587
(lp588
F0.0
aF5395.60076733718
aF1596.634571997806
aF470.7671694218616
aF0.0
aF8019.353971596257
aF0.0
aF3327.0657644369876
aF2218.961382913997
aF430.3759333778057
aF107.86938920544678
aF0.0
aF0.0
aF0.0
asS'Bacteria.Patescibacteria.Saccharimonadia.Saccharimonadales'
p589
(lp590
F0.0
aF0.0
aF0.0
aF108.63857755889113
aF0.0
aF0.0
aF0.0
aF0.0
aF0.0
aF0.0
aF0.0
aF0.0
aF0.0
aF0.0
asS'Bacteria.Campilobacterota.Campylobacteria.Campylobacterales'
p591
(lp592
F0.0
aF639.4476509702467
aF458.1647032689357
aF2299.5165583298626
aF0.0
aF0.0
aF0.0
aF0.0
aF0.0
aF193.6691700200126
aF0.0
aF0.0
aF0.0
aF0.0
asS'Bacteria.Firmicutes.Clostridia.Peptostreptococcales_Tissierellales.Anaerovoracaceae.Anaerovorax'
p593
(lp594
F0.0
aF0.0
aF0.0
aF0.0
aF0.0
aF0.0
aF0.0
aF0.0
aF0.0
aF0.0
aF2817.2946357187275
aF0.0
aF0.0
aF0.0
asS'Bacteria.Firmicutes.Clostridia.Oscillospirales.Ruminococcaceae._Eubacterium__siraeum_group.uncultured_bacterium'
p595
(lp596
F0.0
aF0.0
aF3727.7946311427036
aF235.3835847109308
aF23399.784176747886
aF1568.030106178039
aF0.0
aF0.0
aF0.0
aF17042.886961761105
aF0.0
aF0.0
aF0.0
aF0.0
asS'Bacteria.Firmicutes.Negativicutes.Veillonellales_Selenomonadales.Selenomonadaceae.Quinella.uncultured_bacterium'
p597
(lp598
F0.0
aF7096.615106846268
aF1044.7543612420427
aF0.0
aF0.0
aF0.0
aF0.0
aF0.0
aF0.0
aF0.0
aF0.0
aF0.0
aF0.0
aF0.0
asS'Bacteria.Firmicutes.Bacilli.Staphylococcales'
p599
(lp600
F0.0
aF0.0
aF76.36078387815594
aF905.3214796574262
aF1931.0501505083207
aF0.0
aF0.0
aF0.0
aF0.0
aF0.0
aF0.0
aF0.0
aF0.0
aF0.0
asS'Bacteria.Firmicutes.Clostridia.Christensenellales.Christensenellaceae.Christensenellaceae_R_7_group'
p601
(lp602
F0.0
aF0.0
aF1138.4698687288703
aF13616.035054047688
aF21298.347248253536
aF1568.030106178039
aF0.0
aF3282.0293412297187
aF1395.7982892523532
aF0.0
aF4784.324674170993
aF357.3789825420368
aF152.4596828838596
aF177588.3838383839
asS'Bacteria.Firmicutes.Clostridia.Clostridia.Hungateiclostridiaceae'
p603
(lp604
F0.0
aF0.0
aF76.36078387815594
aF0.0
aF0.0
aF0.0
aF0.0
aF112.59105801817216
aF0.0
aF0.0
aF0.0
aF0.0
aF0.0
aF0.0
asS'Archaea.Euryarchaeota.Methanobacteria.Methanobacteriales.Methanobacteriaceae.Methanosphaera.uncultured_archaeon'
p605
(lp606
F0.0
aF83.5879282314048
aF461.63564799066995
aF0.0
aF0.0
aF0.0
aF0.0
aF0.0
aF0.0
aF0.0
aF0.0
aF0.0
aF0.0
aF0.0
asS'Bacteria.Proteobacteria.Gammaproteobacteria.Pseudomonadales.Moraxellaceae'
p607
(lp608
F0.0
aF0.0
aF0.0
aF0.0
aF0.0
aF672.0129026477309
aF0.0
aF28.14776450454304
aF0.0
aF0.0
aF82.48835645122402
aF53.60684738130552
aF0.0
aF2083.333333333334
asS'Bacteria.Actinobacteriota.Coriobacteriia.Coriobacteriales.Eggerthellaceae.uncultured.uncultured_Coriobacteriales'
p609
(lp610
F0.0
aF0.0
aF0.0
aF0.0
aF0.0
aF0.0
aF0.0
aF0.0
aF0.0
aF0.0
aF260.15558573078346
aF0.0
aF0.0
aF0.0
asS'Bacteria.Firmicutes.Clostridia.Oscillospirales.Butyricicoccaceae.UCG_008.uncultured_bacterium'
p611
(lp612
F0.0
aF0.0
aF0.0
aF0.0
aF0.0
aF0.0
aF3503.85423966363
aF0.0
aF0.0
aF1936.6917002001258
aF0.0
aF0.0
aF0.0
aF0.0
asS'Bacteria.Bacteroidota.Bacteroidia.Bacteroidales.Muribaculaceae.Muribaculaceae.uncultured_organism'
p613
(lp614
F0.0
aF668.7034258512384
aF2037.4445516580697
aF0.0
aF0.0
aF0.0
aF0.0
aF0.0
aF0.0
aF0.0
aF0.0
aF0.0
aF0.0
aF0.0
asS'Bacteria.Firmicutes.Clostridia.Lachnospirales.Lachnospiraceae.Acetatifactor'
p615
(lp616
F0.0
aF0.0
aF0.0
aF0.0
aF0.0
aF0.0
aF0.0
aF337.7731740545165
aF0.0
aF0.0
aF133.25042195966955
aF0.0
aF0.0
aF0.0
asS'Bacteria.Proteobacteria.Alphaproteobacteria.Rickettsiales.Mitochondria.Mitochondria'
p617
(lp618
F0.0
aF0.0
aF0.0
aF0.0
aF0.0
aF0.0
aF0.0
aF90.07284641453774
aF0.0
aF0.0
aF0.0
aF0.0
aF0.0
aF0.0
asS'Bacteria.Actinobacteriota.Coriobacteriia.Coriobacteriales.uncultured.uncultured.uncultured_bacterium'
p619
(lp620
F0.0
aF0.0
aF531.0545424253572
aF7224.46540766626
aF2385.4148918043966
aF3180.861072532593
aF0.0
aF146.3683754236238
aF0.0
aF624.0451033978184
aF596.4542697242351
aF268.0342369065276
aF220.2195419433528
aF5871.212121212122
asS'Bacteria.Firmicutes.Clostridia.Oscillospirales._Eubacterium__coprostanoligenes_group._Eubacterium__coprostanoligenes_group.uncultured_bacterium'
p621
(lp622
F0.0
aF49985.58108238007
aF72.88983915642157
aF688.0443245396439
aF4884.420968932812
aF13081.851171542497
aF0.0
aF3276.3997883288102
aF0.0
aF0.0
aF120.55990558255817
aF0.0
aF2100.5556308442883
aF0.0
asS'Bacteria.Firmicutes.Bacilli.Acholeplasmatales.Acholeplasmataceae'
p623
(lp624
F0.0
aF0.0
aF0.0
aF253.49001430407932
aF0.0
aF0.0
aF0.0
aF0.0
aF214.73819834651587
aF0.0
aF0.0
aF0.0
aF0.0
aF1704.545454545455
asS'Bacteria.Elusimicrobiota.Elusimicrobia.Elusimicrobiales.Elusimicrobiaceae.Elusimicrobium'
p625
(lp626
F0.0
aF91.94672105454528
aF190.90195969538985
aF0.0
aF0.0
aF0.0
aF0.0
aF0.0
aF0.0
aF0.0
aF0.0
aF0.0
aF0.0
aF0.0
asS'Bacteria.Elusimicrobiota.Elusimicrobia.Elusimicrobiales.Elusimicrobiaceae.Elusimicrobium.uncultured_bacterium'
p627
(lp628
F0.0
aF91.94672105454528
aF190.90195969538985
aF0.0
aF0.0
aF0.0
aF0.0
aF0.0
aF0.0
aF0.0
aF0.0
aF0.0
aF0.0
aF0.0
asS'Bacteria.Elusimicrobiota.Elusimicrobia.Elusimicrobiales.Elusimicrobiaceae'
p629
(lp630
F0.0
aF91.94672105454528
aF190.90195969538985
aF0.0
aF0.0
aF0.0
aF0.0
aF0.0
aF0.0
aF0.0
aF0.0
aF0.0
aF0.0
aF0.0
asS'Bacteria.Firmicutes.Bacilli.Izemoplasmatales'
p631
(lp632
F0.0
aF0.0
aF0.0
aF0.0
aF0.0
aF0.0
aF0.0
aF236.44122183816154
aF0.0
aF0.0
aF0.0
aF0.0
aF0.0
aF0.0
asS'Bacteria.Firmicutes.Clostridia.Clostridia_UCG_014.Clostridia_UCG_014.Clostridia_UCG_014'
p633
(lp634
F80402.01005025125
aF8.35879282314048
aF125721.0887659403
aF267051.73006934754
aF101777.7020503209
aF74727.83477442768
aF67274.0014015417
aF18678.856525214764
aF32622.311298808203
aF33655.39799014441
aF64512.240003045736
aF173150.11704161682
aF45229.705922211695
aF139709.595959596
asS'Bacteria.Actinobacteriota.Coriobacteriia.Coriobacteriales.Atopobiaceae.Coriobacteriaceae_UCG_002'
p635
(lp636
F0.0
aF41.7939641157024
aF767.0787835032938
aF3566.9666298502593
aF681.5471119441132
aF13037.050311365982
aF5606.166783461807
aF281.47764504543045
aF0.0
aF0.0
aF8305.942968819403
aF3716.7414184371823
aF3845.3720016262373
aF0.0
asS'Bacteria.Firmicutes.Clostridia.Oscillospirales.Oscillospiraceae.uncultured.uncultured_bacterium'
p637
(lp638
F0.0
aF0.0
aF0.0
aF0.0
aF0.0
aF0.0
aF0.0
aF275.8480921445218
aF0.0
aF0.0
aF0.0
aF0.0
aF0.0
aF0.0
asS'Bacteria.Firmicutes.Clostridia.Oscillospirales.Ruminococcaceae.Paludicola.uncultured_bacterium'
p639
(lp640
F0.0
aF0.0
aF0.0
aF0.0
aF0.0
aF0.0
aF0.0
aF0.0
aF0.0
aF301.26315336446396
aF0.0
aF0.0
aF0.0
aF0.0
asS'Bacteria.Proteobacteria.Alphaproteobacteria.Sphingomonadales.Sphingomonadaceae'
p641
(lp642
F0.0
aF0.0
aF65.94794971295286
aF0.0
aF0.0
aF0.0
aF0.0
aF0.0
aF0.0
aF0.0
aF0.0
aF0.0
aF0.0
aF0.0
asS'Bacteria.Bacteroidota.Bacteroidia.Bacteroidales.Marinifilaceae.Butyricimonas'
p643
(lp644
F0.0
aF351.06929857190016
aF0.0
aF0.0
aF0.0
aF0.0
aF0.0
aF0.0
aF0.0
aF0.0
aF0.0
aF0.0
aF0.0
aF0.0
asS'Bacteria.Firmicutes.Clostridia.Lachnospirales.Lachnospiraceae._Bacteroides__pectinophilus_group'
p645
(lp646
F4729.530002955957
aF0.0
aF1173.1793159462138
aF0.0
aF0.0
aF0.0
aF0.0
aF0.0
aF0.0
aF817.7142734178309
aF2868.0567012271736
aF0.0
aF0.0
aF820.7070707070709
asS'Bacteria.Desulfobacterota.Desulfovibrionia.Desulfovibrionales.Desulfovibrionaceae.uncultured'
p647
(lp648
F0.0
aF2624.6609464661105
aF208.25668330406165
aF0.0
aF0.0
aF0.0
aF0.0
aF0.0
aF0.0
aF0.0
aF0.0
aF0.0
aF0.0
aF0.0
asS'Bacteria.Firmicutes.Clostridia.Monoglobales.Monoglobaceae.Monoglobus'
p649
(lp650
F23056.458764410287
aF0.0
aF1218.3015973287606
aF10356.877727280957
aF14312.489350826378
aF29971.775458088803
aF7358.093903293623
aF168.88658702725826
aF0.0
aF1269.609003464527
aF0.0
aF196.5584403981202
aF67.75985905949317
aF29482.323232323237
asS'Bacteria.Firmicutes.Clostridia.Oscillospirales.Ruminococcaceae.Subdoligranulum.uncultured_bacterium'
p651
(lp652
F0.0
aF0.0
aF0.0
aF506.98002860815865
aF0.0
aF3539.2679539447167
aF7007.70847932726
aF0.0
aF0.0
aF0.0
aF0.0
aF0.0
aF0.0
aF0.0
asS'Bacteria.Firmicutes.Clostridia.Lachnospirales.Lachnospiraceae.Roseburia.uncultured_Clostridiales'
p653
(lp654
F0.0
aF0.0
aF0.0
aF0.0
aF0.0
aF0.0
aF0.0
aF0.0
aF0.0
aF0.0
aF387.06074950189725
aF0.0
aF0.0
aF0.0
asS'Bacteria.Firmicutes.Clostridia.Lachnospirales.Defluviitaleaceae'
p655
(lp656
F0.0
aF0.0
aF45.122281382546696
aF1285.556501113545
aF0.0
aF0.0
aF0.0
aF782.5078532262966
aF0.0
aF215.18796668890286
aF82.48835645122402
aF553.937422940157
aF0.0
aF0.0
asS'Bacteria.Firmicutes.Bacilli.RF39.RF39.RF39.uncultured_Paenibacillaceae'
p657
(lp658
F0.0
aF0.0
aF0.0
aF0.0
aF397.56914863406604
aF0.0
aF0.0
aF0.0
aF0.0
aF0.0
aF0.0
aF0.0
aF0.0
aF0.0
asS'Bacteria.Firmicutes.Clostridia.Oscillospirales.Ruminococcaceae.UBA1819.uncultured_bacterium'
p659
(lp660
F0.0
aF0.0
aF72.88983915642157
aF0.0
aF0.0
aF0.0
aF0.0
aF1519.9792832453243
aF3221.0729751977383
aF1248.0902067956367
aF6180.281475653245
aF0.0
aF0.0
aF0.0
asS'Bacteria.Firmicutes.Clostridia.Lachnospirales.Lachnospiraceae.Acetatifactor.uncultured_bacterium'
p661
(lp662
F0.0
aF0.0
aF0.0
aF0.0
aF0.0
aF0.0
aF0.0
aF0.0
aF0.0
aF0.0
aF215.73877841089356
aF0.0
aF0.0
aF0.0
asS'Bacteria.Actinobacteriota.Coriobacteriia.Coriobacteriales.Eggerthellaceae'
p663
(lp664
F0.0
aF430.47783039173476
aF732.3693362859501
aF10465.516304839846
aF4714.034190946783
aF6406.523005241703
aF16117.729502452697
aF354.66183275724234
aF214.73819834651587
aF4820.210453831423
aF1814.7438419269283
aF9434.805139109772
aF6496.476487328908
aF17613.63636363637
asS'Bacteria.Firmicutes.Bacilli.Lactobacillales.Enterococcaceae'
p665
(lp666
F0.0
aF79.40853181983456
aF0.0
aF0.0
aF0.0
aF0.0
aF0.0
aF0.0
aF0.0
aF0.0
aF0.0
aF0.0
aF0.0
aF0.0
asS'Bacteria.Actinobacteriota.Coriobacteriia.Coriobacteriales.Coriobacteriales_Incertae_Sedis.uncultured.gut_metagenome'
p667
(lp668
F0.0
aF0.0
aF0.0
aF506.98002860815865
aF0.0
aF0.0
aF1751.927119831815
aF0.0
aF0.0
aF0.0
aF0.0
aF0.0
aF0.0
aF0.0
asS'Bacteria.Proteobacteria.Gammaproteobacteria.Burkholderiales.Comamonadaceae.Comamonas'
p669
(lp670
F0.0
aF0.0
aF0.0
aF325.91573267667343
aF0.0
aF0.0
aF0.0
aF0.0
aF0.0
aF0.0
aF0.0
aF0.0
aF0.0
aF1641.4141414141418
asS'Bacteria.Proteobacteria.Gammaproteobacteria.Burkholderiales.Alcaligenaceae'
p671
(lp672
F0.0
aF0.0
aF284.6174671822176
aF0.0
aF0.0
aF896.0172035303079
aF0.0
aF0.0
aF0.0
aF0.0
aF158.6314547138923
aF250.16528777942574
aF177.86963003116958
aF0.0
asS'Bacteria.Firmicutes.Clostridia.Lachnospirales.Lachnospiraceae.Robinsoniella'
p673
(lp674
F0.0
aF117.02309952396672
aF0.0
aF0.0
aF0.0
aF0.0
aF0.0
aF0.0
aF0.0
aF0.0
aF0.0
aF0.0
aF0.0
aF0.0
asS'Bacteria.Bacteroidota.Bacteroidia.Flavobacteriales'
p675
(lp676
F0.0
aF0.0
aF0.0
aF253.49001430407932
aF0.0
aF0.0
aF0.0
aF0.0
aF0.0
aF0.0
aF0.0
aF0.0
aF0.0
aF0.0
asS'Bacteria.Firmicutes.Bacilli'
p677
(lp678
F10937.03813183565
aF1721.911321566939
aF1756.2980291975866
aF561.2993173876042
aF738.3427046061227
aF851.2163433537926
aF0.0
aF6845.5363275048685
aF3936.866969686125
aF3378.451077015775
aF0.0
aF1090.005896753212
aF1262.0273749830603
aF27967.171717171725
asS'Bacteria.Deferribacterota.Deferribacteres.Deferribacterales'
p679
(lp680
F0.0
aF0.0
aF0.0
aF0.0
aF0.0
aF0.0
aF0.0
aF67.5546348109033
aF0.0
aF0.0
aF0.0
aF410.98582992334235
aF0.0
aF0.0
asS'Bacteria.Firmicutes.Clostridia.Peptostreptococcales_Tissierellales.Anaerovoracaceae._Eubacterium__nodatum_group'
p681
(lp682
F0.0
aF0.0
aF478.99037159934176
aF416.447880642416
aF0.0
aF0.0
aF0.0
aF0.0
aF0.0
aF1334.1653934711976
aF0.0
aF0.0
aF0.0
aF0.0
asS'Bacteria.Proteobacteria.Alphaproteobacteria.Sphingomonadales'
p683
(lp684
F0.0
aF0.0
aF65.94794971295286
aF0.0
aF0.0
aF0.0
aF0.0
aF0.0
aF0.0
aF0.0
aF0.0
aF0.0
aF0.0
aF0.0
asS'Bacteria.Actinobacteriota.Coriobacteriia.Coriobacteriales.Atopobiaceae.Coriobacteriaceae_UCG_002.uncultured_bacterium'
p685
(lp686
F0.0
aF41.7939641157024
aF767.0787835032938
aF3566.9666298502593
aF681.5471119441132
aF13037.050311365982
aF5606.166783461807
aF281.47764504543045
aF0.0
aF0.0
aF8305.942968819403
aF3716.7414184371823
aF3845.3720016262373
aF0.0
asS'Bacteria.Bacteroidota.Bacteroidia.Bacteroidales.Muribaculaceae.Muribaculum.uncultured_bacterium'
p687
(lp688
F0.0
aF0.0
aF0.0
aF0.0
aF0.0
aF0.0
aF0.0
aF1187.8356620917164
aF2057.9077341541106
aF817.7142734178309
aF875.6456300206856
aF0.0
aF0.0
aF0.0
asS'Bacteria.Firmicutes.Bacilli.Erysipelotrichales.Erysipelotrichaceae.Faecalibaculum.uncultured_bacterium'
p689
(lp690
F0.0
aF0.0
aF118.01212053896828
aF633.7250357601982
aF0.0
aF0.0
aF0.0
aF0.0
aF0.0
aF0.0
aF774.1214990037945
aF3484.445079784859
aF2422.414961376881
aF1452.0202020202023
asS'Bacteria.Bacteroidota.Bacteroidia.Flavobacteriales.Weeksellaceae.Chryseobacterium'
p691
(lp692
F0.0
aF0.0
aF0.0
aF253.49001430407932
aF0.0
aF0.0
aF0.0
aF0.0
aF0.0
aF0.0
aF0.0
aF0.0
aF0.0
aF0.0
asS'Bacteria.Firmicutes.Clostridia.Clostridiales'
p693
(lp694
F3251.55187703222
aF1028.1315172462791
aF20516.75425017181
aF10320.664868094658
aF14994.036462770491
aF1612.8309663545544
aF0.0
aF821.9147235326568
aF0.0
aF0.0
aF25603.116790822223
aF190482.9976949056
aF293705.1090933732
aF48484.848484848495
asS'Bacteria.Firmicutes.Negativicutes.Veillonellales_Selenomonadales'
p695
(lp696
F0.0
aF7619.039658292548
aF1197.4759289983547
aF0.0
aF0.0
aF0.0
aF0.0
aF0.0
aF0.0
aF0.0
aF0.0
aF0.0
aF0.0
aF0.0
asS'Bacteria.Actinobacteriota.Actinobacteria.Pseudonocardiales.Pseudonocardiaceae.Saccharopolyspora'
p697
(lp698
F0.0
aF0.0
aF0.0
aF0.0
aF0.0
aF32122.216746561546
aF0.0
aF0.0
aF0.0
aF0.0
aF0.0
aF0.0
aF0.0
aF0.0
asS'Bacteria.Firmicutes.Clostridia.Oscillospirales.Oscillospiraceae.UCG_005.uncultured_prokaryote'
p699
(lp700
F0.0
aF0.0
aF0.0
aF0.0
aF0.0
aF1030.4197840598542
aF0.0
aF0.0
aF0.0
aF0.0
aF0.0
aF0.0
aF0.0
aF0.0
asS'Bacteria.Firmicutes.Bacilli.Erysipelotrichales.Erysipelotrichaceae.uncultured'
p701
(lp702
F0.0
aF0.0
aF0.0
aF0.0
aF0.0
aF0.0
aF0.0
aF562.9552900908609
aF0.0
aF0.0
aF0.0
aF0.0
aF0.0
aF0.0
asS'Bacteria.Firmicutes.Clostridia.Lachnospirales.Lachnospiraceae.Lachnospiraceae_NC2004_group.uncultured_Clostridiaceae'
p703
(lp704
F0.0
aF0.0
aF0.0
aF0.0
aF0.0
aF0.0
aF0.0
aF0.0
aF0.0
aF0.0
aF380.71549131334154
aF0.0
aF0.0
aF0.0
asS'Bacteria.Firmicutes.Bacilli.Lactobacillales.Streptococcaceae.Streptococcus.Streptococcus_hyointestinalis'
p705
(lp706
F0.0
aF672.8828222628086
aF787.9044518336999
aF0.0
aF0.0
aF0.0
aF0.0
aF0.0
aF0.0
aF0.0
aF0.0
aF0.0
aF0.0
aF0.0
asS'Bacteria.Proteobacteria.Gammaproteobacteria.Burkholderiales.Burkholderiaceae.Burkholderia_Caballeronia_Paraburkholderia'
p707
(lp708
F0.0
aF171.35525287437983
aF267.2627435735458
aF2553.0065726339417
aF6077.12841483501
aF3808.073115003809
aF10161.177295024529
aF78.81374061272052
aF0.0
aF0.0
aF793.1572735694616
aF2144.273895252221
aF1871.866106518499
aF5934.343434343436
asS'Bacteria.Firmicutes.Clostridia.Oscillospirales.Ruminococcaceae.Incertae_Sedis.uncultured_bacterium'
p709
(lp710
F19509.31126219332
aF0.0
aF1568.8670142239312
aF19265.24108711003
aF8632.930084625435
aF1075.2206442363695
aF0.0
aF714.9532184153933
aF0.0
aF1635.4285468356618
aF1008.8960519803553
aF0.0
aF0.0
aF18813.131313131318
asS'Bacteria.Firmicutes.Bacilli.Erysipelotrichales.Erysipelotrichaceae.uncultured.uncultured_bacterium'
p711
(lp712
F0.0
aF0.0
aF1093.3475873463235
aF2390.048706295605
aF738.3427046061227
aF0.0
aF0.0
aF197.0343515318013
aF0.0
aF172.1503733511223
aF215.73877841089356
aF0.0
aF0.0
aF0.0
asS'Bacteria.Firmicutes.Clostridia.Lachnospirales'
p713
(lp714
F142477.09133904817
aF108492.95144795185
aF31377.340284478625
aF289069.14845461614
aF37712.27352757427
aF289279.1541597599
aF250175.1927119832
aF129355.866557078
aF78862.60334275797
aF210733.5757784426
aF356514.6765821902
aF99976.7703661348
aF106247.45900528532
aF59406.56565656567
asS'Bacteria.Firmicutes.Clostridia.Peptococcales.Peptococcaceae.uncultured'
p715
(lp716
F0.0
aF0.0
aF0.0
aF452.6607398287131
aF0.0
aF0.0
aF0.0
aF0.0
aF0.0
aF0.0
aF545.6922042157896
aF0.0
aF0.0
aF0.0
asS'Bacteria.Firmicutes.Clostridia.Oscillospirales.Oscillospiraceae.uncultured.Clostridium_sp_'
p717
(lp718
F0.0
aF0.0
aF0.0
aF0.0
aF0.0
aF0.0
aF0.0
aF410.9573617663284
aF0.0
aF0.0
aF0.0
aF0.0
aF0.0
aF0.0
asS'Archaea.Euryarchaeota.Methanobacteria'
p719
(lp720
F0.0
aF83.5879282314048
aF461.63564799066995
aF0.0
aF0.0
aF0.0
aF0.0
aF0.0
aF0.0
aF0.0
aF0.0
aF0.0
aF0.0
aF0.0
asS'Bacteria.Firmicutes.Clostridia.Oscillospirales.Ruminococcaceae.Subdoligranulum'
p721
(lp722
F0.0
aF0.0
aF48.59322610428105
aF416.447880642416
aF454.36474129607547
aF173782.53662470324
aF239663.6299929923
aF0.0
aF0.0
aF0.0
aF0.0
aF0.0
aF0.0
aF0.0
asS'Bacteria.Firmicutes.Clostridia.Peptococcales.Peptococcaceae'
p723
(lp724
F0.0
aF0.0
aF236.02424107793652
aF778.5764725053864
aF0.0
aF851.2163433537926
aF0.0
aF6851.165880405777
aF2791.5965785047065
aF516.4511200533668
aF1072.3486338659122
aF0.0
aF482.78899579888883
aF1325.7575757575762
asS'Bacteria.Firmicutes.Clostridia.Oscillospirales.Ruminococcaceae.Harryflintia'
p725
(lp726
F0.0
aF0.0
aF0.0
aF0.0
aF0.0
aF0.0
aF0.0
aF0.0
aF0.0
aF0.0
aF177.6672292795594
aF0.0
aF0.0
aF0.0
asS'Bacteria.Firmicutes.Clostridia.Eubacteriales.Eubacteriaceae'
p727
(lp728
F0.0
aF91.94672105454528
aF0.0
aF0.0
aF0.0
aF0.0
aF0.0
aF0.0
aF0.0
aF0.0
aF0.0
aF0.0
aF0.0
aF0.0
asS'Bacteria.Actinobacteriota.Coriobacteriia.Coriobacteriales.Eggerthellaceae.Adlercreutzia'
p729
(lp730
F0.0
aF430.47783039173476
aF0.0
aF1846.8558185011493
aF0.0
aF0.0
aF0.0
aF0.0
aF0.0
aF4454.390910460289
aF799.5025317580173
aF5450.029483766061
aF4218.05122645345
aF0.0
asS'Bacteria.Actinobacteriota.Actinobacteria.Pseudonocardiales'
p731
(lp732
F0.0
aF0.0
aF0.0
aF0.0
aF0.0
aF32122.216746561546
aF5255.781359495445
aF0.0
aF0.0
aF0.0
aF0.0
aF0.0
aF101.63978858923976
aF0.0
asS'Bacteria.Firmicutes.Clostridia.Oscillospirales.Ruminococcaceae.Ruminococcaceae'
p733
(lp734
F0.0
aF0.0
aF114.54117581723392
aF0.0
aF0.0
aF0.0
aF0.0
aF0.0
aF0.0
aF0.0
aF0.0
aF0.0
aF0.0
aF0.0
asS'Bacteria.Proteobacteria.Alphaproteobacteria.Rhizobiales.Beijerinckiaceae.Microvirga'
p735
(lp736
F0.0
aF0.0
aF0.0
aF0.0
aF0.0
aF0.0
aF0.0
aF0.0
aF0.0
aF0.0
aF0.0
aF0.0
aF0.0
aF883.8383838383841
asS'Bacteria.Firmicutes.Clostridia.Peptostreptococcales_Tissierellales.Anaerovoracaceae._Eubacterium__brachy_group.uncultured_bacterium'
p737
(lp738
F0.0
aF0.0
aF59.00606026948414
aF0.0
aF0.0
aF0.0
aF0.0
aF78.81374061272052
aF0.0
aF0.0
aF1230.9800885798045
aF357.3789825420368
aF0.0
aF1704.545454545455
asS'Bacteria.Firmicutes.Negativicutes.Veillonellales_Selenomonadales.Veillonellaceae.Veillonella'
p739
(lp740
F0.0
aF522.42455144628
aF152.72156775631188
aF0.0
aF0.0
aF0.0
aF0.0
aF0.0
aF0.0
aF0.0
aF0.0
aF0.0
aF0.0
aF0.0
asS'Bacteria.Firmicutes.Clostridia.Peptococcales.Peptococcaceae.uncultured.uncultured_bacterium'
p741
(lp742
F0.0
aF0.0
aF65.94794971295286
aF325.91573267667343
aF0.0
aF851.2163433537926
aF0.0
aF0.0
aF0.0
aF516.4511200533668
aF222.08403659944926
aF0.0
aF279.50941862040935
aF0.0
asS'Bacteria.Proteobacteria.Alphaproteobacteria.Rhodospirillales'
p743
(lp744
F0.0
aF1776.243474917352
aF0.0
aF0.0
aF0.0
aF0.0
aF0.0
aF174.51613992816687
aF0.0
aF0.0
aF0.0
aF0.0
aF0.0
aF0.0
asS'Bacteria.Actinobacteriota.Actinobacteria.Micrococcales.Micrococcaceae.Rothia'
p745
(lp746
F0.0
aF121.20249593553696
aF128.42495470417134
aF416.447880642416
aF0.0
aF0.0
aF0.0
aF90.07284641453774
aF0.0
aF0.0
aF0.0
aF0.0
aF0.0
aF1767.6767676767681
asS'Bacteria.Proteobacteria.Gammaproteobacteria.Pasteurellales.Pasteurellaceae.Rodentibacter.Pasteurellaceae_bacterium'
p747
(lp748
F0.0
aF0.0
aF0.0
aF0.0
aF0.0
aF0.0
aF0.0
aF0.0
aF0.0
aF0.0
aF285.53661848500616
aF0.0
aF0.0
aF0.0
asS'Bacteria.Firmicutes.Bacilli.Erysipelotrichales.Erysipelatoclostridiaceae.Erysipelotrichaceae_UCG_003'
p749
(lp750
F0.0
aF0.0
aF0.0
aF5468.1417371308535
aF0.0
aF0.0
aF0.0
aF0.0
aF0.0
aF0.0
aF0.0
aF0.0
aF0.0
aF0.0
asS'Bacteria.Firmicutes.Clostridia.Lachnospirales.Lachnospiraceae._Eubacterium__ruminantium_group.uncultured_bacterium'
p751
(lp752
F0.0
aF0.0
aF0.0
aF0.0
aF0.0
aF0.0
aF0.0
aF0.0
aF0.0
aF98147.2316068086
aF50152.9207223442
aF14366.63509818988
aF18532.321452771383
aF0.0
asS'Bacteria.Firmicutes.Bacilli.RF39.RF39.RF39.uncultured_Lachnospiraceae'
p753
(lp754
F0.0
aF0.0
aF527.5835977036229
aF0.0
aF11245.527347077868
aF0.0
aF0.0
aF101.33195221635496
aF0.0
aF0.0
aF234.77455297656064
aF571.8063720672588
aF431.969101504269
aF1704.545454545455
asS'Bacteria.Firmicutes.Clostridia.Eubacteriales.Eubacteriaceae.Eubacterium'
p755
(lp756
F0.0
aF91.94672105454528
aF0.0
aF0.0
aF0.0
aF0.0
aF0.0
aF0.0
aF0.0
aF0.0
aF0.0
aF0.0
aF0.0
aF0.0
asS'Bacteria.Bacteroidota.Bacteroidia.Bacteroidales.Bacteroidaceae.Bacteroides.Bacteroides_sartorii'
p757
(lp758
F0.0
aF23968.83842035533
aF0.0
aF325.91573267667343
aF0.0
aF0.0
aF0.0
aF0.0
aF0.0
aF0.0
aF0.0
aF0.0
aF0.0
aF0.0
asS'Bacteria.Firmicutes.Clostridia.Lachnospirales.Defluviitaleaceae.Defluviitaleaceae_UCG_011.uncultured_bacterium'
p759
(lp760
F0.0
aF0.0
aF0.0
aF144.85143674518818
aF0.0
aF0.0
aF0.0
aF501.03020818086617
aF0.0
aF0.0
aF82.48835645122402
aF0.0
aF0.0
aF0.0
asS'Bacteria.Firmicutes.Clostridia.Oscillospirales.Ruminococcaceae'
p761
(lp762
F14484.185634052616
aF292.5577488099168
aF999.6320798594958
aF1738.217240942258
aF3748.509115692623
aF9452.98149724475
aF4204.625087596356
aF5849.105464044044
aF7587.416341576894
aF4217.684147102496
aF19543.395220751536
aF607.5442703214625
aF1677.056511722456
aF820.7070707070709
asS'Bacteria.Firmicutes.Bacilli.Erysipelotrichales.Erysipelatoclostridiaceae.UCG_004.uncultured_bacterium'
p763
(lp764
F0.0
aF0.0
aF20.825668330406163
aF0.0
aF0.0
aF0.0
aF0.0
aF219.55256313543572
aF214.73819834651587
aF494.93232338447655
aF0.0
aF0.0
aF0.0
aF0.0
asS'Bacteria.Firmicutes.Clostridia.Lachnospirales.Lachnospiraceae.Lachnospiraceae_NC2004_group'
p765
(lp766
F0.0
aF0.0
aF0.0
aF0.0
aF0.0
aF0.0
aF0.0
aF0.0
aF0.0
aF0.0
aF380.71549131334154
aF0.0
aF0.0
aF0.0
asS'Bacteria.Cyanobacteria.Cyanobacteriia.Chloroplast.Chloroplast'
p767
(lp768
F0.0
aF0.0
aF0.0
aF0.0
aF454.36474129607547
aF0.0
aF0.0
aF0.0
aF0.0
aF0.0
aF0.0
aF0.0
aF0.0
aF0.0
asS'Bacteria.Firmicutes.Bacilli.Erysipelotrichales.Erysipelatoclostridiaceae.Erysipelotrichaceae_UCG_003.uncultured_bacterium'
p769
(lp770
F0.0
aF0.0
aF0.0
aF5468.1417371308535
aF0.0
aF0.0
aF0.0
aF0.0
aF0.0
aF0.0
aF0.0
aF0.0
aF0.0
aF0.0
asS'Bacteria.Firmicutes.Bacilli.Staphylococcales.Staphylococcaceae.Staphylococcus'
p771
(lp772
F0.0
aF0.0
aF76.36078387815594
aF561.2993173876042
aF1931.0501505083207
aF0.0
aF0.0
aF0.0
aF0.0
aF0.0
aF0.0
aF0.0
aF0.0
aF0.0
asS'Bacteria.Firmicutes.Bacilli.RF39.RF39.RF39'
p773
(lp774
F0.0
aF0.0
aF4585.117977411091
aF2607.3258614133874
aF2271.8237064803775
aF1120.021504412885
aF0.0
aF900.7284641453773
aF858.9527933860635
aF1850.6165135245644
aF843.9193390779071
aF2126.404946125119
aF2896.733974793333
aF7702.020202020204
asS'Bacteria.Firmicutes.Bacilli.Bacillales'
p775
(lp776
F0.0
aF0.0
aF79.8317285998903
aF0.0
aF0.0
aF0.0
aF0.0
aF0.0
aF0.0
aF0.0
aF0.0
aF0.0
aF0.0
aF0.0
asS'Bacteria.Firmicutes.Bacilli.Lactobacillales.Aerococcaceae.Aerococcus'
p777
(lp778
F0.0
aF0.0
aF0.0
aF271.59644389722786
aF0.0
aF0.0
aF0.0
aF0.0
aF0.0
aF0.0
aF0.0
aF0.0
aF0.0
aF0.0
asS'Bacteria.Firmicutes.Clostridia.Monoglobales'
p779
(lp780
F23056.458764410287
aF0.0
aF2276.9397374577406
aF11533.79565083561
aF14312.489350826378
aF30330.182339500923
aF7358.093903293623
aF168.88658702725826
aF0.0
aF2087.3232768823577
aF0.0
aF196.5584403981202
aF67.75985905949317
aF35353.53535353536
asS'Bacteria.Firmicutes.Clostridia.Lachnospirales.Lachnospiraceae._Bacteroides__pectinophilus_group.uncultured_bacterium'
p781
(lp782
F4729.530002955957
aF0.0
aF1173.1793159462138
aF0.0
aF0.0
aF0.0
aF0.0
aF0.0
aF0.0
aF817.7142734178309
aF2868.0567012271736
aF0.0
aF0.0
aF820.7070707070709
asS'Bacteria.Proteobacteria.Alphaproteobacteria.Rickettsiales'
p783
(lp784
F0.0
aF0.0
aF0.0
aF0.0
aF0.0
aF0.0
aF0.0
aF90.07284641453774
aF0.0
aF0.0
aF0.0
aF0.0
aF0.0
aF0.0
asS'Bacteria.Firmicutes.Clostridia.Monoglobales.Monoglobaceae.Monoglobus.unidentified'
p785
(lp786
F0.0
aF0.0
aF52.06417082601541
aF597.5121765739012
aF0.0
aF0.0
aF0.0
aF0.0
aF0.0
aF817.7142734178309
aF0.0
aF0.0
aF0.0
aF0.0
asS'Bacteria.Actinobacteriota.Actinobacteria.Micrococcales'
p787
(lp788
F0.0
aF121.20249593553696
aF128.42495470417134
aF633.7250357601982
aF0.0
aF0.0
aF0.0
aF90.07284641453774
aF0.0
aF0.0
aF0.0
aF0.0
aF0.0
aF1767.6767676767681
asS'Bacteria.Chloroflexi.Anaerolineae.Anaerolineales.Anaerolineaceae.uncultured'
p789
(lp790
F0.0
aF0.0
aF0.0
aF0.0
aF454.36474129607547
aF0.0
aF0.0
aF0.0
aF0.0
aF0.0
aF0.0
aF0.0
aF0.0
aF0.0
asS'Bacteria.Bacteroidota.Bacteroidia.Bacteroidales.Prevotellaceae.Prevotellaceae_UCG_003.uncultured_bacterium'
p791
(lp792
F0.0
aF105872.46989789733
aF19284.56887395611
aF0.0
aF0.0
aF0.0
aF3153.468815697267
aF0.0
aF0.0
aF0.0
aF0.0
aF0.0
aF0.0
aF0.0
asS'Bacteria.Firmicutes.Clostridia.Oscillospirales.Oscillospiraceae.NK4A214_group'
p793
(lp794
F0.0
aF0.0
aF4609.414590463231
aF2426.261565481902
aF1192.7074459021983
aF2374.4455893553163
aF0.0
aF3394.620399247891
aF3167.388425611109
aF1054.421036775624
aF6738.664196246146
aF0.0
aF0.0
aF0.0
asS'Bacteria.Campilobacterota'
p795
(lp796
F0.0
aF639.4476509702467
aF458.1647032689357
aF2299.5165583298626
aF0.0
aF0.0
aF0.0
aF0.0
aF0.0
aF193.6691700200126
aF0.0
aF0.0
aF0.0
aF0.0
asS'Bacteria.Bacteroidota.Bacteroidia.Chitinophagales'
p797
(lp798
F0.0
aF0.0
aF0.0
aF0.0
aF851.9338899301415
aF0.0
aF0.0
aF0.0
aF0.0
aF0.0
aF0.0
aF0.0
aF0.0
aF0.0
asS'Bacteria.Firmicutes.Clostridia.Clostridiales.Clostridiaceae.Clostridium_sensu_stricto_1'
p799
(lp800
F3251.55187703222
aF1028.1315172462791
aF20516.75425017181
aF9723.152691520758
aF14994.036462770491
aF1612.8309663545544
aF0.0
aF821.9147235326568
aF0.0
aF0.0
aF24867.06684094976
aF190482.9976949056
aF293705.1090933732
aF48484.848484848495
asS'Bacteria.Firmicutes.Clostridia.Lachnospirales.Lachnospiraceae.Lachnospiraceae_NK4A136_group.uncultured_Clostridiales'
p801
(lp802
F0.0
aF0.0
aF0.0
aF0.0
aF0.0
aF0.0
aF0.0
aF0.0
aF0.0
aF0.0
aF0.0
aF0.0
aF499.7289605637622
aF0.0
asS'Bacteria.Bacteroidota.Bacteroidia.Bacteroidales.Prevotellaceae.Prevotellaceae_NK3B31_group.uncultured_bacterium'
p803
(lp804
F46408.51315400532
aF171.35525287437983
aF4807.258439602089
aF3566.9666298502593
aF8405.747713977396
aF18861.16213431298
aF14015.41695865452
aF3006.1812490851967
aF92212.16133996636
aF11426.481031180741
aF450.5133313874542
aF0.0
aF110.1097709716764
aF0.0
asS'Bacteria.Firmicutes.Clostridia.Peptostreptococcales_Tissierellales'
p805
(lp806
F0.0
aF5052.89026158842
aF8590.588186292542
aF26200.003621285916
aF7042.65349008917
aF5107.2980601227555
aF5255.781359495445
aF11602.508528772642
aF2433.6995812605132
aF3636.6766370424584
aF13851.698625617079
aF202240.7662205386
aF236371.79834665946
aF54482.32323232325
asS'Bacteria.Firmicutes.Clostridia.Oscillospirales.Ruminococcaceae.Ruminococcus.Clostridium_islandicum'
p807
(lp808
F0.0
aF0.0
aF0.0
aF0.0
aF0.0
aF0.0
aF0.0
aF0.0
aF0.0
aF0.0
aF0.0
aF0.0
aF0.0
aF505.0505050505052
asS'Bacteria.Cyanobacteria.Vampirivibrionia.Gastranaerophilales'
p809
(lp810
F0.0
aF0.0
aF111.07023109549954
aF1321.7693602998422
aF0.0
aF0.0
aF0.0
aF4396.680815609623
aF6388.461400808847
aF0.0
aF50.762065508445545
aF0.0
aF0.0
aF1073.2323232323236
asS'Bacteria.Actinobacteriota.Coriobacteriia'
p811
(lp812
F0.0
aF472.2717945074371
aF2030.5026622146013
aF21763.928370964528
aF7780.996194695292
aF22624.434389140275
aF23475.823405746323
aF782.5078532262966
aF214.73819834651587
aF5444.255557229242
aF10717.141080470565
aF13419.580794453483
aF10562.0680308985
aF23484.848484848488
asS'Bacteria.Firmicutes.Clostridia.Lachnospirales.Lachnospiraceae.Tuzzerella'
p813
(lp814
F0.0
aF0.0
aF138.83778886937444
aF0.0
aF0.0
aF0.0
aF0.0
aF422.2164675681456
aF0.0
aF0.0
aF0.0
aF196.5584403981202
aF0.0
aF0.0
asS'Bacteria.Firmicutes.Bacilli.Erysipelotrichales.Erysipelatoclostridiaceae.Erysipelatoclostridium'
p815
(lp816
F0.0
aF656.1652366165276
aF0.0
aF0.0
aF0.0
aF0.0
aF0.0
aF0.0
aF0.0
aF0.0
aF0.0
aF0.0
aF0.0
aF0.0
asS'Bacteria.Proteobacteria.Alphaproteobacteria.Rhodospirillales.uncultured.uncultured.Azospirillum_sp_'
p817
(lp818
F0.0
aF121.20249593553696
aF0.0
aF0.0
aF0.0
aF0.0
aF0.0
aF174.51613992816687
aF0.0
aF0.0
aF0.0
aF0.0
aF0.0
aF0.0
asS'Bacteria.Firmicutes.Clostridia.Lachnospirales.Lachnospiraceae._Eubacterium__ventriosum_group'
p819
(lp820
F0.0
aF0.0
aF0.0
aF742.3636133190895
aF0.0
aF0.0
aF0.0
aF0.0
aF0.0
aF0.0
aF0.0
aF0.0
aF0.0
aF0.0
asS'Bacteria.Firmicutes.Clostridia.Lachnospirales.Lachnospiraceae.Lachnoclostridium'
p821
(lp822
F0.0
aF13499.450409371875
aF544.9383213122946
aF488.87359901501014
aF0.0
aF0.0
aF0.0
aF546.066631388135
aF0.0
aF1205.0526134578558
aF2182.7688168631585
aF0.0
aF186.3396124136062
aF2777.7777777777787
asS'Bacteria.Deferribacterota'
p823
(lp824
F0.0
aF0.0
aF0.0
aF0.0
aF0.0
aF0.0
aF0.0
aF67.5546348109033
aF0.0
aF0.0
aF0.0
aF410.98582992334235
aF0.0
aF0.0
asS'Bacteria.Actinobacteriota.Actinobacteria.Streptomycetales.Streptomycetaceae.Streptomyces'
p825
(lp826
F0.0
aF0.0
aF0.0
aF0.0
aF0.0
aF0.0
aF3503.85423966363
aF0.0
aF0.0
aF0.0
aF0.0
aF0.0
aF0.0
aF0.0
asS'Bacteria.Actinobacteriota'
p827
(lp828
F0.0
aF593.474290442974
aF4137.3661083073575
aF22397.653406724723
aF21582.325211563588
aF103893.19474933922
aF37841.62578836721
aF3698.6162558969563
aF1556.85193801224
aF5444.255557229242
aF12094.062107387152
aF19352.07190465129
aF17388.873831142435
aF26136.363636363643
asS'Bacteria.Firmicutes.Clostridia.Oscillospirales._Eubacterium__coprostanoligenes_group._Eubacterium__coprostanoligenes_group.Clostridiales_bacterium'
p829
(lp830
F0.0
aF0.0
aF7542.362880328766
aF0.0
aF0.0
aF0.0
aF0.0
aF0.0
aF0.0
aF0.0
aF0.0
aF0.0
aF0.0
aF0.0
asS'Bacteria.Cyanobacteria.Vampirivibrionia.Gastranaerophilales.Gastranaerophilales.Gastranaerophilales'
p831
(lp832
F0.0
aF0.0
aF0.0
aF0.0
aF0.0
aF0.0
aF0.0
aF1114.6514743799046
aF1717.905586772127
aF0.0
aF0.0
aF0.0
aF0.0
aF0.0
asS'Bacteria.Proteobacteria.Gammaproteobacteria.Enterobacterales.Enterobacteriaceae'
p833
(lp834
F11232.633757020396
aF936.1847961917338
aF1690.3500794846336
aF5757.84461062123
aF21411.938433577558
aF12320.236548541734
aF30133.14646110722
aF1784.568269588029
aF250.52789807093518
aF2582.2556002668343
aF2017.7921039607106
aF7647.910226399587
aF7004.675430275106
aF27904.04040404041
asS'Bacteria.Proteobacteria.Gammaproteobacteria.Pasteurellales.Pasteurellaceae'
p835
(lp836
F0.0
aF1391.73900505289
aF666.4213865729972
aF0.0
aF0.0
aF672.0129026477309
aF0.0
aF0.0
aF0.0
aF1205.0526134578558
aF285.53661848500616
aF0.0
aF0.0
aF0.0
asS'Bacteria.Cyanobacteria.Vampirivibrionia.Gastranaerophilales.Gastranaerophilales.Gastranaerophilales.uncultured_rumen'
p837
(lp838
F0.0
aF0.0
aF79.8317285998903
aF0.0
aF0.0
aF0.0
aF0.0
aF883.8398054426516
aF1395.7982892523532
aF0.0
aF0.0
aF0.0
aF0.0
aF0.0
asS'Bacteria.Chloroflexi.Anaerolineae.Anaerolineales'
p839
(lp840
F0.0
aF0.0
aF0.0
aF0.0
aF454.36474129607547
aF0.0
aF0.0
aF0.0
aF0.0
aF0.0
aF0.0
aF0.0
aF0.0
aF0.0
asS'Bacteria.Firmicutes.Clostridia.Monoglobales.Monoglobaceae'
p841
(lp842
F23056.458764410287
aF0.0
aF2276.9397374577406
aF11533.79565083561
aF14312.489350826378
aF30330.182339500923
aF7358.093903293623
aF168.88658702725826
aF0.0
aF2087.3232768823577
aF0.0
aF196.5584403981202
aF67.75985905949317
aF35353.53535353536
asS'Bacteria.Firmicutes.Clostridia.Oscillospirales.Butyricicoccaceae.uncultured'
p843
(lp844
F0.0
aF0.0
aF0.0
aF8473.809049593508
aF0.0
aF7212.938488418979
aF0.0
aF0.0
aF0.0
aF0.0
aF0.0
aF0.0
aF0.0
aF0.0
asS'Bacteria.Firmicutes.Clostridia.Oscillospirales.UCG_010.UCG_010.uncultured_organism'
p845
(lp846
F0.0
aF0.0
aF1016.9868034681677
aF0.0
aF0.0
aF0.0
aF0.0
aF0.0
aF0.0
aF0.0
aF0.0
aF0.0
aF211.74955956091617
aF0.0
asS'Bacteria.Cyanobacteria.Cyanobacteriia'
p847
(lp848
F0.0
aF0.0
aF0.0
aF0.0
aF454.36474129607547
aF0.0
aF0.0
aF0.0
aF0.0
aF0.0
aF0.0
aF0.0
aF0.0
aF0.0
asS'Bacteria.Chloroflexi.Anaerolineae.Anaerolineales.Anaerolineaceae'
p849
(lp850
F0.0
aF0.0
aF0.0
aF0.0
aF454.36474129607547
aF0.0
aF0.0
aF0.0
aF0.0
aF0.0
aF0.0
aF0.0
aF0.0
aF0.0
asS'Bacteria.Firmicutes.Bacilli.Lactobacillales.Lactobacillaceae'
p851
(lp852
F388117.0558675732
aF9140.339952104116
aF14768.869790979707
aF5450.035307537705
aF13687.737831544275
aF4704.090318534117
aF0.0
aF42756.45428240088
aF50535.05601088007
aF266058.4020141595
aF1294.4326704653615
aF25802.762539535055
aF59679.49586664861
aF130744.94949494953
asS'Bacteria.Chloroflexi'
p853
(lp854
F0.0
aF0.0
aF0.0
aF0.0
aF454.36474129607547
aF0.0
aF0.0
aF0.0
aF0.0
aF0.0
aF0.0
aF0.0
aF0.0
aF0.0
asS'Bacteria.Firmicutes.Clostridia.Lachnospirales.Lachnospiraceae.Lachnospiraceae'
p855
(lp856
F0.0
aF259.1225775173549
aF0.0
aF0.0
aF0.0
aF0.0
aF0.0
aF0.0
aF0.0
aF0.0
aF0.0
aF0.0
aF0.0
aF0.0
asS'Bacteria.Firmicutes.Clostridia.Lachnospirales.Lachnospiraceae._Eubacterium__xylanophilum_group'
p857
(lp858
F0.0
aF0.0
aF97.1864522085621
aF0.0
aF1476.6854092122453
aF0.0
aF0.0
aF10330.229573167297
aF0.0
aF17537.819285145582
aF0.0
aF0.0
aF2828.97411573384
aF2840.9090909090914
asS'Archaea.Euryarchaeota.Methanobacteria.Methanobacteriales.Methanobacteriaceae.Methanosphaera'
p859
(lp860
F0.0
aF83.5879282314048
aF461.63564799066995
aF0.0
aF0.0
aF0.0
aF0.0
aF0.0
aF0.0
aF0.0
aF0.0
aF0.0
aF0.0
aF0.0
asS'Bacteria.Firmicutes.Clostridia.Lachnospirales.Lachnospiraceae.GCA_900066575.uncultured_bacterium'
p861
(lp862
F0.0
aF0.0
aF354.0363616169048
aF851.0021908779805
aF0.0
aF0.0
aF0.0
aF731.8418771181191
aF0.0
aF0.0
aF8179.037805048288
aF0.0
aF228.68952432578945
aF0.0
asS'Bacteria.Firmicutes.Clostridia.Oscillospirales.Butyricicoccaceae.uncultured.uncultured_bacterium'
p863
(lp864
F0.0
aF0.0
aF0.0
aF8473.809049593508
aF0.0
aF7212.938488418979
aF0.0
aF0.0
aF0.0
aF0.0
aF0.0
aF0.0
aF0.0
aF0.0
asS'Bacteria.Firmicutes.Clostridia.Peptostreptococcales_Tissierellales.Anaerovoracaceae.Anaerovorax.uncultured_bacterium'
p865
(lp866
F0.0
aF0.0
aF0.0
aF0.0
aF0.0
aF0.0
aF0.0
aF591.1030545954038
aF518.95064600408
aF0.0
aF0.0
aF0.0
aF0.0
aF0.0
asS'Bacteria.Proteobacteria.Alphaproteobacteria.Rhizobiales.Rhizobiaceae.uncultured'
p867
(lp868
F0.0
aF0.0
aF59.00606026948414
aF0.0
aF0.0
aF0.0
aF0.0
aF0.0
aF0.0
aF0.0
aF0.0
aF0.0
aF0.0
aF0.0
asS'Bacteria.Firmicutes.Clostridia'
p869
(lp870
F393733.3727460833
aF185661.32679118478
aF348378.72172047774
aF826793.8945119412
aF314022.8318282502
aF656556.6058868332
aF596355.9915907498
aF357020.6154227231
aF234565.69199384414
aF492457.66176755435
aF618853.0311298372
aF819094.7590372212
aF771852.5545466866
aF606755.0505050507
asS'Bacteria.Proteobacteria.Alphaproteobacteria.Rhodobacterales.Rhodobacteraceae.Rubellimicrobium.uncultured_bacterium'
p871
(lp872
F0.0
aF0.0
aF0.0
aF0.0
aF1249.5030385642076
aF0.0
aF0.0
aF0.0
aF0.0
aF0.0
aF0.0
aF0.0
aF0.0
aF0.0
asS'Bacteria.Firmicutes.Clostridia.Lachnospirales.Lachnospiraceae.GCA_900066575'
p873
(lp874
F0.0
aF0.0
aF354.0363616169048
aF851.0021908779805
aF0.0
aF0.0
aF0.0
aF731.8418771181191
aF0.0
aF0.0
aF8179.037805048288
aF0.0
aF228.68952432578945
aF0.0
asS'Bacteria.Proteobacteria.Alphaproteobacteria.Rhodospirillales.uncultured.uncultured.uncultured_bacterium'
p875
(lp876
F0.0
aF1563.0942579272698
aF0.0
aF0.0
aF0.0
aF0.0
aF0.0
aF0.0
aF0.0
aF0.0
aF0.0
aF0.0
aF0.0
aF0.0
asS'Bacteria.Bacteroidota.Bacteroidia.Chitinophagales.Chitinophagaceae.Sediminibacterium'
p877
(lp878
F0.0
aF0.0
aF0.0
aF0.0
aF851.9338899301415
aF0.0
aF0.0
aF0.0
aF0.0
aF0.0
aF0.0
aF0.0
aF0.0
aF0.0
asS'Bacteria.Firmicutes.Bacilli.Erysipelotrichales.Erysipelotrichaceae'
p879
(lp880
F0.0
aF6862.568907798335
aF70057.54826348634
aF11135.454199786343
aF49582.55239393423
aF29613.36857667668
aF71478.62648913806
aF9902.383552698244
aF1556.85193801224
aF172.1503733511223
aF14898.666226728767
aF93168.70074870899
aF110109.7709716764
aF103472.22222222223
asS'Bacteria.Actinobacteriota.Coriobacteriia.Coriobacteriales.Eggerthellaceae.Enterorhabdus'
p881
(lp882
F0.0
aF0.0
aF468.5775374341387
aF1919.2815368737436
aF4714.034190946783
aF1299.2249451189466
aF0.0
aF0.0
aF214.73819834651587
aF365.81954337113484
aF755.0857244381275
aF3984.7756553437102
aF2278.4252608754578
aF14141.414141414145
asS'Bacteria.Bacteroidota.Bacteroidia.Chitinophagales.Chitinophagaceae.Sediminibacterium.Sediminibacterium_sp_'
p883
(lp884
F0.0
aF0.0
aF0.0
aF0.0
aF851.9338899301415
aF0.0
aF0.0
aF0.0
aF0.0
aF0.0
aF0.0
aF0.0
aF0.0
aF0.0
asS'Bacteria.Firmicutes.Clostridia.Oscillospirales.Ruminococcaceae.Incertae_Sedis.Clostridium_sp_'
p885
(lp886
F0.0
aF0.0
aF0.0
aF0.0
aF0.0
aF0.0
aF0.0
aF0.0
aF0.0
aF0.0
aF989.8602774146881
aF0.0
aF0.0
aF0.0
asS'Bacteria.Bacteroidota.Bacteroidia.Bacteroidales.Muribaculaceae.Muribaculum'
p887
(lp888
F0.0
aF0.0
aF0.0
aF0.0
aF0.0
aF0.0
aF0.0
aF1187.8356620917164
aF2057.9077341541106
aF817.7142734178309
aF875.6456300206856
aF0.0
aF0.0
aF0.0
asS'Bacteria.Desulfobacterota.Desulfovibrionia.Desulfovibrionales.Desulfovibrionaceae.uncultured.uncultured_bacterium'
p889
(lp890
F0.0
aF2624.6609464661105
aF208.25668330406165
aF0.0
aF0.0
aF0.0
aF0.0
aF0.0
aF0.0
aF0.0
aF0.0
aF0.0
aF0.0
aF0.0
asS'Bacteria.Proteobacteria.Gammaproteobacteria.Burkholderiales.Comamonadaceae'
p891
(lp892
F0.0
aF0.0
aF513.6998188166854
aF2245.197269550417
aF2839.779633100472
aF761.6146230007618
aF8409.250175192712
aF0.0
aF0.0
aF0.0
aF0.0
aF0.0
aF160.92966526629627
aF14583.333333333338
asS'Bacteria.Firmicutes.Clostridia.Clostridia_vadinBB60_group.Clostridia_vadinBB60_group.Clostridia_vadinBB60_group.gut_metagenome'
p893
(lp894
F0.0
aF54.33215335041312
aF0.0
aF0.0
aF0.0
aF0.0
aF0.0
aF0.0
aF0.0
aF0.0
aF0.0
aF0.0
aF0.0
aF0.0
asS'Bacteria.Firmicutes.Clostridia.Oscillospirales._Eubacterium__coprostanoligenes_group'
p895
(lp896
F90747.85693171741
aF50010.65746084949
aF38579.55058207742
aF25475.746437559974
aF6701.879934117113
aF13619.461493660683
aF0.0
aF18628.190549106585
aF31745.463655559928
aF106001.59239095355
aF26383.583548014572
aF48728.62426960671
aF39097.43867732756
aF7386.363636363638
asS'Bacteria.Firmicutes.Bacilli.Erysipelotrichales.Erysipelatoclostridiaceae.Erysipelatoclostridiaceae.uncultured_bacterium'
p897
(lp898
F0.0
aF0.0
aF0.0
aF0.0
aF0.0
aF0.0
aF0.0
aF22.518211603634434
aF0.0
aF0.0
aF0.0
aF0.0
aF0.0
aF0.0
asS'Bacteria.Firmicutes.Clostridia.uncultured.uncultured.uncultured'
p899
(lp900
F0.0
aF0.0
aF114.54117581723392
aF597.5121765739012
aF0.0
aF716.8137628242464
aF0.0
aF0.0
aF0.0
aF0.0
aF0.0
aF0.0
aF186.3396124136062
aF0.0
asS'Bacteria.Firmicutes.Clostridia.Lachnospirales.Lachnospiraceae.A2.uncultured_bacterium'
p901
(lp902
F0.0
aF0.0
aF0.0
aF0.0
aF0.0
aF0.0
aF0.0
aF0.0
aF0.0
aF0.0
aF4530.5143466287645
aF0.0
aF0.0
aF0.0
asS'Bacteria.Firmicutes.Clostridia.Clostridia_UCG_014'
p903
(lp904
F80402.01005025125
aF8.35879282314048
aF175754.7569297411
aF335222.43748755177
aF128528.42619412734
aF97441.870883921
aF74632.09530483533
aF70588.96382449304
aF52127.697648616726
aF71270.25456736462
aF92482.13809819923
aF220270.5358897844
aF53835.20802276732
aF166224.7474747475
asS'Bacteria.Firmicutes.Clostridia.Oscillospirales.Ruminococcaceae._Eubacterium__siraeum_group'
p905
(lp906
F0.0
aF0.0
aF3727.7946311427036
aF235.3835847109308
aF23399.784176747886
aF1568.030106178039
aF0.0
aF0.0
aF0.0
aF17042.886961761105
aF0.0
aF0.0
aF0.0
aF0.0
asS'Bacteria.Firmicutes.Clostridia.Lachnospirales.Lachnospiraceae.Fusicatenibacter'
p907
(lp908
F0.0
aF0.0
aF0.0
aF189284.61496677465
aF0.0
aF188342.81618207073
aF159425.36790469516
aF0.0
aF0.0
aF0.0
aF0.0
aF0.0
aF0.0
aF0.0
asS'Bacteria.Firmicutes.Clostridia.Oscillospirales.Ruminococcaceae.Fournierella'
p909
(lp910
F0.0
aF0.0
aF277.67557773874887
aF0.0
aF0.0
aF0.0
aF0.0
aF6243.174167107647
aF1431.5879889767725
aF0.0
aF329.9534258048961
aF0.0
aF0.0
aF0.0
asS'Bacteria.Firmicutes.Bacilli.Erysipelotrichales.Erysipelatoclostridiaceae.Erysipelatoclostridium.uncultured_bacterium'
p911
(lp912
F0.0
aF0.0
aF0.0
aF1430.4079378587332
aF0.0
aF0.0
aF0.0
aF0.0
aF0.0
aF0.0
aF0.0
aF0.0
aF0.0
aF2272.727272727273
asS'Bacteria.Actinobacteriota.Actinobacteria.Pseudonocardiales.Pseudonocardiaceae.Pseudonocardia'
p913
(lp914
F0.0
aF0.0
aF0.0
aF0.0
aF0.0
aF0.0
aF5255.781359495445
aF0.0
aF0.0
aF0.0
aF0.0
aF0.0
aF0.0
aF0.0
asS'Bacteria.Firmicutes.Clostridia.Peptococcales.Peptococcaceae.Peptococcus.uncultured_bacterium'
p915
(lp916
F0.0
aF0.0
aF27.767557773874884
aF0.0
aF0.0
aF0.0
aF0.0
aF123.85016381998939
aF0.0
aF0.0
aF0.0
aF0.0
aF203.2795771784795
aF0.0
asS'Bacteria.Bacteroidota.Bacteroidia.Bacteroidales.Tannerellaceae.Parabacteroides.Parabacteroides_goldsteinii'
p917
(lp918
F0.0
aF20759.061976269382
aF0.0
aF217.27715511778226
aF0.0
aF5420.904081358363
aF0.0
aF945.7648873526462
aF2773.7017286424966
aF0.0
aF7087.653396616709
aF0.0
aF152.4596828838596
aF0.0
asS'Bacteria.Firmicutes.Bacilli.Lactobacillales.Enterococcaceae.Enterococcus'
p919
(lp920
F0.0
aF79.40853181983456
aF0.0
aF0.0
aF0.0
aF0.0
aF0.0
aF0.0
aF0.0
aF0.0
aF0.0
aF0.0
aF0.0
aF0.0
asS'Bacteria.Firmicutes.Clostridia.Eubacteriales'
p921
(lp922
F0.0
aF91.94672105454528
aF0.0
aF0.0
aF0.0
aF1702.4326867075852
aF0.0
aF0.0
aF0.0
aF0.0
aF0.0
aF357.3789825420368
aF0.0
aF0.0
asS'Bacteria.Firmicutes.Bacilli.Erysipelotrichales.Erysipelatoclostridiaceae.Coprobacillus'
p923
(lp924
F0.0
aF3280.826183082638
aF0.0
aF0.0
aF0.0
aF0.0
aF0.0
aF0.0
aF0.0
aF0.0
aF0.0
aF0.0
aF0.0
aF0.0
asS'Bacteria.Proteobacteria.Alphaproteobacteria.Rhodospirillales.uncultured'
p925
(lp926
F0.0
aF1776.243474917352
aF0.0
aF0.0
aF0.0
aF0.0
aF0.0
aF174.51613992816687
aF0.0
aF0.0
aF0.0
aF0.0
aF0.0
aF0.0
asS'Bacteria.Desulfobacterota.Desulfovibrionia.Desulfovibrionales'
p927
(lp928
F0.0
aF3723.8422027090837
aF3404.996772021408
aF12004.56282025747
aF14369.284943488388
aF0.0
aF0.0
aF0.0
aF0.0
aF0.0
aF0.0
aF0.0
aF0.0
aF0.0
asS'Bacteria.Firmicutes.Clostridia.Lachnospirales.Lachnospiraceae.Blautia.Lachnospiraceae_bacterium'
p929
(lp930
F0.0
aF0.0
aF0.0
aF0.0
aF0.0
aF0.0
aF0.0
aF923.2466757490118
aF0.0
aF0.0
aF0.0
aF1072.1369476261104
aF1397.5470931020466
aF0.0
asS'Archaea.Euryarchaeota'
p931
(lp932
F0.0
aF83.5879282314048
aF461.63564799066995
aF0.0
aF0.0
aF0.0
aF0.0
aF0.0
aF0.0
aF0.0
aF0.0
aF0.0
aF0.0
aF0.0
asS'Bacteria.Chloroflexi.Anaerolineae.Anaerolineales.Anaerolineaceae.uncultured.uncultured_sludge'
p933
(lp934
F0.0
aF0.0
aF0.0
aF0.0
aF454.36474129607547
aF0.0
aF0.0
aF0.0
aF0.0
aF0.0
aF0.0
aF0.0
aF0.0
aF0.0
asS'Bacteria.Firmicutes.Clostridia.Oscillospirales.Oscillospiraceae.Papillibacter'
p935
(lp936
F0.0
aF0.0
aF177.0181808084524
aF0.0
aF0.0
aF0.0
aF0.0
aF1277.908508506254
aF1055.7961418703696
aF5164.511200533669
aF3838.8812040761945
aF1375.9090827868415
aF389.6191895920857
aF0.0
asS'Bacteria.Proteobacteria.Gammaproteobacteria.Enterobacterales'
p937
(lp938
F11232.633757020396
aF1174.4103916512374
aF1690.3500794846336
aF5757.84461062123
aF21411.938433577558
aF12320.236548541734
aF30133.14646110722
aF1784.568269588029
aF250.52789807093518
aF2582.2556002668343
aF2017.7921039607106
aF7647.910226399587
aF7004.675430275106
aF27904.04040404041
asS'Bacteria.Bacteroidota.Bacteroidia.Bacteroidales.Rikenellaceae.Rikenella'
p939
(lp940
F0.0
aF430.47783039173476
aF0.0
aF0.0
aF0.0
aF0.0
aF0.0
aF0.0
aF0.0
aF0.0
aF0.0
aF0.0
aF0.0
aF0.0
asS'Bacteria.Firmicutes.Bacilli.Erysipelotrichales.Erysipelotrichaceae.uncultured.unidentified'
p941
(lp942
F0.0
aF0.0
aF0.0
aF271.59644389722786
aF0.0
aF0.0
aF0.0
aF0.0
aF0.0
aF0.0
aF418.78704044467577
aF0.0
aF0.0
aF0.0
asS'Bacteria.Verrucomicrobiota.Verrucomicrobiae.Verrucomicrobiales.Akkermansiaceae'
p943
(lp944
F0.0
aF0.0
aF0.0
aF1068.279345995763
aF908.7294825921509
aF55508.26575870258
aF142606.86755430975
aF7909.5218257765955
aF465.266096417451
aF16698.586215058862
aF87133.08544524678
aF5342.81578900345
aF6149.207209649006
aF0.0
asS'Bacteria.Firmicutes.Clostridia.Clostridia_vadinBB60_group.Clostridia_vadinBB60_group'
p945
(lp946
F0.0
aF3753.097977590075
aF173.54723608671804
aF561.2993173876042
aF0.0
aF0.0
aF0.0
aF816.2851706317483
aF0.0
aF731.6390867422697
aF387.06074950189725
aF339.510033414935
aF398.0891719745224
aF315.65656565656576
asS'Bacteria.Actinobacteriota.Coriobacteriia.Coriobacteriales.uncultured'
p947
(lp948
F0.0
aF0.0
aF531.0545424253572
aF7224.46540766626
aF2385.4148918043966
aF3180.861072532593
aF0.0
aF146.3683754236238
aF0.0
aF624.0451033978184
aF596.4542697242351
aF268.0342369065276
aF220.2195419433528
aF5871.212121212122
asS'Bacteria.Firmicutes.Clostridia.Lachnospirales.Lachnospiraceae._Eubacterium__ruminantium_group'
p949
(lp950
F0.0
aF0.0
aF0.0
aF0.0
aF0.0
aF0.0
aF0.0
aF0.0
aF0.0
aF98147.2316068086
aF50152.9207223442
aF14366.63509818988
aF18532.321452771383
aF0.0
asS'Bacteria.Firmicutes.Clostridia.Oscillospirales.Butyricicoccaceae.Butyricicoccus'
p951
(lp952
F0.0
aF2904.6805060413167
aF0.0
aF0.0
aF511.16033395808495
aF0.0
aF0.0
aF0.0
aF0.0
aF365.81954337113484
aF406.09652406756436
aF0.0
aF0.0
aF0.0
asS'Bacteria.Firmicutes.Clostridia.Peptostreptococcales_Tissierellales.Anaerovoracaceae.Family_XIII_AD3011_group'
p953
(lp954
F0.0
aF0.0
aF90.24456276509339
aF0.0
aF0.0
aF0.0
aF0.0
aF0.0
aF0.0
aF0.0
aF0.0
aF0.0
aF304.9193657677192
aF0.0
asS'Bacteria.Firmicutes.Clostridia.Lachnospirales.Lachnospiraceae.Lachnoclostridium._Clostridium__aldenense'
p955
(lp956
F0.0
aF28110.620264221438
aF0.0
aF0.0
aF0.0
aF0.0
aF0.0
aF0.0
aF0.0
aF0.0
aF0.0
aF0.0
aF0.0
aF0.0
asS'Bacteria.Firmicutes.Clostridia.Oscillospirales.Ruminococcaceae.Ruminococcaceae.uncultured_bacterium'
p957
(lp958
F0.0
aF0.0
aF114.54117581723392
aF0.0
aF0.0
aF0.0
aF0.0
aF0.0
aF0.0
aF0.0
aF0.0
aF0.0
aF0.0
aF0.0
asS'Bacteria.Firmicutes.Clostridia.Clostridia_UCG_014.Clostridia_UCG_014.Clostridia_UCG_014.unidentified'
p959
(lp960
F0.0
aF0.0
aF39693.72383775415
aF21673.39622299878
aF12608.621570966094
aF0.0
aF0.0
aF37081.864958285005
aF11685.336960022905
aF32859.20251339547
aF7068.6176220510415
aF33468.54171506174
aF6394.8366987396685
aF3977.272727272728
asS'Bacteria.Firmicutes.Clostridia.Peptostreptococcales_Tissierellales.Anaerovoracaceae._Eubacterium__brachy_group'
p961
(lp962
F0.0
aF0.0
aF59.00606026948414
aF0.0
aF0.0
aF0.0
aF0.0
aF78.81374061272052
aF0.0
aF0.0
aF1230.9800885798045
aF357.3789825420368
aF0.0
aF1704.545454545455
asS'Bacteria.Firmicutes.Clostridia.Oscillospirales.Ruminococcaceae.Ruminococcus.unidentified'
p963
(lp964
F7094.295004433935
aF0.0
aF0.0
aF0.0
aF0.0
aF0.0
aF0.0
aF6794.87035139669
aF8714.791882896103
aF17774.526048503376
aF9581.339864719097
aF0.0
aF0.0
aF1136.3636363636365
asS'Bacteria.Firmicutes.Clostridia.Oscillospirales.Ruminococcaceae.uncultured'
p965
(lp966
F0.0
aF133.74068517024767
aF59.00606026948414
aF778.5764725053865
aF0.0
aF0.0
aF0.0
aF225.18211603634433
aF0.0
aF129.1127800133417
aF76.14309826266832
aF0.0
aF0.0
aF0.0
asS'Bacteria.Patescibacteria.Saccharimonadia.Saccharimonadales.Saccharimonadaceae.Candidatus_Saccharimonas'
p967
(lp968
F2955.9562518474727
aF0.0
aF22804.10682179475
aF2299.5165583298626
aF28284.2051456807
aF851.2163433537926
aF0.0
aF332.14362115360785
aF0.0
aF2151.8796668890286
aF2804.6041193416163
aF1179.3506423887216
aF3828.4320368613644
aF15782.828282828288
asS'Bacteria.Firmicutes.Bacilli.Lactobacillales.Lactobacillaceae.Lactobacillus.Lactobacillus_faecis'
p969
(lp970
F24830.03251551877
aF217.3286134016525
aF8260.848437727778
aF0.0
aF0.0
aF0.0
aF0.0
aF7132.643525451207
aF22189.613829139973
aF0.0
aF0.0
aF0.0
aF0.0
aF0.0
asS'Bacteria.Firmicutes.Clostridia.Oscillospirales.Ruminococcaceae.Anaerotruncus'
p971
(lp972
F0.0
aF0.0
aF0.0
aF0.0
aF0.0
aF0.0
aF0.0
aF0.0
aF0.0
aF0.0
aF310.9176512392289
aF0.0
aF0.0
aF0.0
asS'Bacteria.Firmicutes.Bacilli.Erysipelotrichales.Erysipelotrichaceae.Turicibacter'
p973
(lp974
F0.0
aF2892.1423168066062
aF8958.508326796386
aF4055.840228865269
aF9598.455159879593
aF1075.2206442363695
aF3854.239663629993
aF8095.297071506579
aF787.3733939372249
aF0.0
aF4498.788055685986
aF88433.429230027
aF107196.0970321182
aF67992.42424242425
asS'Bacteria.Firmicutes.Clostridia.Lachnospirales.Lachnospiraceae.Tuzzerella.uncultured_bacterium'
p975
(lp976
F0.0
aF0.0
aF138.83778886937444
aF0.0
aF0.0
aF0.0
aF0.0
aF422.2164675681456
aF0.0
aF0.0
aF0.0
aF196.5584403981202
aF0.0
aF0.0
asS'Bacteria.Patescibacteria.Saccharimonadia'
p977
(lp978
F2955.9562518474727
aF0.0
aF22804.10682179475
aF2408.1551358887536
aF28284.2051456807
aF851.2163433537926
aF0.0
aF332.14362115360785
aF0.0
aF2151.8796668890286
aF2804.6041193416163
aF1179.3506423887216
aF3828.4320368613644
aF15782.828282828288
asS'Bacteria.Campilobacterota.Campylobacteria.Campylobacterales.Helicobacteraceae.Helicobacter.Helicobacter_rodentium'
p979
(lp980
F0.0
aF0.0
aF0.0
aF2299.5165583298626
aF0.0
aF0.0
aF0.0
aF0.0
aF0.0
aF193.6691700200126
aF0.0
aF0.0
aF0.0
aF0.0
asS'Bacteria.Firmicutes.Clostridia.Oscillospirales.Oscillospiraceae'
p981
(lp982
F8572.273130357671
aF3000.8066235074325
aF10961.243431237112
aF50788.535008781604
aF18742.545578463112
aF2822.45419112047
aF0.0
aF33113.03016314444
aF14029.56229197237
aF18398.571151901193
aF13597.88829807485
aF8684.309275771493
aF3582.8025477707015
aF20075.75757575758
asS'Bacteria.Actinobacteriota.Coriobacteriia.Coriobacteriales.Coriobacteriales_Incertae_Sedis'
p983
(lp984
F0.0
aF0.0
aF0.0
aF506.98002860815865
aF0.0
aF0.0
aF1751.927119831815
aF0.0
aF0.0
aF0.0
aF0.0
aF0.0
aF0.0
aF0.0
asS'Bacteria'
p985
(lp986
F1000000.0
aF999916.4120717685
aF999538.3643520093
aF1000000.0
aF1000000.0
aF1000000.0
aF1000000.0
aF1000000.0
aF1000000.0
aF1000000.0
aF1000000.0
aF1000000.0
aF1000000.0
aF1000000.0
asS'Bacteria.Firmicutes.Clostridia.uncultured'
p987
(lp988
F0.0
aF0.0
aF114.54117581723392
aF597.5121765739012
aF0.0
aF716.8137628242464
aF0.0
aF0.0
aF0.0
aF0.0
aF0.0
aF0.0
aF186.3396124136062
aF0.0
asS'Bacteria.Proteobacteria.Gammaproteobacteria.Burkholderiales.Comamonadaceae.Delftia'
p989
(lp990
F0.0
aF0.0
aF513.6998188166854
aF1919.2815368737436
aF2839.779633100472
aF761.6146230007618
aF8409.250175192712
aF0.0
aF0.0
aF0.0
aF0.0
aF0.0
aF160.92966526629627
aF12941.919191919194
asS'Bacteria.Firmicutes.Clostridia.Clostridia_vadinBB60_group.Clostridia_vadinBB60_group.Clostridia_vadinBB60_group.uncultured_Clostridia'
p991
(lp992
F0.0
aF133.74068517024767
aF0.0
aF0.0
aF0.0
aF0.0
aF0.0
aF0.0
aF0.0
aF0.0
aF0.0
aF0.0
aF0.0
aF0.0
asS'Bacteria.Chloroflexi.Anaerolineae'
p993
(lp994
F0.0
aF0.0
aF0.0
aF0.0
aF454.36474129607547
aF0.0
aF0.0
aF0.0
aF0.0
aF0.0
aF0.0
aF0.0
aF0.0
aF0.0
assS'subclass_sl'
p995
(dp996
g12
(I0
I7
tp997
sg10
(I7
I14
tp998
ssS'norm'
p999
F1000000.0
sS'cls'
p1000
(dp1001
S'class'
p1002
(S'HSD-NR'
p1003
S'HSD-NR'
p1004
S'HSD-NR'
p1005
S'HSD-NR'
p1006
S'HSD-NR'
p1007
S'HSD-NR'
p1008
g5
S'STD-NR'
p1009
S'STD-NR'
p1010
S'STD-NR'
p1011
S'STD-NR'
p1012
S'STD-NR'
p1013
S'STD-NR'
p1014
g3
tp1015
sS'subclass'
p1016
(lp1017
S'HSD-NR_subcl'
p1018
aS'HSD-NR_subcl'
p1019
aS'HSD-NR_subcl'
p1020
aS'HSD-NR_subcl'
p1021
aS'HSD-NR_subcl'
p1022
aS'HSD-NR_subcl'
p1023
ag12
aS'STD-NR_subcl'
p1024
aS'STD-NR_subcl'
p1025
aS'STD-NR_subcl'
p1026
aS'STD-NR_subcl'
p1027
aS'STD-NR_subcl'
p1028
aS'STD-NR_subcl'
p1029
ag10
asS'subject'
p1030
(S'S210421121704'
p1031
S'S210421121705'
p1032
S'S210421121706'
p1033
S'S210421121707'
p1034
S'S210421121708'
p1035
S'S210421121709'
p1036
S'S210421121710'
p1037
S'S210421121685'
p1038
S'S210421121686'
p1039
S'S210421121687'
p1040
S'S210421121691'
p1041
S'S210421121692'
p1042
S'S210421121693'
p1043
S'S210421121703'
p1044
tp1045
ss.