(dp0
S'class_sl'
p1
(dp2
S'STD-NR'
p3
(I7
I14
tp4
sS'HSD-NR'
p5
(I0
I7
tp6
ssS'class_hierarchy'
p7
(dp8
g3
(lp9
S'STD-NR_subcl'
p10
asg5
(lp11
S'HSD-NR_subcl'
p12
assS'feats'
p13
(dp14
S'Bacteria.Chloroflexi'
p15
(lp16
F0.0
aF0.0
aF0.0
aF0.0
aF227.18237064803768
aF0.0
aF0.0
aF0.0
aF0.0
aF0.0
aF0.0
aF0.0
aF0.0
aF0.0
asS'Bacteria.Desulfobacterota'
p17
(lp18
F0.0
aF1861.9211013545419
aF1702.4983860107043
aF6002.281410128737
aF7184.642471744191
aF0.0
aF0.0
aF0.0
aF0.0
aF0.0
aF0.0
aF0.0
aF0.0
aF0.0
asS'Bacteria.Actinobacteriota'
p19
(lp20
F0.0
aF296.737145221487
aF2068.683054153679
aF11198.826703362363
aF10791.162605781788
aF51946.59737466959
aF18920.812894183604
aF1849.3081279484777
aF778.42596900612
aF2722.12777861462
aF6047.031053693575
aF9676.035952325643
aF8694.436915571216
aF13068.181818181818
asS'Archaea'
p21
(lp22
F0.0
aF41.7939641157024
aF230.81782399533503
aF0.0
aF0.0
aF0.0
aF0.0
aF0.0
aF0.0
aF0.0
aF0.0
aF0.0
aF0.0
aF0.0
asS'Bacteria'
p23
(lp24
F500000.0
aF499958.20603588416
aF499769.1821760047
aF500000.0
aF499999.9999999999
aF500000.0
aF500000.00000000006
aF500000.0
aF500000.0
aF500000.00000000006
aF500000.0
aF500000.0
aF500000.0
aF500000.0
asS'Bacteria.Cyanobacteria'
p25
(lp26
F0.0
aF0.0
aF55.53511554774978
aF660.8846801499212
aF227.18237064803768
aF0.0
aF0.0
aF2198.3404078048115
aF3194.2307004044233
aF0.0
aF25.38103275422277
aF0.0
aF0.0
aF536.6161616161615
asS'Bacteria.Firmicutes'
p27
(lp28
F396393.7333727461
aF107978.88568932872
aF221630.2333169042
aF428352.8580999113
aF196938.71755551765
aF347094.664217553
aF333917.30903994397
aF211054.7530315142
aF145941.44805125083
aF393417.4000989865
aF318690.59252020967
aF472428.21149688185
aF474954.2620951349
aF444570.70707070705
asS'Bacteria.Bacteroidota'
p29
(lp30
F96511.97162281998
aF384500.2904680505
aF259650.96179878237
aF44568.9764435351
aF253904.6969955131
aF58039.51435867569
aF43973.37070777856
aF278001.3961291194
aF348618.5175906374
aF92229.56252286374
aF128408.98996180156
aF8398.406089737862
aF6458.361566607941
aF4734.848484848485
asS'Bacteria.Elusimicrobiota'
p31
(lp32
F0.0
aF45.97336052727264
aF95.45097984769494
aF0.0
aF0.0
aF0.0
aF0.0
aF0.0
aF0.0
aF0.0
aF0.0
aF0.0
aF0.0
aF0.0
asS'Bacteria.Campilobacterota'
p33
(lp34
F0.0
aF319.72382548512337
aF229.08235163446787
aF1149.7582791649315
aF0.0
aF0.0
aF0.0
aF0.0
aF0.0
aF96.83458501000625
aF0.0
aF0.0
aF0.0
aF0.0
asS'Archaea.Euryarchaeota'
p35
(lp36
F0.0
aF41.7939641157024
aF230.81782399533503
aF0.0
aF0.0
aF0.0
aF0.0
aF0.0
aF0.0
aF0.0
aF0.0
aF0.0
aF0.0
aF0.0
asS'Bacteria.Proteobacteria'
p37
(lp38
F5616.316878510198
aF4954.674445916519
aF2934.6837622264025
aF6328.19714280541
aF15789.174760038619
aF14739.482998073563
aF31885.073580939035
aF2741.592262742492
aF1234.7446404924663
aF2108.8420735512473
aF1859.160649246818
aF6030.770330396869
aF4904.119799430817
aF29198.232323232325
asS'Bacteria.Acidobacteriota'
p39
(lp40
F0.0
aF0.0
aF0.0
aF0.0
aF340.7735559720565
aF0.0
aF0.0
aF0.0
aF0.0
aF0.0
aF0.0
aF0.0
aF0.0
aF0.0
asS'Bacteria.Deferribacterota'
p41
(lp42
F0.0
aF0.0
aF0.0
aF0.0
aF0.0
aF0.0
aF0.0
aF33.77731740545165
aF0.0
aF0.0
aF0.0
aF205.49291496167112
aF0.0
aF0.0
asS'Bacteria.Verrucomicrobiota'
p43
(lp44
F0.0
aF0.0
aF0.0
aF534.1396729978816
aF454.36474129607535
aF27754.132879351284
aF71303.43377715487
aF3954.7609128882978
aF232.6330482087255
aF8349.293107529427
aF43566.54272262339
aF2671.407894501724
aF3074.603604824502
aF0.0
asS'Bacteria.Patescibacteria'
p45
(lp46
F1477.9781259237363
aF0.0
aF11402.053410897377
aF1204.077567944377
aF14142.102572840346
aF425.6081716768962
aF0.0
aF166.07181057680393
aF0.0
aF1075.939833444514
aF1402.302059670808
aF589.6753211943607
aF1914.2160184306817
aF7891.414141414142
assS'subclass_sl'
p47
(dp48
g12
(I0
I7
tp49
sg10
(I7
I14
tp50
ssS'norm'
p51
F1000000.0
sS'cls'
p52
(dp53
S'class'
p54
(S'HSD-NR'
p55
S'HSD-NR'
p56
S'HSD-NR'
p57
S'HSD-NR'
p58
S'HSD-NR'
p59
S'HSD-NR'
p60
g5
S'STD-NR'
p61
S'STD-NR'
p62
S'STD-NR'
p63
S'STD-NR'
p64
S'STD-NR'
p65
S'STD-NR'
p66
g3
tp67
sS'subclass'
p68
(lp69
S'HSD-NR_subcl'
p70
aS'HSD-NR_subcl'
p71
aS'HSD-NR_subcl'
p72
aS'HSD-NR_subcl'
p73
aS'HSD-NR_subcl'
p74
aS'HSD-NR_subcl'
p75
ag12
aS'STD-NR_subcl'
p76
aS'STD-NR_subcl'
p77
aS'STD-NR_subcl'
p78
aS'STD-NR_subcl'
p79
aS'STD-NR_subcl'
p80
aS'STD-NR_subcl'
p81
ag10
asS'subject'
p82
(S'S210421121704'
p83
S'S210421121705'
p84
S'S210421121706'
p85
S'S210421121707'
p86
S'S210421121708'
p87
S'S210421121709'
p88
S'S210421121710'
p89
S'S210421121685'
p90
S'S210421121686'
p91
S'S210421121687'
p92
S'S210421121691'
p93
S'S210421121692'
p94
S'S210421121693'
p95
S'S210421121703'
p96
tp97
ss.