(dp0
S'class_sl'
p1
(dp2
S'STD-NR'
p3
(I7
I14
tp4
sS'HSD-NR'
p5
(I0
I7
tp6
ssS'class_hierarchy'
p7
(dp8
g3
(lp9
S'STD-NR_subcl'
p10
asg5
(lp11
S'HSD-NR_subcl'
p12
assS'feats'
p13
(dp14
S'Bacteria.Chloroflexi'
p15
(lp16
F0.0
aF0.0
aF0.0
aF0.0
aF454.36474129607535
aF0.0
aF0.0
aF0.0
aF0.0
aF0.0
aF0.0
aF0.0
aF0.0
aF0.0
asS'Bacteria.Elusimicrobiota'
p17
(lp18
F0.0
aF91.94672105454529
aF190.90195969538988
aF0.0
aF0.0
aF0.0
aF0.0
aF0.0
aF0.0
aF0.0
aF0.0
aF0.0
aF0.0
aF0.0
asS'Bacteria.Campilobacterota'
p19
(lp20
F0.0
aF639.4476509702469
aF458.16470326893574
aF2299.516558329863
aF0.0
aF0.0
aF0.0
aF0.0
aF0.0
aF193.6691700200125
aF0.0
aF0.0
aF0.0
aF0.0
asS'Bacteria.Firmicutes.Clostridia'
p21
(lp22
F393733.3727460833
aF185661.32679118484
aF348378.7217204779
aF826793.8945119412
aF314022.8318282501
aF656556.605886833
aF596355.9915907498
aF357020.6154227231
aF234565.6919938442
aF492457.66176755395
aF618853.0311298367
aF819094.7590372211
aF771852.5545466866
aF606755.0505050506
asS'Archaea'
p23
(lp24
F0.0
aF83.58792823140482
aF461.63564799067007
aF0.0
aF0.0
aF0.0
aF0.0
aF0.0
aF0.0
aF0.0
aF0.0
aF0.0
aF0.0
aF0.0
asS'Bacteria.Campilobacterota.Campylobacteria'
p25
(lp26
F0.0
aF639.4476509702469
aF458.16470326893574
aF2299.516558329863
aF0.0
aF0.0
aF0.0
aF0.0
aF0.0
aF193.6691700200125
aF0.0
aF0.0
aF0.0
aF0.0
asS'Bacteria.Acidobacteriota.Acidobacteriae'
p27
(lp28
F0.0
aF0.0
aF0.0
aF0.0
aF681.547111944113
aF0.0
aF0.0
aF0.0
aF0.0
aF0.0
aF0.0
aF0.0
aF0.0
aF0.0
asS'Bacteria.Proteobacteria.Gammaproteobacteria'
p29
(lp30
F11232.633757020396
aF8133.10541691569
aF5591.691946714056
aF12656.39428561082
aF30328.84648151303
aF29254.961695264552
aF63770.14716187806
aF5218.595539142281
aF2469.4892809849325
aF4217.6841471024945
aF3718.321298493636
aF12061.540660793738
aF9672.719880742648
aF56502.52525252526
asS'Bacteria.Deferribacterota.Deferribacteres'
p31
(lp32
F0.0
aF0.0
aF0.0
aF0.0
aF0.0
aF0.0
aF0.0
aF67.55463481090332
aF0.0
aF0.0
aF0.0
aF410.98582992334224
aF0.0
aF0.0
asS'Bacteria.Actinobacteriota'
p33
(lp34
F0.0
aF593.4742904429743
aF4137.366108307359
aF22397.653406724727
aF21582.325211563577
aF103893.19474933919
aF37841.62578836721
aF3698.616255896957
aF1556.8519380122402
aF5444.2555572292395
aF12094.062107387148
aF19352.071904651286
aF17388.87383114243
aF26136.363636363636
asS'Bacteria'
p35
(lp36
F1000000.0
aF999916.4120717687
aF999538.3643520094
aF1000000.0
aF1000000.0
aF1000000.0
aF1000000.0
aF1000000.0
aF1000000.0
aF1000000.0
aF1000000.0
aF1000000.0
aF1000000.0
aF1000000.0
asS'Bacteria.Firmicutes'
p37
(lp38
F792787.4667454922
aF215957.77137865752
aF443260.4666338084
aF856705.7161998226
aF393877.4351110353
aF694189.328435106
aF667834.6180798878
aF422109.5060630284
aF291882.8961025017
aF786834.8001979729
aF637381.1850404193
aF944856.4229937637
aF949908.5241902698
aF889141.4141414142
asS'Bacteria.Actinobacteriota.Actinobacteria'
p39
(lp40
F0.0
aF121.20249593553699
aF2106.8634460927574
aF633.7250357601985
aF13801.329016868287
aF81268.76036019892
aF14365.802382620883
aF2916.10840267066
aF1342.1137396657243
aF0.0
aF1376.921026916585
aF5932.491110197809
aF6826.805800243936
aF2651.5151515151515
asS'Bacteria.Patescibacteria'
p41
(lp42
F2955.9562518474727
aF0.0
aF22804.106821794754
aF2408.155135888754
aF28284.20514568069
aF851.2163433537924
aF0.0
aF332.14362115360797
aF0.0
aF2151.8796668890277
aF2804.604119341616
aF1179.3506423887213
aF3828.4320368613635
aF15782.828282828285
asS'Bacteria.Acidobacteriota'
p43
(lp44
F0.0
aF0.0
aF0.0
aF0.0
aF681.547111944113
aF0.0
aF0.0
aF0.0
aF0.0
aF0.0
aF0.0
aF0.0
aF0.0
aF0.0
asS'Bacteria.Elusimicrobiota.Elusimicrobia'
p45
(lp46
F0.0
aF91.94672105454529
aF190.90195969538988
aF0.0
aF0.0
aF0.0
aF0.0
aF0.0
aF0.0
aF0.0
aF0.0
aF0.0
aF0.0
aF0.0
asS'Bacteria.Proteobacteria.Alphaproteobacteria'
p47
(lp48
F0.0
aF1776.2434749173524
aF277.6755777387489
aF0.0
aF1249.5030385642071
aF224.00430088257696
aF0.0
aF264.5889863427047
aF0.0
aF0.0
aF0.0
aF0.0
aF135.5197181189863
aF1893.939393939394
asS'Bacteria.Actinobacteriota.Coriobacteriia'
p49
(lp50
F0.0
aF472.2717945074372
aF2030.5026622146017
aF21763.928370964528
aF7780.996194695289
aF22624.43438914027
aF23475.823405746323
aF782.5078532262968
aF214.7381983465159
aF5444.2555572292395
aF10717.141080470563
aF13419.580794453477
aF10562.068030898496
aF23484.848484848484
asS'Bacteria.Cyanobacteria'
p51
(lp52
F0.0
aF0.0
aF111.07023109549957
aF1321.7693602998424
aF454.36474129607535
aF0.0
aF0.0
aF4396.680815609624
aF6388.461400808847
aF0.0
aF50.76206550844554
aF0.0
aF0.0
aF1073.232323232323
asS'Bacteria.Patescibacteria.Saccharimonadia'
p53
(lp54
F2955.9562518474727
aF0.0
aF22804.106821794754
aF2408.155135888754
aF28284.20514568069
aF851.2163433537924
aF0.0
aF332.14362115360797
aF0.0
aF2151.8796668890277
aF2804.604119341616
aF1179.3506423887213
aF3828.4320368613635
aF15782.828282828285
asS'Bacteria.Proteobacteria'
p55
(lp56
F11232.633757020396
aF9909.348891833042
aF5869.367524452805
aF12656.39428561082
aF31578.349520077238
aF29478.965996147126
aF63770.14716187806
aF5483.184525484987
aF2469.4892809849325
aF4217.6841471024945
aF3718.321298493636
aF12061.540660793738
aF9808.239598861635
aF58396.46464646465
asS'Bacteria.Bacteroidota.Bacteroidia'
p57
(lp58
F193023.94324563997
aF769000.5809361013
aF519301.92359756475
aF89137.9528870702
aF507809.3939910262
aF116079.02871735138
aF87946.74141555712
aF556002.7922582389
aF697237.0351812749
aF184459.12504572744
aF256817.97992360312
aF16796.812179475724
aF12916.723133215883
aF9469.69696969697
asS'Bacteria.Bacteroidota'
p59
(lp60
F193023.94324563997
aF769000.5809361013
aF519301.92359756475
aF89137.9528870702
aF507809.3939910262
aF116079.02871735138
aF87946.74141555712
aF556002.7922582389
aF697237.0351812749
aF184459.12504572744
aF256817.97992360312
aF16796.812179475724
aF12916.723133215883
aF9469.69696969697
asS'Bacteria.Firmicutes.Negativicutes'
p61
(lp62
F0.0
aF7619.03965829255
aF1197.4759289983547
aF0.0
aF0.0
aF0.0
aF0.0
aF0.0
aF0.0
aF0.0
aF0.0
aF0.0
aF0.0
aF0.0
asS'Bacteria.Desulfobacterota'
p63
(lp64
F0.0
aF3723.8422027090846
aF3404.9967720214086
aF12004.562820257474
aF14369.284943488383
aF0.0
aF0.0
aF0.0
aF0.0
aF0.0
aF0.0
aF0.0
aF0.0
aF0.0
asS'Bacteria.Desulfobacterota.Desulfovibrionia'
p65
(lp66
F0.0
aF3723.8422027090846
aF3404.9967720214086
aF12004.562820257474
aF14369.284943488383
aF0.0
aF0.0
aF0.0
aF0.0
aF0.0
aF0.0
aF0.0
aF0.0
aF0.0
asS'Bacteria.Verrucomicrobiota'
p67
(lp68
F0.0
aF0.0
aF0.0
aF1068.2793459957632
aF908.7294825921507
aF55508.26575870257
aF142606.86755430975
aF7909.521825776597
aF465.2660964174511
aF16698.586215058855
aF87133.08544524678
aF5342.815789003448
aF6149.207209649004
aF0.0
asS'Archaea.Euryarchaeota.Methanobacteria'
p69
(lp70
F0.0
aF83.58792823140482
aF461.63564799067007
aF0.0
aF0.0
aF0.0
aF0.0
aF0.0
aF0.0
aF0.0
aF0.0
aF0.0
aF0.0
aF0.0
asS'Bacteria.Firmicutes.Bacilli'
p71
(lp72
F399054.0939994088
aF22677.404929180128
aF93684.26898433216
aF29911.82168788137
aF79854.60328278523
aF37632.722548272926
aF71478.62648913806
aF65088.89064030535
aF57317.20410865754
aF294377.13843041897
aF18528.153910582623
aF125761.6639565427
aF178055.96964358314
aF282386.36363636365
asS'Bacteria.Cyanobacteria.Vampirivibrionia'
p73
(lp74
F0.0
aF0.0
aF111.07023109549957
aF1321.7693602998424
aF0.0
aF0.0
aF0.0
aF4396.680815609624
aF6388.461400808847
aF0.0
aF50.76206550844554
aF0.0
aF0.0
aF1073.232323232323
asS'Archaea.Euryarchaeota'
p75
(lp76
F0.0
aF83.58792823140482
aF461.63564799067007
aF0.0
aF0.0
aF0.0
aF0.0
aF0.0
aF0.0
aF0.0
aF0.0
aF0.0
aF0.0
aF0.0
asS'Bacteria.Verrucomicrobiota.Verrucomicrobiae'
p77
(lp78
F0.0
aF0.0
aF0.0
aF1068.2793459957632
aF908.7294825921507
aF55508.26575870257
aF142606.86755430975
aF7909.521825776597
aF465.2660964174511
aF16698.586215058855
aF87133.08544524678
aF5342.815789003448
aF6149.207209649004
aF0.0
asS'Bacteria.Deferribacterota'
p79
(lp80
F0.0
aF0.0
aF0.0
aF0.0
aF0.0
aF0.0
aF0.0
aF67.55463481090332
aF0.0
aF0.0
aF0.0
aF410.98582992334224
aF0.0
aF0.0
asS'Bacteria.Cyanobacteria.Cyanobacteriia'
p81
(lp82
F0.0
aF0.0
aF0.0
aF0.0
aF454.36474129607535
aF0.0
aF0.0
aF0.0
aF0.0
aF0.0
aF0.0
aF0.0
aF0.0
aF0.0
asS'Bacteria.Chloroflexi.Anaerolineae'
p83
(lp84
F0.0
aF0.0
aF0.0
aF0.0
aF454.36474129607535
aF0.0
aF0.0
aF0.0
aF0.0
aF0.0
aF0.0
aF0.0
aF0.0
aF0.0
assS'subclass_sl'
p85
(dp86
g12
(I0
I7
tp87
sg10
(I7
I14
tp88
ssS'norm'
p89
F1000000.0
sS'cls'
p90
(dp91
S'class'
p92
(S'HSD-NR'
p93
S'HSD-NR'
p94
S'HSD-NR'
p95
S'HSD-NR'
p96
S'HSD-NR'
p97
S'HSD-NR'
p98
g5
S'STD-NR'
p99
S'STD-NR'
p100
S'STD-NR'
p101
S'STD-NR'
p102
S'STD-NR'
p103
S'STD-NR'
p104
g3
tp105
sS'subclass'
p106
(lp107
S'HSD-NR_subcl'
p108
aS'HSD-NR_subcl'
p109
aS'HSD-NR_subcl'
p110
aS'HSD-NR_subcl'
p111
aS'HSD-NR_subcl'
p112
aS'HSD-NR_subcl'
p113
ag12
aS'STD-NR_subcl'
p114
aS'STD-NR_subcl'
p115
aS'STD-NR_subcl'
p116
aS'STD-NR_subcl'
p117
aS'STD-NR_subcl'
p118
aS'STD-NR_subcl'
p119
ag10
asS'subject'
p120
(S'S210421121704'
p121
S'S210421121705'
p122
S'S210421121706'
p123
S'S210421121707'
p124
S'S210421121708'
p125
S'S210421121709'
p126
S'S210421121710'
p127
S'S210421121685'
p128
S'S210421121686'
p129
S'S210421121687'
p130
S'S210421121691'
p131
S'S210421121692'
p132
S'S210421121693'
p133
S'S210421121703'
p134
tp135
ss.