(dp0
S'class_sl'
p1
(dp2
S'STD-NR'
p3
(I7
I14
tp4
sS'HSD-NR'
p5
(I0
I7
tp6
ssS'class_hierarchy'
p7
(dp8
g3
(lp9
S'STD-NR_subcl'
p10
asg5
(lp11
S'HSD-NR_subcl'
p12
assS'feats'
p13
(dp14
S'Bacteria.Chloroflexi'
p15
(lp16
F0.0
aF0.0
aF0.0
aF0.0
aF454.3647412960754
aF0.0
aF0.0
aF0.0
aF0.0
aF0.0
aF0.0
aF0.0
aF0.0
aF0.0
asS'Bacteria.Elusimicrobiota.Elusimicrobia.Elusimicrobiales'
p17
(lp18
F0.0
aF91.94672105454528
aF190.90195969538985
aF0.0
aF0.0
aF0.0
aF0.0
aF0.0
aF0.0
aF0.0
aF0.0
aF0.0
aF0.0
aF0.0
asS'Bacteria.Firmicutes.Bacilli.Acholeplasmatales'
p19
(lp20
F0.0
aF0.0
aF0.0
aF253.4900143040794
aF0.0
aF0.0
aF0.0
aF0.0
aF214.7381983465159
aF0.0
aF0.0
aF0.0
aF0.0
aF1704.5454545454545
asS'Bacteria.Actinobacteriota.Actinobacteria.Micrococcales'
p21
(lp22
F0.0
aF121.20249593553696
aF128.42495470417134
aF633.7250357601985
aF0.0
aF0.0
aF0.0
aF90.07284641453774
aF0.0
aF0.0
aF0.0
aF0.0
aF0.0
aF1767.676767676768
asS'Bacteria.Verrucomicrobiota'
p23
(lp24
F0.0
aF0.0
aF0.0
aF1068.2793459957634
aF908.7294825921508
aF55508.26575870255
aF142606.86755430975
aF7909.5218257765955
aF465.2660964174511
aF16698.586215058855
aF87133.08544524675
aF5342.815789003448
aF6149.207209649004
aF0.0
asS'Bacteria.Actinobacteriota.Actinobacteria.Streptomycetales'
p25
(lp26
F0.0
aF0.0
aF0.0
aF0.0
aF0.0
aF0.0
aF3503.85423966363
aF0.0
aF0.0
aF0.0
aF0.0
aF0.0
aF0.0
aF0.0
asS'Bacteria.Firmicutes'
p27
(lp28
F792787.4667454923
aF215957.77137865746
aF443260.4666338083
aF856705.7161998226
aF393877.4351110353
aF694189.3284351059
aF667834.6180798878
aF422109.5060630284
aF291882.8961025017
aF786834.8001979729
aF637381.1850404192
aF944856.4229937638
aF949908.5241902698
aF889141.4141414141
asS'Bacteria.Actinobacteriota.Actinobacteria.Bifidobacteriales'
p29
(lp30
F0.0
aF0.0
aF1978.4384913885856
aF0.0
aF13801.32901686829
aF49146.543613637376
aF5606.166783461807
aF2826.0355562561213
aF1342.1137396657243
aF0.0
aF1376.9210269165849
aF5932.491110197809
aF6725.1660116546955
aF883.838383838384
asS'Bacteria.Desulfobacterota.Desulfovibrionia.Desulfovibrionales'
p31
(lp32
F0.0
aF3723.8422027090837
aF3404.9967720214077
aF12004.562820257474
aF14369.284943488386
aF0.0
aF0.0
aF0.0
aF0.0
aF0.0
aF0.0
aF0.0
aF0.0
aF0.0
asS'Bacteria.Proteobacteria.Gammaproteobacteria.Pseudomonadales'
p33
(lp34
F0.0
aF0.0
aF572.7058790861696
aF1629.5786633833675
aF0.0
aF2777.6533309439537
aF15066.57323055361
aF28.14776450454304
aF0.0
aF0.0
aF355.3344585591187
aF1929.8465057269982
aF457.3790486515788
aF8080.80808080808
asS'Bacteria.Firmicutes.Clostridia.Lachnospirales'
p35
(lp36
F142477.09133904817
aF108492.95144795187
aF31377.340284478625
aF289069.14845461625
aF37712.27352757426
aF289279.1541597598
aF250175.1927119832
aF129355.866557078
aF78862.60334275795
aF210733.57577844246
aF356514.67658219003
aF99976.77036613476
aF106247.45900528527
aF59406.56565656566
asS'Bacteria.Acidobacteriota'
p37
(lp38
F0.0
aF0.0
aF0.0
aF0.0
aF681.5471119441132
aF0.0
aF0.0
aF0.0
aF0.0
aF0.0
aF0.0
aF0.0
aF0.0
aF0.0
asS'Bacteria.Firmicutes.Clostridia'
p39
(lp40
F393733.3727460833
aF185661.3267911848
aF348378.72172047774
aF826793.8945119412
aF314022.8318282501
aF656556.6058868329
aF596355.9915907498
aF357020.6154227231
aF234565.69199384423
aF492457.66176755395
aF618853.0311298367
aF819094.7590372211
aF771852.5545466867
aF606755.0505050506
asS'Bacteria.Cyanobacteria.Cyanobacteriia'
p41
(lp42
F0.0
aF0.0
aF0.0
aF0.0
aF454.3647412960754
aF0.0
aF0.0
aF0.0
aF0.0
aF0.0
aF0.0
aF0.0
aF0.0
aF0.0
asS'Bacteria.Firmicutes.Clostridia.Clostridia_vadinBB60_group'
p43
(lp44
F0.0
aF3753.0979775900755
aF173.54723608671804
aF561.2993173876044
aF0.0
aF0.0
aF0.0
aF816.2851706317483
aF0.0
aF731.6390867422693
aF387.06074950189713
aF339.51003341493487
aF398.0891719745223
aF315.6565656565657
asS'Bacteria.Firmicutes.Bacilli.RF39'
p45
(lp46
F0.0
aF41.7939641157024
aF6136.630268026351
aF3440.2216226982205
aF13914.92020219231
aF1120.0215044128843
aF0.0
aF4925.858788295032
aF858.9527933860636
aF24273.202642508233
aF2335.055013388494
aF5700.194771545485
aF7004.675430275105
aF11868.68686868687
asS'Bacteria.Proteobacteria.Gammaproteobacteria.Pasteurellales'
p47
(lp48
F0.0
aF1391.73900505289
aF666.4213865729972
aF0.0
aF0.0
aF672.0129026477307
aF0.0
aF0.0
aF0.0
aF1205.0526134578554
aF285.53661848500604
aF0.0
aF0.0
aF0.0
asS'Bacteria.Actinobacteriota'
p49
(lp50
F0.0
aF593.474290442974
aF4137.366108307358
aF22397.65340672473
aF21582.32521156358
aF103893.19474933918
aF37841.62578836721
aF3698.616255896956
aF1556.8519380122402
aF5444.2555572292395
aF12094.062107387146
aF19352.071904651286
aF17388.87383114243
aF26136.363636363636
asS'Bacteria.Acidobacteriota.Acidobacteriae'
p51
(lp52
F0.0
aF0.0
aF0.0
aF0.0
aF681.5471119441132
aF0.0
aF0.0
aF0.0
aF0.0
aF0.0
aF0.0
aF0.0
aF0.0
aF0.0
asS'Bacteria.Proteobacteria.Gammaproteobacteria'
p53
(lp54
F11232.633757020396
aF8133.105416915688
aF5591.691946714055
aF12656.394285610822
aF30328.846481513036
aF29254.961695264545
aF63770.14716187806
aF5218.595539142279
aF2469.4892809849325
aF4217.6841471024945
aF3718.321298493635
aF12061.54066079374
aF9672.719880742648
aF56502.52525252525
asS'Bacteria.Deferribacterota.Deferribacteres'
p55
(lp56
F0.0
aF0.0
aF0.0
aF0.0
aF0.0
aF0.0
aF0.0
aF67.5546348109033
aF0.0
aF0.0
aF0.0
aF410.98582992334224
aF0.0
aF0.0
asS'Bacteria.Patescibacteria.Saccharimonadia.Saccharimonadales'
p57
(lp58
F2955.9562518474727
aF0.0
aF22804.10682179475
aF2408.1551358887546
aF28284.205145680695
aF851.2163433537921
aF0.0
aF332.14362115360785
aF0.0
aF2151.8796668890277
aF2804.6041193416154
aF1179.3506423887213
aF3828.4320368613635
aF15782.828282828285
asS'Bacteria.Proteobacteria.Alphaproteobacteria.Rhodospirillales'
p59
(lp60
F0.0
aF1776.243474917352
aF0.0
aF0.0
aF0.0
aF0.0
aF0.0
aF174.51613992816687
aF0.0
aF0.0
aF0.0
aF0.0
aF0.0
aF0.0
asS'Archaea'
p61
(lp62
F0.0
aF83.5879282314048
aF461.63564799066995
aF0.0
aF0.0
aF0.0
aF0.0
aF0.0
aF0.0
aF0.0
aF0.0
aF0.0
aF0.0
aF0.0
asS'Bacteria.Proteobacteria.Gammaproteobacteria.Burkholderiales'
p63
(lp64
F0.0
aF5566.95602021156
aF2662.2146015702547
aF5268.9710116062215
aF8916.90804793548
aF13485.05891313113
aF18570.42747021724
aF3405.879505049708
aF2218.9613829139976
aF430.37593337780555
aF1059.6581174888004
aF2394.439183031646
aF2210.6654018159643
aF20517.676767676767
asS'Bacteria.Campilobacterota.Campylobacteria.Campylobacterales'
p65
(lp66
F0.0
aF639.4476509702467
aF458.1647032689357
aF2299.516558329863
aF0.0
aF0.0
aF0.0
aF0.0
aF0.0
aF193.6691700200125
aF0.0
aF0.0
aF0.0
aF0.0
asS'Archaea.Euryarchaeota.Methanobacteria.Methanobacteriales'
p67
(lp68
F0.0
aF83.5879282314048
aF461.63564799066995
aF0.0
aF0.0
aF0.0
aF0.0
aF0.0
aF0.0
aF0.0
aF0.0
aF0.0
aF0.0
aF0.0
asS'Bacteria.Patescibacteria'
p69
(lp70
F2955.9562518474727
aF0.0
aF22804.10682179475
aF2408.1551358887546
aF28284.205145680695
aF851.2163433537921
aF0.0
aF332.14362115360785
aF0.0
aF2151.8796668890277
aF2804.6041193416154
aF1179.3506423887213
aF3828.4320368613635
aF15782.828282828285
asS'Bacteria.Proteobacteria.Alphaproteobacteria.Rhizobiales'
p71
(lp72
F0.0
aF0.0
aF211.727628025796
aF0.0
aF0.0
aF224.0043008825769
aF0.0
aF0.0
aF0.0
aF0.0
aF0.0
aF0.0
aF135.5197181189863
aF1893.939393939394
asS'Bacteria.Firmicutes.Clostridia.Oscillospirales'
p73
(lp74
F144546.2607153414
aF67233.95007293046
aF106374.04288699296
aF138659.03782433143
aF90134.60555460896
aF227946.77657811024
aF258934.82831114222
aF132705.45053311862
aF96417.45105758564
aF202147.57590755526
aF124100.5596517722
aF104444.00764791023
aF80032.86353164384
aF63573.232323232325
asS'Archaea.Euryarchaeota'
p75
(lp76
F0.0
aF83.5879282314048
aF461.63564799066995
aF0.0
aF0.0
aF0.0
aF0.0
aF0.0
aF0.0
aF0.0
aF0.0
aF0.0
aF0.0
aF0.0
asS'Bacteria.Campilobacterota.Campylobacteria'
p77
(lp78
F0.0
aF639.4476509702467
aF458.1647032689357
aF2299.516558329863
aF0.0
aF0.0
aF0.0
aF0.0
aF0.0
aF193.6691700200125
aF0.0
aF0.0
aF0.0
aF0.0
asS'Bacteria.Firmicutes.Clostridia.Clostridiales'
p79
(lp80
F3251.55187703222
aF1028.1315172462791
aF20516.75425017181
aF10320.664868094662
aF14994.03646277049
aF1612.8309663545538
aF0.0
aF821.9147235326568
aF0.0
aF0.0
aF25603.116790822212
aF190482.99769490556
aF293705.1090933731
aF48484.84848484849
asS'Bacteria.Firmicutes.Negativicutes.Veillonellales_Selenomonadales'
p81
(lp82
F0.0
aF7619.039658292548
aF1197.4759289983544
aF0.0
aF0.0
aF0.0
aF0.0
aF0.0
aF0.0
aF0.0
aF0.0
aF0.0
aF0.0
aF0.0
asS'Bacteria.Firmicutes.Clostridia.Peptostreptococcales_Tissierellales'
p83
(lp84
F0.0
aF5052.89026158842
aF8590.588186292543
aF26200.00362128592
aF7042.653490089169
aF5107.298060122754
aF5255.781359495445
aF11602.508528772642
aF2433.6995812605137
aF3636.6766370424566
aF13851.698625617073
aF202240.7662205386
aF236371.79834665946
aF54482.32323232323
asS'Bacteria.Bacteroidota.Bacteroidia.Chitinophagales'
p85
(lp86
F0.0
aF0.0
aF0.0
aF0.0
aF851.9338899301414
aF0.0
aF0.0
aF0.0
aF0.0
aF0.0
aF0.0
aF0.0
aF0.0
aF0.0
asS'Bacteria.Elusimicrobiota.Elusimicrobia'
p87
(lp88
F0.0
aF91.94672105454528
aF190.90195969538985
aF0.0
aF0.0
aF0.0
aF0.0
aF0.0
aF0.0
aF0.0
aF0.0
aF0.0
aF0.0
aF0.0
asS'Bacteria.Firmicutes.Bacilli.Staphylococcales'
p89
(lp90
F0.0
aF0.0
aF76.36078387815594
aF905.3214796574265
aF1931.0501505083205
aF0.0
aF0.0
aF0.0
aF0.0
aF0.0
aF0.0
aF0.0
aF0.0
aF0.0
asS'Bacteria.Chloroflexi.Anaerolineae.Anaerolineales'
p91
(lp92
F0.0
aF0.0
aF0.0
aF0.0
aF454.3647412960754
aF0.0
aF0.0
aF0.0
aF0.0
aF0.0
aF0.0
aF0.0
aF0.0
aF0.0
asS'Archaea.Euryarchaeota.Methanobacteria'
p93
(lp94
F0.0
aF83.5879282314048
aF461.63564799066995
aF0.0
aF0.0
aF0.0
aF0.0
aF0.0
aF0.0
aF0.0
aF0.0
aF0.0
aF0.0
aF0.0
asS'Bacteria.Proteobacteria.Alphaproteobacteria'
p95
(lp96
F0.0
aF1776.243474917352
aF277.67557773874887
aF0.0
aF1249.5030385642076
aF224.0043008825769
aF0.0
aF264.5889863427046
aF0.0
aF0.0
aF0.0
aF0.0
aF135.5197181189863
aF1893.939393939394
asS'Bacteria.Firmicutes.Clostridia.Clostridia_UCG_014'
p97
(lp98
F80402.01005025125
aF8.35879282314048
aF175754.7569297411
aF335222.4374875519
aF128528.42619412733
aF97441.87088392096
aF74632.09530483533
aF70588.96382449304
aF52127.69764861673
aF71270.2545673646
aF92482.1380981992
aF220270.5358897843
aF53835.208022767314
aF166224.74747474748
asS'Bacteria.Firmicutes.Clostridia.Christensenellales'
p99
(lp100
F0.0
aF0.0
aF2887.8260084829885
aF13851.418638758625
aF21298.347248253536
aF1568.0301061780383
aF0.0
aF3996.982559645112
aF1932.643785118643
aF1334.165393471197
aF4784.324674170991
aF786.2337615924807
aF525.138907711072
aF177588.38383838386
asS'Bacteria.Bacteroidota.Bacteroidia.Bacteroidales'
p101
(lp102
F193023.94324563997
aF769000.580936101
aF519301.92359756463
aF88884.46287276613
aF506957.4601010961
aF116079.02871735135
aF87946.74141555712
aF556002.7922582388
aF697237.0351812749
aF184459.12504572744
aF256817.97992360307
aF16796.812179475724
aF12916.723133215883
aF9469.69696969697
asS'Bacteria.Actinobacteriota.Actinobacteria'
p103
(lp104
F0.0
aF121.20249593553696
aF2106.863446092757
aF633.7250357601985
aF13801.32901686829
aF81268.7603601989
aF14365.802382620883
aF2916.1084026706594
aF1342.1137396657243
aF0.0
aF1376.9210269165849
aF5932.491110197809
aF6826.805800243936
aF2651.5151515151515
asS'Bacteria.Proteobacteria.Alphaproteobacteria.Sphingomonadales'
p105
(lp106
F0.0
aF0.0
aF65.94794971295286
aF0.0
aF0.0
aF0.0
aF0.0
aF0.0
aF0.0
aF0.0
aF0.0
aF0.0
aF0.0
aF0.0
asS'Bacteria.Actinobacteriota.Coriobacteriia'
p107
(lp108
F0.0
aF472.2717945074371
aF2030.5026622146013
aF21763.92837096453
aF7780.996194695291
aF22624.434389140264
aF23475.823405746323
aF782.5078532262966
aF214.7381983465159
aF5444.2555572292395
aF10717.141080470561
aF13419.580794453477
aF10562.068030898496
aF23484.848484848484
asS'Bacteria.Firmicutes.Bacilli.Lactobacillales'
p109
(lp110
F388117.0558675732
aF10114.13931599998
aF15556.774242813406
aF6717.485379058105
aF13687.737831544273
aF5331.30236100533
aF0.0
aF42936.599975229954
aF50535.05601088008
aF266058.40201415936
aF1294.432670465361
aF25802.762539535048
aF59679.4958666486
aF135101.01010101012
asS'Bacteria.Verrucomicrobiota.Verrucomicrobiae.Verrucomicrobiales'
p111
(lp112
F0.0
aF0.0
aF0.0
aF1068.2793459957634
aF908.7294825921508
aF55508.26575870255
aF142606.86755430975
aF7909.5218257765955
aF465.2660964174511
aF16698.586215058855
aF87133.08544524675
aF5342.815789003448
aF6149.207209649004
aF0.0
asS'Bacteria.Cyanobacteria'
p113
(lp114
F0.0
aF0.0
aF111.07023109549954
aF1321.7693602998427
aF454.3647412960754
aF0.0
aF0.0
aF4396.680815609623
aF6388.461400808847
aF0.0
aF50.762065508445524
aF0.0
aF0.0
aF1073.232323232323
asS'Bacteria.Chloroflexi.Anaerolineae'
p115
(lp116
F0.0
aF0.0
aF0.0
aF0.0
aF454.3647412960754
aF0.0
aF0.0
aF0.0
aF0.0
aF0.0
aF0.0
aF0.0
aF0.0
aF0.0
asS'Bacteria.Patescibacteria.Saccharimonadia'
p117
(lp118
F2955.9562518474727
aF0.0
aF22804.10682179475
aF2408.1551358887546
aF28284.205145680695
aF851.2163433537921
aF0.0
aF332.14362115360785
aF0.0
aF2151.8796668890277
aF2804.6041193416154
aF1179.3506423887213
aF3828.4320368613635
aF15782.828282828285
asS'Bacteria.Firmicutes.Clostridia.Clostridia'
p119
(lp120
F0.0
aF0.0
aF76.36078387815594
aF0.0
aF0.0
aF0.0
aF0.0
aF112.59105801817216
aF0.0
aF0.0
aF57.10732369700122
aF0.0
aF0.0
aF0.0
asS'Bacteria.Proteobacteria'
p121
(lp122
F11232.633757020396
aF9909.348891833039
aF5869.367524452804
aF12656.394285610822
aF31578.349520077245
aF29478.96599614712
aF63770.14716187806
aF5483.184525484984
aF2469.4892809849325
aF4217.6841471024945
aF3718.321298493635
aF12061.54066079374
aF9808.239598861634
aF58396.46464646465
asS'Bacteria.Firmicutes.Bacilli.Izemoplasmatales'
p123
(lp124
F0.0
aF0.0
aF0.0
aF0.0
aF0.0
aF0.0
aF0.0
aF236.44122183816154
aF0.0
aF0.0
aF0.0
aF0.0
aF0.0
aF0.0
asS'Bacteria.Campilobacterota'
p125
(lp126
F0.0
aF639.4476509702467
aF458.1647032689357
aF2299.516558329863
aF0.0
aF0.0
aF0.0
aF0.0
aF0.0
aF193.6691700200125
aF0.0
aF0.0
aF0.0
aF0.0
asS'Bacteria.Bacteroidota.Bacteroidia'
p127
(lp128
F193023.94324563997
aF769000.580936101
aF519301.92359756463
aF89137.9528870702
aF507809.3939910262
aF116079.02871735135
aF87946.74141555712
aF556002.7922582388
aF697237.0351812749
aF184459.12504572744
aF256817.97992360307
aF16796.812179475724
aF12916.723133215883
aF9469.69696969697
asS'Bacteria.Firmicutes.Clostridia.Peptococcales'
p129
(lp130
F0.0
aF0.0
aF236.02424107793655
aF778.5764725053868
aF0.0
aF851.2163433537921
aF0.0
aF6851.165880405776
aF2791.5965785047065
aF516.4511200533666
aF1072.3486338659118
aF0.0
aF482.7889957988887
aF1325.7575757575758
asS'Bacteria.Desulfobacterota.Desulfovibrionia'
p131
(lp132
F0.0
aF3723.8422027090837
aF3404.9967720214077
aF12004.562820257474
aF14369.284943488386
aF0.0
aF0.0
aF0.0
aF0.0
aF0.0
aF0.0
aF0.0
aF0.0
aF0.0
asS'Bacteria.Bacteroidota'
p133
(lp134
F193023.94324563997
aF769000.580936101
aF519301.92359756463
aF89137.9528870702
aF507809.3939910262
aF116079.02871735135
aF87946.74141555712
aF556002.7922582388
aF697237.0351812749
aF184459.12504572744
aF256817.97992360307
aF16796.812179475724
aF12916.723133215883
aF9469.69696969697
asS'Bacteria'
p135
(lp136
F1000000.0
aF999916.4120717685
aF999538.3643520093
aF1000000.0
aF1000000.0
aF1000000.0
aF1000000.0
aF1000000.0
aF1000000.0
aF1000000.0
aF1000000.0
aF1000000.0
aF1000000.0
aF1000000.0
asS'Bacteria.Desulfobacterota'
p137
(lp138
F0.0
aF3723.8422027090837
aF3404.9967720214077
aF12004.562820257474
aF14369.284943488386
aF0.0
aF0.0
aF0.0
aF0.0
aF0.0
aF0.0
aF0.0
aF0.0
aF0.0
asS'Bacteria.Firmicutes.Bacilli.Bacillales'
p139
(lp140
F0.0
aF0.0
aF79.8317285998903
aF0.0
aF0.0
aF0.0
aF0.0
aF0.0
aF0.0
aF0.0
aF0.0
aF0.0
aF0.0
aF0.0
asS'Bacteria.Elusimicrobiota'
p141
(lp142
F0.0
aF91.94672105454528
aF190.90195969538985
aF0.0
aF0.0
aF0.0
aF0.0
aF0.0
aF0.0
aF0.0
aF0.0
aF0.0
aF0.0
aF0.0
asS'Bacteria.Firmicutes.Negativicutes'
p143
(lp144
F0.0
aF7619.039658292548
aF1197.4759289983544
aF0.0
aF0.0
aF0.0
aF0.0
aF0.0
aF0.0
aF0.0
aF0.0
aF0.0
aF0.0
aF0.0
asS'Bacteria.Actinobacteriota.Actinobacteria.Pseudonocardiales'
p145
(lp146
F0.0
aF0.0
aF0.0
aF0.0
aF0.0
aF32122.21674656153
aF5255.781359495445
aF0.0
aF0.0
aF0.0
aF0.0
aF0.0
aF101.63978858923973
aF0.0
asS'Bacteria.Proteobacteria.Alphaproteobacteria.Rhodobacterales'
p147
(lp148
F0.0
aF0.0
aF0.0
aF0.0
aF1249.5030385642076
aF0.0
aF0.0
aF0.0
aF0.0
aF0.0
aF0.0
aF0.0
aF0.0
aF0.0
asS'Bacteria.Firmicutes.Bacilli.Exiguobacterales'
p149
(lp150
F0.0
aF0.0
aF0.0
aF0.0
aF0.0
aF716.813762824246
aF0.0
aF0.0
aF0.0
aF0.0
aF0.0
aF0.0
aF0.0
aF0.0
asS'Bacteria.Firmicutes.Clostridia.Eubacteriales'
p151
(lp152
F0.0
aF91.94672105454528
aF0.0
aF0.0
aF0.0
aF1702.4326867075843
aF0.0
aF0.0
aF0.0
aF0.0
aF0.0
aF357.37898254203674
aF0.0
aF0.0
asS'Bacteria.Cyanobacteria.Cyanobacteriia.Chloroplast'
p153
(lp154
F0.0
aF0.0
aF0.0
aF0.0
aF454.3647412960754
aF0.0
aF0.0
aF0.0
aF0.0
aF0.0
aF0.0
aF0.0
aF0.0
aF0.0
asS'Bacteria.Bacteroidota.Bacteroidia.Flavobacteriales'
p155
(lp156
F0.0
aF0.0
aF0.0
aF253.4900143040794
aF0.0
aF0.0
aF0.0
aF0.0
aF0.0
aF0.0
aF0.0
aF0.0
aF0.0
aF0.0
asS'Bacteria.Proteobacteria.Gammaproteobacteria.Enterobacterales'
p157
(lp158
F11232.633757020396
aF1174.4103916512374
aF1690.3500794846336
aF5757.844610621232
aF21411.938433577554
aF12320.236548541729
aF30133.14646110722
aF1784.568269588029
aF250.5278980709352
aF2582.255600266833
aF2017.7921039607097
aF7647.910226399586
aF7004.675430275105
aF27904.040404040403
asS'Bacteria.Firmicutes.Clostridia.Monoglobales'
p159
(lp160
F23056.458764410287
aF0.0
aF2276.9397374577406
aF11533.795650835613
aF14312.489350826376
aF30330.182339500912
aF7358.093903293623
aF168.88658702725826
aF0.0
aF2087.323276882357
aF0.0
aF196.55844039812018
aF67.75985905949315
aF35353.53535353535
asS'Bacteria.Firmicutes.Bacilli'
p161
(lp162
F10937.03813183565
aF1721.911321566939
aF1756.2980291975866
aF561.2993173876044
aF738.3427046061225
aF851.2163433537921
aF0.0
aF6845.5363275048685
aF3936.8669696861252
aF3378.451077015773
aF0.0
aF1090.0058967532118
aF1262.02737498306
aF27967.171717171717
asS'Bacteria.Cyanobacteria.Vampirivibrionia'
p163
(lp164
F0.0
aF0.0
aF111.07023109549954
aF1321.7693602998427
aF0.0
aF0.0
aF0.0
aF4396.680815609623
aF6388.461400808847
aF0.0
aF50.762065508445524
aF0.0
aF0.0
aF1073.232323232323
asS'Bacteria.Proteobacteria.Gammaproteobacteria.Xanthomonadales'
p165
(lp166
F0.0
aF0.0
aF0.0
aF0.0
aF0.0
aF0.0
aF0.0
aF0.0
aF0.0
aF0.0
aF0.0
aF89.34474563550918
aF0.0
aF0.0
asS'Bacteria.Cyanobacteria.Vampirivibrionia.Gastranaerophilales'
p167
(lp168
F0.0
aF0.0
aF111.07023109549954
aF1321.7693602998427
aF0.0
aF0.0
aF0.0
aF4396.680815609623
aF6388.461400808847
aF0.0
aF50.762065508445524
aF0.0
aF0.0
aF1073.232323232323
asS'Bacteria.Deferribacterota.Deferribacteres.Deferribacterales'
p169
(lp170
F0.0
aF0.0
aF0.0
aF0.0
aF0.0
aF0.0
aF0.0
aF67.5546348109033
aF0.0
aF0.0
aF0.0
aF410.98582992334224
aF0.0
aF0.0
asS'Bacteria.Verrucomicrobiota.Verrucomicrobiae'
p171
(lp172
F0.0
aF0.0
aF0.0
aF1068.2793459957634
aF908.7294825921508
aF55508.26575870255
aF142606.86755430975
aF7909.5218257765955
aF465.2660964174511
aF16698.586215058855
aF87133.08544524675
aF5342.815789003448
aF6149.207209649004
aF0.0
asS'Bacteria.Proteobacteria.Alphaproteobacteria.Rickettsiales'
p173
(lp174
F0.0
aF0.0
aF0.0
aF0.0
aF0.0
aF0.0
aF0.0
aF90.07284641453774
aF0.0
aF0.0
aF0.0
aF0.0
aF0.0
aF0.0
asS'Bacteria.Deferribacterota'
p175
(lp176
F0.0
aF0.0
aF0.0
aF0.0
aF0.0
aF0.0
aF0.0
aF67.5546348109033
aF0.0
aF0.0
aF0.0
aF410.98582992334224
aF0.0
aF0.0
asS'Bacteria.Actinobacteriota.Coriobacteriia.Coriobacteriales'
p177
(lp178
F0.0
aF472.2717945074371
aF2030.5026622146013
aF21763.92837096453
aF7780.996194695291
aF22624.434389140264
aF23475.823405746323
aF782.5078532262966
aF214.7381983465159
aF5444.2555572292395
aF10717.141080470561
aF13419.580794453477
aF10562.068030898496
aF23484.848484848484
asS'Bacteria.Firmicutes.Clostridia.uncultured'
p179
(lp180
F0.0
aF0.0
aF114.54117581723392
aF597.5121765739015
aF0.0
aF716.813762824246
aF0.0
aF0.0
aF0.0
aF0.0
aF0.0
aF0.0
aF186.33961241360618
aF0.0
asS'Bacteria.Firmicutes.Bacilli.Erysipelotrichales'
p181
(lp182
F0.0
aF10799.5603274975
aF70078.37393181675
aF18034.003874775935
aF49582.55239393423
aF29613.368576676665
aF71478.62648913806
aF10144.454327437314
aF1771.5901363587561
aF667.0826967355985
aF14898.666226728763
aF93168.70074870896
aF110109.77097167638
aF105744.94949494948
asS'Bacteria.Acidobacteriota.Acidobacteriae.Bryobacterales'
p183
(lp184
F0.0
aF0.0
aF0.0
aF0.0
aF681.5471119441132
aF0.0
aF0.0
aF0.0
aF0.0
aF0.0
aF0.0
aF0.0
aF0.0
aF0.0
assS'subclass_sl'
p185
(dp186
g12
(I0
I7
tp187
sg10
(I7
I14
tp188
ssS'norm'
p189
F1000000.0
sS'cls'
p190
(dp191
S'class'
p192
(S'HSD-NR'
p193
S'HSD-NR'
p194
S'HSD-NR'
p195
S'HSD-NR'
p196
S'HSD-NR'
p197
S'HSD-NR'
p198
g5
S'STD-NR'
p199
S'STD-NR'
p200
S'STD-NR'
p201
S'STD-NR'
p202
S'STD-NR'
p203
S'STD-NR'
p204
g3
tp205
sS'subclass'
p206
(lp207
S'HSD-NR_subcl'
p208
aS'HSD-NR_subcl'
p209
aS'HSD-NR_subcl'
p210
aS'HSD-NR_subcl'
p211
aS'HSD-NR_subcl'
p212
aS'HSD-NR_subcl'
p213
ag12
aS'STD-NR_subcl'
p214
aS'STD-NR_subcl'
p215
aS'STD-NR_subcl'
p216
aS'STD-NR_subcl'
p217
aS'STD-NR_subcl'
p218
aS'STD-NR_subcl'
p219
ag10
asS'subject'
p220
(S'S210421121704'
p221
S'S210421121705'
p222
S'S210421121706'
p223
S'S210421121707'
p224
S'S210421121708'
p225
S'S210421121709'
p226
S'S210421121710'
p227
S'S210421121685'
p228
S'S210421121686'
p229
S'S210421121687'
p230
S'S210421121691'
p231
S'S210421121692'
p232
S'S210421121693'
p233
S'S210421121703'
p234
tp235
ss.