(dp0
S'class_sl'
p1
(dp2
S'STD-NR'
p3
(I7
I14
tp4
sS'HSD-NR'
p5
(I0
I7
tp6
ssS'class_hierarchy'
p7
(dp8
g3
(lp9
S'STD-NR_subcl'
p10
asg5
(lp11
S'HSD-NR_subcl'
p12
assS'feats'
p13
(dp14
S'Bacteria.Firmicutes.Bacilli.Acholeplasmatales'
p15
(lp16
F0.0
aF0.0
aF0.0
aF253.49001430407944
aF0.0
aF0.0
aF0.0
aF0.0
aF214.7381983465159
aF0.0
aF0.0
aF0.0
aF0.0
aF1704.5454545454547
asS'Bacteria.Firmicutes.Clostridia.Peptostreptococcales_Tissierellales.Anaerovoracaceae'
p17
(lp18
F0.0
aF0.0
aF1048.2253059637771
aF905.3214796574266
aF0.0
aF0.0
aF0.0
aF1255.39029690262
aF518.95064600408
aF3636.6766370424557
aF4048.274724298532
aF1358.0401336597392
aF652.1886434476216
aF3598.484848484849
asS'Bacteria.Actinobacteriota.Actinobacteria.Bifidobacteriales'
p19
(lp20
F0.0
aF0.0
aF1978.438491388586
aF0.0
aF13801.329016868287
aF49146.54361363738
aF5606.166783461807
aF2826.035556256122
aF1342.1137396657243
aF0.0
aF1376.921026916585
aF5932.491110197808
aF6725.1660116546955
aF883.838383838384
asS'Bacteria.Acidobacteriota.Acidobacteriae.Bryobacterales'
p21
(lp22
F0.0
aF0.0
aF0.0
aF0.0
aF681.547111944113
aF0.0
aF0.0
aF0.0
aF0.0
aF0.0
aF0.0
aF0.0
aF0.0
aF0.0
asS'Bacteria.Actinobacteriota.Actinobacteria.Streptomycetales'
p23
(lp24
F0.0
aF0.0
aF0.0
aF0.0
aF0.0
aF0.0
aF3503.85423966363
aF0.0
aF0.0
aF0.0
aF0.0
aF0.0
aF0.0
aF0.0
asS'Bacteria.Firmicutes.Bacilli.RF39'
p25
(lp26
F0.0
aF41.79396411570242
aF6136.630268026352
aF3440.221622698221
aF13914.920202192307
aF1120.0215044128847
aF0.0
aF4925.858788295033
aF858.9527933860636
aF24273.202642508226
aF2335.055013388495
aF5700.1947715454835
aF7004.675430275105
aF11868.68686868687
asS'Bacteria.Firmicutes.Bacilli.Lactobacillales.Streptococcaceae'
p27
(lp28
F0.0
aF894.3908320760318
aF787.9044518337001
aF995.8536276231692
aF0.0
aF627.2120424712155
aF0.0
aF180.1456928290755
aF0.0
aF0.0
aF0.0
aF0.0
aF0.0
aF4356.060606060607
asS'Bacteria.Proteobacteria.Gammaproteobacteria'
p29
(lp30
F11232.633757020396
aF8133.105416915691
aF5591.691946714056
aF12656.394285610824
aF30328.84648151303
aF29254.96169526455
aF63770.14716187806
aF5218.59553914228
aF2469.4892809849325
aF4217.684147102494
aF3718.321298493636
aF12061.540660793735
aF9672.719880742647
aF56502.52525252526
asS'Bacteria.Proteobacteria.Alphaproteobacteria.Rhodospirillales'
p31
(lp32
F0.0
aF1776.2434749173528
aF0.0
aF0.0
aF0.0
aF0.0
aF0.0
aF174.5161399281669
aF0.0
aF0.0
aF0.0
aF0.0
aF0.0
aF0.0
asS'Archaea.Euryarchaeota.Methanobacteria.Methanobacteriales'
p33
(lp34
F0.0
aF83.58792823140485
aF461.63564799067007
aF0.0
aF0.0
aF0.0
aF0.0
aF0.0
aF0.0
aF0.0
aF0.0
aF0.0
aF0.0
aF0.0
asS'Bacteria.Bacteroidota'
p35
(lp36
F193023.94324563997
aF769000.5809361014
aF519301.92359756475
aF89137.95288707022
aF507809.3939910262
aF116079.0287173514
aF87946.74141555712
aF556002.7922582389
aF697237.0351812749
aF184459.1250457274
aF256817.97992360312
aF16796.81217947572
aF12916.723133215883
aF9469.696969696972
asS'Bacteria.Bacteroidota.Bacteroidia.Chitinophagales.Chitinophagaceae'
p37
(lp38
F0.0
aF0.0
aF0.0
aF0.0
aF851.9338899301413
aF0.0
aF0.0
aF0.0
aF0.0
aF0.0
aF0.0
aF0.0
aF0.0
aF0.0
asS'Bacteria.Bacteroidota.Bacteroidia.Bacteroidales.Rikenellaceae'
p39
(lp40
F0.0
aF906.9290213107425
aF0.0
aF1140.7050643683574
aF0.0
aF4300.882576945477
aF0.0
aF5438.148102277717
aF4491.607315414624
aF774.6766800800498
aF3921.369560527418
aF607.5442703214622
aF321.8593305325925
aF0.0
asS'Bacteria.Acidobacteriota'
p41
(lp42
F0.0
aF0.0
aF0.0
aF0.0
aF681.547111944113
aF0.0
aF0.0
aF0.0
aF0.0
aF0.0
aF0.0
aF0.0
aF0.0
aF0.0
asS'Bacteria.Actinobacteriota.Actinobacteria.Pseudonocardiales.Pseudonocardiaceae'
p43
(lp44
F0.0
aF0.0
aF0.0
aF0.0
aF0.0
aF32122.21674656154
aF5255.781359495445
aF0.0
aF0.0
aF0.0
aF0.0
aF0.0
aF101.63978858923973
aF0.0
asS'Bacteria.Elusimicrobiota.Elusimicrobia'
p45
(lp46
F0.0
aF91.94672105454532
aF190.90195969538988
aF0.0
aF0.0
aF0.0
aF0.0
aF0.0
aF0.0
aF0.0
aF0.0
aF0.0
aF0.0
aF0.0
asS'Bacteria.Firmicutes.Bacilli.Lactobacillales.Aerococcaceae'
p47
(lp48
F0.0
aF0.0
aF0.0
aF271.59644389722797
aF0.0
aF0.0
aF0.0
aF0.0
aF0.0
aF0.0
aF0.0
aF0.0
aF0.0
aF0.0
asS'Bacteria.Firmicutes.Clostridia.Clostridiales'
p49
(lp50
F3251.55187703222
aF1028.1315172462796
aF20516.754250171813
aF10320.664868094664
aF14994.036462770486
aF1612.830966354554
aF0.0
aF821.914723532657
aF0.0
aF0.0
aF25603.11679082222
aF190482.99769490553
aF293705.1090933731
aF48484.84848484849
asS'Bacteria.Actinobacteriota.Actinobacteria.Micrococcales.Dermabacteraceae'
p51
(lp52
F0.0
aF0.0
aF0.0
aF217.27715511778237
aF0.0
aF0.0
aF0.0
aF0.0
aF0.0
aF0.0
aF0.0
aF0.0
aF0.0
aF0.0
asS'Bacteria.Firmicutes.Negativicutes.Veillonellales_Selenomonadales.Veillonellaceae'
p53
(lp54
F0.0
aF522.4245514462802
aF152.7215677563119
aF0.0
aF0.0
aF0.0
aF0.0
aF0.0
aF0.0
aF0.0
aF0.0
aF0.0
aF0.0
aF0.0
asS'Bacteria.Cyanobacteria.Cyanobacteriia.Chloroplast.Chloroplast'
p55
(lp56
F0.0
aF0.0
aF0.0
aF0.0
aF454.36474129607535
aF0.0
aF0.0
aF0.0
aF0.0
aF0.0
aF0.0
aF0.0
aF0.0
aF0.0
asS'Bacteria.Proteobacteria'
p57
(lp58
F11232.633757020396
aF9909.348891833044
aF5869.367524452806
aF12656.394285610824
aF31578.349520077238
aF29478.965996147122
aF63770.14716187806
aF5483.184525484986
aF2469.4892809849325
aF4217.684147102494
aF3718.321298493636
aF12061.540660793735
aF9808.239598861634
aF58396.46464646466
asS'Bacteria.Bacteroidota.Bacteroidia'
p59
(lp60
F193023.94324563997
aF769000.5809361014
aF519301.92359756475
aF89137.95288707022
aF507809.3939910262
aF116079.0287173514
aF87946.74141555712
aF556002.7922582389
aF697237.0351812749
aF184459.1250457274
aF256817.97992360312
aF16796.81217947572
aF12916.723133215883
aF9469.696969696972
asS'Bacteria.Firmicutes.Bacilli.Bacillales'
p61
(lp62
F0.0
aF0.0
aF79.83172859989031
aF0.0
aF0.0
aF0.0
aF0.0
aF0.0
aF0.0
aF0.0
aF0.0
aF0.0
aF0.0
aF0.0
asS'Bacteria.Proteobacteria.Alphaproteobacteria.Rhizobiales.Rhizobiaceae'
p63
(lp64
F0.0
aF0.0
aF211.72762802579607
aF0.0
aF0.0
aF224.00430088257696
aF0.0
aF0.0
aF0.0
aF0.0
aF0.0
aF0.0
aF135.5197181189863
aF1010.1010101010103
asS'Bacteria.Proteobacteria.Alphaproteobacteria.Rhodobacterales'
p65
(lp66
F0.0
aF0.0
aF0.0
aF0.0
aF1249.5030385642071
aF0.0
aF0.0
aF0.0
aF0.0
aF0.0
aF0.0
aF0.0
aF0.0
aF0.0
asS'Bacteria.Desulfobacterota'
p67
(lp68
F0.0
aF3723.8422027090855
aF3404.9967720214086
aF12004.562820257475
aF14369.284943488383
aF0.0
aF0.0
aF0.0
aF0.0
aF0.0
aF0.0
aF0.0
aF0.0
aF0.0
asS'Bacteria.Desulfobacterota.Desulfovibrionia'
p69
(lp70
F0.0
aF3723.8422027090855
aF3404.9967720214086
aF12004.562820257475
aF14369.284943488383
aF0.0
aF0.0
aF0.0
aF0.0
aF0.0
aF0.0
aF0.0
aF0.0
aF0.0
asS'Bacteria.Chloroflexi.Anaerolineae'
p71
(lp72
F0.0
aF0.0
aF0.0
aF0.0
aF454.36474129607535
aF0.0
aF0.0
aF0.0
aF0.0
aF0.0
aF0.0
aF0.0
aF0.0
aF0.0
asS'Bacteria.Firmicutes.Clostridia.Monoglobales'
p73
(lp74
F23056.458764410287
aF0.0
aF2276.939737457741
aF11533.795650835615
aF14312.489350826372
aF30330.182339500916
aF7358.093903293623
aF168.8865870272583
aF0.0
aF2087.3232768823564
aF0.0
aF196.55844039812013
aF67.75985905949315
aF35353.53535353536
asS'Bacteria.Firmicutes.Bacilli.Staphylococcales'
p75
(lp76
F0.0
aF0.0
aF76.36078387815596
aF905.3214796574266
aF1931.05015050832
aF0.0
aF0.0
aF0.0
aF0.0
aF0.0
aF0.0
aF0.0
aF0.0
aF0.0
asS'Bacteria.Cyanobacteria.Vampirivibrionia'
p77
(lp78
F0.0
aF0.0
aF111.07023109549957
aF1321.7693602998427
aF0.0
aF0.0
aF0.0
aF4396.680815609624
aF6388.461400808847
aF0.0
aF50.76206550844554
aF0.0
aF0.0
aF1073.2323232323233
asS'Bacteria.Firmicutes.Bacilli.Staphylococcales.Staphylococcaceae'
p79
(lp80
F0.0
aF0.0
aF76.36078387815596
aF905.3214796574266
aF1931.05015050832
aF0.0
aF0.0
aF0.0
aF0.0
aF0.0
aF0.0
aF0.0
aF0.0
aF0.0
asS'Bacteria.Proteobacteria.Alphaproteobacteria.Rickettsiales'
p81
(lp82
F0.0
aF0.0
aF0.0
aF0.0
aF0.0
aF0.0
aF0.0
aF90.07284641453775
aF0.0
aF0.0
aF0.0
aF0.0
aF0.0
aF0.0
asS'Bacteria.Deferribacterota'
p83
(lp84
F0.0
aF0.0
aF0.0
aF0.0
aF0.0
aF0.0
aF0.0
aF67.55463481090332
aF0.0
aF0.0
aF0.0
aF410.9858299233421
aF0.0
aF0.0
asS'Bacteria.Actinobacteriota.Coriobacteriia.Coriobacteriales'
p85
(lp86
F0.0
aF472.27179450743733
aF2030.5026622146017
aF21763.928370964535
aF7780.996194695289
aF22624.434389140268
aF23475.823405746323
aF782.5078532262968
aF214.7381983465159
aF5444.255557229239
aF10717.141080470565
aF13419.580794453475
aF10562.068030898494
aF23484.848484848488
asS'Bacteria.Firmicutes.Bacilli.Erysipelotrichales'
p87
(lp88
F0.0
aF10799.560327497506
aF70078.37393181676
aF18034.003874775935
aF49582.55239393422
aF29613.368576676672
aF71478.62648913806
aF10144.454327437315
aF1771.5901363587561
aF667.0826967355983
aF14898.666226728765
aF93168.70074870894
aF110109.77097167638
aF105744.9494949495
asS'Bacteria.Actinobacteriota.Actinobacteria.Micrococcales'
p89
(lp90
F0.0
aF121.20249593553702
aF128.42495470417137
aF633.7250357601986
aF0.0
aF0.0
aF0.0
aF90.07284641453775
aF0.0
aF0.0
aF0.0
aF0.0
aF0.0
aF1767.676767676768
asS'Bacteria.Firmicutes.Clostridia.Clostridia_UCG_014.Clostridia_UCG_014'
p91
(lp92
F80402.01005025125
aF8.358792823140485
aF175754.75692974112
aF335222.4374875519
aF128528.4261941273
aF97441.87088392097
aF74632.09530483533
aF70588.96382449307
aF52127.69764861673
aF71270.25456736458
aF92482.13809819921
aF220270.53588978428
aF53835.208022767314
aF166224.74747474748
asS'Bacteria.Campilobacterota'
p93
(lp94
F0.0
aF639.4476509702471
aF458.16470326893574
aF2299.5165583298635
aF0.0
aF0.0
aF0.0
aF0.0
aF0.0
aF193.66917002001244
aF0.0
aF0.0
aF0.0
aF0.0
asS'Bacteria.Firmicutes.Bacilli.RF39.RF39'
p95
(lp96
F0.0
aF41.79396411570242
aF6136.630268026352
aF3440.221622698221
aF13914.920202192307
aF1120.0215044128847
aF0.0
aF4925.858788295033
aF858.9527933860636
aF24273.202642508226
aF2335.055013388495
aF5700.1947715454835
aF7004.675430275105
aF11868.68686868687
asS'Bacteria.Firmicutes.Clostridia.Clostridia_vadinBB60_group'
p97
(lp98
F0.0
aF3753.0979775900773
aF173.54723608671807
aF561.2993173876046
aF0.0
aF0.0
aF0.0
aF816.2851706317484
aF0.0
aF731.6390867422692
aF387.06074950189725
aF339.5100334149348
aF398.0891719745223
aF315.6565656565657
asS'Bacteria.Bacteroidota.Bacteroidia.Chitinophagales'
p99
(lp100
F0.0
aF0.0
aF0.0
aF0.0
aF851.9338899301413
aF0.0
aF0.0
aF0.0
aF0.0
aF0.0
aF0.0
aF0.0
aF0.0
aF0.0
asS'Bacteria.Bacteroidota.Bacteroidia.Bacteroidales.Tannerellaceae'
p101
(lp102
F0.0
aF27479.53140607434
aF492.8741504862794
aF217.27715511778237
aF0.0
aF5420.9040813583615
aF0.0
aF945.7648873526464
aF2773.701728642497
aF0.0
aF7087.653396616708
aF0.0
aF152.45968288385959
aF0.0
asS'Bacteria.Proteobacteria.Gammaproteobacteria.Burkholderiales.Sutterellaceae'
p103
(lp104
F0.0
aF5395.600767337182
aF1596.6345719978062
aF470.7671694218618
aF0.0
aF8019.353971596255
aF0.0
aF3327.065764436988
aF2218.9613829139976
aF430.37593337780544
aF107.86938920544677
aF0.0
aF0.0
aF0.0
asS'Bacteria.Bacteroidota.Bacteroidia.Bacteroidales.Muribaculaceae'
p105
(lp106
F146615.43009163463
aF397891.07657072175
aF491405.9408689857
aF78726.75587100982
aF462372.91986141866
aF82567.98530531787
aF67974.77224947442
aF534841.3029037233
aF566980.4230342509
aF166512.44862387292
aF237039.810149875
aF15635.330486214103
aF11612.34584632064
aF8838.38383838384
asS'Bacteria.Elusimicrobiota.Elusimicrobia.Elusimicrobiales'
p107
(lp108
F0.0
aF91.94672105454532
aF190.90195969538988
aF0.0
aF0.0
aF0.0
aF0.0
aF0.0
aF0.0
aF0.0
aF0.0
aF0.0
aF0.0
aF0.0
asS'Bacteria.Campilobacterota.Campylobacteria.Campylobacterales'
p109
(lp110
F0.0
aF639.4476509702471
aF458.16470326893574
aF2299.5165583298635
aF0.0
aF0.0
aF0.0
aF0.0
aF0.0
aF193.66917002001244
aF0.0
aF0.0
aF0.0
aF0.0
asS'Bacteria.Proteobacteria.Gammaproteobacteria.Xanthomonadales.Xanthomonadaceae'
p111
(lp112
F0.0
aF0.0
aF0.0
aF0.0
aF0.0
aF0.0
aF0.0
aF0.0
aF0.0
aF0.0
aF0.0
aF89.34474563550916
aF0.0
aF0.0
asS'Bacteria.Proteobacteria.Alphaproteobacteria.Rhizobiales'
p113
(lp114
F0.0
aF0.0
aF211.72762802579607
aF0.0
aF0.0
aF224.00430088257696
aF0.0
aF0.0
aF0.0
aF0.0
aF0.0
aF0.0
aF135.5197181189863
aF1893.9393939393942
asS'Bacteria.Cyanobacteria'
p115
(lp116
F0.0
aF0.0
aF111.07023109549957
aF1321.7693602998427
aF454.36474129607535
aF0.0
aF0.0
aF4396.680815609624
aF6388.461400808847
aF0.0
aF50.76206550844554
aF0.0
aF0.0
aF1073.2323232323233
asS'Bacteria.Firmicutes.Clostridia.Peptostreptococcales_Tissierellales'
p117
(lp118
F0.0
aF5052.890261588423
aF8590.588186292545
aF26200.003621285923
aF7042.6534900891675
aF5107.298060122755
aF5255.781359495445
aF11602.508528772645
aF2433.6995812605137
aF3636.6766370424557
aF13851.698625617077
aF202240.7662205385
aF236371.79834665946
aF54482.323232323244
asS'Bacteria.Verrucomicrobiota'
p119
(lp120
F0.0
aF0.0
aF0.0
aF1068.2793459957634
aF908.7294825921507
aF55508.26575870257
aF142606.86755430975
aF7909.521825776597
aF465.2660964174511
aF16698.58621505885
aF87133.08544524678
aF5342.815789003447
aF6149.207209649004
aF0.0
asS'Bacteria.Bacteroidota.Bacteroidia.Bacteroidales.Marinifilaceae'
p121
(lp122
F0.0
aF388.6838662760325
aF86.77361804335904
aF0.0
aF0.0
aF0.0
aF0.0
aF0.0
aF0.0
aF0.0
aF0.0
aF0.0
aF0.0
aF0.0
asS'Bacteria.Firmicutes.Clostridia.Oscillospirales.Butyricicoccaceae'
p123
(lp124
F0.0
aF2904.680506041318
aF135.3668441476401
aF9578.301254775573
aF511.1603339580848
aF7212.938488418978
aF3503.85423966363
aF529.1779726854094
aF0.0
aF3830.3458070624683
aF406.0965240675643
aF1107.8748458803134
aF262.569453855536
aF0.0
asS'Bacteria.Cyanobacteria.Vampirivibrionia.Gastranaerophilales'
p125
(lp126
F0.0
aF0.0
aF111.07023109549957
aF1321.7693602998427
aF0.0
aF0.0
aF0.0
aF4396.680815609624
aF6388.461400808847
aF0.0
aF50.76206550844554
aF0.0
aF0.0
aF1073.2323232323233
asS'Bacteria.Deferribacterota.Deferribacteres.Deferribacterales'
p127
(lp128
F0.0
aF0.0
aF0.0
aF0.0
aF0.0
aF0.0
aF0.0
aF67.55463481090332
aF0.0
aF0.0
aF0.0
aF410.9858299233421
aF0.0
aF0.0
asS'Bacteria.Bacteroidota.Bacteroidia.Bacteroidales'
p129
(lp130
F193023.94324563997
aF769000.5809361014
aF519301.92359756475
aF88884.46287276615
aF506957.4601010961
aF116079.0287173514
aF87946.74141555712
aF556002.7922582389
aF697237.0351812749
aF184459.1250457274
aF256817.97992360312
aF16796.81217947572
aF12916.723133215883
aF9469.696969696972
asS'Bacteria.Actinobacteriota.Coriobacteriia'
p131
(lp132
F0.0
aF472.27179450743733
aF2030.5026622146017
aF21763.928370964535
aF7780.996194695289
aF22624.434389140268
aF23475.823405746323
aF782.5078532262968
aF214.7381983465159
aF5444.255557229239
aF10717.141080470565
aF13419.580794453475
aF10562.068030898494
aF23484.848484848488
asS'Bacteria.Firmicutes.Bacilli.Lactobacillales'
p133
(lp134
F388117.0558675732
aF10114.139315999984
aF15556.77424281341
aF6717.4853790581055
aF13687.73783154427
aF5331.3023610053315
aF0.0
aF42936.59997522997
aF50535.05601088008
aF266058.4020141593
aF1294.4326704653613
aF25802.762539535044
aF59679.4958666486
aF135101.01010101012
asS'Bacteria.Firmicutes.Clostridia.Clostridia.Hungateiclostridiaceae'
p135
(lp136
F0.0
aF0.0
aF76.36078387815596
aF0.0
aF0.0
aF0.0
aF0.0
aF112.59105801817219
aF0.0
aF0.0
aF57.107323697001235
aF0.0
aF0.0
aF0.0
asS'Bacteria.Proteobacteria.Gammaproteobacteria.Pseudomonadales.Moraxellaceae'
p137
(lp138
F0.0
aF0.0
aF0.0
aF0.0
aF0.0
aF672.0129026477308
aF0.0
aF28.147764504543048
aF0.0
aF0.0
aF82.488356451224
aF53.60684738130549
aF0.0
aF2083.3333333333335
asS'Bacteria.Proteobacteria.Gammaproteobacteria.Xanthomonadales'
p139
(lp140
F0.0
aF0.0
aF0.0
aF0.0
aF0.0
aF0.0
aF0.0
aF0.0
aF0.0
aF0.0
aF0.0
aF89.34474563550916
aF0.0
aF0.0
asS'Bacteria.Firmicutes.Bacilli.Izemoplasmatales'
p141
(lp142
F0.0
aF0.0
aF0.0
aF0.0
aF0.0
aF0.0
aF0.0
aF236.4412218381616
aF0.0
aF0.0
aF0.0
aF0.0
aF0.0
aF0.0
asS'Bacteria.Desulfobacterota.Desulfovibrionia.Desulfovibrionales'
p143
(lp144
F0.0
aF3723.8422027090855
aF3404.9967720214086
aF12004.562820257475
aF14369.284943488383
aF0.0
aF0.0
aF0.0
aF0.0
aF0.0
aF0.0
aF0.0
aF0.0
aF0.0
asS'Bacteria.Proteobacteria.Alphaproteobacteria.Sphingomonadales.Sphingomonadaceae'
p145
(lp146
F0.0
aF0.0
aF65.94794971295288
aF0.0
aF0.0
aF0.0
aF0.0
aF0.0
aF0.0
aF0.0
aF0.0
aF0.0
aF0.0
aF0.0
asS'Bacteria.Proteobacteria.Alphaproteobacteria.Rhodobacterales.Rhodobacteraceae'
p147
(lp148
F0.0
aF0.0
aF0.0
aF0.0
aF1249.5030385642071
aF0.0
aF0.0
aF0.0
aF0.0
aF0.0
aF0.0
aF0.0
aF0.0
aF0.0
asS'Archaea.Euryarchaeota.Methanobacteria.Methanobacteriales.Methanobacteriaceae'
p149
(lp150
F0.0
aF83.58792823140485
aF461.63564799067007
aF0.0
aF0.0
aF0.0
aF0.0
aF0.0
aF0.0
aF0.0
aF0.0
aF0.0
aF0.0
aF0.0
asS'Bacteria.Firmicutes.Clostridia.Lachnospirales.Defluviitaleaceae'
p151
(lp152
F0.0
aF0.0
aF45.1222813825467
aF1285.5565011135457
aF0.0
aF0.0
aF0.0
aF782.5078532262968
aF0.0
aF215.18796668890272
aF82.488356451224
aF553.9374229401567
aF0.0
aF0.0
asS'Bacteria.Firmicutes.Negativicutes.Veillonellales_Selenomonadales'
p153
(lp154
F0.0
aF7619.0396582925505
aF1197.475928998355
aF0.0
aF0.0
aF0.0
aF0.0
aF0.0
aF0.0
aF0.0
aF0.0
aF0.0
aF0.0
aF0.0
asS'Bacteria.Bacteroidota.Bacteroidia.Bacteroidales.Bacteroidaceae'
p155
(lp156
F0.0
aF40795.08837333714
aF312.3850249560926
aF2082.239403212081
aF31123.984778781156
aF4166.479996415931
aF2803.0833917309037
aF8990.39598275105
aF14727.461436598547
aF5186.029997202555
aF3293.1889998604042
aF250.16528777942563
aF719.9485025071148
aF0.0
asS'Bacteria.Proteobacteria.Gammaproteobacteria.Enterobacterales.Enterobacteriaceae'
p157
(lp158
F11232.633757020396
aF936.1847961917342
aF1690.350079484634
aF5757.844610621232
aF21411.93843357755
aF12320.23654854173
aF30133.14646110722
aF1784.5682695880294
aF250.5278980709352
aF2582.2556002668325
aF2017.7921039607104
aF7647.910226399584
aF7004.675430275105
aF27904.040404040406
asS'Bacteria.Proteobacteria.Alphaproteobacteria.Rhizobiales.Beijerinckiaceae'
p159
(lp160
F0.0
aF0.0
aF0.0
aF0.0
aF0.0
aF0.0
aF0.0
aF0.0
aF0.0
aF0.0
aF0.0
aF0.0
aF0.0
aF883.838383838384
asS'Bacteria.Proteobacteria.Alphaproteobacteria'
p161
(lp162
F0.0
aF1776.2434749173528
aF277.6755777387489
aF0.0
aF1249.5030385642071
aF224.00430088257696
aF0.0
aF264.58898634270463
aF0.0
aF0.0
aF0.0
aF0.0
aF135.5197181189863
aF1893.9393939393942
asS'Bacteria.Firmicutes.Bacilli.Acholeplasmatales.Acholeplasmataceae'
p163
(lp164
F0.0
aF0.0
aF0.0
aF253.49001430407944
aF0.0
aF0.0
aF0.0
aF0.0
aF214.7381983465159
aF0.0
aF0.0
aF0.0
aF0.0
aF1704.5454545454547
asS'Bacteria.Chloroflexi.Anaerolineae.Anaerolineales'
p165
(lp166
F0.0
aF0.0
aF0.0
aF0.0
aF454.36474129607535
aF0.0
aF0.0
aF0.0
aF0.0
aF0.0
aF0.0
aF0.0
aF0.0
aF0.0
asS'Bacteria.Firmicutes.Clostridia.Monoglobales.Monoglobaceae'
p167
(lp168
F23056.458764410287
aF0.0
aF2276.939737457741
aF11533.795650835615
aF14312.489350826372
aF30330.182339500916
aF7358.093903293623
aF168.8865870272583
aF0.0
aF2087.3232768823564
aF0.0
aF196.55844039812013
aF67.75985905949315
aF35353.53535353536
asS'Bacteria.Cyanobacteria.Cyanobacteriia'
p169
(lp170
F0.0
aF0.0
aF0.0
aF0.0
aF454.36474129607535
aF0.0
aF0.0
aF0.0
aF0.0
aF0.0
aF0.0
aF0.0
aF0.0
aF0.0
asS'Bacteria.Chloroflexi.Anaerolineae.Anaerolineales.Anaerolineaceae'
p171
(lp172
F0.0
aF0.0
aF0.0
aF0.0
aF454.36474129607535
aF0.0
aF0.0
aF0.0
aF0.0
aF0.0
aF0.0
aF0.0
aF0.0
aF0.0
asS'Bacteria.Elusimicrobiota.Elusimicrobia.Elusimicrobiales.Elusimicrobiaceae'
p173
(lp174
F0.0
aF91.94672105454532
aF190.90195969538988
aF0.0
aF0.0
aF0.0
aF0.0
aF0.0
aF0.0
aF0.0
aF0.0
aF0.0
aF0.0
aF0.0
asS'Bacteria.Firmicutes.Bacilli.Lactobacillales.Lactobacillaceae'
p175
(lp176
F388117.0558675732
aF9140.33995210412
aF14768.86979097971
aF5450.035307537708
aF13687.73783154427
aF4704.090318534116
aF0.0
aF42756.4542824009
aF50535.05601088008
aF266058.4020141593
aF1294.4326704653613
aF25802.762539535044
aF59679.4958666486
aF130744.94949494951
asS'Bacteria.Chloroflexi'
p177
(lp178
F0.0
aF0.0
aF0.0
aF0.0
aF454.36474129607535
aF0.0
aF0.0
aF0.0
aF0.0
aF0.0
aF0.0
aF0.0
aF0.0
aF0.0
asS'Bacteria.Firmicutes.Clostridia.Oscillospirales.UCG_010'
p179
(lp180
F0.0
aF121.20249593553702
aF2231.8174560751945
aF651.8314653533471
aF0.0
aF0.0
aF0.0
aF4284.089757591451
aF930.5321928349022
aF0.0
aF615.4900442899021
aF0.0
aF321.8593305325925
aF0.0
asS'Bacteria.Firmicutes.Negativicutes.Veillonellales_Selenomonadales.Selenomonadaceae'
p181
(lp182
F0.0
aF7096.615106846271
aF1044.754361242043
aF0.0
aF0.0
aF0.0
aF0.0
aF0.0
aF0.0
aF0.0
aF0.0
aF0.0
aF0.0
aF0.0
asS'Bacteria.Proteobacteria.Alphaproteobacteria.Rickettsiales.Mitochondria'
p183
(lp184
F0.0
aF0.0
aF0.0
aF0.0
aF0.0
aF0.0
aF0.0
aF90.07284641453775
aF0.0
aF0.0
aF0.0
aF0.0
aF0.0
aF0.0
asS'Bacteria.Firmicutes.Clostridia.Eubacteriales.Anaerofustaceae'
p185
(lp186
F0.0
aF0.0
aF0.0
aF0.0
aF0.0
aF1702.4326867075847
aF0.0
aF0.0
aF0.0
aF0.0
aF0.0
aF357.3789825420366
aF0.0
aF0.0
asS'Bacteria.Elusimicrobiota'
p187
(lp188
F0.0
aF91.94672105454532
aF190.90195969538988
aF0.0
aF0.0
aF0.0
aF0.0
aF0.0
aF0.0
aF0.0
aF0.0
aF0.0
aF0.0
aF0.0
asS'Bacteria.Proteobacteria.Gammaproteobacteria.Pseudomonadales.Pseudomonadaceae'
p189
(lp190
F0.0
aF0.0
aF572.7058790861697
aF1629.5786633833677
aF0.0
aF2105.6404282962235
aF15066.57323055361
aF0.0
aF0.0
aF0.0
aF272.84610210789475
aF1876.2396583456923
aF457.3790486515788
aF5997.474747474747
asS'Bacteria.Firmicutes.Clostridia.Peptococcales'
p191
(lp192
F0.0
aF0.0
aF236.0242410779366
aF778.5764725053868
aF0.0
aF851.2163433537924
aF0.0
aF6851.165880405778
aF2791.5965785047065
aF516.4511200533665
aF1072.348633865912
aF0.0
aF482.7889957988887
aF1325.757575757576
asS'Bacteria.Firmicutes.Clostridia'
p193
(lp194
F393733.3727460833
aF185661.3267911849
aF348378.721720478
aF826793.8945119411
aF314022.83182824997
aF656556.605886833
aF596355.9915907499
aF357020.61542272306
aF234565.69199384417
aF492457.66176755383
aF618853.0311298366
aF819094.7590372209
aF771852.5545466866
aF606755.0505050505
asS'Archaea'
p195
(lp196
F0.0
aF83.58792823140485
aF461.63564799067007
aF0.0
aF0.0
aF0.0
aF0.0
aF0.0
aF0.0
aF0.0
aF0.0
aF0.0
aF0.0
aF0.0
asS'Bacteria.Actinobacteriota.Actinobacteria.Micrococcales.Micrococcaceae'
p197
(lp198
F0.0
aF121.20249593553702
aF128.42495470417137
aF416.4478806424162
aF0.0
aF0.0
aF0.0
aF90.07284641453775
aF0.0
aF0.0
aF0.0
aF0.0
aF0.0
aF1767.676767676768
asS'Bacteria.Campilobacterota.Campylobacteria'
p199
(lp200
F0.0
aF639.4476509702471
aF458.16470326893574
aF2299.5165583298635
aF0.0
aF0.0
aF0.0
aF0.0
aF0.0
aF193.66917002001244
aF0.0
aF0.0
aF0.0
aF0.0
asS'Bacteria.Patescibacteria.Saccharimonadia.Saccharimonadales.Saccharimonadaceae'
p201
(lp202
F2955.9562518474727
aF0.0
aF22804.106821794754
aF2299.5165583298635
aF28284.20514568069
aF851.2163433537924
aF0.0
aF332.14362115360797
aF0.0
aF2151.8796668890272
aF2804.604119341616
aF1179.3506423887209
aF3828.4320368613635
aF15782.828282828286
asS'Bacteria.Firmicutes.Bacilli.Erysipelotrichales.Erysipelotrichaceae'
p203
(lp204
F0.0
aF6862.568907798338
aF70057.54826348636
aF11135.454199786347
aF49582.55239393422
aF29613.368576676672
aF71478.62648913806
aF9902.383552698246
aF1556.8519380122402
aF172.15037335112217
aF14898.666226728765
aF93168.70074870894
aF110109.77097167638
aF103472.22222222223
asS'Bacteria.Actinobacteriota'
p205
(lp206
F0.0
aF593.4742904429744
aF4137.366108307359
aF22397.65340672473
aF21582.325211563577
aF103893.19474933919
aF37841.6257883672
aF3698.6162558969563
aF1556.8519380122402
aF5444.255557229239
aF12094.06210738715
aF19352.071904651282
aF17388.87383114243
aF26136.363636363636
asS'Bacteria.Proteobacteria.Gammaproteobacteria.Pasteurellales.Pasteurellaceae'
p207
(lp208
F0.0
aF1391.7390050528907
aF666.4213865729974
aF0.0
aF0.0
aF672.0129026477308
aF0.0
aF0.0
aF0.0
aF1205.0526134578552
aF285.5366184850061
aF0.0
aF0.0
aF0.0
asS'Bacteria.Proteobacteria.Gammaproteobacteria.Burkholderiales'
p209
(lp210
F0.0
aF5566.956020211563
aF2662.214601570255
aF5268.971011606223
aF8916.908047935478
aF13485.058913131132
aF18570.42747021724
aF3405.8795050497088
aF2218.9613829139976
aF430.37593337780544
aF1059.6581174888006
aF2394.439183031646
aF2210.665401815964
aF20517.67676767677
asS'Bacteria.Firmicutes'
p211
(lp212
F792787.4667454922
aF215957.77137865758
aF443260.4666338084
aF856705.7161998226
aF393877.4351110351
aF694189.3284351061
aF667834.6180798879
aF422109.5060630285
aF291882.89610250166
aF786834.8001979728
aF637381.1850404192
aF944856.4229937635
aF949908.5241902696
aF889141.4141414141
asS'Bacteria.Patescibacteria'
p213
(lp214
F2955.9562518474727
aF0.0
aF22804.106821794754
aF2408.1551358887546
aF28284.20514568069
aF851.2163433537924
aF0.0
aF332.14362115360797
aF0.0
aF2151.8796668890272
aF2804.604119341616
aF1179.3506423887209
aF3828.4320368613635
aF15782.828282828286
asS'Bacteria.Firmicutes.Clostridia.Oscillospirales'
p215
(lp216
F0.0
aF0.0
aF0.0
aF325.91573267667354
aF0.0
aF0.0
aF0.0
aF0.0
aF0.0
aF0.0
aF0.0
aF0.0
aF0.0
aF0.0
asS'Bacteria.Actinobacteriota.Coriobacteriia.Coriobacteriales.Atopobiaceae'
p217
(lp218
F0.0
aF41.79396411570242
aF767.078783503294
aF3566.9666298502607
aF681.547111944113
aF13037.050311365978
aF5606.166783461807
aF281.4776450454305
aF0.0
aF0.0
aF8305.942968819401
aF3716.7414184371805
aF3845.3720016262364
aF0.0
asS'Bacteria.Proteobacteria.Gammaproteobacteria.Burkholderiales.Comamonadaceae'
p219
(lp220
F0.0
aF0.0
aF513.6998188166855
aF2245.1972695504182
aF2839.779633100471
aF761.6146230007616
aF8409.250175192712
aF0.0
aF0.0
aF0.0
aF0.0
aF0.0
aF160.92966526629624
aF14583.333333333336
asS'Bacteria.Firmicutes.Bacilli.Erysipelotrichales.Erysipelatoclostridiaceae'
p221
(lp222
F0.0
aF3936.9914196991676
aF20.82566833040617
aF6898.54967498959
aF0.0
aF0.0
aF0.0
aF242.07077473907023
aF214.7381983465159
aF494.9323233844762
aF0.0
aF0.0
aF0.0
aF2272.727272727273
asS'Bacteria.Firmicutes.Clostridia.Oscillospirales._Eubacterium__coprostanoligenes_group'
p223
(lp224
F90747.85693171741
aF50010.657460849514
aF38579.550582077434
aF25475.746437559985
aF6701.879934117111
aF13619.461493660678
aF0.0
aF18628.190549106588
aF31745.46365555993
aF106001.59239095348
aF26383.58354801457
aF48728.62426960669
aF39097.438677327555
aF7386.363636363637
asS'Bacteria.Actinobacteriota.Coriobacteriia.Coriobacteriales.Eggerthellaceae'
p225
(lp226
F0.0
aF430.4778303917349
aF732.3693362859503
aF10465.516304839852
aF4714.034190946782
aF6406.5230052417
aF16117.729502452697
aF354.66183275724245
aF214.7381983465159
aF4820.210453831421
aF1814.743841926928
aF9434.805139109767
aF6496.476487328907
aF17613.636363636364
asS'Bacteria.Firmicutes.Bacilli.Lactobacillales.Enterococcaceae'
p227
(lp228
F0.0
aF79.40853181983461
aF0.0
aF0.0
aF0.0
aF0.0
aF0.0
aF0.0
aF0.0
aF0.0
aF0.0
aF0.0
aF0.0
aF0.0
asS'Bacteria.Firmicutes.Clostridia.Christensenellales'
p229
(lp230
F0.0
aF0.0
aF2887.826008482989
aF13851.418638758627
aF21298.34724825353
aF1568.0301061780385
aF0.0
aF3996.982559645113
aF1932.643785118643
aF1334.1653934711967
aF4784.324674170992
aF786.2337615924805
aF525.138907711072
aF177588.38383838386
asS'Bacteria.Firmicutes.Clostridia.Clostridia_UCG_014'
p231
(lp232
F80402.01005025125
aF8.358792823140485
aF175754.75692974112
aF335222.4374875519
aF128528.4261941273
aF97441.87088392097
aF74632.09530483533
aF70588.96382449307
aF52127.69764861673
aF71270.25456736458
aF92482.13809819921
aF220270.53588978428
aF53835.208022767314
aF166224.74747474748
asS'Bacteria.Proteobacteria.Gammaproteobacteria.Enterobacterales'
p233
(lp234
F11232.633757020396
aF1174.4103916512381
aF1690.350079484634
aF5757.844610621232
aF21411.93843357755
aF12320.23654854173
aF30133.14646110722
aF1784.5682695880294
aF250.5278980709352
aF2582.2556002668325
aF2017.7921039607104
aF7647.910226399584
aF7004.675430275105
aF27904.040404040406
asS'Bacteria.Firmicutes.Bacilli.Exiguobacterales.Exiguobacteraceae'
p235
(lp236
F0.0
aF0.0
aF0.0
aF0.0
aF0.0
aF716.8137628242462
aF0.0
aF0.0
aF0.0
aF0.0
aF0.0
aF0.0
aF0.0
aF0.0
asS'Bacteria.Firmicutes.Clostridia.Clostridia'
p237
(lp238
F0.0
aF0.0
aF76.36078387815596
aF0.0
aF0.0
aF0.0
aF0.0
aF112.59105801817219
aF0.0
aF0.0
aF57.107323697001235
aF0.0
aF0.0
aF0.0
asS'Bacteria.Acidobacteriota.Acidobacteriae.Bryobacterales.Bryobacteraceae'
p239
(lp240
F0.0
aF0.0
aF0.0
aF0.0
aF681.547111944113
aF0.0
aF0.0
aF0.0
aF0.0
aF0.0
aF0.0
aF0.0
aF0.0
aF0.0
asS'Bacteria.Cyanobacteria.Vampirivibrionia.Gastranaerophilales.Gastranaerophilales'
p241
(lp242
F0.0
aF0.0
aF111.07023109549957
aF1321.7693602998427
aF0.0
aF0.0
aF0.0
aF4396.680815609624
aF6388.461400808847
aF0.0
aF50.76206550844554
aF0.0
aF0.0
aF1073.2323232323233
asS'Bacteria.Bacteroidota.Bacteroidia.Bacteroidales.Prevotellaceae'
p243
(lp244
F46408.51315400532
aF301539.27169838134
aF27003.949935093337
aF6717.4853790581055
aF13460.555460896232
aF19622.776757313743
aF17168.885774351787
aF5787.180382134051
aF108263.84166636843
aF11985.969744571881
aF5475.957816723562
aF303.7721351607311
aF110.10977097167638
aF631.3131313131314
asS'Bacteria.Proteobacteria.Gammaproteobacteria.Burkholderiales.Alcaligenaceae'
p245
(lp246
F0.0
aF0.0
aF284.61746718221764
aF0.0
aF0.0
aF896.0172035303078
aF0.0
aF0.0
aF0.0
aF0.0
aF158.6314547138923
aF250.16528777942563
aF177.86963003116952
aF0.0
asS'Bacteria.Firmicutes.Negativicutes'
p247
(lp248
F0.0
aF7619.0396582925505
aF1197.475928998355
aF0.0
aF0.0
aF0.0
aF0.0
aF0.0
aF0.0
aF0.0
aF0.0
aF0.0
aF0.0
aF0.0
asS'Bacteria.Firmicutes.Bacilli.Exiguobacterales'
p249
(lp250
F0.0
aF0.0
aF0.0
aF0.0
aF0.0
aF716.8137628242462
aF0.0
aF0.0
aF0.0
aF0.0
aF0.0
aF0.0
aF0.0
aF0.0
asS'Bacteria.Firmicutes.Clostridia.Eubacteriales'
p251
(lp252
F0.0
aF91.94672105454532
aF0.0
aF0.0
aF0.0
aF1702.4326867075847
aF0.0
aF0.0
aF0.0
aF0.0
aF0.0
aF357.3789825420366
aF0.0
aF0.0
asS'Bacteria.Bacteroidota.Bacteroidia.Flavobacteriales'
p253
(lp254
F0.0
aF0.0
aF0.0
aF253.49001430407944
aF0.0
aF0.0
aF0.0
aF0.0
aF0.0
aF0.0
aF0.0
aF0.0
aF0.0
aF0.0
asS'Bacteria.Proteobacteria.Alphaproteobacteria.Rhodospirillales.uncultured'
p255
(lp256
F0.0
aF1776.2434749173528
aF0.0
aF0.0
aF0.0
aF0.0
aF0.0
aF174.5161399281669
aF0.0
aF0.0
aF0.0
aF0.0
aF0.0
aF0.0
asS'Bacteria.Proteobacteria.Gammaproteobacteria.Pasteurellales'
p257
(lp258
F0.0
aF1391.7390050528907
aF666.4213865729974
aF0.0
aF0.0
aF672.0129026477308
aF0.0
aF0.0
aF0.0
aF1205.0526134578552
aF285.5366184850061
aF0.0
aF0.0
aF0.0
asS'Bacteria.Proteobacteria.Gammaproteobacteria.Burkholderiales.Burkholderiaceae'
p259
(lp260
F0.0
aF171.35525287437991
aF267.26274357354583
aF2553.006572633943
aF6077.128414835007
aF3808.073115003808
aF10161.177295024529
aF78.81374061272055
aF0.0
aF0.0
aF793.1572735694615
aF2144.27389525222
aF1871.8661065184986
aF5934.343434343435
asS'Bacteria.Firmicutes.Bacilli'
p261
(lp262
F10937.03813183565
aF1721.9113215669397
aF1756.2980291975869
aF561.2993173876046
aF738.3427046061224
aF851.2163433537924
aF0.0
aF6845.536327504869
aF3936.8669696861252
aF3378.4510770157726
aF0.0
aF1090.0058967532116
aF1262.02737498306
aF27967.17171717172
asS'Bacteria.Acidobacteriota.Acidobacteriae'
p263
(lp264
F0.0
aF0.0
aF0.0
aF0.0
aF681.547111944113
aF0.0
aF0.0
aF0.0
aF0.0
aF0.0
aF0.0
aF0.0
aF0.0
aF0.0
asS'Archaea.Euryarchaeota'
p265
(lp266
F0.0
aF83.58792823140485
aF461.63564799067007
aF0.0
aF0.0
aF0.0
aF0.0
aF0.0
aF0.0
aF0.0
aF0.0
aF0.0
aF0.0
aF0.0
asS'Bacteria.Verrucomicrobiota.Verrucomicrobiae'
p267
(lp268
F0.0
aF0.0
aF0.0
aF1068.2793459957634
aF908.7294825921507
aF55508.26575870257
aF142606.86755430975
aF7909.521825776597
aF465.2660964174511
aF16698.58621505885
aF87133.08544524678
aF5342.815789003447
aF6149.207209649004
aF0.0
asS'Bacteria.Cyanobacteria.Cyanobacteriia.Chloroplast'
p269
(lp270
F0.0
aF0.0
aF0.0
aF0.0
aF454.36474129607535
aF0.0
aF0.0
aF0.0
aF0.0
aF0.0
aF0.0
aF0.0
aF0.0
aF0.0
asS'Bacteria.Actinobacteriota.Actinobacteria.Bifidobacteriales.Bifidobacteriaceae'
p271
(lp272
F0.0
aF0.0
aF1978.438491388586
aF0.0
aF13801.329016868287
aF49146.54361363738
aF5606.166783461807
aF2826.035556256122
aF1342.1137396657243
aF0.0
aF1376.921026916585
aF5932.491110197808
aF6725.1660116546955
aF883.838383838384
asS'Bacteria.Firmicutes.Bacilli.Izemoplasmatales.Izemoplasmatales'
p273
(lp274
F0.0
aF0.0
aF0.0
aF0.0
aF0.0
aF0.0
aF0.0
aF236.4412218381616
aF0.0
aF0.0
aF0.0
aF0.0
aF0.0
aF0.0
asS'Bacteria.Proteobacteria.Alphaproteobacteria.Sphingomonadales'
p275
(lp276
F0.0
aF0.0
aF65.94794971295288
aF0.0
aF0.0
aF0.0
aF0.0
aF0.0
aF0.0
aF0.0
aF0.0
aF0.0
aF0.0
aF0.0
asS'Bacteria.Campilobacterota.Campylobacteria.Campylobacterales.Helicobacteraceae'
p277
(lp278
F0.0
aF639.4476509702471
aF458.16470326893574
aF2299.5165583298635
aF0.0
aF0.0
aF0.0
aF0.0
aF0.0
aF193.66917002001244
aF0.0
aF0.0
aF0.0
aF0.0
asS'Bacteria.Verrucomicrobiota.Verrucomicrobiae.Verrucomicrobiales.Akkermansiaceae'
p279
(lp280
F0.0
aF0.0
aF0.0
aF1068.2793459957634
aF908.7294825921507
aF55508.26575870257
aF142606.86755430975
aF7909.521825776597
aF465.2660964174511
aF16698.58621505885
aF87133.08544524678
aF5342.815789003447
aF6149.207209649004
aF0.0
asS'Bacteria.Firmicutes.Clostridia.Clostridia_vadinBB60_group.Clostridia_vadinBB60_group'
p281
(lp282
F0.0
aF3753.0979775900773
aF173.54723608671807
aF561.2993173876046
aF0.0
aF0.0
aF0.0
aF816.2851706317484
aF0.0
aF731.6390867422692
aF387.06074950189725
aF339.5100334149348
aF398.0891719745223
aF315.6565656565657
asS'Bacteria.Desulfobacterota.Desulfovibrionia.Desulfovibrionales.Desulfovibrionaceae'
p283
(lp284
F0.0
aF3723.8422027090855
aF3404.9967720214086
aF12004.562820257475
aF14369.284943488383
aF0.0
aF0.0
aF0.0
aF0.0
aF0.0
aF0.0
aF0.0
aF0.0
aF0.0
asS'Bacteria.Proteobacteria.Gammaproteobacteria.Pseudomonadales'
p285
(lp286
F0.0
aF0.0
aF572.7058790861697
aF1629.5786633833677
aF0.0
aF2777.653330943954
aF15066.57323055361
aF28.147764504543048
aF0.0
aF0.0
aF355.33445855911873
aF1929.8465057269975
aF457.3790486515788
aF8080.808080808082
asS'Bacteria.Firmicutes.Clostridia.Christensenellales.Christensenellaceae'
p287
(lp288
F0.0
aF0.0
aF2887.826008482989
aF13851.418638758627
aF21298.34724825353
aF1568.0301061780385
aF0.0
aF3996.982559645113
aF1932.643785118643
aF1334.1653934711967
aF4784.324674170992
aF786.2337615924805
aF525.138907711072
aF177588.38383838386
asS'Bacteria.Deferribacterota.Deferribacteres'
p289
(lp290
F0.0
aF0.0
aF0.0
aF0.0
aF0.0
aF0.0
aF0.0
aF67.55463481090332
aF0.0
aF0.0
aF0.0
aF410.9858299233421
aF0.0
aF0.0
asS'Bacteria.Actinobacteriota.Actinobacteria'
p291
(lp292
F0.0
aF121.20249593553702
aF2106.8634460927574
aF633.7250357601986
aF13801.329016868287
aF81268.76036019892
aF14365.802382620883
aF2916.10840267066
aF1342.1137396657243
aF0.0
aF1376.921026916585
aF5932.491110197808
aF6826.805800243936
aF2651.515151515152
asS'Bacteria.Actinobacteriota.Coriobacteriia.Coriobacteriales.uncultured'
p293
(lp294
F0.0
aF0.0
aF531.0545424253573
aF7224.465407666264
aF2385.4148918043957
aF3180.8610725325925
aF0.0
aF146.36837542362386
aF0.0
aF624.0451033978179
aF596.4542697242351
aF268.0342369065275
aF220.21954194335277
aF5871.212121212122
asS'Bacteria.Firmicutes.Clostridia.uncultured.uncultured'
p295
(lp296
F0.0
aF0.0
aF114.54117581723393
aF597.5121765739015
aF0.0
aF716.8137628242462
aF0.0
aF0.0
aF0.0
aF0.0
aF0.0
aF0.0
aF186.33961241360618
aF0.0
asS'Bacteria.Firmicutes.Clostridia.Oscillospirales.Ruminococcaceae'
p297
(lp298
F45226.13065326634
aF9750.531828193376
aF46562.72344206646
aF35289.43127704649
aF48844.2096893281
aF200394.24756955335
aF255430.97407147865
aF30180.03310177106
aF27235.961490283098
aF46502.11960147187
aF57430.93186461757
aF27804.084841770447
aF32719.541943352753
aF35416.66666666667
asS'Bacteria.Bacteroidota.Bacteroidia.Flavobacteriales.Weeksellaceae'
p299
(lp300
F0.0
aF0.0
aF0.0
aF253.49001430407944
aF0.0
aF0.0
aF0.0
aF0.0
aF0.0
aF0.0
aF0.0
aF0.0
aF0.0
aF0.0
asS'Bacteria.Firmicutes.Clostridia.Lachnospirales.Lachnospiraceae'
p301
(lp302
F142477.09133904817
aF108492.95144795191
aF31332.21800309608
aF287783.59195350274
aF37712.27352757425
aF289279.15415975987
aF250175.1927119832
aF128573.35870385176
aF78862.60334275795
aF210518.3878117535
aF356432.18822573894
aF99422.83294319459
aF106247.45900528527
aF59406.56565656566
asS'Bacteria.Patescibacteria.Saccharimonadia'
p303
(lp304
F2955.9562518474727
aF0.0
aF22804.106821794754
aF2408.1551358887546
aF28284.20514568069
aF851.2163433537924
aF0.0
aF332.14362115360797
aF0.0
aF2151.8796668890272
aF2804.604119341616
aF1179.3506423887209
aF3828.4320368613635
aF15782.828282828286
asS'Bacteria.Firmicutes.Clostridia.Peptostreptococcales_Tissierellales.Peptostreptococcaceae'
p305
(lp306
F0.0
aF5052.890261588423
aF7542.3628803287675
aF25294.6821416285
aF7042.6534900891675
aF5107.298060122755
aF5255.781359495445
aF10347.118231870025
aF1914.7489352564335
aF0.0
aF9803.423901318545
aF200882.72608687877
aF235719.6097032118
aF50883.83838383839
asS'Bacteria.Firmicutes.Clostridia.Lachnospirales'
p307
(lp308
F142477.09133904817
aF108492.95144795191
aF31377.340284478625
aF289069.1484546163
aF37712.27352757425
aF289279.15415975987
aF250175.1927119832
aF129355.86655707804
aF78862.60334275795
aF210733.5757784424
aF356514.67658219015
aF99976.77036613475
aF106247.45900528527
aF59406.56565656566
asS'Bacteria.Verrucomicrobiota.Verrucomicrobiae.Verrucomicrobiales'
p309
(lp310
F0.0
aF0.0
aF0.0
aF1068.2793459957634
aF908.7294825921507
aF55508.26575870257
aF142606.86755430975
aF7909.521825776597
aF465.2660964174511
aF16698.58621505885
aF87133.08544524678
aF5342.815789003447
aF6149.207209649004
aF0.0
asS'Bacteria.Firmicutes.Clostridia.Clostridiales.Clostridiaceae'
p311
(lp312
F3251.55187703222
aF1028.1315172462796
aF20516.754250171813
aF10320.664868094664
aF14994.036462770486
aF1612.830966354554
aF0.0
aF821.914723532657
aF0.0
aF0.0
aF25603.11679082222
aF190482.99769490553
aF293705.1090933731
aF48484.84848484849
asS'Bacteria.Proteobacteria.Gammaproteobacteria.Enterobacterales.Morganellaceae'
p313
(lp314
F0.0
aF238.22559545950378
aF0.0
aF0.0
aF0.0
aF0.0
aF0.0
aF0.0
aF0.0
aF0.0
aF0.0
aF0.0
aF0.0
aF0.0
asS'Bacteria.Patescibacteria.Saccharimonadia.Saccharimonadales'
p315
(lp316
F0.0
aF0.0
aF0.0
aF108.63857755889119
aF0.0
aF0.0
aF0.0
aF0.0
aF0.0
aF0.0
aF0.0
aF0.0
aF0.0
aF0.0
asS'Bacteria.Firmicutes.Bacilli.Bacillales.Bacillaceae'
p317
(lp318
F0.0
aF0.0
aF79.83172859989031
aF0.0
aF0.0
aF0.0
aF0.0
aF0.0
aF0.0
aF0.0
aF0.0
aF0.0
aF0.0
aF0.0
asS'Archaea.Euryarchaeota.Methanobacteria'
p319
(lp320
F0.0
aF83.58792823140485
aF461.63564799067007
aF0.0
aF0.0
aF0.0
aF0.0
aF0.0
aF0.0
aF0.0
aF0.0
aF0.0
aF0.0
aF0.0
asS'Bacteria.Actinobacteriota.Coriobacteriia.Coriobacteriales.Coriobacteriales_Incertae_Sedis'
p321
(lp322
F0.0
aF0.0
aF0.0
aF506.9800286081589
aF0.0
aF0.0
aF1751.927119831815
aF0.0
aF0.0
aF0.0
aF0.0
aF0.0
aF0.0
aF0.0
asS'Bacteria.Firmicutes.Clostridia.Peptococcales.Peptococcaceae'
p323
(lp324
F0.0
aF0.0
aF236.0242410779366
aF778.5764725053868
aF0.0
aF851.2163433537924
aF0.0
aF6851.165880405778
aF2791.5965785047065
aF516.4511200533665
aF1072.348633865912
aF0.0
aF482.7889957988887
aF1325.757575757576
asS'Bacteria.Firmicutes.Clostridia.uncultured'
p325
(lp326
F0.0
aF0.0
aF114.54117581723393
aF597.5121765739015
aF0.0
aF716.8137628242462
aF0.0
aF0.0
aF0.0
aF0.0
aF0.0
aF0.0
aF186.33961241360618
aF0.0
asS'Bacteria.Deferribacterota.Deferribacteres.Deferribacterales.Deferribacteraceae'
p327
(lp328
F0.0
aF0.0
aF0.0
aF0.0
aF0.0
aF0.0
aF0.0
aF67.55463481090332
aF0.0
aF0.0
aF0.0
aF410.9858299233421
aF0.0
aF0.0
asS'Bacteria.Firmicutes.Clostridia.Eubacteriales.Eubacteriaceae'
p329
(lp330
F0.0
aF91.94672105454532
aF0.0
aF0.0
aF0.0
aF0.0
aF0.0
aF0.0
aF0.0
aF0.0
aF0.0
aF0.0
aF0.0
aF0.0
asS'Bacteria.Firmicutes.Clostridia.Oscillospirales.Oscillospiraceae'
p331
(lp332
F8572.273130357671
aF4446.877781910738
aF18864.584562626256
aF67337.8116569194
aF34077.35559720565
aF6720.129026477308
aF0.0
aF79083.95915196414
aF36505.4937189077
aF45813.51810806739
aF39264.45767078263
aF26803.423690652748
aF7631.454126575417
aF20770.20202020202
asS'Bacteria.Actinobacteriota.Actinobacteria.Pseudonocardiales'
p333
(lp334
F0.0
aF0.0
aF0.0
aF0.0
aF0.0
aF32122.21674656154
aF5255.781359495445
aF0.0
aF0.0
aF0.0
aF0.0
aF0.0
aF101.63978858923973
aF0.0
asS'Bacteria'
p335
(lp336
F1000000.0
aF999916.4120717687
aF999538.3643520094
aF1000000.0
aF1000000.0
aF1000000.0
aF1000000.0
aF1000000.0
aF1000000.0
aF1000000.0
aF1000000.0
aF1000000.0
aF1000000.0
aF1000000.0
asS'Bacteria.Actinobacteriota.Actinobacteria.Streptomycetales.Streptomycetaceae'
p337
(lp338
F0.0
aF0.0
aF0.0
aF0.0
aF0.0
aF0.0
aF3503.85423966363
aF0.0
aF0.0
aF0.0
aF0.0
aF0.0
aF0.0
aF0.0
assS'subclass_sl'
p339
(dp340
g12
(I0
I7
tp341
sg10
(I7
I14
tp342
ssS'norm'
p343
F1000000.0
sS'cls'
p344
(dp345
S'class'
p346
(S'HSD-NR'
p347
S'HSD-NR'
p348
S'HSD-NR'
p349
S'HSD-NR'
p350
S'HSD-NR'
p351
S'HSD-NR'
p352
g5
S'STD-NR'
p353
S'STD-NR'
p354
S'STD-NR'
p355
S'STD-NR'
p356
S'STD-NR'
p357
S'STD-NR'
p358
g3
tp359
sS'subclass'
p360
(lp361
S'HSD-NR_subcl'
p362
aS'HSD-NR_subcl'
p363
aS'HSD-NR_subcl'
p364
aS'HSD-NR_subcl'
p365
aS'HSD-NR_subcl'
p366
aS'HSD-NR_subcl'
p367
ag12
aS'STD-NR_subcl'
p368
aS'STD-NR_subcl'
p369
aS'STD-NR_subcl'
p370
aS'STD-NR_subcl'
p371
aS'STD-NR_subcl'
p372
aS'STD-NR_subcl'
p373
ag10
asS'subject'
p374
(S'S210421121704'
p375
S'S210421121705'
p376
S'S210421121706'
p377
S'S210421121707'
p378
S'S210421121708'
p379
S'S210421121709'
p380
S'S210421121710'
p381
S'S210421121685'
p382
S'S210421121686'
p383
S'S210421121687'
p384
S'S210421121691'
p385
S'S210421121692'
p386
S'S210421121693'
p387
S'S210421121703'
p388
tp389
ss.