(dp0
S'class_sl'
p1
(dp2
S'NC'
p3
(I8
I12
tp4
sS'HSD-NC'
p5
(I0
I8
tp6
ssS'class_hierarchy'
p7
(dp8
g3
(lp9
S'NC_subcl'
p10
asg5
(lp11
S'HSD-NC_subcl'
p12
assS'feats'
p13
(dp14
S'Bacteria.Desulfobacterota'
p15
(lp16
F0.0
aF0.0
aF0.0
aF934.6764980787206
aF2308.7808147761975
aF0.0
aF0.0
aF0.0
aF0.0
aF0.0
aF0.0
aF0.0
asS'Bacteria.Actinobacteriota'
p17
(lp18
F13654.914234864524
aF7084.429417249771
aF6350.429696572984
aF13812.44158271887
aF12735.532881507414
aF11776.608660461352
aF9339.5052917066
aF1662.4040920716113
aF66.3186886064493
aF557.8913099733159
aF47.476412854886185
aF229.83919929226877
asS'Bacteria.Gemmatimonadota'
p19
(lp20
F0.0
aF0.0
aF0.0
aF0.0
aF0.0
aF0.0
aF0.0
aF1406.6496163682866
aF0.0
aF0.0
aF0.0
aF0.0
asS'Bacteria'
p21
(lp22
F500000.0
aF500000.0
aF500000.0
aF500000.0
aF500000.0
aF500000.0
aF500000.0
aF500000.0
aF500000.0
aF500000.0
aF500000.0
aF500000.0
asS'Bacteria.Cyanobacteria'
p23
(lp24
F143.19760246299876
aF0.0
aF0.0
aF259.6323605774224
aF0.0
aF0.0
aF0.0
aF0.0
aF120.9340792235252
aF286.59753080923457
aF0.0
aF2394.8810907387815
asS'Bacteria.Firmicutes'
p25
(lp26
F239610.50252130063
aF465078.1978485168
aF450558.49996832694
aF470713.46972686675
aF305727.26595665456
aF426912.18130311614
aF454515.7935520708
aF188618.92583120204
aF156188.3138668477
aF100956.06710277722
aF25430.093140089946
aF50971.17903172649
asS'Bacteria.Bacteroidota'
p27
(lp28
F195705.09476612764
aF17379.40549924569
aF22878.43915623218
aF986.602970194205
aF106278.39428018173
aF16471.064346418454
aF11032.035726666532
aF281329.9232736573
aF326592.2336914543
aF374065.42771203356
aF392168.1182939567
aF434775.5381706535
asS'Bacteria.Campilobacterota'
p29
(lp30
F0.0
aF0.0
aF0.0
aF0.0
aF0.0
aF0.0
aF0.0
aF0.0
aF0.0
aF9.738751046915738
aF0.0
aF0.0
asS'Bacteria.Proteobacteria'
p31
(lp32
F3344.686857528614
aF5898.005443146411
aF7031.398467028441
aF11423.823865406584
aF64906.53161540181
aF18008.903278025093
aF12653.194396296825
aF15728.900255754477
aF1726.2364534325775
aF22062.444871712825
aF6068.348770360907
aF9463.520616142518
asS'Bacteria.Deferribacterota'
p33
(lp34
F0.0
aF0.0
aF0.0
aF0.0
aF0.0
aF0.0
aF0.0
aF0.0
aF126.7857282182119
aF129.3862639090234
aF0.0
aF68.30127148779685
asS'Bacteria.Verrucomicrobiota'
p35
(lp36
F45644.235785080855
aF1747.416779749676
aF5500.53844042315
aF0.0
aF446.8608028599092
aF10602.994738972075
aF12184.179938416362
aF4987.212276214834
aF15179.177492217308
aF1911.5777054946036
aF76285.96338273758
aF1570.9292442193275
asS'Bacteria.Patescibacteria'
p37
(lp38
F1897.3682326347334
aF2812.5450120916694
aF7680.694271416202
aF1869.352996157441
aF7596.633648618456
aF16228.247673006881
aF275.29109484288017
aF6265.984654731458
aF0.0
aF20.86875224339087
aF0.0
aF525.8113757393884
assS'subclass_sl'
p39
(dp40
g12
(I0
I8
tp41
sg10
(I8
I12
tp42
ssS'norm'
p43
F1000000.0
sS'cls'
p44
(dp45
S'class'
p46
(S'HSD-NC'
p47
S'HSD-NC'
p48
S'HSD-NC'
p49
S'HSD-NC'
p50
S'HSD-NC'
p51
S'HSD-NC'
p52
S'HSD-NC'
p53
g5
S'NC'
p54
S'NC'
p55
S'NC'
p56
g3
tp57
sS'subclass'
p58
(lp59
S'HSD-NC_subcl'
p60
aS'HSD-NC_subcl'
p61
aS'HSD-NC_subcl'
p62
aS'HSD-NC_subcl'
p63
aS'HSD-NC_subcl'
p64
aS'HSD-NC_subcl'
p65
aS'HSD-NC_subcl'
p66
ag12
aS'NC_subcl'
p67
aS'NC_subcl'
p68
aS'NC_subcl'
p69
ag10
asS'subject'
p70
(S'S210421121688'
p71
S'S210421121689'
p72
S'S210421121690'
p73
S'S210421121698'
p74
S'S210421121699'
p75
S'S210421121700'
p76
S'S210421121701'
p77
S'S210421121702'
p78
S'S210421121673'
p79
S'S210421121674'
p80
S'S210421121675'
p81
S'S210421121676'
p82
tp83
ss.