(dp0
S'class_sl'
p1
(dp2
S'NC'
p3
(I8
I12
tp4
sS'HSD-NC'
p5
(I0
I8
tp6
ssS'class_hierarchy'
p7
(dp8
g3
(lp9
S'NC_subcl'
p10
asg5
(lp11
S'HSD-NC_subcl'
p12
assS'feats'
p13
(dp14
S'Bacteria.Firmicutes.Bacilli.Acholeplasmatales'
p15
(lp16
F0.0
aF0.0
aF0.0
aF0.0
aF297.90720190660613
aF0.0
aF61.17579885397335
aF0.0
aF0.0
aF1480.2901591311922
aF0.0
aF0.0
asS'Bacteria.Firmicutes.Bacilli.Lactobacillales.Streptococcaceae'
p17
(lp18
F0.0
aF159.2006610617926
aF0.0
aF4050.264825007788
aF4245.177627169137
aF1537.838931606637
aF2202.328758743041
aF0.0
aF417.41762828765144
aF1480.2901591311922
aF530.8726164682729
aF49.87076965775642
asS'Bacteria.Actinobacteriota.Actinobacteria.Bifidobacteriales'
p19
(lp20
F19116.879928810333
aF10484.500678498056
aF5996.748242150384
aF7685.117873091701
aF10426.752066731213
aF4613.516794819911
aF163.13546361059562
aF0.0
aF0.0
aF795.7950855479717
aF0.0
aF86.73177331783727
asS'Bacteria.Firmicutes.Bacilli.RF39'
p21
(lp22
F3590.168461750897
aF1561.6826751775845
aF1784.243755146857
aF4257.9707134697255
aF26960.601772547852
aF12221.772561715905
aF2079.977161035094
aF2813.2992327365723
aF0.0
aF0.0
aF0.0
aF32.52441499418897
asS'Bacteria.Firmicutes.Clostridia.Peptostreptococcales_Tissierellales.Anaerovoracaceae'
p23
(lp24
F1963.8528337782689
aF341.14427370384124
aF380.0755928123482
aF0.0
aF0.0
aF1295.022258195063
aF203.91932951324452
aF0.0
aF628.0769920963728
aF0.0
aF453.18394088755
aF635.310239553158
asS'Bacteria.Proteobacteria.Gammaproteobacteria'
p25
(lp26
F6628.003314001657
aF11485.190548029323
aF13746.067273379927
aF21912.971232734446
aF122737.76718552172
aF35370.29542695265
aF23389.547095169146
aF31457.80051150894
aF3452.472906865155
aF43298.48715458737
aF12136.697540721814
aF6899.512567433954
asS'Bacteria.Proteobacteria.Alphaproteobacteria.Rhodospirillales'
p27
(lp28
F0.0
aF0.0
aF0.0
aF0.0
aF0.0
aF0.0
aF0.0
aF0.0
aF0.0
aF767.9700825567838
aF0.0
aF12027.528664851081
asS'Bacteria.Proteobacteria.Gammaproteobacteria.Pasteurellales'
p29
(lp30
F0.0
aF0.0
aF0.0
aF0.0
aF670.2912042898637
aF1375.9611493322543
aF0.0
aF0.0
aF105.32968190436065
aF52.86750568325686
aF0.0
aF52.03906399070235
asS'Bacteria.Bacteroidota.Bacteroidia.Bacteroidales.Prevotellaceae'
p31
(lp32
F9215.788558511562
aF1516.1967720170724
aF263.94138389746405
aF0.0
aF10128.844864824607
aF2509.105625252934
aF897.2450498582759
aF0.0
aF96673.14249155411
aF5161.538054865341
aF217269.32937408827
aF203941.09177956253
asS'Bacteria.Bacteroidota.Bacteroidia.Bacteroidales.Rikenellaceae'
p33
(lp34
F3293.5448566489717
aF98.5527901811097
aF0.0
aF0.0
aF2383.257615252849
aF0.0
aF203.91932951324452
aF0.0
aF26348.024873409326
aF26631.310362865865
aF0.0
aF25815.71232805426
asS'Bacteria.Firmicutes.Bacilli.Lactobacillales.Aerococcaceae'
p35
(lp36
F0.0
aF0.0
aF0.0
aF1246.235330771627
aF819.2448052431668
aF0.0
aF0.0
aF0.0
aF0.0
aF0.0
aF302.1226272583667
aF26.019531995351176
asS'Bacteria.Firmicutes.Clostridia.Clostridiales'
p37
(lp38
F60378.24623850584
aF433677.7627000432
aF235425.15678118204
aF402326.3059507736
aF18768.153720116185
aF16997.1671388102
aF659964.5180366645
aF15089.514066496162
aF0.0
aF25.04250269206904
aF0.0
aF0.0
asS'Bacteria.Firmicutes.Clostridia.Christensenellales.Christensenellaceae'
p39
(lp40
F4500.496077408532
aF576.1547733664876
aF2037.6274836884224
aF41541.177692387566
aF30014.150592090566
aF3723.188992310805
aF3854.0753278003212
aF0.0
aF27.307695308537948
aF89.04000957180104
aF280.54243959705474
aF312.23438394421413
asS'Bacteria.Proteobacteria'
p41
(lp42
F6689.373715057227
aF11796.010886292823
aF14062.796934056885
aF22847.647730813165
aF129813.0632308036
aF36017.806556050185
aF25306.388792593643
aF31457.80051150894
aF3452.472906865155
aF44124.88974342564
aF12136.697540721814
aF18927.041232285035
asS'Bacteria.Bacteroidota.Bacteroidia'
p43
(lp44
F391410.1895322553
aF34758.81099849138
aF45756.87831246437
aF1973.2059403884095
aF212556.78856036343
aF32942.12869283691
aF22064.071453333057
aF562659.8465473144
aF653184.4673829084
aF748130.8554240669
aF784336.2365879135
aF869551.0763413068
asS'Bacteria.Proteobacteria.Alphaproteobacteria.Rhizobiales.Rhizobiaceae'
p45
(lp46
F0.0
aF0.0
aF221.7107624738698
aF934.6764980787203
aF6107.097639085425
aF647.5111290975315
aF1284.6917759334403
aF0.0
aF0.0
aF36.17250388854417
aF0.0
aF0.0
asS'Bacteria.Desulfobacterota'
p47
(lp48
F0.0
aF0.0
aF0.0
aF1869.3529961574407
aF4617.561629552395
aF0.0
aF0.0
aF0.0
aF0.0
aF0.0
aF0.0
aF0.0
asS'Bacteria.Desulfobacterota.Desulfovibrionia'
p49
(lp50
F0.0
aF0.0
aF0.0
aF1869.3529961574407
aF4617.561629552395
aF0.0
aF0.0
aF0.0
aF0.0
aF0.0
aF0.0
aF0.0
asS'Bacteria.Firmicutes.Clostridia.Monoglobales'
p51
(lp52
F7804.269334233432
aF4017.9214458452416
aF9290.736713190734
aF2284.764773081316
aF0.0
aF78106.02994738972
aF1957.6255633271471
aF26086.956521739125
aF908.9561438413346
aF0.0
aF2956.485709599731
aF284.04655761591704
asS'Bacteria.Cyanobacteria.Vampirivibrionia'
p53
(lp54
F286.3952049259975
aF0.0
aF0.0
aF519.2647211548447
aF0.0
aF0.0
aF0.0
aF0.0
aF241.86815844705038
aF573.1950616184691
aF0.0
aF4789.762181477562
asS'Bacteria.Firmicutes.Clostridia.Oscillospirales.Butyricicoccaceae'
p55
(lp56
F623.9324107316376
aF621.6406765269996
aF707.3629088452036
aF0.0
aF8639.308855291578
aF4208.822339133953
aF285.4870613185423
aF0.0
aF1591.648526554783
aF0.0
aF0.0
aF80.22689031899947
asS'Bacteria.Deferribacterota'
p57
(lp58
F0.0
aF0.0
aF0.0
aF0.0
aF0.0
aF0.0
aF0.0
aF0.0
aF253.57145643642377
aF258.77252781804674
aF0.0
aF136.60254297559368
asS'Bacteria.Actinobacteriota.Coriobacteriia.Coriobacteriales'
p59
(lp60
F8192.948540918715
aF3343.2138822976444
aF6704.111150995586
aF14020.147471180804
aF15044.313696283607
aF18939.700526102795
aF18515.875119802604
aF3324.8081841432218
aF132.6373772128986
aF319.98753439866
aF86.32075064524761
aF372.9466252667002
asS'Bacteria.Firmicutes.Bacilli.Erysipelotrichales'
p61
(lp62
F45577.751183937326
aF89061.39838828283
aF73301.80113600372
aF132412.50389448536
aF72912.78766664185
aF39012.54552812626
aF89255.49052794711
aF7161.125319693093
aF663.186886064493
aF7128.76576634232
aF630.1414797103076
aF4421.152144876754
asS'Bacteria.Actinobacteriota.Actinobacteria.Micrococcales'
p63
(lp64
F0.0
aF341.14427370384124
aF0.0
aF0.0
aF0.0
aF0.0
aF0.0
aF0.0
aF0.0
aF0.0
aF8.632075064524761
aF0.0
asS'Bacteria.Firmicutes.Clostridia.Clostridia_UCG_014.Clostridia_UCG_014'
p65
(lp66
F237708.02008857793
aF57092.38945030286
aF98925.23068476951
aF69996.88441167305
aF280256.20019363967
aF268069.607446378
aF36419.99225106547
aF61636.82864450126
aF5742.418213452551
aF38.95500418766295
aF0.0
aF9690.107373935367
asS'Bacteria.Desulfobacterota.Desulfovibrionia.Desulfovibrionales'
p67
(lp68
F0.0
aF0.0
aF0.0
aF1869.3529961574407
aF4617.561629552395
aF0.0
aF0.0
aF0.0
aF0.0
aF0.0
aF0.0
aF0.0
asS'Bacteria.Firmicutes.Bacilli.RF39.RF39'
p69
(lp70
F3590.168461750897
aF1561.6826751775845
aF1784.243755146857
aF4257.9707134697255
aF26960.601772547852
aF12221.772561715905
aF2079.977161035094
aF2813.2992327365723
aF0.0
aF0.0
aF0.0
aF32.52441499418897
asS'Bacteria.Firmicutes.Clostridia.Clostridia_vadinBB60_group'
p71
(lp72
F306.85200527785446
aF0.0
aF158.3648303384784
aF0.0
aF0.0
aF566.5722379603399
aF0.0
aF0.0
aF2379.6705911725926
aF247.64252662157162
aF38.84433779036143
aF2781.9216291696303
asS'Bacteria.Bacteroidota.Bacteroidia.Bacteroidales.Tannerellaceae'
p73
(lp74
F644.3892110834944
aF280.4964028231584
aF0.0
aF0.0
aF1117.152007149773
aF0.0
aF0.0
aF0.0
aF6682.583151932215
aF81791.5962925966
aF22931.10740891003
aF8215.667227532134
asS'Bacteria.Proteobacteria.Gammaproteobacteria.Burkholderiales.Sutterellaceae'
p75
(lp76
F1063.753618296562
aF0.0
aF0.0
aF0.0
aF2830.118418112758
aF0.0
aF0.0
aF0.0
aF624.1758927665816
aF41364.64944669981
aF4980.7073122307875
aF6481.031761175389
asS'Bacteria.Bacteroidota.Bacteroidia.Bacteroidales.Muribaculaceae'
p77
(lp78
F375637.9964609736
aF32416.286985725004
aF45492.9369285669
aF1973.2059403884095
aF166679.07946674613
aF30433.023067583974
aF19535.471767368825
aF562659.8465473144
aF419044.38670817437
aF313226.0586718013
aF479183.7509818986
aF564916.5640340683
asS'Bacteria.Campilobacterota.Campylobacteria.Campylobacterales'
p79
(lp80
F0.0
aF0.0
aF0.0
aF0.0
aF0.0
aF0.0
aF0.0
aF0.0
aF0.0
aF19.477502093831475
aF0.0
aF0.0
asS'Bacteria.Proteobacteria.Alphaproteobacteria.Rhizobiales'
p81
(lp82
F61.3704010555709
aF310.8203382634998
aF221.7107624738698
aF934.6764980787203
aF6107.097639085425
aF647.5111290975315
aF1284.6917759334403
aF0.0
aF0.0
aF36.17250388854417
aF0.0
aF0.0
asS'Bacteria.Cyanobacteria'
p83
(lp84
F286.3952049259975
aF0.0
aF0.0
aF519.2647211548447
aF0.0
aF0.0
aF0.0
aF0.0
aF241.86815844705038
aF573.1950616184691
aF0.0
aF4789.762181477562
asS'Bacteria.Firmicutes.Clostridia.Peptostreptococcales_Tissierellales'
p85
(lp86
F0.0
aF0.0
aF253.3837285415655
aF0.0
aF0.0
aF0.0
aF0.0
aF0.0
aF0.0
aF0.0
aF0.0
aF0.0
asS'Bacteria.Actinobacteriota.Actinobacteria.Corynebacteriales'
p87
(lp88
F0.0
aF0.0
aF0.0
aF5919.617821165229
aF0.0
aF0.0
aF0.0
aF0.0
aF0.0
aF0.0
aF0.0
aF0.0
asS'Bacteria.Verrucomicrobiota'
p89
(lp90
F91288.47157016171
aF3494.833559499352
aF11001.076880846302
aF0.0
aF893.7216057198183
aF21205.98947794415
aF24368.359876832717
aF9974.424552429664
aF30358.354984434613
aF3823.1554109892068
aF152571.92676547516
aF3141.8584884386546
asS'Bacteria.Firmicutes.Bacilli.Staphylococcales'
p91
(lp92
F0.0
aF113.71475790128044
aF0.0
aF5711.911932703291
aF0.0
aF1618.7778227438284
aF0.0
aF0.0
aF0.0
aF0.0
aF0.0
aF0.0
asS'Bacteria.Firmicutes.Bacilli.Staphylococcales.Staphylococcaceae'
p93
(lp94
F0.0
aF113.71475790128044
aF0.0
aF5711.911932703291
aF0.0
aF1618.7778227438284
aF0.0
aF0.0
aF0.0
aF0.0
aF0.0
aF0.0
asS'Bacteria.Cyanobacteria.Vampirivibrionia.Gastranaerophilales'
p95
(lp96
F286.3952049259975
aF0.0
aF0.0
aF519.2647211548447
aF0.0
aF0.0
aF0.0
aF0.0
aF241.86815844705038
aF573.1950616184691
aF0.0
aF4789.762181477562
asS'Bacteria.Verrucomicrobiota.Verrucomicrobiae.Verrucomicrobiales'
p97
(lp98
F91288.47157016171
aF3494.833559499352
aF11001.076880846302
aF0.0
aF893.7216057198183
aF21205.98947794415
aF24368.359876832717
aF9974.424552429664
aF30358.354984434613
aF3823.1554109892068
aF152571.92676547516
aF3141.8584884386546
asS'Bacteria.Bacteroidota.Bacteroidia.Bacteroidales'
p99
(lp100
F391410.1895322553
aF34758.81099849138
aF45756.87831246437
aF1973.2059403884095
aF212556.78856036343
aF32942.12869283691
aF20820.163543302264
aF562659.8465473144
aF653184.4673829084
aF748130.8554240669
aF784336.2365879135
aF869551.0763413068
asS'Bacteria.Actinobacteriota.Coriobacteriia'
p101
(lp102
F8192.948540918715
aF3343.2138822976444
aF6704.111150995586
aF14020.147471180804
aF15044.313696283607
aF18939.700526102795
aF18515.875119802604
aF3324.8081841432218
aF132.6373772128986
aF319.98753439866
aF86.32075064524761
aF372.9466252667002
asS'Bacteria.Firmicutes.Bacilli.Lactobacillales'
p103
(lp104
F664.8460114353514
aF18944.87866635332
aF48839.713676386746
aF32713.67743275521
aF16384.896104863335
aF3318.494536624848
aF4812.49617651257
aF0.0
aF10216.979144722984
aF51634.858050747236
aF8260.895836750198
aF23664.764349771896
asS'Bacteria.Deferribacterota.Deferribacteres.Deferribacterales'
p105
(lp106
F0.0
aF0.0
aF0.0
aF0.0
aF0.0
aF0.0
aF0.0
aF0.0
aF253.57145643642377
aF258.77252781804674
aF0.0
aF136.60254297559368
asS'Bacteria.Proteobacteria.Gammaproteobacteria.Pseudomonadales.Moraxellaceae'
p107
(lp108
F0.0
aF0.0
aF0.0
aF0.0
aF0.0
aF0.0
aF2732.5190154774764
aF0.0
aF0.0
aF30.607503290306607
aF0.0
aF0.0
asS'Bacteria.Firmicutes.Clostridia.Peptococcales'
p109
(lp110
F153.42600263892723
aF242.59148352273158
aF211.15310711797125
aF0.0
aF0.0
aF0.0
aF81.56773180529781
aF0.0
aF1817.912287682669
aF180.86251944272084
aF215.80187661311908
aF604.9541188919148
asS'Bacteria.Patescibacteria'
p111
(lp112
F3794.736465269467
aF5625.090024183339
aF15361.388542832408
aF3738.7059923148813
aF15193.267297236911
aF32456.495346013762
aF550.5821896857602
aF12531.969309462913
aF0.0
aF41.73750448678173
aF0.0
aF1051.6227514787768
asS'Bacteria.Firmicutes.Clostridia.Lachnospirales.Defluviitaleaceae'
p113
(lp114
F0.0
aF0.0
aF0.0
aF0.0
aF0.0
aF0.0
aF0.0
aF0.0
aF0.0
aF55.650005982375646
aF0.0
aF134.43424864264773
asS'Bacteria.Gemmatimonadota.Gemmatimonadetes.Gemmatimonadales'
p115
(lp116
F0.0
aF0.0
aF0.0
aF0.0
aF0.0
aF0.0
aF0.0
aF2813.2992327365723
aF0.0
aF0.0
aF0.0
aF0.0
asS'Bacteria.Bacteroidota.Bacteroidia.Bacteroidales.Bacteroidaceae'
p117
(lp118
F2618.4704450376917
aF447.27804774503636
aF0.0
aF0.0
aF32248.454606390107
aF0.0
aF183.52739656192006
aF0.0
aF104436.33015783847
aF321320.3520419378
aF64952.04882301658
aF66662.04097208972
asS'Bacteria.Proteobacteria.Gammaproteobacteria.Enterobacterales.Enterobacteriaceae'
p119
(lp120
F3539.026460871255
aF5534.118217862314
aF7780.99199729724
aF15577.94163464534
aF9011.692857674834
aF27842.97855119385
aF6647.770142131771
aF18414.32225063938
aF2512.307968385491
aF1249.3426343043332
aF6784.811000716463
aF273.20508595118736
asS'Bacteria.Proteobacteria.Alphaproteobacteria.Rhizobiales.Beijerinckiaceae'
p121
(lp122
F61.3704010555709
aF310.8203382634998
aF0.0
aF0.0
aF0.0
aF0.0
aF0.0
aF0.0
aF0.0
aF0.0
aF0.0
aF0.0
asS'Bacteria.Proteobacteria.Alphaproteobacteria'
p123
(lp124
F61.3704010555709
aF310.8203382634998
aF316.7296606769568
aF934.6764980787203
aF7075.296045281894
aF647.5111290975315
aF1916.8416974244985
aF0.0
aF0.0
aF826.4025888382783
aF0.0
aF12027.528664851081
asS'Bacteria.Firmicutes.Bacilli.Acholeplasmatales.Acholeplasmataceae'
p125
(lp126
F0.0
aF0.0
aF0.0
aF0.0
aF297.90720190660613
aF0.0
aF61.17579885397335
aF0.0
aF0.0
aF1480.2901591311922
aF0.0
aF0.0
asS'Bacteria.Proteobacteria.Gammaproteobacteria.Burkholderiales.Oxalobacteraceae'
p127
(lp128
F0.0
aF0.0
aF0.0
aF0.0
aF0.0
aF0.0
aF428.2305919778135
aF13043.478260869562
aF0.0
aF0.0
aF0.0
aF0.0
asS'Bacteria.Firmicutes.Clostridia.Monoglobales.Monoglobaceae'
p129
(lp130
F7804.269334233432
aF4017.9214458452416
aF9290.736713190734
aF2284.764773081316
aF0.0
aF78106.02994738972
aF1957.6255633271471
aF26086.956521739125
aF908.9561438413346
aF0.0
aF2956.485709599731
aF284.04655761591704
asS'Bacteria.Firmicutes.Clostridia.uncultured'
p131
(lp132
F0.0
aF0.0
aF0.0
aF0.0
aF0.0
aF0.0
aF0.0
aF0.0
aF0.0
aF141.9075152550579
aF0.0
aF0.0
asS'Bacteria.Firmicutes.Clostridia.Peptococcales.Peptococcaceae'
p133
(lp134
F153.42600263892723
aF242.59148352273158
aF211.15310711797125
aF0.0
aF0.0
aF0.0
aF81.56773180529781
aF0.0
aF1817.912287682669
aF180.86251944272084
aF215.80187661311908
aF604.9541188919148
asS'Bacteria.Firmicutes.Bacilli.Lactobacillales.Lactobacillaceae'
p135
(lp136
F664.8460114353514
aF18785.678005291527
aF48839.713676386746
aF27417.177276975795
aF11320.473672451031
aF1780.6556050182112
aF2610.16741776953
aF0.0
aF9799.561516435331
aF50154.56789161605
aF7272.523241862113
aF23588.87404811879
asS'Bacteria.Firmicutes.Clostridia.Oscillospirales.UCG_010'
p137
(lp138
F1534.2600263892725
aF45.48590316051217
aF0.0
aF0.0
aF0.0
aF0.0
aF0.0
aF0.0
aF0.0
aF0.0
aF0.0
aF4171.798296587972
asS'Bacteria.Firmicutes.Clostridia.Eubacteriales.Anaerofustaceae'
p139
(lp140
F327.30880562971146
aF75.80983860085361
aF190.0377964061741
aF0.0
aF0.0
aF404.6944556859571
aF0.0
aF0.0
aF0.0
aF0.0
aF0.0
aF0.0
asS'Bacteria.Proteobacteria.Gammaproteobacteria.Pseudomonadales.Pseudomonadaceae'
p141
(lp142
F388.67920668528234
aF773.260353728707
aF3241.2001942608586
aF0.0
aF28077.75377969762
aF971.266693646297
aF2671.3432166235034
aF0.0
aF101.4285825745695
aF175.29751884448328
aF21.580187661311903
aF0.0
asS'Bacteria.Proteobacteria.Alphaproteobacteria.Caulobacterales.Caulobacteraceae'
p143
(lp144
F0.0
aF0.0
aF0.0
aF0.0
aF968.1984061964698
aF0.0
aF632.1499214910581
aF0.0
aF0.0
aF0.0
aF0.0
aF0.0
asS'Bacteria.Proteobacteria.Alphaproteobacteria.Sphingomonadales.Sphingomonadaceae'
p145
(lp146
F0.0
aF0.0
aF95.01889820308705
aF0.0
aF0.0
aF0.0
aF0.0
aF0.0
aF0.0
aF22.26000239295026
aF0.0
aF0.0
asS'Bacteria.Firmicutes.Clostridia'
p147
(lp148
F715.9880123149939
aF0.0
aF0.0
aF0.0
aF0.0
aF0.0
aF0.0
aF0.0
aF0.0
aF0.0
aF0.0
aF0.0
asS'Bacteria.Actinobacteriota.Actinobacteria.Micrococcales.Micrococcaceae'
p149
(lp150
F0.0
aF341.14427370384124
aF0.0
aF0.0
aF0.0
aF0.0
aF0.0
aF0.0
aF0.0
aF0.0
aF8.632075064524761
aF0.0
asS'Bacteria.Campilobacterota.Campylobacteria'
p151
(lp152
F0.0
aF0.0
aF0.0
aF0.0
aF0.0
aF0.0
aF0.0
aF0.0
aF0.0
aF19.477502093831475
aF0.0
aF0.0
asS'Bacteria.Patescibacteria.Saccharimonadia.Saccharimonadales.Saccharimonadaceae'
p153
(lp154
F3794.736465269467
aF5625.090024183339
aF15361.388542832408
aF3738.7059923148813
aF15193.267297236911
aF32456.495346013762
aF550.5821896857602
aF12531.969309462913
aF0.0
aF41.73750448678173
aF0.0
aF1051.6227514787768
asS'Bacteria.Firmicutes.Bacilli.Erysipelotrichales.Erysipelotrichaceae'
p155
(lp156
F45577.751183937326
aF89061.39838828283
aF73301.80113600372
aF130854.70973102083
aF72168.01966187533
aF37798.46216106839
aF89255.49052794711
aF5370.84398976982
aF50.71429128728475
aF5887.770632935342
aF405.7075280326638
aF3842.2175579801906
asS'Bacteria.Actinobacteriota'
p157
(lp158
F27309.828469729047
aF14168.85883449954
aF12700.85939314597
aF27624.883165437735
aF25471.06576301482
aF23553.217320922704
aF18679.010583413197
aF3324.8081841432218
aF132.6373772128986
aF1115.7826199466317
aF94.95282570977238
aF459.6783985845375
asS'Bacteria.Proteobacteria.Gammaproteobacteria.Pasteurellales.Pasteurellaceae'
p159
(lp160
F0.0
aF0.0
aF0.0
aF0.0
aF670.2912042898637
aF1375.9611493322543
aF0.0
aF0.0
aF105.32968190436065
aF52.86750568325686
aF0.0
aF52.03906399070235
asS'Bacteria.Proteobacteria.Gammaproteobacteria.Burkholderiales'
p161
(lp162
F2700.2976464451194
aF5177.811976438302
aF2723.875081821829
aF6335.029598089104
aF84978.0293438594
aF5180.089032780252
aF11337.914720936396
aF13043.478260869562
aF733.4066740007335
aF41790.371992464985
aF5114.504475730922
aF6574.268417492064
asS'Bacteria.Firmicutes'
p163
(lp164
F479221.00504260126
aF930156.3956970336
aF901116.9999366541
aF941426.9394537333
aF611454.5319133091
aF853824.3626062323
aF909031.5871041416
aF377237.851662404
aF312376.6277336954
aF201912.1342055544
aF50860.18628017989
aF101942.35806345298
asS'Bacteria.Firmicutes.Clostridia.Oscillospirales'
p165
(lp166
F163.65440281485573
aF0.0
aF0.0
aF0.0
aF0.0
aF0.0
aF0.0
aF0.0
aF0.0
aF0.0
aF0.0
aF0.0
asS'Bacteria.Actinobacteriota.Coriobacteriia.Coriobacteriales.Atopobiaceae'
p167
(lp168
F6249.5525074923025
aF742.9364182883654
aF1541.41768196119
aF3219.4412711600366
aF0.0
aF3804.1278834479967
aF530.1902567344357
aF0.0
aF0.0
aF89.04000957180104
aF0.0
aF91.06836198372912
asS'Bacteria.Proteobacteria.Gammaproteobacteria.Burkholderiales.Comamonadaceae'
p169
(lp170
F0.0
aF576.1547733664876
aF263.94138389746405
aF1557.7941634645338
aF65837.49162135995
aF3561.3112100364224
aF5628.173494565549
aF0.0
aF0.0
aF0.0
aF0.0
aF0.0
asS'Bacteria.Firmicutes.Bacilli.Erysipelotrichales.Erysipelatoclostridiaceae'
p171
(lp172
F0.0
aF0.0
aF0.0
aF1557.7941634645338
aF744.7680047665152
aF1214.083367057871
aF0.0
aF1790.2813299232732
aF612.4725947772082
aF1240.9951334069767
aF224.43395167764382
aF578.9345868965637
asS'Bacteria.Firmicutes.Clostridia.Oscillospirales._Eubacterium__coprostanoligenes_group'
p173
(lp174
F37517.77184530568
aF116307.45438142963
aF136320.44595536226
aF10073.735590403985
aF4617.561629552395
aF13273.978146499392
aF2161.544892840392
aF69309.462915601
aF21229.782552723354
aF498.067553542262
aF0.0
aF7933.788964249164
asS'Bacteria.Actinobacteriota.Coriobacteriia.Coriobacteriales.Eggerthellaceae'
p175
(lp176
F1943.3960334264118
aF2600.2774640092794
aF4381.426972697903
aF5504.206044241352
aF8639.308855291578
aF7203.561311210036
aF13703.378943290032
aF0.0
aF97.52748324477838
aF230.94752482685894
aF56.108487919410955
aF281.8782632829711
asS'Bacteria.Firmicutes.Bacilli.Lactobacillales.Enterococcaceae'
p177
(lp178
F0.0
aF0.0
aF0.0
aF0.0
aF0.0
aF0.0
aF0.0
aF0.0
aF0.0
aF0.0
aF155.37735116144572
aF0.0
asS'Bacteria.Firmicutes.Clostridia.Christensenellales'
p179
(lp180
F4500.496077408532
aF576.1547733664876
aF2037.6274836884224
aF41541.177692387566
aF30014.150592090566
aF3723.188992310805
aF3854.0753278003212
aF0.0
aF27.307695308537948
aF89.04000957180104
aF280.54243959705474
aF312.23438394421413
asS'Bacteria.Firmicutes.Clostridia.Clostridia_UCG_014'
p181
(lp182
F237708.02008857793
aF57092.38945030286
aF98925.23068476951
aF69996.88441167305
aF280256.20019363967
aF268069.607446378
aF36419.99225106547
aF61636.82864450126
aF5742.418213452551
aF38.95500418766295
aF0.0
aF9690.107373935367
asS'Bacteria.Proteobacteria.Alphaproteobacteria.Caulobacterales'
p183
(lp184
F0.0
aF0.0
aF0.0
aF0.0
aF968.1984061964698
aF0.0
aF632.1499214910581
aF0.0
aF0.0
aF0.0
aF0.0
aF0.0
asS'Bacteria.Cyanobacteria.Vampirivibrionia.Gastranaerophilales.Gastranaerophilales'
p185
(lp186
F286.3952049259975
aF0.0
aF0.0
aF519.2647211548447
aF0.0
aF0.0
aF0.0
aF0.0
aF241.86815844705038
aF573.1950616184691
aF0.0
aF4789.762181477562
asS'Bacteria.Bacteroidota'
p187
(lp188
F391410.1895322553
aF34758.81099849138
aF45756.87831246437
aF1973.2059403884095
aF212556.78856036343
aF32942.12869283691
aF22064.071453333057
aF562659.8465473144
aF653184.4673829084
aF748130.8554240669
aF784336.2365879135
aF869551.0763413068
asS'Bacteria.Proteobacteria.Gammaproteobacteria.Burkholderiales.Alcaligenaceae'
p189
(lp190
F102.28400175928483
aF75.80983860085361
aF179.48014105027556
aF0.0
aF3500.4096224026216
aF0.0
aF1121.5563123228446
aF0.0
aF0.0
aF0.0
aF0.0
aF0.0
asS'Bacteria.Firmicutes.Clostridia.Eubacteriales'
p191
(lp192
F327.30880562971146
aF75.80983860085361
aF190.0377964061741
aF0.0
aF0.0
aF404.6944556859571
aF0.0
aF0.0
aF0.0
aF0.0
aF0.0
aF0.0
asS'Bacteria.Bacteroidota.Bacteroidia.Flavobacteriales'
p193
(lp194
F0.0
aF0.0
aF0.0
aF0.0
aF0.0
aF0.0
aF1243.9079100307915
aF0.0
aF0.0
aF0.0
aF0.0
aF0.0
asS'Bacteria.Proteobacteria.Alphaproteobacteria.Rhodospirillales.uncultured'
p195
(lp196
F0.0
aF0.0
aF0.0
aF0.0
aF0.0
aF0.0
aF0.0
aF0.0
aF0.0
aF767.9700825567838
aF0.0
aF12027.528664851081
asS'Bacteria.Gemmatimonadota'
p197
(lp198
F0.0
aF0.0
aF0.0
aF0.0
aF0.0
aF0.0
aF0.0
aF2813.2992327365723
aF0.0
aF0.0
aF0.0
aF0.0
asS'Bacteria.Campilobacterota'
p199
(lp200
F0.0
aF0.0
aF0.0
aF0.0
aF0.0
aF0.0
aF0.0
aF0.0
aF0.0
aF19.477502093831475
aF0.0
aF0.0
asS'Bacteria.Proteobacteria.Gammaproteobacteria.Burkholderiales.Burkholderiaceae'
p201
(lp202
F1534.2600263892725
aF4525.847364470961
aF2280.4535568740894
aF4777.235434624571
aF12810.009681984062
aF1618.7778227438284
aF4159.954322070188
aF0.0
aF109.23078123415179
aF425.72254576517366
aF133.79716350013382
aF93.23665631667505
asS'Bacteria.Firmicutes.Bacilli'
p203
(lp204
F143.19760246299876
aF1425.224965696048
aF654.5746320657108
aF934.6764980787203
aF0.0
aF0.0
aF1427.4353065927114
aF0.0
aF1829.6155856720425
aF4769.205512689592
aF4117.499805778312
aF2831.7923988273865
asS'Bacteria.Verrucomicrobiota.Verrucomicrobiae'
p205
(lp206
F91288.47157016171
aF3494.833559499352
aF11001.076880846302
aF0.0
aF893.7216057198183
aF21205.98947794415
aF24368.359876832717
aF9974.424552429664
aF30358.354984434613
aF3823.1554109892068
aF152571.92676547516
aF3141.8584884386546
asS'Bacteria.Gemmatimonadota.Gemmatimonadetes.Gemmatimonadales.Gemmatimonadaceae'
p207
(lp208
F0.0
aF0.0
aF0.0
aF0.0
aF0.0
aF0.0
aF0.0
aF2813.2992327365723
aF0.0
aF0.0
aF0.0
aF0.0
asS'Bacteria.Actinobacteriota.Actinobacteria.Bifidobacteriales.Bifidobacteriaceae'
p209
(lp210
F19116.879928810333
aF10484.500678498056
aF5996.748242150384
aF7685.117873091701
aF10426.752066731213
aF4613.516794819911
aF163.13546361059562
aF0.0
aF0.0
aF795.7950855479717
aF0.0
aF86.73177331783727
asS'Bacteria.Proteobacteria.Gammaproteobacteria.Enterobacterales'
p211
(lp212
F3539.026460871255
aF5534.118217862314
aF7780.99199729724
aF15577.94163464534
aF9011.692857674834
aF27842.97855119385
aF6647.770142131771
aF18414.32225063938
aF2512.307968385491
aF1249.3426343043332
aF7000.612877329582
aF273.20508595118736
asS'Bacteria.Proteobacteria.Alphaproteobacteria.Sphingomonadales'
p213
(lp214
F0.0
aF0.0
aF95.01889820308705
aF0.0
aF0.0
aF0.0
aF0.0
aF0.0
aF0.0
aF22.26000239295026
aF0.0
aF0.0
asS'Bacteria.Campilobacterota.Campylobacteria.Campylobacterales.Helicobacteraceae'
p215
(lp216
F0.0
aF0.0
aF0.0
aF0.0
aF0.0
aF0.0
aF0.0
aF0.0
aF0.0
aF19.477502093831475
aF0.0
aF0.0
asS'Bacteria.Verrucomicrobiota.Verrucomicrobiae.Verrucomicrobiales.Akkermansiaceae'
p217
(lp218
F91288.47157016171
aF3494.833559499352
aF11001.076880846302
aF0.0
aF893.7216057198183
aF21205.98947794415
aF24368.359876832717
aF9974.424552429664
aF30358.354984434613
aF3823.1554109892068
aF152571.92676547516
aF3141.8584884386546
asS'Bacteria.Firmicutes.Clostridia.Clostridia_vadinBB60_group.Clostridia_vadinBB60_group'
p219
(lp220
F306.85200527785446
aF0.0
aF158.3648303384784
aF0.0
aF0.0
aF566.5722379603399
aF0.0
aF0.0
aF2379.6705911725926
aF247.64252662157162
aF38.84433779036143
aF2781.9216291696303
asS'Bacteria.Desulfobacterota.Desulfovibrionia.Desulfovibrionales.Desulfovibrionaceae'
p221
(lp222
F0.0
aF0.0
aF0.0
aF1869.3529961574407
aF4617.561629552395
aF0.0
aF0.0
aF0.0
aF0.0
aF0.0
aF0.0
aF0.0
asS'Bacteria.Proteobacteria.Gammaproteobacteria.Pseudomonadales'
p223
(lp224
F388.67920668528234
aF773.260353728707
aF3241.2001942608586
aF0.0
aF28077.75377969762
aF971.266693646297
aF5403.86223210098
aF0.0
aF101.4285825745695
aF205.9050221347899
aF21.580187661311903
aF0.0
asS'Bacteria.Deferribacterota.Deferribacteres'
p225
(lp226
F0.0
aF0.0
aF0.0
aF0.0
aF0.0
aF0.0
aF0.0
aF0.0
aF253.57145643642377
aF258.77252781804674
aF0.0
aF136.60254297559368
asS'Bacteria.Actinobacteriota.Actinobacteria'
p227
(lp228
F19116.879928810333
aF10825.644952201896
aF5996.748242150384
aF13604.73569425693
aF10426.752066731213
aF4613.516794819911
aF163.13546361059562
aF0.0
aF0.0
aF795.7950855479717
aF8.632075064524761
aF86.73177331783727
asS'Bacteria.Actinobacteriota.Coriobacteriia.Coriobacteriales.uncultured'
p229
(lp230
F0.0
aF0.0
aF781.2664963364936
aF5296.500155779415
aF5958.144038132122
aF7932.01133144476
aF3894.8591937029705
aF3324.8081841432218
aF35.10989396812022
aF0.0
aF30.212262725836666
aF0.0
asS'Bacteria.Firmicutes.Clostridia.uncultured.uncultured'
p231
(lp232
F0.0
aF0.0
aF0.0
aF0.0
aF0.0
aF0.0
aF0.0
aF0.0
aF0.0
aF141.9075152550579
aF0.0
aF0.0
asS'Bacteria.Firmicutes.Clostridia.Oscillospirales.Ruminococcaceae'
p233
(lp234
F21899.00477666288
aF796.003305308963
aF2449.3760425684663
aF11112.265032713674
aF16682.803306769943
aF53500.60704168353
aF38642.712942759834
aF63427.10997442454
aF13552.419071694403
aF139.12501495593912
aF2719.1036453253
aF7337.508022689031
asS'Bacteria.Bacteroidota.Bacteroidia.Flavobacteriales.Weeksellaceae'
p235
(lp236
F0.0
aF0.0
aF0.0
aF0.0
aF0.0
aF0.0
aF1243.9079100307915
aF0.0
aF0.0
aF0.0
aF0.0
aF0.0
asS'Bacteria.Gemmatimonadota.Gemmatimonadetes'
p237
(lp238
F0.0
aF0.0
aF0.0
aF0.0
aF0.0
aF0.0
aF0.0
aF2813.2992327365723
aF0.0
aF0.0
aF0.0
aF0.0
asS'Bacteria.Firmicutes.Clostridia.Lachnospirales.Lachnospiraceae'
p239
(lp240
F23453.72160340401
aF52134.426005807036
aF71274.73130767119
aF52134.1780039464
aF100394.72704252625
aF135572.64265479564
aF10297.92614041885
aF88746.80306905368
aF190869.08690869086
aF16224.75924416162
aF21437.758422747247
aF18176.811393085743
asS'Bacteria.Patescibacteria.Saccharimonadia'
p241
(lp242
F3794.736465269467
aF5625.090024183339
aF15361.388542832408
aF3738.7059923148813
aF15193.267297236911
aF32456.495346013762
aF550.5821896857602
aF12531.969309462913
aF0.0
aF41.73750448678173
aF0.0
aF1051.6227514787768
asS'Bacteria.Firmicutes.Clostridia.Peptostreptococcales_Tissierellales.Peptostreptococcaceae'
p243
(lp244
F14892.550656151872
aF151028.36046062058
aF211881.58533752823
aF168137.91670993867
aF16980.710508676548
aF17725.617159044923
aF56037.03175023959
aF8184.143222506391
aF2516.2090677152823
aF116169.38748820915
aF1277.5471095496648
aF13057.4684730004
asS'Bacteria.Firmicutes.Clostridia.Lachnospirales'
p245
(lp246
F23453.72160340401
aF52134.426005807036
aF71274.73130767119
aF52134.1780039464
aF100394.72704252625
aF135572.64265479564
aF10297.92614041885
aF88746.80306905368
aF190869.08690869086
aF16280.409250143995
aF21437.758422747247
aF18311.24564172839
asS'Bacteria.Firmicutes.Clostridia.Clostridiales.Clostridiaceae'
p247
(lp248
F60378.24623850584
aF433677.7627000432
aF235425.15678118204
aF402326.3059507736
aF18768.153720116185
aF16997.1671388102
aF659964.5180366645
aF15089.514066496162
aF0.0
aF25.04250269206904
aF0.0
aF0.0
asS'Bacteria.Proteobacteria.Gammaproteobacteria.Enterobacterales.Morganellaceae'
p249
(lp250
F0.0
aF0.0
aF0.0
aF0.0
aF0.0
aF0.0
aF0.0
aF0.0
aF0.0
aF0.0
aF215.80187661311908
aF0.0
asS'Bacteria.Patescibacteria.Saccharimonadia.Saccharimonadales'
p251
(lp252
F3794.736465269467
aF5625.090024183339
aF15361.388542832408
aF3738.7059923148813
aF15193.267297236911
aF32456.495346013762
aF550.5821896857602
aF12531.969309462913
aF0.0
aF41.73750448678173
aF0.0
aF1051.6227514787768
asS'Bacteria.Actinobacteriota.Coriobacteriia.Coriobacteriales.Coriobacteriales_Incertae_Sedis'
p253
(lp254
F0.0
aF0.0
aF0.0
aF0.0
aF446.86080285990914
aF0.0
aF387.4467260751646
aF0.0
aF0.0
aF0.0
aF0.0
aF0.0
asS'Bacteria.Deferribacterota.Deferribacteres.Deferribacterales.Deferribacteraceae'
p255
(lp256
F0.0
aF0.0
aF0.0
aF0.0
aF0.0
aF0.0
aF0.0
aF0.0
aF253.57145643642377
aF258.77252781804674
aF0.0
aF136.60254297559368
asS'Bacteria.Actinobacteriota.Actinobacteria.Corynebacteriales.Corynebacteriaceae'
p257
(lp258
F0.0
aF0.0
aF0.0
aF5919.617821165229
aF0.0
aF0.0
aF0.0
aF0.0
aF0.0
aF0.0
aF0.0
aF0.0
asS'Bacteria.Firmicutes.Clostridia.Oscillospirales._Clostridium__methylpentosum_group'
p259
(lp260
F0.0
aF0.0
aF0.0
aF0.0
aF0.0
aF0.0
aF0.0
aF0.0
aF70.21978793624044
aF0.0
aF0.0
aF0.0
asS'Bacteria.Firmicutes.Clostridia.Oscillospirales.Oscillospiraceae'
p261
(lp262
F15301.686663189012
aF2092.35154538356
aF7031.398467028443
aF7788.97081732267
aF18544.72331868623
aF204208.82233913394
aF1488.611105446685
aF34782.60869565217
aF58333.138278366845
aF3088.575332021848
aF8472.381675831055
aF5791.514163298583
asS'Bacteria'
p263
(lp264
F1000000.0
aF1000000.0
aF1000000.0
aF1000000.0
aF1000000.0
aF1000000.0
aF1000000.0
aF1000000.0
aF1000000.0
aF1000000.0
aF1000000.0
aF1000000.0
assS'subclass_sl'
p265
(dp266
g12
(I0
I8
tp267
sg10
(I8
I12
tp268
ssS'norm'
p269
F1000000.0
sS'cls'
p270
(dp271
S'class'
p272
(S'HSD-NC'
p273
S'HSD-NC'
p274
S'HSD-NC'
p275
S'HSD-NC'
p276
S'HSD-NC'
p277
S'HSD-NC'
p278
S'HSD-NC'
p279
g5
S'NC'
p280
S'NC'
p281
S'NC'
p282
g3
tp283
sS'subclass'
p284
(lp285
S'HSD-NC_subcl'
p286
aS'HSD-NC_subcl'
p287
aS'HSD-NC_subcl'
p288
aS'HSD-NC_subcl'
p289
aS'HSD-NC_subcl'
p290
aS'HSD-NC_subcl'
p291
aS'HSD-NC_subcl'
p292
ag12
aS'NC_subcl'
p293
aS'NC_subcl'
p294
aS'NC_subcl'
p295
ag10
asS'subject'
p296
(S'S210421121688'
p297
S'S210421121689'
p298
S'S210421121690'
p299
S'S210421121698'
p300
S'S210421121699'
p301
S'S210421121700'
p302
S'S210421121701'
p303
S'S210421121702'
p304
S'S210421121673'
p305
S'S210421121674'
p306
S'S210421121675'
p307
S'S210421121676'
p308
tp309
ss.