(dp0
S'class_sl'
p1
(dp2
S'NC'
p3
(I8
I12
tp4
sS'HSD-NC'
p5
(I0
I8
tp6
ssS'class_hierarchy'
p7
(dp8
g3
(lp9
S'NC_subcl'
p10
asg5
(lp11
S'HSD-NC_subcl'
p12
assS'feats'
p13
(dp14
S'Bacteria.Firmicutes.Clostridia.Oscillospirales.Ruminococcaceae.Ruminococcaceae'
p15
(lp16
F0.0
aF0.0
aF95.01889820308705
aF0.0
aF0.0
aF0.0
aF0.0
aF0.0
aF0.0
aF0.0
aF0.0
aF0.0
asS'Bacteria.Firmicutes.Bacilli.Acholeplasmatales'
p17
(lp18
F0.0
aF0.0
aF0.0
aF0.0
aF297.90720190660613
aF0.0
aF61.17579885397335
aF0.0
aF0.0
aF1480.2901591311918
aF0.0
aF0.0
asS'Bacteria.Firmicutes.Clostridia.Peptostreptococcales_Tissierellales.Anaerovoracaceae'
p19
(lp20
F0.0
aF197.1055803622194
aF0.0
aF0.0
aF0.0
aF0.0
aF0.0
aF0.0
aF0.0
aF0.0
aF0.0
aF0.0
asS'Bacteria.Firmicutes.Clostridia.Oscillospirales.UCG_010'
p21
(lp22
F1534.2600263892725
aF45.48590316051217
aF0.0
aF0.0
aF0.0
aF0.0
aF0.0
aF0.0
aF0.0
aF0.0
aF0.0
aF4171.798296587974
asS'Bacteria.Desulfobacterota.Desulfovibrionia.Desulfovibrionales.Desulfovibrionaceae.Desulfovibrio'
p23
(lp24
F0.0
aF0.0
aF0.0
aF1869.352996157441
aF4617.561629552395
aF0.0
aF0.0
aF0.0
aF0.0
aF0.0
aF0.0
aF0.0
asS'Bacteria.Actinobacteriota.Actinobacteria.Bifidobacteriales'
p25
(lp26
F19116.879928810333
aF10484.500678498056
aF5996.748242150384
aF7685.117873091703
aF10426.752066731213
aF4613.516794819911
aF163.13546361059562
aF0.0
aF0.0
aF795.7950855479714
aF0.0
aF86.73177331783731
asS'Bacteria.Cyanobacteria.Vampirivibrionia.Gastranaerophilales.Gastranaerophilales'
p27
(lp28
F286.3952049259975
aF0.0
aF0.0
aF519.2647211548448
aF0.0
aF0.0
aF0.0
aF0.0
aF241.86815844705038
aF573.1950616184689
aF0.0
aF4789.762181477565
asS'Bacteria.Proteobacteria.Alphaproteobacteria.Caulobacterales.Caulobacteraceae.Brevundimonas'
p29
(lp30
F0.0
aF0.0
aF0.0
aF0.0
aF968.1984061964698
aF0.0
aF632.1499214910581
aF0.0
aF0.0
aF0.0
aF0.0
aF0.0
asS'Bacteria.Firmicutes.Clostridia.Lachnospirales.Lachnospiraceae.Lachnospiraceae_UCG_006'
p31
(lp32
F2311.618439759837
aF530.6688702059753
aF2776.6633586013218
aF3219.4412711600376
aF0.0
aF0.0
aF0.0
aF0.0
aF401.8132309684869
aF0.0
aF0.0
aF0.0
asS'Bacteria.Proteobacteria.Alphaproteobacteria.Sphingomonadales.Sphingomonadaceae'
p33
(lp34
F0.0
aF0.0
aF95.01889820308705
aF0.0
aF0.0
aF0.0
aF0.0
aF0.0
aF0.0
aF22.260002392950252
aF0.0
aF0.0
asS'Bacteria.Bacteroidota.Bacteroidia.Bacteroidales.Prevotellaceae.Prevotellaceae_UCG_001'
p35
(lp36
F2311.618439759837
aF439.697063884951
aF0.0
aF0.0
aF8713.785655768228
aF0.0
aF591.3660555884092
aF0.0
aF66443.5237850026
aF4593.907993845108
aF77913.10953240051
aF13623.393293899295
asS'Bacteria.Firmicutes.Clostridia.Peptostreptococcales_Tissierellales.Peptostreptococcaceae.Romboutsia'
p37
(lp38
F14892.550656151872
aF151028.36046062058
aF211881.58533752823
aF168137.91670993873
aF16980.710508676548
aF17725.617159044923
aF56037.03175023959
aF8184.143222506391
aF2516.2090677152823
aF98547.81309388988
aF1277.547109549665
aF13057.468473000405
asS'Bacteria.Proteobacteria.Gammaproteobacteria'
p39
(lp40
F6628.003314001658
aF11485.190548029324
aF13746.067273379927
aF21912.97123273445
aF122737.7671855217
aF35370.29542695265
aF23389.547095169142
aF31457.80051150894
aF3452.4729068651545
aF43298.487154587354
aF12136.69754072182
aF6899.512567433957
asS'Bacteria.Proteobacteria.Alphaproteobacteria.Rhodospirillales'
p41
(lp42
F0.0
aF0.0
aF0.0
aF0.0
aF0.0
aF0.0
aF0.0
aF0.0
aF0.0
aF767.9700825567837
aF0.0
aF12027.528664851086
asS'Bacteria.Actinobacteriota.Actinobacteria.Micrococcales.Micrococcaceae.Rothia'
p43
(lp44
F0.0
aF341.14427370384124
aF0.0
aF0.0
aF0.0
aF0.0
aF0.0
aF0.0
aF0.0
aF0.0
aF8.632075064524765
aF0.0
asS'Bacteria.Firmicutes.Clostridia.Lachnospirales.Lachnospiraceae.Tyzzerella'
p45
(lp46
F0.0
aF0.0
aF0.0
aF0.0
aF0.0
aF0.0
aF0.0
aF0.0
aF2087.0881414382575
aF0.0
aF0.0
aF0.0
asS'Bacteria.Proteobacteria.Alphaproteobacteria.Rhodospirillales.uncultured.uncultured'
p47
(lp48
F0.0
aF0.0
aF0.0
aF0.0
aF0.0
aF0.0
aF0.0
aF0.0
aF0.0
aF767.9700825567837
aF0.0
aF12027.528664851086
asS'Bacteria.Firmicutes.Bacilli.Erysipelotrichales.Erysipelatoclostridiaceae.Erysipelotrichaceae_UCG_003'
p49
(lp50
F0.0
aF0.0
aF0.0
aF1557.7941634645342
aF0.0
aF0.0
aF0.0
aF0.0
aF0.0
aF0.0
aF0.0
aF0.0
asS'Bacteria.Firmicutes.Clostridia.Eubacteriales'
p51
(lp52
F327.30880562971146
aF75.80983860085361
aF190.0377964061741
aF0.0
aF0.0
aF404.69445568595717
aF0.0
aF0.0
aF0.0
aF0.0
aF0.0
aF0.0
asS'Bacteria.Bacteroidota.Bacteroidia.Bacteroidales.Rikenellaceae'
p53
(lp54
F3293.5448566489717
aF98.5527901811097
aF0.0
aF0.0
aF2383.257615252849
aF0.0
aF203.91932951324452
aF0.0
aF26348.024873409326
aF26631.310362865857
aF0.0
aF25815.71232805427
asS'Bacteria.Verrucomicrobiota.Verrucomicrobiae.Verrucomicrobiales.Akkermansiaceae.Akkermansia'
p55
(lp56
F91288.47157016171
aF3494.833559499352
aF11001.076880846302
aF0.0
aF893.7216057198183
aF21205.989477944153
aF24368.359876832717
aF9974.424552429664
aF30358.354984434613
aF3823.155410989206
aF152571.92676547522
aF3141.858488438656
asS'Bacteria.Bacteroidota.Bacteroidia.Bacteroidales.Muribaculaceae.Muribaculum'
p57
(lp58
F327.30880562971146
aF0.0
aF0.0
aF0.0
aF0.0
aF0.0
aF0.0
aF0.0
aF8863.29767728546
aF356.16003828720403
aF14484.621958272555
aF13482.454162257809
asS'Bacteria.Bacteroidota.Bacteroidia.Bacteroidales.Rikenellaceae.Alistipes'
p59
(lp60
F3293.5448566489717
aF98.5527901811097
aF0.0
aF0.0
aF2383.257615252849
aF0.0
aF203.91932951324452
aF0.0
aF26348.024873409326
aF26631.310362865857
aF0.0
aF25815.71232805427
asS'Bacteria.Firmicutes.Clostridia.Lachnospirales.Lachnospiraceae.Lachnospiraceae_NK4A136_group'
p61
(lp62
F4909.632084445671
aF18944.878666353317
aF28495.111805570217
aF0.0
aF4245.177627169137
aF12302.711452853098
aF1264.2998429821162
aF14578.00511508951
aF95455.9995006593
aF0.0
aF427.2877156939758
aF3751.1491959964633
asS'Bacteria.Firmicutes.Clostridia.Lachnospirales.Lachnospiraceae.Roseburia'
p63
(lp64
F1012.6116174169198
aF409.3731284446095
aF285.05669460926117
aF0.0
aF0.0
aF0.0
aF0.0
aF0.0
aF5106.539022696596
aF3695.160397229742
aF7212.098716410441
aF182.13672396745832
asS'Bacteria.Firmicutes.Clostridia.Lachnospirales.Lachnospiraceae.Anaerostipes'
p65
(lp66
F0.0
aF0.0
aF0.0
aF0.0
aF0.0
aF0.0
aF0.0
aF0.0
aF0.0
aF506.41505443961825
aF0.0
aF0.0
asS'Bacteria.Firmicutes.Clostridia.Peptococcales.Peptococcaceae.Peptococcus'
p67
(lp68
F0.0
aF0.0
aF0.0
aF0.0
aF0.0
aF0.0
aF81.56773180529781
aF0.0
aF0.0
aF0.0
aF0.0
aF0.0
asS'Bacteria.Firmicutes.Bacilli.Erysipelotrichales.Erysipelotrichaceae.uncultured'
p69
(lp70
F7395.133327196293
aF2327.3620450462063
aF2755.5480478895247
aF2596.3236057742233
aF26215.833767781336
aF0.0
aF530.1902567344357
aF0.0
aF50.71429128728475
aF0.0
aF0.0
aF192.97819563218798
asS'Bacteria.Firmicutes.Clostridia.Christensenellales.Christensenellaceae'
p71
(lp72
F4500.496077408532
aF576.1547733664876
aF2037.6274836884224
aF41541.17769238757
aF30014.150592090566
aF3723.1889923108056
aF3854.0753278003212
aF0.0
aF27.307695308537948
aF89.04000957180101
aF280.5424395970548
aF312.2343839442143
asS'Bacteria.Actinobacteriota.Actinobacteria.Bifidobacteriales.Bifidobacteriaceae.Bifidobacterium'
p73
(lp74
F19116.879928810333
aF10484.500678498056
aF5996.748242150384
aF7685.117873091703
aF10426.752066731213
aF4613.516794819911
aF163.13546361059562
aF0.0
aF0.0
aF795.7950855479714
aF0.0
aF86.73177331783731
asS'Bacteria.Bacteroidota.Bacteroidia'
p75
(lp76
F391410.1895322553
aF34758.81099849139
aF45756.87831246437
aF1973.20594038841
aF212556.78856036343
aF32942.12869283691
aF22064.07145333306
aF562659.8465473144
aF653184.4673829086
aF748130.8554240667
aF784336.2365879136
aF869551.0763413073
asS'Bacteria.Firmicutes.Bacilli.Lactobacillales.Lactobacillaceae.Lactobacillus'
p77
(lp78
F664.8460114353514
aF18785.678005291527
aF48839.713676386746
aF27417.1772769758
aF11320.473672451031
aF1780.6556050182114
aF2610.16741776953
aF0.0
aF9799.561516435331
aF50154.56789161604
aF7272.5232418621135
aF23588.8740481188
asS'Bacteria.Firmicutes.Bacilli.Staphylococcales.Staphylococcaceae.Staphylococcus'
p79
(lp80
F0.0
aF113.71475790128044
aF0.0
aF1765.5000519264722
aF0.0
aF1618.7778227438287
aF0.0
aF0.0
aF0.0
aF0.0
aF0.0
aF0.0
asS'Bacteria.Firmicutes.Bacilli.RF39.RF39.RF39'
p81
(lp82
F3590.168461750897
aF1561.6826751775845
aF1784.243755146857
aF4257.970713469726
aF26960.601772547852
aF12221.772561715907
aF2079.977161035094
aF2813.2992327365723
aF0.0
aF0.0
aF0.0
aF32.52441499418899
asS'Bacteria.Firmicutes.Clostridia.Lachnospirales.Lachnospiraceae.Lachnospiraceae_UCG_010'
p83
(lp84
F0.0
aF0.0
aF0.0
aF0.0
aF0.0
aF0.0
aF0.0
aF0.0
aF222.3626617980947
aF0.0
aF0.0
aF0.0
asS'Bacteria.Firmicutes.Bacilli.Erysipelotrichales.Erysipelotrichaceae.Allobaculum'
p85
(lp86
F337.5372058056399
aF0.0
aF0.0
aF0.0
aF7969.017651001713
aF17078.106029947394
aF1039.988580517547
aF0.0
aF0.0
aF904.312597213604
aF0.0
aF776.2493711946438
asS'Bacteria.Proteobacteria.Alphaproteobacteria.Rhizobiales.Rhizobiaceae'
p87
(lp88
F0.0
aF0.0
aF221.7107624738698
aF934.6764980787206
aF6107.097639085425
aF647.5111290975315
aF1284.6917759334403
aF0.0
aF0.0
aF36.17250388854416
aF0.0
aF0.0
asS'Bacteria.Desulfobacterota'
p89
(lp90
F0.0
aF0.0
aF0.0
aF1869.352996157441
aF4617.561629552395
aF0.0
aF0.0
aF0.0
aF0.0
aF0.0
aF0.0
aF0.0
asS'Bacteria.Firmicutes.Bacilli.Lactobacillales.Aerococcaceae.Aerococcus'
p91
(lp92
F0.0
aF0.0
aF0.0
aF1246.2353307716273
aF819.2448052431668
aF0.0
aF0.0
aF0.0
aF0.0
aF0.0
aF302.1226272583668
aF26.019531995351187
asS'Bacteria.Actinobacteriota.Coriobacteriia.Coriobacteriales.uncultured.uncultured'
p93
(lp94
F0.0
aF0.0
aF781.2664963364936
aF5296.500155779417
aF5958.144038132122
aF7932.011331444761
aF3894.8591937029705
aF3324.8081841432218
aF35.10989396812022
aF0.0
aF30.212262725836673
aF0.0
asS'Bacteria.Firmicutes.Bacilli.Erysipelotrichales.Erysipelatoclostridiaceae.Candidatus_Stoquefichus'
p95
(lp96
F0.0
aF0.0
aF0.0
aF0.0
aF0.0
aF0.0
aF0.0
aF0.0
aF198.95606581934788
aF0.0
aF0.0
aF0.0
asS'Bacteria.Verrucomicrobiota'
p97
(lp98
F91288.47157016171
aF3494.833559499352
aF11001.076880846302
aF0.0
aF893.7216057198183
aF21205.989477944153
aF24368.359876832717
aF9974.424552429664
aF30358.354984434613
aF3823.155410989206
aF152571.92676547522
aF3141.858488438656
asS'Bacteria.Firmicutes.Bacilli.Erysipelotrichales.Erysipelotrichaceae.Faecalibaculum'
p99
(lp100
F5676.762097640309
aF712.612482848024
aF717.9205642011023
aF0.0
aF0.0
aF0.0
aF1733.3143008625782
aF0.0
aF0.0
aF111.30001196475126
aF0.0
aF86.73177331783731
asS'Bacteria.Firmicutes.Clostridia.Monoglobales'
p101
(lp102
F7804.269334233432
aF4017.9214458452416
aF9290.736713190734
aF2284.764773081317
aF0.0
aF78106.02994738972
aF1957.6255633271471
aF26086.956521739125
aF908.9561438413346
aF0.0
aF2956.4857095997318
aF284.04655761591715
asS'Bacteria.Firmicutes.Bacilli.Staphylococcales'
p103
(lp104
F0.0
aF113.71475790128044
aF0.0
aF5711.911932703292
aF0.0
aF1618.7778227438287
aF0.0
aF0.0
aF0.0
aF0.0
aF0.0
aF0.0
asS'Bacteria.Cyanobacteria.Vampirivibrionia'
p105
(lp106
F286.3952049259975
aF0.0
aF0.0
aF519.2647211548448
aF0.0
aF0.0
aF0.0
aF0.0
aF241.86815844705038
aF573.1950616184689
aF0.0
aF4789.762181477565
asS'Bacteria.Actinobacteriota.Coriobacteriia.Coriobacteriales.Eggerthellaceae.Gordonibacter'
p107
(lp108
F0.0
aF341.14427370384124
aF0.0
aF0.0
aF0.0
aF0.0
aF0.0
aF0.0
aF0.0
aF0.0
aF0.0
aF0.0
asS'Bacteria.Firmicutes.Clostridia.Oscillospirales.Ruminococcaceae.Candidatus_Soleaferrea'
p109
(lp110
F0.0
aF0.0
aF0.0
aF0.0
aF0.0
aF0.0
aF0.0
aF0.0
aF0.0
aF0.0
aF0.0
aF26.019531995351187
asS'Bacteria.Bacteroidota.Bacteroidia.Bacteroidales.Muribaculaceae.Muribaculaceae'
p111
(lp112
F375310.6876553438
aF32416.286985725004
aF45492.9369285669
aF1973.20594038841
aF166679.07946674613
aF30433.023067583978
aF19535.471767368825
aF562659.8465473144
aF410181.0890308889
aF312869.89863351407
aF464699.12902362616
aF551434.1098718107
asS'Bacteria.Deferribacterota'
p113
(lp114
F0.0
aF0.0
aF0.0
aF0.0
aF0.0
aF0.0
aF0.0
aF0.0
aF253.57145643642377
aF258.7725278180467
aF0.0
aF136.60254297559374
asS'Bacteria.Actinobacteriota.Coriobacteriia.Coriobacteriales'
p115
(lp116
F8192.948540918715
aF3343.213882297645
aF6704.111150995586
aF14020.147471180806
aF15044.313696283607
aF18939.700526102795
aF18515.875119802604
aF3324.8081841432218
aF132.6373772128986
aF319.9875343986599
aF86.32075064524764
aF372.9466252667003
asS'Bacteria.Proteobacteria.Alphaproteobacteria.Rhizobiales.Rhizobiaceae.Allorhizobium_Neorhizobium_Pararhizobium_Rhizobium'
p117
(lp118
F0.0
aF0.0
aF221.7107624738698
aF934.6764980787206
aF6107.097639085425
aF647.5111290975315
aF1284.6917759334403
aF0.0
aF0.0
aF36.17250388854416
aF0.0
aF0.0
asS'Bacteria.Bacteroidota.Bacteroidia.Bacteroidales.Prevotellaceae.Prevotellaceae_NK3B31_group'
p119
(lp120
F6904.170118751726
aF1076.4997081321214
aF263.94138389746405
aF0.0
aF1415.059209056379
aF2509.1056252529343
aF305.8789942698668
aF0.0
aF30229.618706551504
aF567.6300610202314
aF139356.2198416878
aF190317.69848566334
asS'Bacteria.Bacteroidota.Bacteroidia.Bacteroidales.Tannerellaceae.Parabacteroides'
p121
(lp122
F644.3892110834944
aF280.4964028231584
aF0.0
aF0.0
aF1117.152007149773
aF0.0
aF0.0
aF0.0
aF6682.583151932215
aF81791.59629259659
aF22931.107408910033
aF8215.667227532138
asS'Bacteria.Actinobacteriota.Actinobacteria.Micrococcales'
p123
(lp124
F0.0
aF341.14427370384124
aF0.0
aF0.0
aF0.0
aF0.0
aF0.0
aF0.0
aF0.0
aF0.0
aF8.632075064524765
aF0.0
asS'Bacteria.Firmicutes.Clostridia.Clostridiales.Clostridiaceae'
p125
(lp126
F60378.24623850584
aF433677.7627000432
aF235425.15678118204
aF402326.3059507737
aF18768.153720116185
aF16997.1671388102
aF659964.5180366645
aF15089.514066496162
aF0.0
aF25.042502692069036
aF0.0
aF0.0
asS'Bacteria.Firmicutes.Clostridia.Lachnospirales.Lachnospiraceae.Frisingicoccus'
p127
(lp128
F1278.5500219910602
aF0.0
aF0.0
aF0.0
aF7224.249646235197
aF1214.0833670578713
aF0.0
aF0.0
aF0.0
aF506.41505443961825
aF0.0
aF34.69270932713492
asS'Bacteria.Desulfobacterota.Desulfovibrionia'
p129
(lp130
F0.0
aF0.0
aF0.0
aF1869.352996157441
aF4617.561629552395
aF0.0
aF0.0
aF0.0
aF0.0
aF0.0
aF0.0
aF0.0
asS'Bacteria.Firmicutes.Clostridia.Clostridia_UCG_014.Clostridia_UCG_014'
p131
(lp132
F237708.02008857793
aF57092.38945030286
aF98925.23068476951
aF69996.88441167306
aF280256.20019363967
aF268069.607446378
aF36419.99225106547
aF61636.82864450126
aF5742.418213452551
aF38.95500418766294
aF0.0
aF9690.10737393537
asS'Bacteria.Firmicutes.Bacilli.Erysipelotrichales.Erysipelatoclostridiaceae.Erysipelatoclostridiaceae'
p133
(lp134
F0.0
aF0.0
aF0.0
aF0.0
aF0.0
aF0.0
aF0.0
aF0.0
aF0.0
aF19.47750209383147
aF0.0
aF0.0
asS'Bacteria.Firmicutes.Clostridia.Oscillospirales.Oscillospiraceae.Flavonifractor'
p135
(lp136
F0.0
aF0.0
aF0.0
aF0.0
aF0.0
aF0.0
aF0.0
aF0.0
aF0.0
aF261.5550281171654
aF0.0
aF0.0
asS'Bacteria.Proteobacteria.Gammaproteobacteria.Pasteurellales.Pasteurellaceae.Haemophilus'
p137
(lp138
F0.0
aF0.0
aF0.0
aF0.0
aF0.0
aF0.0
aF0.0
aF0.0
aF105.32968190436065
aF0.0
aF0.0
aF0.0
asS'Bacteria.Firmicutes.Clostridia.Oscillospirales.Oscillospiraceae.NK4A214_group'
p139
(lp140
F4613.008479343746
aF0.0
aF0.0
aF0.0
aF0.0
aF7203.561311210037
aF0.0
aF0.0
aF54.615390617075896
aF66.78000717885075
aF224.43395167764388
aF117.08789397908035
asS'Bacteria.Desulfobacterota.Desulfovibrionia.Desulfovibrionales'
p141
(lp142
F0.0
aF0.0
aF0.0
aF1869.352996157441
aF4617.561629552395
aF0.0
aF0.0
aF0.0
aF0.0
aF0.0
aF0.0
aF0.0
asS'Bacteria.Actinobacteriota.Coriobacteriia.Coriobacteriales.Coriobacteriales_Incertae_Sedis.uncultured'
p143
(lp144
F0.0
aF0.0
aF0.0
aF0.0
aF446.86080285990914
aF0.0
aF387.4467260751646
aF0.0
aF0.0
aF0.0
aF0.0
aF0.0
asS'Bacteria.Deferribacterota.Deferribacteres.Deferribacterales.Deferribacteraceae.Mucispirillum'
p145
(lp146
F0.0
aF0.0
aF0.0
aF0.0
aF0.0
aF0.0
aF0.0
aF0.0
aF253.57145643642377
aF258.7725278180467
aF0.0
aF136.60254297559374
asS'Bacteria.Firmicutes.Bacilli.RF39.RF39'
p147
(lp148
F3590.168461750897
aF1561.6826751775845
aF1784.243755146857
aF4257.970713469726
aF26960.601772547852
aF12221.772561715907
aF2079.977161035094
aF2813.2992327365723
aF0.0
aF0.0
aF0.0
aF32.52441499418899
asS'Bacteria.Proteobacteria.Gammaproteobacteria.Pseudomonadales.Moraxellaceae.Acinetobacter'
p149
(lp150
F0.0
aF0.0
aF0.0
aF0.0
aF0.0
aF0.0
aF2732.5190154774764
aF0.0
aF0.0
aF30.6075032903066
aF0.0
aF0.0
asS'Bacteria.Firmicutes.Clostridia.Lachnospirales.Lachnospiraceae.Lachnospira'
p151
(lp152
F0.0
aF0.0
aF0.0
aF0.0
aF1712.966410962985
aF0.0
aF0.0
aF0.0
aF0.0
aF0.0
aF0.0
aF0.0
asS'Bacteria.Firmicutes.Clostridia.Clostridia_vadinBB60_group'
p153
(lp154
F306.85200527785446
aF0.0
aF158.3648303384784
aF0.0
aF0.0
aF566.57223796034
aF0.0
aF0.0
aF2379.6705911725926
aF247.64252662157156
aF38.84433779036144
aF2781.9216291696316
asS'Bacteria.Firmicutes.Bacilli.Erysipelotrichales.Erysipelatoclostridiaceae.UCG_004'
p155
(lp156
F0.0
aF0.0
aF0.0
aF0.0
aF0.0
aF0.0
aF0.0
aF0.0
aF413.5165289578603
aF97.38751046915735
aF0.0
aF381.6198025984841
asS'Bacteria.Proteobacteria.Gammaproteobacteria.Burkholderiales.Alcaligenaceae.Achromobacter'
p157
(lp158
F102.28400175928483
aF75.80983860085361
aF179.48014105027556
aF0.0
aF3500.4096224026216
aF0.0
aF713.7176532963557
aF0.0
aF0.0
aF0.0
aF0.0
aF0.0
asS'Bacteria.Firmicutes.Clostridia.Oscillospirales.Oscillospiraceae.Colidextribacter'
p159
(lp160
F0.0
aF0.0
aF1002.9772588103635
aF0.0
aF0.0
aF0.0
aF0.0
aF0.0
aF4127.363090919021
aF47.302505085019284
aF500.6603537424363
aF437.99545525507835
asS'Bacteria.Bacteroidota.Bacteroidia.Bacteroidales.Tannerellaceae'
p161
(lp162
F644.3892110834944
aF280.4964028231584
aF0.0
aF0.0
aF1117.152007149773
aF0.0
aF0.0
aF0.0
aF6682.583151932215
aF81791.59629259659
aF22931.107408910033
aF8215.667227532138
asS'Bacteria.Proteobacteria.Gammaproteobacteria.Burkholderiales.Sutterellaceae'
p163
(lp164
F1063.753618296562
aF0.0
aF0.0
aF0.0
aF2830.118418112758
aF0.0
aF0.0
aF0.0
aF624.1758927665816
aF41364.649446699805
aF4980.707312230789
aF6481.031761175393
asS'Bacteria.Firmicutes.Clostridia.Clostridiales.Clostridiaceae.Clostridium_sensu_stricto_1'
p165
(lp166
F60378.24623850584
aF433677.7627000432
aF235425.15678118204
aF402326.3059507737
aF18768.153720116185
aF16997.1671388102
aF659964.5180366645
aF15089.514066496162
aF0.0
aF25.042502692069036
aF0.0
aF0.0
asS'Bacteria.Campilobacterota.Campylobacteria.Campylobacterales'
p167
(lp168
F0.0
aF0.0
aF0.0
aF0.0
aF0.0
aF0.0
aF0.0
aF0.0
aF0.0
aF19.47750209383147
aF0.0
aF0.0
asS'Bacteria.Firmicutes.Clostridia.Peptostreptococcales_Tissierellales.Anaerovoracaceae.Anaerovorax'
p169
(lp170
F0.0
aF0.0
aF0.0
aF0.0
aF0.0
aF0.0
aF203.91932951324452
aF0.0
aF296.48354906412624
aF0.0
aF207.16980154859434
aF110.58301098024256
asS'Bacteria.Proteobacteria.Alphaproteobacteria.Rhizobiales'
p171
(lp172
F61.3704010555709
aF310.8203382634998
aF221.7107624738698
aF934.6764980787206
aF6107.097639085425
aF647.5111290975315
aF1284.6917759334403
aF0.0
aF0.0
aF36.17250388854416
aF0.0
aF0.0
asS'Bacteria.Firmicutes.Clostridia.Lachnospirales.Defluviitaleaceae.Defluviitaleaceae_UCG_011'
p173
(lp174
F0.0
aF0.0
aF0.0
aF0.0
aF0.0
aF0.0
aF0.0
aF0.0
aF0.0
aF55.65000598237563
aF0.0
aF134.4342486426478
asS'Bacteria.Firmicutes.Bacilli.RF39'
p175
(lp176
F3590.168461750897
aF1561.6826751775845
aF1784.243755146857
aF4257.970713469726
aF26960.601772547852
aF12221.772561715907
aF2079.977161035094
aF2813.2992327365723
aF0.0
aF0.0
aF0.0
aF32.52441499418899
asS'Bacteria.Firmicutes.Clostridia.Peptostreptococcales_Tissierellales'
p177
(lp178
F0.0
aF0.0
aF253.3837285415655
aF0.0
aF0.0
aF0.0
aF0.0
aF0.0
aF0.0
aF0.0
aF0.0
aF0.0
asS'Bacteria.Firmicutes.Clostridia.Lachnospirales.Lachnospiraceae.Lachnospiraceae_UCG_001'
p179
(lp180
F0.0
aF940.0419986505848
aF0.0
aF1557.7941634645342
aF0.0
aF0.0
aF0.0
aF0.0
aF0.0
aF0.0
aF0.0
aF212.4928446287014
asS'Bacteria.Campilobacterota.Campylobacteria.Campylobacterales.Helicobacteraceae.Helicobacter'
p181
(lp182
F0.0
aF0.0
aF0.0
aF0.0
aF0.0
aF0.0
aF0.0
aF0.0
aF0.0
aF19.47750209383147
aF0.0
aF0.0
asS'Bacteria.Firmicutes.Clostridia.Peptostreptococcales_Tissierellales.Anaerovoracaceae.Family_XIII_UCG_001'
p183
(lp184
F0.0
aF0.0
aF0.0
aF0.0
aF0.0
aF0.0
aF0.0
aF0.0
aF156.0439731916454
aF0.0
aF0.0
aF0.0
asS'Bacteria.Firmicutes.Clostridia.Christensenellales.Christensenellaceae.Christensenellaceae_R_7_group'
p185
(lp186
F4336.841674593677
aF576.1547733664876
aF2037.6274836884224
aF41541.17769238757
aF30014.150592090566
aF3723.1889923108056
aF3854.0753278003212
aF0.0
aF0.0
aF89.04000957180101
aF280.5424395970548
aF284.04655761591715
asS'Bacteria.Cyanobacteria.Vampirivibrionia.Gastranaerophilales'
p187
(lp188
F286.3952049259975
aF0.0
aF0.0
aF519.2647211548448
aF0.0
aF0.0
aF0.0
aF0.0
aF241.86815844705038
aF573.1950616184689
aF0.0
aF4789.762181477565
asS'Bacteria.Firmicutes.Clostridia.Oscillospirales.Ruminococcaceae.Anaerotruncus'
p189
(lp190
F0.0
aF0.0
aF0.0
aF0.0
aF0.0
aF0.0
aF0.0
aF0.0
aF288.68135040454405
aF0.0
aF0.0
aF19.514648996513394
asS'Bacteria.Bacteroidota.Bacteroidia.Bacteroidales'
p191
(lp192
F391410.1895322553
aF34758.81099849139
aF45756.87831246437
aF1973.20594038841
aF212556.78856036343
aF32942.12869283691
aF20820.163543302267
aF562659.8465473144
aF653184.4673829086
aF748130.8554240667
aF784336.2365879136
aF869551.0763413073
asS'Bacteria.Actinobacteriota.Coriobacteriia'
p193
(lp194
F8192.948540918715
aF3343.213882297645
aF6704.111150995586
aF14020.147471180806
aF15044.313696283607
aF18939.700526102795
aF18515.875119802604
aF3324.8081841432218
aF132.6373772128986
aF319.9875343986599
aF86.32075064524764
aF372.9466252667003
asS'Bacteria.Firmicutes.Clostridia.Lachnospirales.Lachnospiraceae.Tuzzerella'
p195
(lp196
F163.65440281485573
aF0.0
aF0.0
aF0.0
aF0.0
aF0.0
aF0.0
aF0.0
aF0.0
aF0.0
aF0.0
aF23.851237662405257
asS'Bacteria.Deferribacterota.Deferribacteres.Deferribacterales'
p197
(lp198
F0.0
aF0.0
aF0.0
aF0.0
aF0.0
aF0.0
aF0.0
aF0.0
aF253.57145643642377
aF258.7725278180467
aF0.0
aF136.60254297559374
asS'Bacteria.Proteobacteria.Gammaproteobacteria.Pseudomonadales.Moraxellaceae'
p199
(lp200
F0.0
aF0.0
aF0.0
aF0.0
aF0.0
aF0.0
aF2732.5190154774764
aF0.0
aF0.0
aF30.6075032903066
aF0.0
aF0.0
asS'Bacteria.Firmicutes.Clostridia.Oscillospirales.Oscillospiraceae.uncultured'
p201
(lp202
F685.3028117872084
aF0.0
aF1034.6502248780591
aF0.0
aF5660.236836225516
aF0.0
aF346.66286017251565
aF20716.112531969306
aF14804.671956557358
aF0.0
aF4471.414883423828
aF1485.2816180679638
asS'Bacteria.Firmicutes.Clostridia.Oscillospirales.Ruminococcaceae.Paludicola'
p203
(lp204
F0.0
aF0.0
aF0.0
aF0.0
aF0.0
aF0.0
aF0.0
aF0.0
aF0.0
aF0.0
aF64.74056298393573
aF36.861003660080854
asS'Bacteria.Firmicutes.Clostridia.Lachnospirales.Lachnospiraceae._Eubacterium__ventriosum_group'
p205
(lp206
F409.13600703713934
aF0.0
aF0.0
aF0.0
aF0.0
aF1375.9611493322543
aF0.0
aF4859.3350383631705
aF81.92308592561385
aF0.0
aF0.0
aF0.0
asS'Bacteria.Campilobacterota'
p207
(lp208
F0.0
aF0.0
aF0.0
aF0.0
aF0.0
aF0.0
aF0.0
aF0.0
aF0.0
aF19.47750209383147
aF0.0
aF0.0
asS'Bacteria.Firmicutes.Clostridia.Lachnospirales.Lachnospiraceae.Lachnoclostridium'
p209
(lp210
F0.0
aF0.0
aF190.0377964061741
aF0.0
aF0.0
aF0.0
aF652.5418544423825
aF0.0
aF245.7692577768415
aF5676.300610202314
aF0.0
aF346.92709327134924
asS'Bacteria.Gemmatimonadota.Gemmatimonadetes.Gemmatimonadales.Gemmatimonadaceae.Roseisolibacter'
p211
(lp212
F0.0
aF0.0
aF0.0
aF0.0
aF0.0
aF0.0
aF0.0
aF2813.2992327365723
aF0.0
aF0.0
aF0.0
aF0.0
asS'Bacteria.Patescibacteria'
p213
(lp214
F3794.736465269467
aF5625.090024183339
aF15361.388542832408
aF3738.705992314882
aF15193.267297236911
aF32456.495346013766
aF550.5821896857602
aF12531.969309462913
aF0.0
aF41.737504486781724
aF0.0
aF1051.6227514787772
asS'Bacteria.Firmicutes.Clostridia.Lachnospirales.Defluviitaleaceae'
p215
(lp216
F0.0
aF0.0
aF0.0
aF0.0
aF0.0
aF0.0
aF0.0
aF0.0
aF0.0
aF55.65000598237563
aF0.0
aF134.4342486426478
asS'Bacteria.Firmicutes.Clostridia.Lachnospirales.Lachnospiraceae.Acetatifactor'
p217
(lp218
F0.0
aF0.0
aF443.4215249477396
aF0.0
aF0.0
aF0.0
aF0.0
aF0.0
aF319.8901450428731
aF0.0
aF0.0
aF229.83919929226886
asS'Bacteria.Firmicutes.Clostridia.Lachnospirales.Lachnospiraceae.Hungatella'
p219
(lp220
F0.0
aF0.0
aF0.0
aF0.0
aF0.0
aF0.0
aF0.0
aF0.0
aF0.0
aF3099.7053332183227
aF0.0
aF0.0
asS'Bacteria.Firmicutes.Clostridia.Lachnospirales.Lachnospiraceae.GCA_900066575'
p221
(lp222
F214.79640369449814
aF242.59148352273158
aF0.0
aF0.0
aF0.0
aF0.0
aF0.0
aF0.0
aF717.8022766815689
aF0.0
aF168.3254637582329
aF223.33431629343104
asS'Bacteria.Actinobacteriota'
p223
(lp224
F27309.828469729047
aF14168.85883449954
aF12700.859393145969
aF27624.88316543774
aF25471.065763014823
aF23553.217320922708
aF18679.010583413197
aF3324.8081841432218
aF132.6373772128986
aF1115.7826199466315
aF94.95282570977241
aF459.6783985845377
asS'Bacteria.Firmicutes.Clostridia.Oscillospirales.UCG_010.UCG_010'
p225
(lp226
F1534.2600263892725
aF45.48590316051217
aF0.0
aF0.0
aF0.0
aF0.0
aF0.0
aF0.0
aF0.0
aF0.0
aF0.0
aF4171.798296587974
asS'Bacteria.Bacteroidota.Bacteroidia.Bacteroidales.Bacteroidaceae'
p227
(lp228
F2618.4704450376917
aF447.27804774503636
aF0.0
aF0.0
aF32248.454606390107
aF0.0
aF183.52739656192006
aF0.0
aF104436.33015783847
aF321320.35204193776
aF64952.048823016594
aF66662.04097208974
asS'Bacteria.Firmicutes.Bacilli.Staphylococcales.Staphylococcaceae.Jeotgalicoccus'
p229
(lp230
F0.0
aF0.0
aF0.0
aF3946.41188077682
aF0.0
aF0.0
aF0.0
aF0.0
aF0.0
aF0.0
aF0.0
aF0.0
asS'Bacteria.Gemmatimonadota.Gemmatimonadetes.Gemmatimonadales.Gemmatimonadaceae'
p231
(lp232
F0.0
aF0.0
aF0.0
aF0.0
aF0.0
aF0.0
aF0.0
aF2813.2992327365723
aF0.0
aF0.0
aF0.0
aF0.0
asS'Bacteria.Firmicutes.Clostridia.Oscillospirales.Ruminococcaceae.UBA1819'
p233
(lp234
F951.2412163613488
aF0.0
aF168.922485694377
aF0.0
aF0.0
aF0.0
aF0.0
aF0.0
aF0.0
aF0.0
aF25.896225193574292
aF54.20735832364831
asS'Bacteria.Cyanobacteria.Vampirivibrionia.Gastranaerophilales.Gastranaerophilales.Gastranaerophilales'
p235
(lp236
F286.3952049259975
aF0.0
aF0.0
aF519.2647211548448
aF0.0
aF0.0
aF0.0
aF0.0
aF241.86815844705038
aF573.1950616184689
aF0.0
aF4789.762181477565
asS'Bacteria.Proteobacteria.Gammaproteobacteria.Enterobacterales.Enterobacteriaceae'
p237
(lp238
F3539.026460871255
aF5534.118217862314
aF7780.99199729724
aF15577.941634645344
aF9011.692857674834
aF27842.97855119385
aF6647.770142131771
aF18414.32225063938
aF2512.307968385491
aF1249.3426343043327
aF6784.811000716465
aF273.20508595118747
asS'Bacteria.Firmicutes.Bacilli.Erysipelotrichales'
p239
(lp240
F45577.751183937326
aF89061.39838828283
aF73301.80113600372
aF132412.50389448542
aF72912.78766664185
aF39012.54552812626
aF89255.49052794713
aF7161.125319693093
aF663.1868860644929
aF7128.765766342317
aF630.1414797103077
aF4421.152144876756
asS'Bacteria.Proteobacteria.Alphaproteobacteria'
p241
(lp242
F61.3704010555709
aF310.8203382634998
aF316.7296606769568
aF934.6764980787206
aF7075.296045281894
aF647.5111290975315
aF1916.8416974244985
aF0.0
aF0.0
aF826.4025888382781
aF0.0
aF12027.528664851086
asS'Bacteria.Firmicutes.Clostridia.Oscillospirales.Oscillospiraceae.Oscillospira'
p243
(lp244
F0.0
aF0.0
aF0.0
aF0.0
aF5138.899232888955
aF0.0
aF0.0
aF0.0
aF0.0
aF0.0
aF0.0
aF0.0
asS'Bacteria.Proteobacteria.Gammaproteobacteria.Burkholderiales.Oxalobacteraceae'
p245
(lp246
F0.0
aF0.0
aF0.0
aF0.0
aF0.0
aF0.0
aF428.2305919778135
aF13043.478260869562
aF0.0
aF0.0
aF0.0
aF0.0
asS'Bacteria.Firmicutes.Clostridia.Monoglobales.Monoglobaceae'
p247
(lp248
F7804.269334233432
aF4017.9214458452416
aF9290.736713190734
aF2284.764773081317
aF0.0
aF78106.02994738972
aF1957.6255633271471
aF26086.956521739125
aF908.9561438413346
aF0.0
aF2956.4857095997318
aF284.04655761591715
asS'Bacteria.Firmicutes.Clostridia.Oscillospirales.Butyricicoccaceae.uncultured'
p249
(lp250
F0.0
aF0.0
aF0.0
aF0.0
aF8639.308855291578
aF4208.822339133954
aF0.0
aF0.0
aF0.0
aF0.0
aF0.0
aF0.0
asS'Bacteria.Proteobacteria.Gammaproteobacteria.Burkholderiales.Oxalobacteraceae.Massilia'
p251
(lp252
F0.0
aF0.0
aF0.0
aF0.0
aF0.0
aF0.0
aF0.0
aF13043.478260869562
aF0.0
aF0.0
aF0.0
aF0.0
asS'Bacteria.Firmicutes.Clostridia.uncultured'
p253
(lp254
F0.0
aF0.0
aF0.0
aF0.0
aF0.0
aF0.0
aF0.0
aF0.0
aF0.0
aF141.90751525505786
aF0.0
aF0.0
asS'Bacteria.Firmicutes.Clostridia.Peptococcales.Peptococcaceae'
p255
(lp256
F153.42600263892723
aF242.59148352273158
aF211.15310711797125
aF0.0
aF0.0
aF0.0
aF81.56773180529781
aF0.0
aF1817.912287682669
aF180.86251944272078
aF215.8018766131191
aF604.9541188919152
asS'Bacteria.Firmicutes.Bacilli.Lactobacillales.Lactobacillaceae'
p257
(lp258
F664.8460114353514
aF18785.678005291527
aF48839.713676386746
aF27417.1772769758
aF11320.473672451031
aF1780.6556050182114
aF2610.16741776953
aF0.0
aF9799.561516435331
aF50154.56789161604
aF7272.5232418621135
aF23588.8740481188
asS'Bacteria.Firmicutes.Clostridia.Clostridia_UCG_014.Clostridia_UCG_014.Clostridia_UCG_014'
p259
(lp260
F237708.02008857793
aF57092.38945030286
aF98925.23068476951
aF69996.88441167306
aF280256.20019363967
aF268069.607446378
aF36419.99225106547
aF61636.82864450126
aF5742.418213452551
aF38.95500418766294
aF0.0
aF9690.10737393537
asS'Bacteria.Proteobacteria.Gammaproteobacteria.Burkholderiales.Oxalobacteraceae.Herminiimonas'
p261
(lp262
F0.0
aF0.0
aF0.0
aF0.0
aF0.0
aF0.0
aF428.2305919778135
aF0.0
aF0.0
aF0.0
aF0.0
aF0.0
asS'Bacteria.Actinobacteriota.Actinobacteria.Bifidobacteriales.Bifidobacteriaceae'
p263
(lp264
F19116.879928810333
aF10484.500678498056
aF5996.748242150384
aF7685.117873091703
aF10426.752066731213
aF4613.516794819911
aF163.13546361059562
aF0.0
aF0.0
aF795.7950855479714
aF0.0
aF86.73177331783731
asS'Bacteria.Firmicutes.Clostridia.Lachnospirales.Lachnospiraceae._Eubacterium__xylanophilum_group'
p265
(lp266
F4950.5456851493855
aF6868.371377237338
aF10283.1563166452
aF0.0
aF2234.304014299546
aF14245.244840145691
aF2181.9368257917163
aF16112.531969309459
aF11949.067247150248
aF0.0
aF7932.876984298258
aF353.431976270187
asS'Bacteria.Proteobacteria.Alphaproteobacteria.Sphingomonadales.Sphingomonadaceae.Sphingomonas'
p267
(lp268
F0.0
aF0.0
aF95.01889820308705
aF0.0
aF0.0
aF0.0
aF0.0
aF0.0
aF0.0
aF22.260002392950252
aF0.0
aF0.0
asS'Bacteria.Proteobacteria.Gammaproteobacteria.Pasteurellales.Pasteurellaceae.Rodentibacter'
p269
(lp270
F0.0
aF0.0
aF0.0
aF0.0
aF670.2912042898637
aF1375.9611493322543
aF0.0
aF0.0
aF0.0
aF52.867505683256844
aF0.0
aF52.039063990702374
asS'Bacteria.Bacteroidota'
p271
(lp272
F391410.1895322553
aF34758.81099849139
aF45756.87831246437
aF1973.20594038841
aF212556.78856036343
aF32942.12869283691
aF22064.07145333306
aF562659.8465473144
aF653184.4673829086
aF748130.8554240667
aF784336.2365879136
aF869551.0763413073
asS'Bacteria.Firmicutes.Clostridia.Eubacteriales.Anaerofustaceae'
p273
(lp274
F327.30880562971146
aF75.80983860085361
aF190.0377964061741
aF0.0
aF0.0
aF404.69445568595717
aF0.0
aF0.0
aF0.0
aF0.0
aF0.0
aF0.0
asS'Bacteria.Actinobacteriota.Coriobacteriia.Coriobacteriales.Atopobiaceae.Coriobacteriaceae_UCG_002'
p275
(lp276
F6126.811705381162
aF742.9364182883654
aF1541.41768196119
aF3219.4412711600376
aF0.0
aF3804.127883447997
aF0.0
aF0.0
aF0.0
aF89.04000957180101
aF0.0
aF91.06836198372916
asS'Bacteria.Proteobacteria.Gammaproteobacteria.Pseudomonadales.Pseudomonadaceae'
p277
(lp278
F388.67920668528234
aF773.260353728707
aF3241.2001942608586
aF0.0
aF28077.75377969762
aF971.2666936462971
aF2671.3432166235034
aF0.0
aF101.4285825745695
aF175.29751884448325
aF21.58018766131191
aF0.0
asS'Bacteria.Proteobacteria.Alphaproteobacteria.Caulobacterales.Caulobacteraceae'
p279
(lp280
F0.0
aF0.0
aF0.0
aF0.0
aF968.1984061964698
aF0.0
aF632.1499214910581
aF0.0
aF0.0
aF0.0
aF0.0
aF0.0
asS'Bacteria.Firmicutes.Clostridia.Peptococcales'
p281
(lp282
F153.42600263892723
aF242.59148352273158
aF211.15310711797125
aF0.0
aF0.0
aF0.0
aF81.56773180529781
aF0.0
aF1817.912287682669
aF180.86251944272078
aF215.8018766131191
aF604.9541188919152
asS'Bacteria.Proteobacteria.Gammaproteobacteria.Pseudomonadales.Pseudomonadaceae.Pseudomonas'
p283
(lp284
F388.67920668528234
aF773.260353728707
aF3241.2001942608586
aF0.0
aF28077.75377969762
aF971.2666936462971
aF2671.3432166235034
aF0.0
aF101.4285825745695
aF175.29751884448325
aF21.58018766131191
aF0.0
asS'Bacteria.Firmicutes.Clostridia'
p285
(lp286
F715.9880123149939
aF0.0
aF0.0
aF0.0
aF0.0
aF0.0
aF0.0
aF0.0
aF0.0
aF0.0
aF0.0
aF0.0
asS'Bacteria.Firmicutes.Clostridia.Lachnospirales.Lachnospiraceae.Marvinbryantia'
p287
(lp288
F0.0
aF0.0
aF0.0
aF0.0
aF0.0
aF1214.0833670578713
aF530.1902567344357
aF0.0
aF0.0
aF258.7725278180467
aF2127.8065034053543
aF39.02929799302679
asS'Bacteria.Campilobacterota.Campylobacteria'
p289
(lp290
F0.0
aF0.0
aF0.0
aF0.0
aF0.0
aF0.0
aF0.0
aF0.0
aF0.0
aF19.47750209383147
aF0.0
aF0.0
asS'Bacteria.Patescibacteria.Saccharimonadia.Saccharimonadales.Saccharimonadaceae'
p291
(lp292
F3794.736465269467
aF5625.090024183339
aF15361.388542832408
aF3738.705992314882
aF15193.267297236911
aF32456.495346013766
aF550.5821896857602
aF12531.969309462913
aF0.0
aF41.737504486781724
aF0.0
aF1051.6227514787772
asS'Bacteria.Firmicutes.Bacilli.Erysipelotrichales.Erysipelotrichaceae'
p293
(lp294
F45577.751183937326
aF89061.39838828283
aF73301.80113600372
aF130854.70973102086
aF72168.01966187533
aF37798.4621610684
aF89255.49052794713
aF5370.84398976982
aF50.71429128728475
aF5887.770632935341
aF405.7075280326639
aF3842.217557980192
asS'Bacteria.Gemmatimonadota.Gemmatimonadetes.Gemmatimonadales'
p295
(lp296
F0.0
aF0.0
aF0.0
aF0.0
aF0.0
aF0.0
aF0.0
aF2813.2992327365723
aF0.0
aF0.0
aF0.0
aF0.0
asS'Bacteria.Proteobacteria.Gammaproteobacteria.Pasteurellales.Pasteurellaceae'
p297
(lp298
F0.0
aF0.0
aF0.0
aF0.0
aF670.2912042898637
aF1375.9611493322543
aF0.0
aF0.0
aF105.32968190436065
aF52.867505683256844
aF0.0
aF52.039063990702374
asS'Bacteria.Actinobacteriota.Coriobacteriia.Coriobacteriales.Eggerthellaceae.Enterorhabdus'
p299
(lp300
F603.4756103797805
aF1637.492513778438
aF2396.5877657889732
aF0.0
aF5362.3296343189095
aF2751.9222986645086
aF9849.303615489709
aF0.0
aF97.52748324477838
aF52.867505683256844
aF56.10848791941097
aF143.10742597443152
asS'Bacteria.Firmicutes.Clostridia.Lachnospirales.Lachnospiraceae._Bacteroides__pectinophilus_group'
p301
(lp302
F0.0
aF409.3731284446095
aF0.0
aF0.0
aF1042.6752066731215
aF1133.14447592068
aF0.0
aF0.0
aF0.0
aF0.0
aF0.0
aF0.0
asS'Bacteria.Proteobacteria.Gammaproteobacteria.Burkholderiales'
p303
(lp304
F2700.2976464451194
aF5177.811976438302
aF2723.875081821829
aF6335.029598089106
aF84978.0293438594
aF5180.089032780252
aF11337.914720936396
aF13043.478260869562
aF733.4066740007335
aF41790.37199246498
aF5114.504475730923
aF6574.268417492067
asS'Bacteria.Deferribacterota.Deferribacteres.Deferribacterales.Deferribacteraceae'
p305
(lp306
F0.0
aF0.0
aF0.0
aF0.0
aF0.0
aF0.0
aF0.0
aF0.0
aF253.57145643642377
aF258.7725278180467
aF0.0
aF136.60254297559374
asS'Bacteria.Firmicutes'
p307
(lp308
F479221.0050426013
aF930156.3956970337
aF901116.999936654
aF941426.9394537337
aF611454.531913309
aF853824.3626062324
aF909031.5871041415
aF377237.85166240396
aF312376.62773369544
aF201912.13420555435
aF50860.1862801799
aF101942.35806345301
asS'Bacteria.Firmicutes.Clostridia.Oscillospirales.Ruminococcaceae.Ruminococcus'
p309
(lp310
F2250.248038704266
aF197.1055803622194
aF728.4782195570008
aF2284.764773081317
aF5734.713636702168
aF8822.339133953867
aF32361.997593751905
aF7416.879795396418
aF1650.1650165016501
aF0.0
aF1519.2452113563586
aF5609.377439331128
asS'Bacteria.Firmicutes.Clostridia.Monoglobales.Monoglobaceae.Monoglobus'
p311
(lp312
F7804.269334233432
aF4017.9214458452416
aF9290.736713190734
aF2284.764773081317
aF0.0
aF78106.02994738972
aF1957.6255633271471
aF26086.956521739125
aF908.9561438413346
aF0.0
aF2956.4857095997318
aF284.04655761591715
asS'Bacteria.Proteobacteria'
p313
(lp314
F6689.373715057228
aF11796.010886292823
aF14062.796934056887
aF22847.647730813173
aF129813.0632308036
aF36017.806556050185
aF25306.388792593643
aF31457.80051150894
aF3452.4729068651545
aF44124.88974342563
aF12136.69754072182
aF18927.041232285042
asS'Bacteria.Proteobacteria.Gammaproteobacteria.Burkholderiales.Alcaligenaceae.Alcaligenes'
p315
(lp316
F0.0
aF0.0
aF0.0
aF0.0
aF0.0
aF0.0
aF407.83865902648904
aF0.0
aF0.0
aF0.0
aF0.0
aF0.0
asS'Bacteria.Firmicutes.Clostridia.Oscillospirales'
p317
(lp318
F163.65440281485573
aF0.0
aF0.0
aF0.0
aF0.0
aF0.0
aF0.0
aF0.0
aF0.0
aF0.0
aF0.0
aF0.0
asS'Bacteria.Actinobacteriota.Coriobacteriia.Coriobacteriales.Atopobiaceae'
p319
(lp320
F6249.552507492303
aF742.9364182883654
aF1541.41768196119
aF3219.4412711600376
aF0.0
aF3804.127883447997
aF530.1902567344357
aF0.0
aF0.0
aF89.04000957180101
aF0.0
aF91.06836198372916
asS'Bacteria.Firmicutes.Clostridia.Peptostreptococcales_Tissierellales.Peptostreptococcaceae'
p321
(lp322
F14892.550656151872
aF151028.36046062058
aF211881.58533752823
aF168137.91670993873
aF16980.710508676548
aF17725.617159044923
aF56037.03175023959
aF8184.143222506391
aF2516.2090677152823
aF116169.38748820912
aF1277.547109549665
aF13057.468473000405
asS'Bacteria.Proteobacteria.Gammaproteobacteria.Burkholderiales.Comamonadaceae'
p323
(lp324
F0.0
aF576.1547733664876
aF263.94138389746405
aF1557.7941634645342
aF65837.49162135995
aF3561.311210036423
aF5628.173494565549
aF0.0
aF0.0
aF0.0
aF0.0
aF0.0
asS'Bacteria.Firmicutes.Bacilli.Erysipelotrichales.Erysipelatoclostridiaceae'
p325
(lp326
F0.0
aF0.0
aF0.0
aF1557.7941634645342
aF744.7680047665152
aF1214.0833670578713
aF0.0
aF1790.2813299232732
aF612.4725947772081
aF1240.9951334069765
aF224.43395167764388
aF578.9345868965639
asS'Bacteria.Firmicutes.Clostridia.Oscillospirales._Eubacterium__coprostanoligenes_group'
p327
(lp328
F37517.77184530568
aF116307.45438142963
aF136320.44595536226
aF10073.735590403989
aF4617.561629552395
aF13273.978146499394
aF2161.544892840392
aF69309.462915601
aF21229.782552723354
aF498.06755354226186
aF0.0
aF7933.788964249167
asS'Bacteria.Firmicutes.Bacilli.Acholeplasmatales.Acholeplasmataceae.Anaeroplasma'
p329
(lp330
F0.0
aF0.0
aF0.0
aF0.0
aF297.90720190660613
aF0.0
aF61.17579885397335
aF0.0
aF0.0
aF1480.2901591311918
aF0.0
aF0.0
asS'Bacteria.Actinobacteriota.Coriobacteriia.Coriobacteriales.Eggerthellaceae'
p331
(lp332
F1943.3960334264118
aF2600.277464009279
aF4381.426972697903
aF5504.206044241354
aF8639.308855291578
aF7203.561311210037
aF13703.37894329003
aF0.0
aF97.52748324477838
aF230.94752482685888
aF56.10848791941097
aF281.87826328297126
asS'Bacteria.Firmicutes.Bacilli.Lactobacillales.Enterococcaceae'
p333
(lp334
F0.0
aF0.0
aF0.0
aF0.0
aF0.0
aF0.0
aF0.0
aF0.0
aF0.0
aF0.0
aF155.37735116144577
aF0.0
asS'Bacteria.Firmicutes.Clostridia.Lachnospirales.Lachnospiraceae._Eubacterium__ruminantium_group'
p335
(lp336
F398.90760686121087
aF4055.826365145668
aF1858.147342638147
aF0.0
aF0.0
aF0.0
aF0.0
aF0.0
aF0.0
aF0.0
aF0.0
aF0.0
asS'Bacteria.Firmicutes.Clostridia.Christensenellales'
p337
(lp338
F4500.496077408532
aF576.1547733664876
aF2037.6274836884224
aF41541.17769238757
aF30014.150592090566
aF3723.1889923108056
aF3854.0753278003212
aF0.0
aF27.307695308537948
aF89.04000957180101
aF280.5424395970548
aF312.2343839442143
asS'Bacteria.Proteobacteria.Gammaproteobacteria.Burkholderiales.Sutterellaceae.Parasutterella'
p339
(lp340
F1063.753618296562
aF0.0
aF0.0
aF0.0
aF2830.118418112758
aF0.0
aF0.0
aF0.0
aF624.1758927665816
aF41364.649446699805
aF4980.707312230789
aF6481.031761175393
asS'Bacteria.Firmicutes.Clostridia.uncultured.uncultured.uncultured'
p341
(lp342
F0.0
aF0.0
aF0.0
aF0.0
aF0.0
aF0.0
aF0.0
aF0.0
aF0.0
aF141.90751525505786
aF0.0
aF0.0
asS'Bacteria.Firmicutes.Bacilli.Erysipelotrichales.Erysipelotrichaceae.Dubosiella'
p343
(lp344
F15526.711467059436
aF4139.217187606608
aF4993.7709833400195
aF18485.82407311247
aF17204.1409101065
aF14164.3059490085
aF2324.6803564509873
aF0.0
aF0.0
aF308.85753320218475
aF0.0
aF1769.328175683881
asS'Bacteria.Proteobacteria.Gammaproteobacteria.Burkholderiales.Comamonadaceae.Comamonas'
p345
(lp346
F0.0
aF189.52459650213405
aF263.94138389746405
aF0.0
aF20034.25932821926
aF0.0
aF0.0
aF0.0
aF0.0
aF0.0
aF0.0
aF0.0
asS'Bacteria.Firmicutes.Clostridia.Clostridia_UCG_014'
p347
(lp348
F237708.02008857793
aF57092.38945030286
aF98925.23068476951
aF69996.88441167306
aF280256.20019363967
aF268069.607446378
aF36419.99225106547
aF61636.82864450126
aF5742.418213452551
aF38.95500418766294
aF0.0
aF9690.10737393537
asS'Bacteria.Firmicutes.Clostridia.Oscillospirales.Ruminococcaceae._Eubacterium__siraeum_group'
p349
(lp350
F15260.773062485296
aF37.904919300426805
aF0.0
aF0.0
aF0.0
aF0.0
aF1549.7869043006583
aF16879.795396419435
aF0.0
aF0.0
aF0.0
aF726.3786015368873
asS'Bacteria.Firmicutes.Clostridia.Lachnospirales.Lachnospiraceae.Fusicatenibacter'
p351
(lp352
F0.0
aF0.0
aF0.0
aF33856.05981929587
aF0.0
aF16754.350465398624
aF0.0
aF0.0
aF0.0
aF0.0
aF0.0
aF0.0
asS'Bacteria.Firmicutes.Clostridia.Oscillospirales.Ruminococcaceae.Fournierella'
p353
(lp354
F777.3584133705647
aF30.323935440341447
aF0.0
aF0.0
aF0.0
aF0.0
aF0.0
aF0.0
aF940.1649384796636
aF0.0
aF0.0
aF0.0
asS'Bacteria.Firmicutes.Bacilli.Erysipelotrichales.Erysipelotrichaceae.Turicibacter'
p355
(lp356
F16641.607086235643
aF81882.20667278199
aF64834.56154057307
aF109772.56205213418
aF20779.027332985777
aF5341.966815054635
aF83627.31703338158
aF5370.84398976982
aF0.0
aF976.6576049906922
aF0.0
aF1016.9300421516423
asS'Bacteria.Firmicutes.Clostridia.Clostridia_vadinBB60_group.Clostridia_vadinBB60_group'
p357
(lp358
F306.85200527785446
aF0.0
aF158.3648303384784
aF0.0
aF0.0
aF566.57223796034
aF0.0
aF0.0
aF2379.6705911725926
aF247.64252662157156
aF38.84433779036144
aF2781.9216291696316
asS'Bacteria.Firmicutes.Bacilli.Lactobacillales.Streptococcaceae.Streptococcus'
p359
(lp360
F0.0
aF159.2006610617926
aF0.0
aF4050.264825007789
aF4245.177627169137
aF1537.8389316066373
aF2202.328758743041
aF0.0
aF417.41762828765144
aF1407.9451513541035
aF530.872616468273
aF49.87076965775644
asS'Bacteria.Firmicutes.Bacilli.Lactobacillales.Streptococcaceae'
p361
(lp362
F0.0
aF159.2006610617926
aF0.0
aF4050.264825007789
aF4245.177627169137
aF1537.8389316066373
aF2202.328758743041
aF0.0
aF417.41762828765144
aF1480.2901591311918
aF530.872616468273
aF49.87076965775644
asS'Bacteria.Firmicutes.Clostridia.Lachnospirales.Lachnospiraceae.A2'
p363
(lp364
F0.0
aF409.3731284446095
aF1942.6085854853352
aF0.0
aF0.0
aF0.0
aF0.0
aF0.0
aF0.0
aF0.0
aF0.0
aF0.0
asS'Bacteria.Proteobacteria.Gammaproteobacteria.Burkholderiales.Alcaligenaceae'
p365
(lp366
F102.28400175928483
aF75.80983860085361
aF179.48014105027556
aF0.0
aF3500.4096224026216
aF0.0
aF1121.5563123228446
aF0.0
aF0.0
aF0.0
aF0.0
aF0.0
asS'Bacteria.Firmicutes.Clostridia.Lachnospirales.Lachnospiraceae._Eubacterium__hallii_group'
p367
(lp368
F0.0
aF0.0
aF0.0
aF0.0
aF0.0
aF0.0
aF0.0
aF0.0
aF0.0
aF66.78000717885075
aF850.2593938556893
aF0.0
asS'Bacteria.Firmicutes.Bacilli.Lactobacillales.Enterococcaceae.Enterococcus'
p369
(lp370
F0.0
aF0.0
aF0.0
aF0.0
aF0.0
aF0.0
aF0.0
aF0.0
aF0.0
aF0.0
aF155.37735116144577
aF0.0
asS'Bacteria.Bacteroidota.Bacteroidia.Bacteroidales.Prevotellaceae'
p371
(lp372
F9215.788558511562
aF1516.1967720170724
aF263.94138389746405
aF0.0
aF10128.844864824607
aF2509.1056252529343
aF897.2450498582759
aF0.0
aF96673.14249155411
aF5161.538054865339
aF217269.32937408832
aF203941.09177956262
asS'Bacteria.Firmicutes.Clostridia.Oscillospirales.Ruminococcaceae.Incertae_Sedis'
p373
(lp374
F613.7040105557089
aF0.0
aF369.51793745644966
aF8827.500259632361
aF2755.6416176361063
aF4613.516794819911
aF3466.6286017251564
aF28388.746803069047
aF4353.6268520469075
aF0.0
aF712.1461928232931
aF192.97819563218798
asS'Bacteria.Firmicutes.Clostridia.Clostridia_vadinBB60_group.Clostridia_vadinBB60_group.Clostridia_vadinBB60_group'
p375
(lp376
F306.85200527785446
aF0.0
aF158.3648303384784
aF0.0
aF0.0
aF566.57223796034
aF0.0
aF0.0
aF2379.6705911725926
aF247.64252662157156
aF38.84433779036144
aF2781.9216291696316
asS'Bacteria.Bacteroidota.Bacteroidia.Flavobacteriales'
p377
(lp378
F0.0
aF0.0
aF0.0
aF0.0
aF0.0
aF0.0
aF1243.9079100307915
aF0.0
aF0.0
aF0.0
aF0.0
aF0.0
asS'Bacteria.Proteobacteria.Alphaproteobacteria.Rhodospirillales.uncultured'
p379
(lp380
F0.0
aF0.0
aF0.0
aF0.0
aF0.0
aF0.0
aF0.0
aF0.0
aF0.0
aF767.9700825567837
aF0.0
aF12027.528664851086
asS'Bacteria.Gemmatimonadota'
p381
(lp382
F0.0
aF0.0
aF0.0
aF0.0
aF0.0
aF0.0
aF0.0
aF2813.2992327365723
aF0.0
aF0.0
aF0.0
aF0.0
asS'Bacteria.Proteobacteria.Gammaproteobacteria.Pasteurellales'
p383
(lp384
F0.0
aF0.0
aF0.0
aF0.0
aF670.2912042898637
aF1375.9611493322543
aF0.0
aF0.0
aF105.32968190436065
aF52.867505683256844
aF0.0
aF52.039063990702374
asS'Bacteria.Proteobacteria.Gammaproteobacteria.Burkholderiales.Burkholderiaceae'
p385
(lp386
F1534.2600263892725
aF4525.847364470961
aF2280.4535568740894
aF4777.235434624572
aF12810.009681984062
aF1618.7778227438287
aF4159.954322070188
aF0.0
aF109.23078123415179
aF425.7225457651736
aF133.79716350013385
aF93.2366563166751
asS'Bacteria.Firmicutes.Bacilli'
p387
(lp388
F143.19760246299876
aF1425.224965696048
aF654.5746320657108
aF934.6764980787206
aF0.0
aF0.0
aF1427.4353065927114
aF0.0
aF1829.6155856720425
aF4769.205512689591
aF4117.499805778313
aF2831.792398827388
asS'Bacteria.Proteobacteria.Gammaproteobacteria.Enterobacterales.Morganellaceae.Proteus'
p389
(lp390
F0.0
aF0.0
aF0.0
aF0.0
aF0.0
aF0.0
aF0.0
aF0.0
aF0.0
aF0.0
aF215.8018766131191
aF0.0
asS'Bacteria.Verrucomicrobiota.Verrucomicrobiae'
p391
(lp392
F91288.47157016171
aF3494.833559499352
aF11001.076880846302
aF0.0
aF893.7216057198183
aF21205.989477944153
aF24368.359876832717
aF9974.424552429664
aF30358.354984434613
aF3823.155410989206
aF152571.92676547522
aF3141.858488438656
asS'Bacteria.Firmicutes.Clostridia.Peptostreptococcales_Tissierellales.Anaerovoracaceae._Eubacterium__nodatum_group'
p393
(lp394
F971.6980167132059
aF0.0
aF0.0
aF0.0
aF0.0
aF0.0
aF0.0
aF0.0
aF85.82418525540497
aF0.0
aF0.0
aF238.51237662405256
asS'Bacteria.Firmicutes.Clostridia.Oscillospirales.Oscillospiraceae.Papillibacter'
p395
(lp396
F726.2164124909223
aF128.87672562145116
aF0.0
aF0.0
aF0.0
aF2347.2278429785515
aF0.0
aF0.0
aF0.0
aF0.0
aF0.0
aF277.54167461707937
asS'Bacteria.Firmicutes.Bacilli.Lactobacillales.Aerococcaceae'
p397
(lp398
F0.0
aF0.0
aF0.0
aF1246.2353307716273
aF819.2448052431668
aF0.0
aF0.0
aF0.0
aF0.0
aF0.0
aF302.1226272583668
aF26.019531995351187
asS'Bacteria.Proteobacteria.Gammaproteobacteria.Enterobacterales'
p399
(lp400
F3539.026460871255
aF5534.118217862314
aF7780.99199729724
aF15577.941634645344
aF9011.692857674834
aF27842.97855119385
aF6647.770142131771
aF18414.32225063938
aF2512.307968385491
aF1249.3426343043327
aF7000.612877329584
aF273.20508595118747
asS'Bacteria.Proteobacteria.Alphaproteobacteria.Sphingomonadales'
p401
(lp402
F0.0
aF0.0
aF95.01889820308705
aF0.0
aF0.0
aF0.0
aF0.0
aF0.0
aF0.0
aF22.260002392950252
aF0.0
aF0.0
asS'Bacteria.Campilobacterota.Campylobacteria.Campylobacterales.Helicobacteraceae'
p403
(lp404
F0.0
aF0.0
aF0.0
aF0.0
aF0.0
aF0.0
aF0.0
aF0.0
aF0.0
aF19.47750209383147
aF0.0
aF0.0
asS'Bacteria.Proteobacteria.Gammaproteobacteria.Enterobacterales.Enterobacteriaceae.Escherichia_Shigella'
p405
(lp406
F3539.026460871255
aF5534.118217862314
aF7780.99199729724
aF15577.941634645344
aF9011.692857674834
aF27842.97855119385
aF6647.770142131771
aF18414.32225063938
aF2512.307968385491
aF1249.3426343043327
aF6784.811000716465
aF273.20508595118747
asS'Bacteria.Verrucomicrobiota.Verrucomicrobiae.Verrucomicrobiales.Akkermansiaceae'
p407
(lp408
F91288.47157016171
aF3494.833559499352
aF11001.076880846302
aF0.0
aF893.7216057198183
aF21205.989477944153
aF24368.359876832717
aF9974.424552429664
aF30358.354984434613
aF3823.155410989206
aF152571.92676547522
aF3141.858488438656
asS'Bacteria.Firmicutes.Clostridia.Oscillospirales._Eubacterium__coprostanoligenes_group._Eubacterium__coprostanoligenes_group'
p409
(lp410
F37517.77184530568
aF116307.45438142963
aF136320.44595536226
aF10073.735590403989
aF4617.561629552395
aF13273.978146499394
aF2161.544892840392
aF69309.462915601
aF21229.782552723354
aF498.06755354226186
aF0.0
aF7933.788964249167
asS'Bacteria.Actinobacteriota.Coriobacteriia.Coriobacteriales.uncultured'
p411
(lp412
F0.0
aF0.0
aF781.2664963364936
aF5296.500155779417
aF5958.144038132122
aF7932.011331444761
aF3894.8591937029705
aF3324.8081841432218
aF35.10989396812022
aF0.0
aF30.212262725836673
aF0.0
asS'Bacteria.Firmicutes.Clostridia.Lachnospirales.Lachnospiraceae.uncultured'
p413
(lp414
F0.0
aF0.0
aF0.0
aF0.0
aF0.0
aF0.0
aF0.0
aF0.0
aF304.28574772370854
aF0.0
aF0.0
aF0.0
asS'Bacteria.Desulfobacterota.Desulfovibrionia.Desulfovibrionales.Desulfovibrionaceae'
p415
(lp416
F0.0
aF0.0
aF0.0
aF1869.352996157441
aF4617.561629552395
aF0.0
aF0.0
aF0.0
aF0.0
aF0.0
aF0.0
aF0.0
asS'Bacteria.Proteobacteria.Gammaproteobacteria.Pseudomonadales'
p417
(lp418
F388.67920668528234
aF773.260353728707
aF3241.2001942608586
aF0.0
aF28077.75377969762
aF971.2666936462971
aF5403.86223210098
aF0.0
aF101.4285825745695
aF205.90502213478985
aF21.58018766131191
aF0.0
asS'Bacteria.Firmicutes.Clostridia.Oscillospirales.Butyricicoccaceae.UCG_009'
p419
(lp420
F511.42000879642416
aF174.36262878196334
aF707.3629088452036
aF0.0
aF0.0
aF0.0
aF0.0
aF0.0
aF210.6593638087213
aF0.0
aF0.0
aF0.0
asS'Bacteria.Firmicutes.Clostridia.Oscillospirales.Butyricicoccaceae.Butyricicoccus'
p421
(lp422
F112.51240193521332
aF447.27804774503636
aF0.0
aF0.0
aF0.0
aF0.0
aF285.4870613185423
aF0.0
aF1380.9891627460618
aF0.0
aF0.0
aF80.2268903189995
asS'Bacteria.Firmicutes.Clostridia.Peptostreptococcales_Tissierellales.Anaerovoracaceae.Family_XIII_AD3011_group'
p423
(lp424
F992.1548170650628
aF0.0
aF137.2495196266813
aF0.0
aF0.0
aF0.0
aF0.0
aF0.0
aF89.7252845851961
aF0.0
aF246.0141393389558
aF286.21485194886304
asS'Bacteria.Proteobacteria.Alphaproteobacteria.Rhizobiales.Beijerinckiaceae'
p425
(lp426
F61.3704010555709
aF310.8203382634998
aF0.0
aF0.0
aF0.0
aF0.0
aF0.0
aF0.0
aF0.0
aF0.0
aF0.0
aF0.0
asS'Bacteria.Bacteroidota.Bacteroidia.Bacteroidales.Bacteroidaceae.Bacteroides'
p427
(lp428
F2618.4704450376917
aF447.27804774503636
aF0.0
aF0.0
aF32248.454606390107
aF0.0
aF183.52739656192006
aF0.0
aF104436.33015783847
aF321320.35204193776
aF64952.048823016594
aF66662.04097208974
asS'Bacteria.Firmicutes.Bacilli.Erysipelotrichales.Erysipelotrichaceae._Clostridium__innocuum_group'
p429
(lp430
F0.0
aF0.0
aF0.0
aF0.0
aF0.0
aF0.0
aF0.0
aF0.0
aF0.0
aF3586.6428855641093
aF0.0
aF0.0
asS'Bacteria.Firmicutes.Clostridia.Lachnospirales'
p431
(lp432
F23453.72160340401
aF52134.426005807036
aF71274.73130767119
aF52134.17800394641
aF100394.72704252625
aF135572.64265479564
aF10297.92614041885
aF88746.80306905368
aF190869.0869086909
aF16280.409250143992
aF21437.758422747254
aF18311.245641728397
asS'Bacteria.Actinobacteriota.Actinobacteria.Corynebacteriales.Corynebacteriaceae.Corynebacterium'
p433
(lp434
F0.0
aF0.0
aF0.0
aF5919.6178211652295
aF0.0
aF0.0
aF0.0
aF0.0
aF0.0
aF0.0
aF0.0
aF0.0
asS'Bacteria.Deferribacterota.Deferribacteres'
p435
(lp436
F0.0
aF0.0
aF0.0
aF0.0
aF0.0
aF0.0
aF0.0
aF0.0
aF253.57145643642377
aF258.7725278180467
aF0.0
aF136.60254297559374
asS'Bacteria.Firmicutes.Clostridia.Clostridiales'
p437
(lp438
F60378.24623850584
aF433677.7627000432
aF235425.15678118204
aF402326.3059507737
aF18768.153720116185
aF16997.1671388102
aF659964.5180366645
aF15089.514066496162
aF0.0
aF25.042502692069036
aF0.0
aF0.0
asS'Bacteria.Firmicutes.Clostridia.Eubacteriales.Anaerofustaceae.Anaerofustis'
p439
(lp440
F327.30880562971146
aF75.80983860085361
aF190.0377964061741
aF0.0
aF0.0
aF404.69445568595717
aF0.0
aF0.0
aF0.0
aF0.0
aF0.0
aF0.0
asS'Bacteria.Firmicutes.Bacilli.Lactobacillales'
p441
(lp442
F664.8460114353514
aF18944.87866635332
aF48839.713676386746
aF32713.677432755216
aF16384.896104863335
aF3318.4945366248485
aF4812.49617651257
aF0.0
aF10216.979144722984
aF51634.85805074723
aF8260.895836750198
aF23664.76434977191
asS'Bacteria.Firmicutes.Bacilli.Acholeplasmatales.Acholeplasmataceae'
p443
(lp444
F0.0
aF0.0
aF0.0
aF0.0
aF297.90720190660613
aF0.0
aF61.17579885397335
aF0.0
aF0.0
aF1480.2901591311918
aF0.0
aF0.0
asS'Bacteria.Actinobacteriota.Actinobacteria'
p445
(lp446
F19116.879928810333
aF10825.644952201896
aF5996.748242150384
aF13604.735694256933
aF10426.752066731213
aF4613.516794819911
aF163.13546361059562
aF0.0
aF0.0
aF795.7950855479714
aF8.632075064524765
aF86.73177331783731
asS'Bacteria.Firmicutes.Clostridia.Peptostreptococcales_Tissierellales.Anaerovoracaceae._Eubacterium__brachy_group'
p447
(lp448
F0.0
aF144.0386933416219
aF242.8260731856669
aF0.0
aF0.0
aF1295.022258195063
aF0.0
aF0.0
aF0.0
aF0.0
aF0.0
aF0.0
asS'Bacteria.Gemmatimonadota.Gemmatimonadetes'
p449
(lp450
F0.0
aF0.0
aF0.0
aF0.0
aF0.0
aF0.0
aF0.0
aF2813.2992327365723
aF0.0
aF0.0
aF0.0
aF0.0
asS'Bacteria.Actinobacteriota.Coriobacteriia.Coriobacteriales.Atopobiaceae.uncultured'
p451
(lp452
F122.7408021111418
aF0.0
aF0.0
aF0.0
aF0.0
aF0.0
aF530.1902567344357
aF0.0
aF0.0
aF0.0
aF0.0
aF0.0
asS'Bacteria.Bacteroidota.Bacteroidia.Flavobacteriales.Weeksellaceae.Chryseobacterium'
p453
(lp454
F0.0
aF0.0
aF0.0
aF0.0
aF0.0
aF0.0
aF1243.9079100307915
aF0.0
aF0.0
aF0.0
aF0.0
aF0.0
asS'Bacteria.Firmicutes.Clostridia.uncultured.uncultured'
p455
(lp456
F0.0
aF0.0
aF0.0
aF0.0
aF0.0
aF0.0
aF0.0
aF0.0
aF0.0
aF141.90751525505786
aF0.0
aF0.0
asS'Bacteria.Firmicutes.Clostridia.Oscillospirales.Ruminococcaceae'
p457
(lp458
F1963.8528337782689
aF530.6688702059753
aF907.9583606072763
aF0.0
aF0.0
aF1618.7778227438287
aF1264.2998429821162
aF10741.68797953964
aF3425.1652115566167
aF0.0
aF280.5424395970548
aF437.99545525507835
asS'Bacteria.Bacteroidota.Bacteroidia.Flavobacteriales.Weeksellaceae'
p459
(lp460
F0.0
aF0.0
aF0.0
aF0.0
aF0.0
aF0.0
aF1243.9079100307915
aF0.0
aF0.0
aF0.0
aF0.0
aF0.0
asS'Bacteria.Firmicutes.Clostridia.Oscillospirales._Clostridium__methylpentosum_group._Clostridium__methylpentosum_group'
p461
(lp462
F0.0
aF0.0
aF0.0
aF0.0
aF0.0
aF0.0
aF0.0
aF0.0
aF70.21978793624044
aF0.0
aF0.0
aF0.0
asS'Bacteria.Firmicutes.Clostridia.Lachnospirales.Lachnospiraceae.Dorea'
p463
(lp464
F0.0
aF0.0
aF0.0
aF0.0
aF2904.5952185894093
aF0.0
aF0.0
aF0.0
aF46.81319195749362
aF0.0
aF0.0
aF0.0
asS'Bacteria.Firmicutes.Clostridia.Oscillospirales.Ruminococcaceae.uncultured'
p465
(lp466
F81.82720140742786
aF0.0
aF0.0
aF0.0
aF0.0
aF0.0
aF0.0
aF0.0
aF1739.8903010868462
aF94.60501017003857
aF116.53301337108431
aF234.1757879581607
asS'Bacteria.Firmicutes.Clostridia.Oscillospirales.Oscillospiraceae.Oscillibacter'
p467
(lp468
F398.90760686121087
aF121.29574176136579
aF834.0547731159863
aF0.0
aF0.0
aF0.0
aF0.0
aF0.0
aF7587.638196443758
aF141.90751525505786
aF220.1179141453815
aF342.59050460545734
asS'Bacteria.Patescibacteria.Saccharimonadia.Saccharimonadales.Saccharimonadaceae.Candidatus_Saccharimonas'
p469
(lp470
F3794.736465269467
aF5625.090024183339
aF15361.388542832408
aF3738.705992314882
aF15193.267297236911
aF32456.495346013766
aF550.5821896857602
aF12531.969309462913
aF0.0
aF41.737504486781724
aF0.0
aF1051.6227514787772
asS'Bacteria.Firmicutes.Clostridia.Peptostreptococcales_Tissierellales.Peptostreptococcaceae.Clostridioides'
p471
(lp472
F0.0
aF0.0
aF0.0
aF0.0
aF0.0
aF0.0
aF0.0
aF0.0
aF0.0
aF17621.574394319243
aF0.0
aF0.0
asS'Bacteria.Proteobacteria.Alphaproteobacteria.Rhizobiales.Beijerinckiaceae.Methylobacterium_Methylorubrum'
p473
(lp474
F61.3704010555709
aF310.8203382634998
aF0.0
aF0.0
aF0.0
aF0.0
aF0.0
aF0.0
aF0.0
aF0.0
aF0.0
aF0.0
asS'Bacteria.Firmicutes.Clostridia.Lachnospirales.Lachnospiraceae'
p475
(lp476
F7548.5593298352205
aF19255.699004616818
aF24367.068561413882
aF10177.588534634957
aF25768.972964921428
aF69850.2630513962
aF5668.957360468198
aF53196.93094629155
aF73929.7333988718
aF498.06755354226186
aF2675.943270002677
aF12367.950875123599
asS'Bacteria.Firmicutes.Bacilli.Erysipelotrichales.Erysipelatoclostridiaceae.Erysipelatoclostridium'
p477
(lp478
F0.0
aF0.0
aF0.0
aF0.0
aF744.7680047665152
aF1214.0833670578713
aF0.0
aF1790.2813299232732
aF0.0
aF1124.1301208439877
aF224.43395167764388
aF197.31478429807987
asS'Bacteria.Proteobacteria.Gammaproteobacteria.Burkholderiales.Burkholderiaceae.Burkholderia_Caballeronia_Paraburkholderia'
p479
(lp480
F1534.2600263892725
aF4525.847364470961
aF2280.4535568740894
aF4777.235434624572
aF12810.009681984062
aF1618.7778227438287
aF4159.954322070188
aF0.0
aF109.23078123415179
aF425.7225457651736
aF133.79716350013385
aF93.2366563166751
asS'Bacteria.Patescibacteria.Saccharimonadia'
p481
(lp482
F3794.736465269467
aF5625.090024183339
aF15361.388542832408
aF3738.705992314882
aF15193.267297236911
aF32456.495346013766
aF550.5821896857602
aF12531.969309462913
aF0.0
aF41.737504486781724
aF0.0
aF1051.6227514787772
asS'Bacteria.Firmicutes.Bacilli.Lactobacillales.Streptococcaceae.Lactococcus'
p483
(lp484
F0.0
aF0.0
aF0.0
aF0.0
aF0.0
aF0.0
aF0.0
aF0.0
aF0.0
aF72.34500777708833
aF0.0
aF0.0
asS'Bacteria.Actinobacteriota.Actinobacteria.Corynebacteriales'
p485
(lp486
F0.0
aF0.0
aF0.0
aF5919.6178211652295
aF0.0
aF0.0
aF0.0
aF0.0
aF0.0
aF0.0
aF0.0
aF0.0
asS'Bacteria.Firmicutes.Bacilli.Erysipelotrichales.Erysipelotrichaceae.Holdemania'
p487
(lp488
F0.0
aF0.0
aF0.0
aF0.0
aF0.0
aF1214.0833670578713
aF0.0
aF0.0
aF0.0
aF0.0
aF405.7075280326639
aF0.0
asS'Bacteria.Firmicutes.Clostridia.Peptococcales.Peptococcaceae.uncultured'
p489
(lp490
F153.42600263892723
aF242.59148352273158
aF211.15310711797125
aF0.0
aF0.0
aF0.0
aF0.0
aF0.0
aF1817.912287682669
aF180.86251944272078
aF215.8018766131191
aF604.9541188919152
asS'Bacteria.Verrucomicrobiota.Verrucomicrobiae.Verrucomicrobiales'
p491
(lp492
F91288.47157016171
aF3494.833559499352
aF11001.076880846302
aF0.0
aF893.7216057198183
aF21205.989477944153
aF24368.359876832717
aF9974.424552429664
aF30358.354984434613
aF3823.155410989206
aF152571.92676547522
aF3141.858488438656
asS'Bacteria.Firmicutes.Clostridia.Oscillospirales.Butyricicoccaceae'
p493
(lp494
F623.9324107316376
aF621.6406765269996
aF707.3629088452036
aF0.0
aF8639.308855291578
aF4208.822339133954
aF285.4870613185423
aF0.0
aF1591.648526554783
aF0.0
aF0.0
aF80.2268903189995
asS'Bacteria.Proteobacteria.Alphaproteobacteria.Caulobacterales'
p495
(lp496
F0.0
aF0.0
aF0.0
aF0.0
aF968.1984061964698
aF0.0
aF632.1499214910581
aF0.0
aF0.0
aF0.0
aF0.0
aF0.0
asS'Bacteria.Actinobacteriota.Coriobacteriia.Coriobacteriales.Coriobacteriales_Incertae_Sedis'
p497
(lp498
F0.0
aF0.0
aF0.0
aF0.0
aF446.86080285990914
aF0.0
aF387.4467260751646
aF0.0
aF0.0
aF0.0
aF0.0
aF0.0
asS'Bacteria.Proteobacteria.Gammaproteobacteria.Enterobacterales.Morganellaceae'
p499
(lp500
F0.0
aF0.0
aF0.0
aF0.0
aF0.0
aF0.0
aF0.0
aF0.0
aF0.0
aF0.0
aF215.8018766131191
aF0.0
asS'Bacteria.Bacteroidota.Bacteroidia.Bacteroidales.Muribaculaceae'
p501
(lp502
F375637.9964609735
aF32416.286985725004
aF45492.9369285669
aF1973.20594038841
aF166679.07946674613
aF30433.023067583978
aF19535.471767368825
aF562659.8465473144
aF419044.38670817437
aF313226.05867180123
aF479183.7509818987
aF564916.5640340685
asS'Bacteria.Firmicutes.Clostridia.Lachnospirales.Lachnospiraceae.Blautia'
p503
(lp504
F255.71000439821208
aF68.22885474076826
aF633.4593213539137
aF3323.294215391006
aF55261.78595367543
aF17482.800485633346
aF0.0
aF0.0
aF0.0
aF1917.1427060928404
aF43.16037532262382
aF411.97592325972715
asS'Bacteria.Patescibacteria.Saccharimonadia.Saccharimonadales'
p505
(lp506
F3794.736465269467
aF5625.090024183339
aF15361.388542832408
aF3738.705992314882
aF15193.267297236911
aF32456.495346013766
aF550.5821896857602
aF12531.969309462913
aF0.0
aF41.737504486781724
aF0.0
aF1051.6227514787772
asS'Bacteria.Cyanobacteria'
p507
(lp508
F286.3952049259975
aF0.0
aF0.0
aF519.2647211548448
aF0.0
aF0.0
aF0.0
aF0.0
aF241.86815844705038
aF573.1950616184689
aF0.0
aF4789.762181477565
asS'Bacteria.Firmicutes.Clostridia.Oscillospirales.Ruminococcaceae.Subdoligranulum'
p509
(lp510
F0.0
aF0.0
aF179.48014105027556
aF0.0
aF8192.448052431668
aF38445.97329016593
aF0.0
aF0.0
aF0.0
aF0.0
aF0.0
aF0.0
asS'Bacteria.Firmicutes.Bacilli.Staphylococcales.Staphylococcaceae'
p511
(lp512
F0.0
aF113.71475790128044
aF0.0
aF5711.911932703292
aF0.0
aF1618.7778227438287
aF0.0
aF0.0
aF0.0
aF0.0
aF0.0
aF0.0
asS'Bacteria.Proteobacteria.Gammaproteobacteria.Burkholderiales.Comamonadaceae.Delftia'
p513
(lp514
F0.0
aF386.6301768643535
aF0.0
aF1557.7941634645342
aF45803.23229314068
aF3561.311210036423
aF5628.173494565549
aF0.0
aF0.0
aF0.0
aF0.0
aF0.0
asS'Bacteria.Firmicutes.Clostridia.Oscillospirales.Ruminococcaceae.Harryflintia'
p515
(lp516
F0.0
aF0.0
aF0.0
aF0.0
aF0.0
aF0.0
aF0.0
aF0.0
aF1154.7254016181762
aF44.520004785900504
aF0.0
aF0.0
asS'Bacteria.Actinobacteriota.Actinobacteria.Micrococcales.Micrococcaceae'
p517
(lp518
F0.0
aF341.14427370384124
aF0.0
aF0.0
aF0.0
aF0.0
aF0.0
aF0.0
aF0.0
aF0.0
aF8.632075064524765
aF0.0
asS'Bacteria.Actinobacteriota.Actinobacteria.Corynebacteriales.Corynebacteriaceae'
p519
(lp520
F0.0
aF0.0
aF0.0
aF5919.6178211652295
aF0.0
aF0.0
aF0.0
aF0.0
aF0.0
aF0.0
aF0.0
aF0.0
asS'Bacteria.Actinobacteriota.Coriobacteriia.Coriobacteriales.Eggerthellaceae.Adlercreutzia'
p521
(lp522
F1339.9204230466312
aF621.6406765269996
aF1984.8392069089296
aF5504.206044241354
aF3276.979220972667
aF4451.639012545529
aF3854.0753278003212
aF0.0
aF0.0
aF178.08001914360202
aF0.0
aF138.77083730853968
asS'Bacteria.Firmicutes.Clostridia.Oscillospirales._Clostridium__methylpentosum_group'
p523
(lp524
F0.0
aF0.0
aF0.0
aF0.0
aF0.0
aF0.0
aF0.0
aF0.0
aF70.21978793624044
aF0.0
aF0.0
aF0.0
asS'Bacteria.Firmicutes.Clostridia.Oscillospirales.Oscillospiraceae'
p525
(lp526
F8141.806540039072
aF849.0701923295605
aF1773.6860997909585
aF3634.853048083913
aF670.2912042898637
aF23472.278429785514
aF1141.9482452741693
aF14066.496163682861
aF28376.596524900717
aF520.3275559352121
aF3055.7545728417663
aF2406.8067095699853
asS'Bacteria.Firmicutes.Clostridia.Oscillospirales.Oscillospiraceae.UCG_003'
p527
(lp528
F0.0
aF0.0
aF0.0
aF0.0
aF0.0
aF0.0
aF0.0
aF0.0
aF2996.044285279592
aF0.0
aF0.0
aF0.0
asS'Bacteria.Firmicutes.Clostridia.Christensenellales.Christensenellaceae.uncultured'
p529
(lp530
F163.65440281485573
aF0.0
aF0.0
aF0.0
aF0.0
aF0.0
aF0.0
aF0.0
aF27.307695308537948
aF0.0
aF0.0
aF28.18782632829712
asS'Bacteria.Firmicutes.Clostridia.Oscillospirales.Oscillospiraceae.UCG_005'
p531
(lp532
F736.4448126668508
aF993.1088856711824
aF2386.030110433075
aF4154.117769238758
aF7075.296045281894
aF171185.75475515987
aF0.0
aF0.0
aF386.2088336493224
aF2050.7027204505416
aF0.0
aF659.1614772155635
asS'Bacteria'
p533
(lp534
F1000000.0
aF1000000.0
aF1000000.0
aF1000000.0
aF1000000.0
aF1000000.0
aF1000000.0
aF1000000.0
aF1000000.0
aF1000000.0
aF1000000.0
aF1000000.0
asS'Bacteria.Firmicutes.Clostridia.Oscillospirales.Oscillospiraceae.UCG_007'
p535
(lp536
F0.0
aF0.0
aF0.0
aF0.0
aF0.0
aF0.0
aF0.0
aF0.0
aF0.0
aF0.0
aF0.0
aF65.04882998837797
assS'subclass_sl'
p537
(dp538
g12
(I0
I8
tp539
sg10
(I8
I12
tp540
ssS'norm'
p541
F1000000.0
sS'cls'
p542
(dp543
S'class'
p544
(S'HSD-NC'
p545
S'HSD-NC'
p546
S'HSD-NC'
p547
S'HSD-NC'
p548
S'HSD-NC'
p549
S'HSD-NC'
p550
S'HSD-NC'
p551
g5
S'NC'
p552
S'NC'
p553
S'NC'
p554
g3
tp555
sS'subclass'
p556
(lp557
S'HSD-NC_subcl'
p558
aS'HSD-NC_subcl'
p559
aS'HSD-NC_subcl'
p560
aS'HSD-NC_subcl'
p561
aS'HSD-NC_subcl'
p562
aS'HSD-NC_subcl'
p563
aS'HSD-NC_subcl'
p564
ag12
aS'NC_subcl'
p565
aS'NC_subcl'
p566
aS'NC_subcl'
p567
ag10
asS'subject'
p568
(S'S210421121688'
p569
S'S210421121689'
p570
S'S210421121690'
p571
S'S210421121698'
p572
S'S210421121699'
p573
S'S210421121700'
p574
S'S210421121701'
p575
S'S210421121702'
p576
S'S210421121673'
p577
S'S210421121674'
p578
S'S210421121675'
p579
S'S210421121676'
p580
tp581
ss.