(dp0
S'class_sl'
p1
(dp2
S'NC'
p3
(I8
I12
tp4
sS'HSD-NC'
p5
(I0
I8
tp6
ssS'class_hierarchy'
p7
(dp8
g3
(lp9
S'NC_subcl'
p10
asg5
(lp11
S'HSD-NC_subcl'
p12
assS'feats'
p13
(dp14
S'Bacteria.Firmicutes.Clostridia.Lachnospirales.Lachnospiraceae._Eubacterium__ventriosum_group.uncultured_Clostridiales'
p15
(lp16
F0.0
aF0.0
aF0.0
aF0.0
aF0.0
aF1375.9611493322539
aF0.0
aF4859.335038363171
aF0.0
aF0.0
aF0.0
aF0.0
asS'Bacteria.Firmicutes.Bacilli.Acholeplasmatales'
p17
(lp18
F0.0
aF0.0
aF0.0
aF0.0
aF297.907201906606
aF0.0
aF61.17579885397336
aF0.0
aF0.0
aF1480.2901591311918
aF0.0
aF0.0
asS'Bacteria.Firmicutes.Bacilli.Lactobacillales.Streptococcaceae'
p19
(lp20
F0.0
aF159.2006610617926
aF0.0
aF4050.264825007789
aF4245.177627169136
aF1537.8389316066366
aF2202.3287587430414
aF0.0
aF417.4176282876514
aF1480.2901591311918
aF530.8726164682729
aF49.870769657756426
asS'Bacteria.Cyanobacteria.Vampirivibrionia.Gastranaerophilales.Gastranaerophilales'
p21
(lp22
F286.3952049259976
aF0.0
aF0.0
aF519.2647211548448
aF0.0
aF0.0
aF0.0
aF0.0
aF241.86815844705032
aF573.1950616184689
aF0.0
aF4789.762181477563
asS'Bacteria.Firmicutes.Clostridia.Oscillospirales.Ruminococcaceae.uncultured.uncultured_bacterium'
p23
(lp24
F0.0
aF0.0
aF0.0
aF0.0
aF0.0
aF0.0
aF0.0
aF0.0
aF1739.8903010868457
aF94.60501017003857
aF116.53301337108431
aF234.1757879581606
asS'Bacteria.Firmicutes.Clostridia.Lachnospirales.Lachnospiraceae.Lachnospiraceae_UCG_006'
p25
(lp26
F2311.6184397598377
aF530.6688702059753
aF2776.663358601322
aF3219.4412711600376
aF0.0
aF0.0
aF0.0
aF0.0
aF401.81323096848683
aF0.0
aF0.0
aF0.0
asS'Bacteria.Firmicutes.Clostridia.Lachnospirales.Lachnospiraceae.Lachnospiraceae_UCG_001'
p27
(lp28
F0.0
aF0.0
aF0.0
aF0.0
aF0.0
aF0.0
aF0.0
aF0.0
aF0.0
aF0.0
aF0.0
aF212.4928446287013
asS'Bacteria.Actinobacteriota.Actinobacteria.Bifidobacteriales.Bifidobacteriaceae.Bifidobacterium.Bifidobacterium_animalis'
p29
(lp30
F501.1916086204958
aF3024.8125601740594
aF1636.4365801642773
aF7685.117873091703
aF0.0
aF4613.51679481991
aF163.13546361059565
aF0.0
aF0.0
aF795.7950855479714
aF0.0
aF86.73177331783727
asS'Bacteria.Verrucomicrobiota.Verrucomicrobiae.Verrucomicrobiales.Akkermansiaceae.Akkermansia'
p31
(lp32
F91288.47157016172
aF3494.833559499352
aF11001.076880846304
aF0.0
aF893.7216057198181
aF21205.989477944146
aF24368.359876832725
aF9974.424552429668
aF30358.35498443461
aF3823.155410989206
aF152571.92676547522
aF3141.858488438655
asS'Bacteria.Firmicutes.Clostridia.Lachnospirales.Lachnospiraceae.Lachnospiraceae_UCG_001.unidentified'
p33
(lp34
F0.0
aF940.0419986505848
aF0.0
aF0.0
aF0.0
aF0.0
aF0.0
aF0.0
aF0.0
aF0.0
aF0.0
aF0.0
asS'Bacteria.Firmicutes.Bacilli.Lactobacillales.Lactobacillaceae.Lactobacillus'
p35
(lp36
F664.8460114353516
aF18300.495038246063
aF48839.71367638675
aF27417.1772769758
aF11320.47367245103
aF1780.6556050182107
aF2610.1674177695304
aF0.0
aF8324.94596977428
aF29711.538193990345
aF5226.721451569744
aF15878.419400163059
asS'Bacteria.Actinobacteriota.Actinobacteria.Bifidobacteriales'
p37
(lp38
F19116.87992881034
aF10484.500678498056
aF5996.748242150384
aF7685.117873091703
aF10426.752066731211
aF4613.51679481991
aF163.13546361059565
aF0.0
aF0.0
aF795.7950855479714
aF0.0
aF86.73177331783727
asS'Bacteria.Firmicutes.Clostridia.Oscillospirales.Oscillospiraceae.UCG_003.uncultured_bacterium'
p39
(lp40
F0.0
aF0.0
aF0.0
aF0.0
aF0.0
aF0.0
aF0.0
aF0.0
aF2996.0442852795913
aF0.0
aF0.0
aF0.0
asS'Bacteria.Desulfobacterota.Desulfovibrionia'
p41
(lp42
F0.0
aF0.0
aF0.0
aF1869.352996157441
aF4617.561629552393
aF0.0
aF0.0
aF0.0
aF0.0
aF0.0
aF0.0
aF0.0
asS'Bacteria.Firmicutes.Bacilli.Erysipelotrichales.Erysipelotrichaceae.Faecalibaculum'
p43
(lp44
F5676.76209764031
aF712.612482848024
aF717.9205642011023
aF0.0
aF0.0
aF0.0
aF1733.3143008625786
aF0.0
aF0.0
aF111.30001196475126
aF0.0
aF86.73177331783727
asS'Bacteria.Cyanobacteria.Vampirivibrionia'
p45
(lp46
F286.3952049259976
aF0.0
aF0.0
aF519.2647211548448
aF0.0
aF0.0
aF0.0
aF0.0
aF241.86815844705032
aF573.1950616184689
aF0.0
aF4789.762181477563
asS'Bacteria.Bacteroidota.Bacteroidia.Bacteroidales.Muribaculaceae.Muribaculaceae'
p47
(lp48
F9809.035768715417
aF1319.091191654853
aF0.0
aF0.0
aF26513.740969687937
aF0.0
aF4159.954322070189
aF40153.452685421995
aF25037.2554985995
aF66017.60209689221
aF104620.74978204013
aF66020.22584953773
asS'Bacteria.Firmicutes.Clostridia.Lachnospirales.Lachnospiraceae.Frisingicoccus'
p49
(lp50
F1278.5500219910605
aF0.0
aF0.0
aF0.0
aF7224.2496462351955
aF1214.0833670578709
aF0.0
aF0.0
aF0.0
aF506.41505443961825
aF0.0
aF34.69270932713491
asS'Bacteria.Proteobacteria.Gammaproteobacteria.Pasteurellales'
p51
(lp52
F0.0
aF0.0
aF0.0
aF0.0
aF670.2912042898636
aF1375.9611493322539
aF0.0
aF0.0
aF105.32968190436063
aF52.867505683256844
aF0.0
aF52.03906399070236
asS'Bacteria.Firmicutes.Clostridia.Oscillospirales.Oscillospiraceae.UCG_007'
p53
(lp54
F0.0
aF0.0
aF0.0
aF0.0
aF0.0
aF0.0
aF0.0
aF0.0
aF0.0
aF0.0
aF0.0
aF65.04882998837795
asS'Bacteria.Proteobacteria.Gammaproteobacteria.Pseudomonadales.Moraxellaceae.Acinetobacter'
p55
(lp56
F0.0
aF0.0
aF0.0
aF0.0
aF0.0
aF0.0
aF2732.519015477477
aF0.0
aF0.0
aF0.0
aF0.0
aF0.0
asS'Bacteria.Firmicutes.Clostridia.Clostridia_vadinBB60_group'
p57
(lp58
F306.8520052778545
aF0.0
aF158.36483033847844
aF0.0
aF0.0
aF566.5722379603397
aF0.0
aF0.0
aF2379.670591172592
aF247.64252662157156
aF38.84433779036144
aF2781.9216291696303
asS'Bacteria.Firmicutes.Bacilli.Erysipelotrichales.Erysipelatoclostridiaceae.UCG_004'
p59
(lp60
F0.0
aF0.0
aF0.0
aF0.0
aF0.0
aF0.0
aF0.0
aF0.0
aF413.5165289578602
aF97.38751046915735
aF0.0
aF381.61980259848394
asS'Bacteria.Firmicutes.Clostridia.Oscillospirales.Butyricicoccaceae.Butyricicoccus.uncultured_bacterium'
p61
(lp62
F112.51240193521333
aF447.27804774503636
aF0.0
aF0.0
aF0.0
aF0.0
aF285.4870613185424
aF0.0
aF1380.9891627460615
aF0.0
aF0.0
aF52.03906399070236
asS'Bacteria.Firmicutes.Clostridia.Oscillospirales.Oscillospiraceae.Colidextribacter'
p63
(lp64
F0.0
aF0.0
aF1002.9772588103637
aF0.0
aF0.0
aF0.0
aF0.0
aF0.0
aF3799.670747216565
aF47.302505085019284
aF500.6603537424363
aF437.9954552550782
asS'Bacteria.Bacteroidota.Bacteroidia.Bacteroidales.Tannerellaceae'
p65
(lp66
F644.3892110834946
aF280.4964028231584
aF0.0
aF0.0
aF1117.1520071497725
aF0.0
aF0.0
aF0.0
aF6682.583151932214
aF81791.59629259659
aF22931.107408910033
aF8215.667227532136
asS'Bacteria.Firmicutes.Clostridia.Peptostreptococcales_Tissierellales.Anaerovoracaceae.Family_XIII_UCG_001.uncultured_bacterium'
p67
(lp68
F0.0
aF0.0
aF0.0
aF0.0
aF0.0
aF0.0
aF0.0
aF0.0
aF156.04397319164536
aF0.0
aF0.0
aF0.0
asS'Bacteria.Bacteroidota.Bacteroidia.Bacteroidales.Muribaculaceae'
p69
(lp70
F375637.9964609736
aF32416.286985725004
aF45492.93692856691
aF1973.20594038841
aF166679.07946674607
aF30433.023067583967
aF19535.47176736883
aF562659.8465473145
aF419044.38670817425
aF313226.05867180123
aF479183.7509818987
aF564916.5640340683
asS'Bacteria.Proteobacteria.Alphaproteobacteria.Rhizobiales'
p71
(lp72
F61.370401055570916
aF310.8203382634998
aF221.71076247386983
aF934.6764980787206
aF6107.097639085424
aF647.5111290975312
aF1284.6917759334406
aF0.0
aF0.0
aF36.17250388854416
aF0.0
aF0.0
asS'Bacteria.Bacteroidota.Bacteroidia.Bacteroidales.Muribaculaceae.Muribaculaceae.uncultured_Bacteroidales'
p73
(lp74
F1922.9392330745554
aF144.0386933416219
aF0.0
aF0.0
aF0.0
aF0.0
aF0.0
aF0.0
aF9612.308748605354
aF2078.52772344173
aF3858.5375538425697
aF17359.36442956513
asS'Bacteria.Firmicutes.Clostridia.Lachnospirales.Defluviitaleaceae.Defluviitaleaceae_UCG_011'
p75
(lp76
F0.0
aF0.0
aF0.0
aF0.0
aF0.0
aF0.0
aF0.0
aF0.0
aF0.0
aF55.65000598237563
aF0.0
aF134.43424864264776
asS'Bacteria.Actinobacteriota.Actinobacteria.Corynebacteriales'
p77
(lp78
F0.0
aF0.0
aF0.0
aF5919.6178211652295
aF0.0
aF0.0
aF0.0
aF0.0
aF0.0
aF0.0
aF0.0
aF0.0
asS'Bacteria.Verrucomicrobiota'
p79
(lp80
F91288.47157016172
aF3494.833559499352
aF11001.076880846304
aF0.0
aF893.7216057198181
aF21205.989477944146
aF24368.359876832725
aF9974.424552429668
aF30358.35498443461
aF3823.155410989206
aF152571.92676547522
aF3141.858488438655
asS'Bacteria.Firmicutes.Clostridia.Lachnospirales.Lachnospiraceae.Tuzzerella'
p81
(lp82
F163.65440281485576
aF0.0
aF0.0
aF0.0
aF0.0
aF0.0
aF0.0
aF0.0
aF0.0
aF0.0
aF0.0
aF23.851237662405246
asS'Bacteria.Firmicutes.Clostridia.Oscillospirales.Ruminococcaceae.Candidatus_Soleaferrea'
p83
(lp84
F0.0
aF0.0
aF0.0
aF0.0
aF0.0
aF0.0
aF0.0
aF0.0
aF0.0
aF0.0
aF0.0
aF26.01953199535118
asS'Bacteria.Firmicutes.Clostridia.Oscillospirales.Oscillospiraceae.UCG_007.uncultured_bacterium'
p85
(lp86
F0.0
aF0.0
aF0.0
aF0.0
aF0.0
aF0.0
aF0.0
aF0.0
aF0.0
aF0.0
aF0.0
aF65.04882998837795
asS'Bacteria.Bacteroidota.Bacteroidia.Bacteroidales'
p87
(lp88
F391410.18953225535
aF34758.81099849138
aF45756.878312464374
aF1973.20594038841
aF212556.7885603634
aF32942.1286928369
aF20820.16354330227
aF562659.8465473145
aF653184.4673829084
aF748130.8554240667
aF784336.2365879137
aF869551.0763413069
asS'Bacteria.Cyanobacteria'
p89
(lp90
F286.3952049259976
aF0.0
aF0.0
aF519.2647211548448
aF0.0
aF0.0
aF0.0
aF0.0
aF241.86815844705032
aF573.1950616184689
aF0.0
aF4789.762181477563
asS'Bacteria.Firmicutes.Bacilli.RF39.RF39.RF39.unidentified'
p91
(lp92
F327.3088056297115
aF90.97180632102435
aF0.0
aF0.0
aF0.0
aF0.0
aF0.0
aF0.0
aF0.0
aF0.0
aF0.0
aF0.0
asS'Bacteria.Firmicutes.Clostridia.Peptococcales'
p93
(lp94
F153.42600263892726
aF242.59148352273158
aF211.15310711797125
aF0.0
aF0.0
aF0.0
aF81.56773180529783
aF0.0
aF1817.9122876826686
aF180.86251944272078
aF215.8018766131191
aF604.9541188919148
asS'Bacteria.Firmicutes.Clostridia.Lachnospirales.Lachnospiraceae.Hungatella'
p95
(lp96
F0.0
aF0.0
aF0.0
aF0.0
aF0.0
aF0.0
aF0.0
aF0.0
aF0.0
aF3099.7053332183227
aF0.0
aF0.0
asS'Bacteria.Firmicutes.Bacilli.Staphylococcales.Staphylococcaceae.Jeotgalicoccus'
p97
(lp98
F0.0
aF0.0
aF0.0
aF3946.41188077682
aF0.0
aF0.0
aF0.0
aF0.0
aF0.0
aF0.0
aF0.0
aF0.0
asS'Bacteria.Firmicutes.Clostridia.Oscillospirales.Ruminococcaceae.UBA1819'
p99
(lp100
F0.0
aF0.0
aF0.0
aF0.0
aF0.0
aF0.0
aF0.0
aF0.0
aF0.0
aF0.0
aF0.0
aF54.20735832364829
asS'Bacteria.Firmicutes.Clostridia.Oscillospirales.UCG_010'
p101
(lp102
F1534.2600263892728
aF45.48590316051217
aF0.0
aF0.0
aF0.0
aF0.0
aF0.0
aF0.0
aF0.0
aF0.0
aF0.0
aF4171.798296587973
asS'Bacteria.Proteobacteria.Gammaproteobacteria.Burkholderiales.Oxalobacteraceae'
p103
(lp104
F0.0
aF0.0
aF0.0
aF0.0
aF0.0
aF0.0
aF428.2305919778136
aF13043.478260869564
aF0.0
aF0.0
aF0.0
aF0.0
asS'Bacteria.Firmicutes.Clostridia.Clostridia_UCG_014.Clostridia_UCG_014.Clostridia_UCG_014.uncultured_bacterium'
p105
(lp106
F16713.205887467142
aF2168.1613839844135
aF6408.496801030428
aF6335.029598089106
aF3425.932821925969
aF81343.58559287737
aF0.0
aF0.0
aF3791.868548556982
aF0.0
aF0.0
aF0.0
asS'Bacteria.Bacteroidota.Bacteroidia.Flavobacteriales.Weeksellaceae.Chryseobacterium.Chryseobacterium_hominis'
p107
(lp108
F0.0
aF0.0
aF0.0
aF0.0
aF0.0
aF0.0
aF1243.9079100307918
aF0.0
aF0.0
aF0.0
aF0.0
aF0.0
asS'Bacteria.Gemmatimonadota.Gemmatimonadetes.Gemmatimonadales.Gemmatimonadaceae.Roseisolibacter.uncultured_bacterium'
p109
(lp110
F0.0
aF0.0
aF0.0
aF0.0
aF0.0
aF0.0
aF0.0
aF2813.2992327365732
aF0.0
aF0.0
aF0.0
aF0.0
asS'Bacteria.Firmicutes.Bacilli.Lactobacillales.Streptococcaceae.Streptococcus.Streptococcus_agalactiae'
p111
(lp112
F0.0
aF0.0
aF0.0
aF0.0
aF0.0
aF0.0
aF0.0
aF0.0
aF0.0
aF0.0
aF43.16037532262382
aF0.0
asS'Bacteria.Proteobacteria.Alphaproteobacteria.Sphingomonadales.Sphingomonadaceae.Sphingomonas'
p113
(lp114
F0.0
aF0.0
aF95.01889820308706
aF0.0
aF0.0
aF0.0
aF0.0
aF0.0
aF0.0
aF22.260002392950252
aF0.0
aF0.0
asS'Bacteria.Firmicutes.Clostridia.Eubacteriales.Anaerofustaceae'
p115
(lp116
F327.3088056297115
aF75.80983860085361
aF190.03779640617412
aF0.0
aF0.0
aF404.694455685957
aF0.0
aF0.0
aF0.0
aF0.0
aF0.0
aF0.0
asS'Bacteria.Proteobacteria.Gammaproteobacteria.Pseudomonadales.Pseudomonadaceae'
p117
(lp118
F388.67920668528245
aF773.260353728707
aF3241.2001942608586
aF0.0
aF28077.753779697618
aF971.2666936462967
aF2671.343216623504
aF0.0
aF101.42858257456949
aF175.29751884448325
aF21.58018766131191
aF0.0
asS'Bacteria.Firmicutes.Clostridia.Eubacteriales.Anaerofustaceae.Anaerofustis.Anaerofustis_stercorihominis'
p119
(lp120
F0.0
aF0.0
aF0.0
aF0.0
aF0.0
aF404.694455685957
aF0.0
aF0.0
aF0.0
aF0.0
aF0.0
aF0.0
asS'Bacteria.Proteobacteria.Gammaproteobacteria.Pseudomonadales.Pseudomonadaceae.Pseudomonas'
p121
(lp122
F388.67920668528245
aF773.260353728707
aF3241.2001942608586
aF0.0
aF28077.753779697618
aF971.2666936462967
aF2671.343216623504
aF0.0
aF101.42858257456949
aF175.29751884448325
aF21.58018766131191
aF0.0
asS'Bacteria.Firmicutes.Clostridia.uncultured.uncultured.uncultured.uncultured_bacterium'
p123
(lp124
F0.0
aF0.0
aF0.0
aF0.0
aF0.0
aF0.0
aF0.0
aF0.0
aF0.0
aF141.90751525505786
aF0.0
aF0.0
asS'Bacteria.Actinobacteriota.Actinobacteria.Micrococcales.Micrococcaceae'
p125
(lp126
F0.0
aF341.14427370384124
aF0.0
aF0.0
aF0.0
aF0.0
aF0.0
aF0.0
aF0.0
aF0.0
aF8.632075064524765
aF0.0
asS'Bacteria.Actinobacteriota'
p127
(lp128
F27309.828469729055
aF14168.858834499539
aF12700.85939314597
aF27624.883165437743
aF25471.065763014816
aF23553.217320922697
aF18679.0105834132
aF3324.8081841432227
aF132.63737721289857
aF1115.7826199466315
aF94.95282570977241
aF459.67839858453755
asS'Bacteria.Proteobacteria.Gammaproteobacteria.Burkholderiales'
p129
(lp130
F2700.2976464451203
aF5177.811976438302
aF2723.875081821829
aF6335.029598089106
aF84978.02934385938
aF5180.08903278025
aF11337.914720936398
aF13043.478260869564
aF733.4066740007332
aF41790.37199246498
aF5114.504475730923
aF6574.268417492064
asS'Bacteria.Firmicutes.Clostridia.Oscillospirales.Ruminococcaceae.Ruminococcus'
p131
(lp132
F0.0
aF0.0
aF411.748558880044
aF2284.764773081317
aF2755.641617636106
aF4937.272359368675
aF12928.485491139705
aF0.0
aF120.93407922352516
aF0.0
aF0.0
aF5609.377439331126
asS'Bacteria.Bacteroidota.Bacteroidia.Bacteroidales.Bacteroidaceae.Bacteroides.uncultured_bacterium'
p133
(lp134
F0.0
aF0.0
aF0.0
aF0.0
aF0.0
aF0.0
aF0.0
aF0.0
aF74.12088726603154
aF0.0
aF0.0
aF0.0
asS'Bacteria.Firmicutes.Clostridia.Lachnospirales.Lachnospiraceae.A2.unidentified'
p135
(lp136
F0.0
aF409.3731284446095
aF0.0
aF0.0
aF0.0
aF0.0
aF0.0
aF0.0
aF0.0
aF0.0
aF0.0
aF0.0
asS'Bacteria.Firmicutes.Clostridia.Christensenellales'
p137
(lp138
F4500.496077408533
aF576.1547733664876
aF2037.6274836884227
aF41541.17769238757
aF30014.15059209056
aF3723.188992310804
aF3854.0753278003217
aF0.0
aF27.30769530853794
aF89.04000957180101
aF280.5424395970548
aF312.2343839442142
asS'Bacteria.Patescibacteria.Saccharimonadia.Saccharimonadales.Saccharimonadaceae.Candidatus_Saccharimonas.uncultured_bacterium'
p139
(lp140
F3794.7364652694678
aF5625.090024183339
aF15361.38854283241
aF3738.705992314882
aF15193.267297236907
aF32456.495346013755
aF550.5821896857603
aF12531.969309462916
aF0.0
aF41.737504486781724
aF0.0
aF1051.6227514787768
asS'Bacteria.Firmicutes.Clostridia.Lachnospirales.Lachnospiraceae.Lachnospiraceae_NK4A136_group.Clostridiales_bacterium'
p141
(lp142
F0.0
aF0.0
aF0.0
aF0.0
aF0.0
aF0.0
aF1264.2998429821164
aF0.0
aF0.0
aF0.0
aF0.0
aF0.0
asS'Bacteria.Firmicutes.Bacilli.Lactobacillales.Streptococcaceae.Streptococcus'
p143
(lp144
F0.0
aF159.2006610617926
aF0.0
aF4050.264825007789
aF4245.177627169136
aF1537.8389316066366
aF2202.3287587430414
aF0.0
aF417.4176282876514
aF1407.9451513541035
aF487.71224114564916
aF49.870769657756426
asS'Bacteria.Bacteroidota.Bacteroidia.Bacteroidales.Prevotellaceae'
p145
(lp146
F9215.788558511565
aF1516.1967720170724
aF263.9413838974641
aF0.0
aF10128.844864824605
aF2509.1056252529334
aF897.2450498582762
aF0.0
aF96673.1424915541
aF5161.538054865339
aF217269.32937408832
aF203941.09177956253
asS'Bacteria.Firmicutes.Clostridia.Oscillospirales.Ruminococcaceae.Incertae_Sedis'
p147
(lp148
F0.0
aF0.0
aF0.0
aF0.0
aF0.0
aF0.0
aF530.1902567344358
aF0.0
aF1544.8353345972891
aF0.0
aF608.5612920489958
aF0.0
asS'Bacteria.Bacteroidota.Bacteroidia.Bacteroidales.Muribaculaceae.Muribaculum'
p149
(lp150
F327.3088056297115
aF0.0
aF0.0
aF0.0
aF0.0
aF0.0
aF0.0
aF0.0
aF8863.297677285458
aF356.16003828720403
aF14484.621958272555
aF13482.454162257804
asS'Bacteria.Proteobacteria.Gammaproteobacteria.Burkholderiales.Burkholderiaceae'
p151
(lp152
F1534.2600263892728
aF4525.847364470961
aF2280.45355687409
aF4777.235434624572
aF12810.009681984058
aF1618.777822743828
aF4159.954322070189
aF0.0
aF109.23078123415176
aF425.7225457651736
aF133.79716350013385
aF93.23665631667507
asS'Bacteria.Firmicutes.Clostridia.Lachnospirales.Lachnospiraceae.Lachnospira'
p153
(lp154
F0.0
aF0.0
aF0.0
aF0.0
aF1712.9664109629846
aF0.0
aF0.0
aF0.0
aF0.0
aF0.0
aF0.0
aF0.0
asS'Bacteria.Proteobacteria.Gammaproteobacteria.Enterobacterales.Morganellaceae.Proteus'
p155
(lp156
F0.0
aF0.0
aF0.0
aF0.0
aF0.0
aF0.0
aF0.0
aF0.0
aF0.0
aF0.0
aF215.8018766131191
aF0.0
asS'Bacteria.Firmicutes.Clostridia.Oscillospirales.Ruminococcaceae.Anaerotruncus.uncultured_bacterium'
p157
(lp158
F0.0
aF0.0
aF0.0
aF0.0
aF0.0
aF0.0
aF0.0
aF0.0
aF288.68135040454393
aF0.0
aF0.0
aF19.514648996513387
asS'Bacteria.Desulfobacterota.Desulfovibrionia.Desulfovibrionales.Desulfovibrionaceae'
p159
(lp160
F0.0
aF0.0
aF0.0
aF1869.352996157441
aF4617.561629552393
aF0.0
aF0.0
aF0.0
aF0.0
aF0.0
aF0.0
aF0.0
asS'Bacteria.Proteobacteria.Gammaproteobacteria.Pseudomonadales'
p161
(lp162
F388.67920668528245
aF773.260353728707
aF3241.2001942608586
aF0.0
aF28077.753779697618
aF971.2666936462967
aF5403.862232100982
aF0.0
aF101.42858257456949
aF205.90502213478985
aF21.58018766131191
aF0.0
asS'Bacteria.Firmicutes.Clostridia.Oscillospirales.Butyricicoccaceae.UCG_009'
p163
(lp164
F511.42000879642427
aF174.36262878196334
aF707.3629088452037
aF0.0
aF0.0
aF0.0
aF0.0
aF0.0
aF210.65936380872125
aF0.0
aF0.0
aF0.0
asS'Bacteria.Proteobacteria.Alphaproteobacteria.Rhizobiales.Beijerinckiaceae'
p165
(lp166
F61.370401055570916
aF310.8203382634998
aF0.0
aF0.0
aF0.0
aF0.0
aF0.0
aF0.0
aF0.0
aF0.0
aF0.0
aF0.0
asS'Bacteria.Firmicutes.Bacilli.Lactobacillales.Lactobacillaceae.Lactobacillus.Lactobacillus_intestinalis'
p167
(lp168
F0.0
aF0.0
aF0.0
aF0.0
aF0.0
aF0.0
aF0.0
aF0.0
aF1474.6155466610487
aF19062.90954926277
aF2045.801790292369
aF6945.04674842582
asS'Bacteria.Firmicutes.Clostridia.Monoglobales.Monoglobaceae.Monoglobus.uncultured_rumen'
p169
(lp170
F0.0
aF0.0
aF0.0
aF0.0
aF0.0
aF10926.75030352084
aF0.0
aF0.0
aF0.0
aF0.0
aF0.0
aF0.0
asS'Bacteria.Actinobacteriota.Actinobacteria.Corynebacteriales.Corynebacteriaceae.Corynebacterium'
p171
(lp172
F0.0
aF0.0
aF0.0
aF5919.6178211652295
aF0.0
aF0.0
aF0.0
aF0.0
aF0.0
aF0.0
aF0.0
aF0.0
asS'Bacteria.Deferribacterota.Deferribacteres'
p173
(lp174
F0.0
aF0.0
aF0.0
aF0.0
aF0.0
aF0.0
aF0.0
aF0.0
aF253.57145643642372
aF258.7725278180467
aF0.0
aF136.6025429755937
asS'Bacteria.Firmicutes.Clostridia.Oscillospirales.Oscillospiraceae.Colidextribacter.uncultured_bacterium'
p175
(lp176
F0.0
aF0.0
aF0.0
aF0.0
aF0.0
aF0.0
aF0.0
aF0.0
aF327.6923437024553
aF0.0
aF0.0
aF0.0
asS'Bacteria.Deferribacterota.Deferribacteres.Deferribacterales.Deferribacteraceae.Mucispirillum.Mucispirillum_schaedleri'
p177
(lp178
F0.0
aF0.0
aF0.0
aF0.0
aF0.0
aF0.0
aF0.0
aF0.0
aF253.57145643642372
aF258.7725278180467
aF0.0
aF136.6025429755937
asS'Bacteria.Firmicutes.Clostridia.Lachnospirales.Lachnospiraceae.Lachnospiraceae_NK4A136_group.uncultured_bacterium'
p179
(lp180
F0.0
aF1827.0171102805723
aF1266.9186427078275
aF0.0
aF0.0
aF0.0
aF0.0
aF0.0
aF167.7472711810188
aF0.0
aF0.0
aF0.0
asS'Bacteria.Verrucomicrobiota.Verrucomicrobiae.Verrucomicrobiales'
p181
(lp182
F91288.47157016172
aF3494.833559499352
aF11001.076880846304
aF0.0
aF893.7216057198181
aF21205.989477944146
aF24368.359876832725
aF9974.424552429668
aF30358.35498443461
aF3823.155410989206
aF152571.92676547522
aF3141.858488438655
asS'Bacteria.Cyanobacteria.Vampirivibrionia.Gastranaerophilales.Gastranaerophilales.Gastranaerophilales.Acinetobacter_sp_'
p183
(lp184
F0.0
aF0.0
aF0.0
aF0.0
aF0.0
aF0.0
aF0.0
aF0.0
aF0.0
aF436.8525469616487
aF0.0
aF0.0
asS'Bacteria.Firmicutes.Clostridia.Lachnospirales.Lachnospiraceae.Lachnospiraceae_UCG_001.uncultured_bacterium'
p185
(lp186
F0.0
aF0.0
aF0.0
aF1557.7941634645342
aF0.0
aF0.0
aF0.0
aF0.0
aF0.0
aF0.0
aF0.0
aF0.0
asS'Bacteria.Firmicutes.Clostridia.Lachnospirales.Lachnospiraceae.Blautia'
p187
(lp188
F255.71000439821213
aF0.0
aF0.0
aF3323.294215391006
aF55261.78595367542
aF17482.800485633343
aF0.0
aF0.0
aF0.0
aF1917.1427060928404
aF43.16037532262382
aF0.0
asS'Bacteria.Firmicutes.Clostridia.Oscillospirales.Oscillospiraceae.NK4A214_group.unidentified'
p189
(lp190
F2127.5072365931246
aF0.0
aF0.0
aF0.0
aF0.0
aF809.388911371914
aF0.0
aF0.0
aF54.61539061707588
aF66.78000717885075
aF224.43395167764388
aF99.74153931551285
asS'Bacteria.Deferribacterota.Deferribacteres.Deferribacterales.Deferribacteraceae'
p191
(lp192
F0.0
aF0.0
aF0.0
aF0.0
aF0.0
aF0.0
aF0.0
aF0.0
aF253.57145643642372
aF258.7725278180467
aF0.0
aF136.6025429755937
asS'Bacteria.Proteobacteria.Alphaproteobacteria.Rhizobiales.Beijerinckiaceae.Methylobacterium_Methylorubrum'
p193
(lp194
F61.370401055570916
aF310.8203382634998
aF0.0
aF0.0
aF0.0
aF0.0
aF0.0
aF0.0
aF0.0
aF0.0
aF0.0
aF0.0
asS'Bacteria.Firmicutes.Clostridia.Oscillospirales.Oscillospiraceae.UCG_003'
p195
(lp196
F0.0
aF0.0
aF0.0
aF0.0
aF0.0
aF0.0
aF0.0
aF0.0
aF2996.0442852795913
aF0.0
aF0.0
aF0.0
asS'Bacteria.Firmicutes.Clostridia.Oscillospirales.Oscillospiraceae.UCG_005'
p197
(lp198
F736.4448126668509
aF379.0491930042681
aF380.07559281234825
aF4154.117769238758
aF0.0
aF0.0
aF0.0
aF0.0
aF183.3516685001833
aF150.2550161524142
aF0.0
aF659.1614772155633
asS'Bacteria.Firmicutes.Clostridia.Christensenellales.Christensenellaceae.uncultured.uncultured_bacterium'
p199
(lp200
F163.65440281485576
aF0.0
aF0.0
aF0.0
aF0.0
aF0.0
aF0.0
aF0.0
aF27.30769530853794
aF0.0
aF0.0
aF28.18782632829711
asS'Bacteria.Firmicutes.Clostridia.Oscillospirales.UCG_010.UCG_010.metagenome'
p201
(lp202
F0.0
aF0.0
aF0.0
aF0.0
aF0.0
aF0.0
aF0.0
aF0.0
aF0.0
aF0.0
aF0.0
aF223.33431629343096
asS'Bacteria.Firmicutes.Clostridia.Peptostreptococcales_Tissierellales.Anaerovoracaceae'
p203
(lp204
F0.0
aF197.1055803622194
aF0.0
aF0.0
aF0.0
aF0.0
aF0.0
aF0.0
aF0.0
aF0.0
aF0.0
aF0.0
asS'Bacteria.Firmicutes.Bacilli.RF39'
p205
(lp206
F3590.1684617508986
aF1561.6826751775845
aF1784.2437551468572
aF4257.970713469726
aF26960.60177254784
aF12221.772561715903
aF2079.9771610350945
aF2813.2992327365732
aF0.0
aF0.0
aF0.0
aF32.52441499418897
asS'Bacteria.Bacteroidota.Bacteroidia.Bacteroidales.Rikenellaceae.Alistipes.Alistipes_finegoldii'
p207
(lp208
F265.9384045741406
aF0.0
aF0.0
aF0.0
aF2383.257615252848
aF0.0
aF0.0
aF0.0
aF390.10993297911347
aF506.41505443961825
aF0.0
aF2656.1605578587664
asS'Bacteria.Firmicutes.Clostridia.Oscillospirales.Oscillospiraceae.uncultured.uncultured_Clostridiales'
p209
(lp210
F531.8768091482812
aF0.0
aF0.0
aF0.0
aF4170.700826692485
aF0.0
aF0.0
aF0.0
aF0.0
aF0.0
aF0.0
aF0.0
asS'Bacteria.Firmicutes.Clostridia.Lachnospirales.Lachnospiraceae.Tyzzerella'
p211
(lp212
F0.0
aF0.0
aF0.0
aF0.0
aF0.0
aF0.0
aF0.0
aF0.0
aF2087.088141438257
aF0.0
aF0.0
aF0.0
asS'Bacteria.Proteobacteria.Alphaproteobacteria.Rhodospirillales.uncultured.uncultured'
p213
(lp214
F0.0
aF0.0
aF0.0
aF0.0
aF0.0
aF0.0
aF0.0
aF0.0
aF0.0
aF767.9700825567837
aF0.0
aF12027.528664851083
asS'Bacteria.Firmicutes.Clostridia.Peptostreptococcales_Tissierellales.Peptostreptococcaceae.Romboutsia'
p215
(lp216
F14892.550656151876
aF151028.36046062058
aF211881.58533752826
aF168137.91670993873
aF16980.710508676544
aF17725.61715904492
aF56037.03175023961
aF8184.143222506393
aF2516.209067715282
aF98547.81309388988
aF1277.547109549665
aF13057.4684730004
asS'Bacteria.Firmicutes.Bacilli.Lactobacillales.Aerococcaceae'
p217
(lp218
F0.0
aF0.0
aF0.0
aF1246.2353307716273
aF819.2448052431665
aF0.0
aF0.0
aF0.0
aF0.0
aF0.0
aF302.1226272583668
aF26.01953199535118
asS'Bacteria.Firmicutes.Clostridia.Lachnospirales.Lachnospiraceae.Roseburia'
p219
(lp220
F1012.61161741692
aF0.0
aF285.0566946092612
aF0.0
aF0.0
aF0.0
aF0.0
aF0.0
aF5063.626930068892
aF3695.160397229742
aF7212.098716410441
aF182.13672396745824
asS'Bacteria.Firmicutes.Clostridia.Peptococcales.Peptococcaceae.Peptococcus'
p221
(lp222
F0.0
aF0.0
aF0.0
aF0.0
aF0.0
aF0.0
aF81.56773180529783
aF0.0
aF0.0
aF0.0
aF0.0
aF0.0
asS'Bacteria.Firmicutes.Clostridia.Lachnospirales.Lachnospiraceae.Roseburia.uncultured_bacterium'
p223
(lp224
F0.0
aF409.3731284446095
aF0.0
aF0.0
aF0.0
aF0.0
aF0.0
aF0.0
aF42.91209262770247
aF0.0
aF0.0
aF0.0
asS'Bacteria.Firmicutes.Clostridia.Peptostreptococcales_Tissierellales.Anaerovoracaceae.Family_XIII_AD3011_group.uncultured_bacterium'
p225
(lp226
F542.1052093242098
aF0.0
aF137.24951962668132
aF0.0
aF0.0
aF0.0
aF0.0
aF0.0
aF89.72528458519608
aF0.0
aF185.58961388728244
aF56.37565265659422
asS'Bacteria.Proteobacteria'
p227
(lp228
F6689.37371505723
aF11796.010886292823
aF14062.796934056889
aF22847.647730813173
aF129813.06323080357
aF36017.80655605018
aF25306.38879259365
aF31457.800511508947
aF3452.4729068651536
aF44124.88974342563
aF12136.69754072182
aF18927.04123228504
asS'Bacteria.Bacteroidota.Bacteroidia'
p229
(lp230
F391410.18953225535
aF34758.81099849138
aF45756.878312464374
aF1973.20594038841
aF212556.7885603634
aF32942.1286928369
aF22064.071453333065
aF562659.8465473145
aF653184.4673829084
aF748130.8554240667
aF784336.2365879137
aF869551.0763413069
asS'Bacteria.Firmicutes.Clostridia.Clostridia_vadinBB60_group.Clostridia_vadinBB60_group.Clostridia_vadinBB60_group.unidentified'
p231
(lp232
F306.8520052778545
aF0.0
aF0.0
aF0.0
aF0.0
aF0.0
aF0.0
aF0.0
aF881.6484485327964
aF0.0
aF0.0
aF201.65137296397165
asS'Bacteria.Proteobacteria.Alphaproteobacteria.Rhizobiales.Rhizobiaceae'
p233
(lp234
F0.0
aF0.0
aF221.71076247386983
aF934.6764980787206
aF6107.097639085424
aF647.5111290975312
aF1284.6917759334406
aF0.0
aF0.0
aF36.17250388854416
aF0.0
aF0.0
asS'Bacteria.Firmicutes.Bacilli.Erysipelotrichales.Erysipelotrichaceae.Dubosiella.uncultured_bacterium'
p235
(lp236
F15526.71146705944
aF4139.217187606608
aF4993.77098334002
aF18485.82407311247
aF17204.140910106496
aF14164.305949008496
aF2324.6803564509883
aF0.0
aF0.0
aF308.85753320218475
aF0.0
aF1769.3281756838803
asS'Bacteria.Firmicutes.Clostridia.Oscillospirales.Ruminococcaceae.Harryflintia.uncultured_bacterium'
p237
(lp238
F0.0
aF0.0
aF0.0
aF0.0
aF0.0
aF0.0
aF0.0
aF0.0
aF1154.7254016181757
aF44.520004785900504
aF0.0
aF0.0
asS'Bacteria.Actinobacteriota.Coriobacteriia.Coriobacteriales'
p239
(lp240
F8192.948540918716
aF3343.213882297644
aF6704.111150995587
aF14020.147471180806
aF15044.313696283603
aF18939.700526102788
aF18515.875119802608
aF3324.8081841432227
aF132.63737721289857
aF319.9875343986599
aF86.32075064524764
aF372.9466252667002
asS'Bacteria.Proteobacteria.Alphaproteobacteria.Rhizobiales.Rhizobiaceae.Allorhizobium_Neorhizobium_Pararhizobium_Rhizobium'
p241
(lp242
F0.0
aF0.0
aF221.71076247386983
aF934.6764980787206
aF6107.097639085424
aF647.5111290975312
aF1284.6917759334406
aF0.0
aF0.0
aF36.17250388854416
aF0.0
aF0.0
asS'Bacteria.Bacteroidota.Bacteroidia.Bacteroidales.Bacteroidaceae.Bacteroides.Bacteroides_caecimuris'
p243
(lp244
F0.0
aF189.52459650213405
aF0.0
aF0.0
aF0.0
aF0.0
aF0.0
aF0.0
aF14613.518089397588
aF106310.98892843128
aF0.0
aF13018.439175007374
asS'Bacteria.Firmicutes.Clostridia.Oscillospirales.Oscillospiraceae.NK4A214_group.Lachnospiraceae_bacterium'
p245
(lp246
F306.8520052778545
aF0.0
aF0.0
aF0.0
aF0.0
aF0.0
aF0.0
aF0.0
aF0.0
aF0.0
aF0.0
aF0.0
asS'Bacteria.Firmicutes.Bacilli.Acholeplasmatales.Acholeplasmataceae.Anaeroplasma.uncultured_bacterium'
p247
(lp248
F0.0
aF0.0
aF0.0
aF0.0
aF297.907201906606
aF0.0
aF61.17579885397336
aF0.0
aF0.0
aF1480.2901591311918
aF0.0
aF0.0
asS'Bacteria.Firmicutes.Bacilli.Erysipelotrichales.Erysipelotrichaceae.uncultured.uncultured_Allobaculum'
p249
(lp250
F6740.515715936872
aF2327.3620450462063
aF2755.548047889525
aF2077.058884619379
aF21076.934534892378
aF0.0
aF530.1902567344358
aF0.0
aF50.714291287284745
aF0.0
aF0.0
aF82.39518465194541
asS'Bacteria.Firmicutes.Clostridia.Oscillospirales.Oscillospiraceae.UCG_005.uncultured_Clostridiales'
p251
(lp252
F0.0
aF90.97180632102435
aF0.0
aF0.0
aF0.0
aF0.0
aF0.0
aF0.0
aF46.813191957493615
aF0.0
aF0.0
aF0.0
asS'Bacteria.Firmicutes.Clostridia.Lachnospirales.Lachnospiraceae.Tyzzerella._Clostridium__colinum'
p253
(lp254
F0.0
aF0.0
aF0.0
aF0.0
aF0.0
aF0.0
aF0.0
aF0.0
aF2087.088141438257
aF0.0
aF0.0
aF0.0
asS'Bacteria.Firmicutes.Clostridia.Clostridia_UCG_014.Clostridia_UCG_014'
p255
(lp256
F237708.020088578
aF57092.389450302864
aF98925.23068476953
aF69996.88441167306
aF280256.2001936396
aF268069.6074463779
aF36419.99225106548
aF61636.82864450128
aF5742.418213452549
aF38.95500418766294
aF0.0
aF9690.10737393537
asS'Bacteria.Firmicutes.Clostridia.Oscillospirales.Oscillospiraceae.Flavonifractor'
p257
(lp258
F0.0
aF0.0
aF0.0
aF0.0
aF0.0
aF0.0
aF0.0
aF0.0
aF0.0
aF261.5550281171654
aF0.0
aF0.0
asS'Bacteria.Proteobacteria.Gammaproteobacteria.Pasteurellales.Pasteurellaceae.Haemophilus'
p259
(lp260
F0.0
aF0.0
aF0.0
aF0.0
aF0.0
aF0.0
aF0.0
aF0.0
aF105.32968190436063
aF0.0
aF0.0
aF0.0
asS'Bacteria.Deferribacterota.Deferribacteres.Deferribacterales.Deferribacteraceae.Mucispirillum'
p261
(lp262
F0.0
aF0.0
aF0.0
aF0.0
aF0.0
aF0.0
aF0.0
aF0.0
aF253.57145643642372
aF258.7725278180467
aF0.0
aF136.6025429755937
asS'Bacteria.Firmicutes.Bacilli.RF39.RF39'
p263
(lp264
F3590.1684617508986
aF1561.6826751775845
aF1784.2437551468572
aF4257.970713469726
aF26960.60177254784
aF12221.772561715903
aF2079.9771610350945
aF2813.2992327365732
aF0.0
aF0.0
aF0.0
aF32.52441499418897
asS'Bacteria.Proteobacteria.Gammaproteobacteria.Burkholderiales.Alcaligenaceae.Achromobacter'
p265
(lp266
F102.28400175928485
aF75.80983860085361
aF179.48014105027556
aF0.0
aF3500.4096224026207
aF0.0
aF713.7176532963559
aF0.0
aF0.0
aF0.0
aF0.0
aF0.0
asS'Bacteria.Firmicutes.Bacilli.Erysipelotrichales.Erysipelotrichaceae.Turicibacter.uncultured_bacterium'
p267
(lp268
F16641.607086235646
aF81882.20667278199
aF64834.56154057308
aF109772.56205213418
aF20779.02733298577
aF5341.966815054633
aF83627.3170333816
aF5370.843989769821
aF0.0
aF976.6576049906922
aF0.0
aF1016.9300421516419
asS'Bacteria.Firmicutes.Clostridia.Christensenellales.Christensenellaceae.Christensenellaceae_R_7_group.bacterium_YE57'
p269
(lp270
F603.4756103797806
aF0.0
aF0.0
aF0.0
aF0.0
aF0.0
aF0.0
aF0.0
aF0.0
aF0.0
aF0.0
aF0.0
asS'Bacteria.Firmicutes.Clostridia.Peptostreptococcales_Tissierellales.Anaerovoracaceae.Family_XIII_UCG_001'
p271
(lp272
F0.0
aF0.0
aF0.0
aF0.0
aF0.0
aF0.0
aF0.0
aF0.0
aF156.04397319164536
aF0.0
aF0.0
aF0.0
asS'Bacteria.Firmicutes.Clostridia.Oscillospirales.Butyricicoccaceae'
p273
(lp274
F623.9324107316377
aF621.6406765269996
aF707.3629088452037
aF0.0
aF8639.308855291576
aF4208.8223391339525
aF285.4870613185424
aF0.0
aF1591.6485265547826
aF0.0
aF0.0
aF80.22689031899947
asS'Bacteria.Firmicutes.Clostridia.Oscillospirales._Eubacterium__coprostanoligenes_group._Eubacterium__coprostanoligenes_group.uncultured_Clostridium'
p275
(lp276
F0.0
aF0.0
aF0.0
aF0.0
aF0.0
aF0.0
aF0.0
aF0.0
aF0.0
aF0.0
aF0.0
aF3369.529393397978
asS'Bacteria.Firmicutes.Clostridia.Oscillospirales.Oscillospiraceae.Oscillospira.uncultured_bacterium'
p277
(lp278
F0.0
aF0.0
aF0.0
aF0.0
aF5138.899232888954
aF0.0
aF0.0
aF0.0
aF0.0
aF0.0
aF0.0
aF0.0
asS'Bacteria.Firmicutes.Clostridia.Lachnospirales.Lachnospiraceae.Lachnospiraceae_NK4A136_group.Trichinella_pseudospiralis'
p279
(lp280
F654.617611259423
aF13888.362431676383
aF21284.233197491503
aF0.0
aF0.0
aF0.0
aF0.0
aF14578.005115089514
aF0.0
aF0.0
aF0.0
aF435.82716092213224
asS'Bacteria.Firmicutes.Clostridia.Oscillospirales.Oscillospiraceae.uncultured'
p281
(lp282
F153.42600263892726
aF0.0
aF1034.6502248780591
aF0.0
aF1489.5360095330302
aF0.0
aF0.0
aF20716.11253196931
aF5562.967644282158
aF0.0
aF4104.5516931815255
aF1086.3154608059117
asS'Bacteria.Firmicutes.Clostridia.Oscillospirales.Ruminococcaceae.Paludicola'
p283
(lp284
F0.0
aF0.0
aF0.0
aF0.0
aF0.0
aF0.0
aF0.0
aF0.0
aF0.0
aF0.0
aF64.74056298393573
aF36.86100366008084
asS'Bacteria.Firmicutes.Clostridia.Clostridia_vadinBB60_group.Clostridia_vadinBB60_group.Clostridia_vadinBB60_group.uncultured_bacterium'
p285
(lp286
F0.0
aF0.0
aF0.0
aF0.0
aF0.0
aF566.5722379603397
aF0.0
aF0.0
aF409.6154296280691
aF0.0
aF0.0
aF1411.5596107478016
asS'Bacteria.Patescibacteria'
p287
(lp288
F3794.7364652694678
aF5625.090024183339
aF15361.38854283241
aF3738.705992314882
aF15193.267297236907
aF32456.495346013755
aF550.5821896857603
aF12531.969309462916
aF0.0
aF41.737504486781724
aF0.0
aF1051.6227514787768
asS'Bacteria.Firmicutes.Clostridia.Oscillospirales.Oscillospiraceae.Papillibacter.uncultured_bacterium'
p289
(lp290
F726.2164124909225
aF128.87672562145116
aF0.0
aF0.0
aF0.0
aF2347.2278429785506
aF0.0
aF0.0
aF0.0
aF0.0
aF0.0
aF277.54167461707925
asS'Bacteria.Firmicutes.Clostridia.Oscillospirales.UCG_010.UCG_010'
p291
(lp292
F102.28400175928485
aF0.0
aF0.0
aF0.0
aF0.0
aF0.0
aF0.0
aF0.0
aF0.0
aF0.0
aF0.0
aF667.8346545473469
asS'Bacteria.Bacteroidota.Bacteroidia.Bacteroidales.Bacteroidaceae'
p293
(lp294
F2618.470445037692
aF447.27804774503636
aF0.0
aF0.0
aF32248.4546063901
aF0.0
aF183.5273965619201
aF0.0
aF104436.33015783846
aF321320.35204193776
aF64952.04882301658
aF66662.04097208973
asS'Bacteria.Bacteroidota.Bacteroidia.Bacteroidales.Bacteroidaceae.Bacteroides.Bacteroides_fragilis'
p295
(lp296
F634.1608109075661
aF0.0
aF0.0
aF0.0
aF0.0
aF0.0
aF0.0
aF0.0
aF22056.815610639074
aF209021.42246980284
aF4113.18376824605
aF17398.393727558156
asS'Bacteria.Firmicutes.Clostridia.Oscillospirales.Ruminococcaceae.Incertae_Sedis.uncultured_Clostridiales'
p297
(lp298
F235.25320404635517
aF0.0
aF369.5179374564497
aF0.0
aF0.0
aF0.0
aF0.0
aF3069.053708439898
aF0.0
aF0.0
aF0.0
aF0.0
asS'Bacteria.Proteobacteria.Alphaproteobacteria'
p299
(lp300
F61.370401055570916
aF310.8203382634998
aF316.7296606769569
aF934.6764980787206
aF7075.2960452818925
aF647.5111290975312
aF1916.8416974244988
aF0.0
aF0.0
aF826.4025888382781
aF0.0
aF12027.528664851083
asS'Bacteria.Firmicutes.Clostridia.Oscillospirales.Ruminococcaceae.Candidatus_Soleaferrea.Ruminococcaceae_bacterium'
p301
(lp302
F0.0
aF0.0
aF0.0
aF0.0
aF0.0
aF0.0
aF0.0
aF0.0
aF0.0
aF0.0
aF0.0
aF26.01953199535118
asS'Bacteria.Firmicutes.Clostridia.Oscillospirales.Ruminococcaceae.Ruminococcus.uncultured_Ruminococcus'
p303
(lp304
F2250.2480387042665
aF0.0
aF0.0
aF0.0
aF2979.0720190660604
aF3885.066774585187
aF19331.552437855582
aF7416.8797953964195
aF468.1319195749361
aF0.0
aF1519.2452113563586
aF0.0
asS'Bacteria.Firmicutes.Clostridia.uncultured'
p305
(lp306
F0.0
aF0.0
aF0.0
aF0.0
aF0.0
aF0.0
aF0.0
aF0.0
aF0.0
aF141.90751525505786
aF0.0
aF0.0
asS'Bacteria.Firmicutes.Clostridia.Oscillospirales.UCG_010.UCG_010.uncultured_rumen'
p307
(lp308
F0.0
aF0.0
aF0.0
aF0.0
aF0.0
aF0.0
aF0.0
aF0.0
aF0.0
aF0.0
aF0.0
aF62.88053565543201
asS'Bacteria.Proteobacteria.Gammaproteobacteria.Burkholderiales.Oxalobacteraceae.Herminiimonas'
p309
(lp310
F0.0
aF0.0
aF0.0
aF0.0
aF0.0
aF0.0
aF428.2305919778136
aF0.0
aF0.0
aF0.0
aF0.0
aF0.0
asS'Bacteria.Proteobacteria.Gammaproteobacteria.Pasteurellales.Pasteurellaceae.Rodentibacter'
p311
(lp312
F0.0
aF0.0
aF0.0
aF0.0
aF670.2912042898636
aF1375.9611493322539
aF0.0
aF0.0
aF0.0
aF52.867505683256844
aF0.0
aF52.03906399070236
asS'Bacteria.Proteobacteria.Alphaproteobacteria.Caulobacterales.Caulobacteraceae'
p313
(lp314
F0.0
aF0.0
aF0.0
aF0.0
aF968.1984061964696
aF0.0
aF632.1499214910582
aF0.0
aF0.0
aF0.0
aF0.0
aF0.0
asS'Bacteria.Proteobacteria.Gammaproteobacteria.Pseudomonadales.Moraxellaceae.Acinetobacter.Acinetobacter_ursingii'
p315
(lp316
F0.0
aF0.0
aF0.0
aF0.0
aF0.0
aF0.0
aF0.0
aF0.0
aF0.0
aF30.6075032903066
aF0.0
aF0.0
asS'Bacteria.Firmicutes.Clostridia.Lachnospirales.Lachnospiraceae.Marvinbryantia'
p317
(lp318
F0.0
aF0.0
aF0.0
aF0.0
aF0.0
aF1214.0833670578709
aF530.1902567344358
aF0.0
aF0.0
aF258.7725278180467
aF2127.8065034053543
aF39.02929799302677
asS'Bacteria.Campilobacterota.Campylobacteria'
p319
(lp320
F0.0
aF0.0
aF0.0
aF0.0
aF0.0
aF0.0
aF0.0
aF0.0
aF0.0
aF19.47750209383147
aF0.0
aF0.0
asS'Bacteria.Patescibacteria.Saccharimonadia.Saccharimonadales.Saccharimonadaceae'
p321
(lp322
F3794.7364652694678
aF5625.090024183339
aF15361.38854283241
aF3738.705992314882
aF15193.267297236907
aF32456.495346013755
aF550.5821896857603
aF12531.969309462916
aF0.0
aF41.737504486781724
aF0.0
aF1051.6227514787768
asS'Bacteria.Firmicutes.Clostridia.Oscillospirales.UCG_010.UCG_010.uncultured_bacterium'
p323
(lp324
F0.0
aF45.48590316051217
aF0.0
aF0.0
aF0.0
aF0.0
aF0.0
aF0.0
aF0.0
aF0.0
aF0.0
aF752.3981335322383
asS'Bacteria.Firmicutes'
p325
(lp326
F479221.0050426014
aF930156.3956970336
aF901116.999936654
aF941426.9394537335
aF611454.5319133089
aF853824.3626062322
aF909031.5871041416
aF377237.85166240414
aF312376.6277336954
aF201912.13420555432
aF50860.1862801799
aF101942.35806345296
asS'Bacteria.Proteobacteria.Gammaproteobacteria.Burkholderiales.Alcaligenaceae.Alcaligenes'
p327
(lp328
F0.0
aF0.0
aF0.0
aF0.0
aF0.0
aF0.0
aF407.83865902648915
aF0.0
aF0.0
aF0.0
aF0.0
aF0.0
asS'Bacteria.Firmicutes.Clostridia.Oscillospirales'
p329
(lp330
F163.65440281485576
aF0.0
aF0.0
aF0.0
aF0.0
aF0.0
aF0.0
aF0.0
aF0.0
aF0.0
aF0.0
aF0.0
asS'Bacteria.Actinobacteriota.Coriobacteriia.Coriobacteriales.Atopobiaceae'
p331
(lp332
F6249.552507492305
aF742.9364182883654
aF1541.4176819611903
aF3219.4412711600376
aF0.0
aF3804.127883447996
aF530.1902567344358
aF0.0
aF0.0
aF89.04000957180101
aF0.0
aF91.06836198372912
asS'Bacteria.Firmicutes.Bacilli.Erysipelotrichales.Erysipelatoclostridiaceae'
p333
(lp334
F0.0
aF0.0
aF0.0
aF1557.7941634645342
aF744.7680047665151
aF1214.0833670578709
aF0.0
aF1790.2813299232737
aF612.472594777208
aF1240.9951334069765
aF224.43395167764388
aF578.9345868965638
asS'Bacteria.Firmicutes.Bacilli.Acholeplasmatales.Acholeplasmataceae.Anaeroplasma'
p335
(lp336
F0.0
aF0.0
aF0.0
aF0.0
aF297.907201906606
aF0.0
aF61.17579885397336
aF0.0
aF0.0
aF1480.2901591311918
aF0.0
aF0.0
asS'Bacteria.Firmicutes.Clostridia.Lachnospirales.Lachnospiraceae.Lachnospiraceae_UCG_010.uncultured_bacterium'
p337
(lp338
F0.0
aF0.0
aF0.0
aF0.0
aF0.0
aF0.0
aF0.0
aF0.0
aF222.36266179809468
aF0.0
aF0.0
aF0.0
asS'Bacteria.Firmicutes.Clostridia.Lachnospirales.Lachnospiraceae.uncultured'
p339
(lp340
F0.0
aF0.0
aF0.0
aF0.0
aF0.0
aF0.0
aF0.0
aF0.0
aF304.2857477237085
aF0.0
aF0.0
aF0.0
asS'Bacteria.Proteobacteria.Gammaproteobacteria.Burkholderiales.Sutterellaceae.Parasutterella'
p341
(lp342
F1063.7536182965623
aF0.0
aF0.0
aF0.0
aF2830.1184181127574
aF0.0
aF0.0
aF0.0
aF624.1758927665815
aF41364.649446699805
aF4980.707312230789
aF6481.03176117539
asS'Bacteria.Firmicutes.Bacilli.Erysipelotrichales.Erysipelotrichaceae.Dubosiella'
p343
(lp344
F15526.71146705944
aF4139.217187606608
aF4993.77098334002
aF18485.82407311247
aF17204.140910106496
aF14164.305949008496
aF2324.6803564509883
aF0.0
aF0.0
aF308.85753320218475
aF0.0
aF1769.3281756838803
asS'Bacteria.Proteobacteria.Alphaproteobacteria.Caulobacterales'
p345
(lp346
F0.0
aF0.0
aF0.0
aF0.0
aF968.1984061964696
aF0.0
aF632.1499214910582
aF0.0
aF0.0
aF0.0
aF0.0
aF0.0
asS'Bacteria.Firmicutes.Clostridia.Lachnospirales.Lachnospiraceae.A2'
p347
(lp348
F0.0
aF409.3731284446095
aF1942.6085854853354
aF0.0
aF0.0
aF0.0
aF0.0
aF0.0
aF0.0
aF0.0
aF0.0
aF0.0
asS'Bacteria.Firmicutes.Clostridia.Lachnospirales.Lachnospiraceae._Eubacterium__hallii_group'
p349
(lp350
F0.0
aF0.0
aF0.0
aF0.0
aF0.0
aF0.0
aF0.0
aF0.0
aF0.0
aF66.78000717885075
aF850.2593938556893
aF0.0
asS'Bacteria.Gemmatimonadota'
p351
(lp352
F0.0
aF0.0
aF0.0
aF0.0
aF0.0
aF0.0
aF0.0
aF2813.2992327365732
aF0.0
aF0.0
aF0.0
aF0.0
asS'Bacteria.Verrucomicrobiota.Verrucomicrobiae'
p353
(lp354
F91288.47157016172
aF3494.833559499352
aF11001.076880846304
aF0.0
aF893.7216057198181
aF21205.989477944146
aF24368.359876832725
aF9974.424552429668
aF30358.35498443461
aF3823.155410989206
aF152571.92676547522
aF3141.858488438655
asS'Bacteria.Gemmatimonadota.Gemmatimonadetes.Gemmatimonadales.Gemmatimonadaceae'
p355
(lp356
F0.0
aF0.0
aF0.0
aF0.0
aF0.0
aF0.0
aF0.0
aF2813.2992327365732
aF0.0
aF0.0
aF0.0
aF0.0
asS'Bacteria.Actinobacteriota.Actinobacteria.Bifidobacteriales.Bifidobacteriaceae'
p357
(lp358
F19116.87992881034
aF10484.500678498056
aF5996.748242150384
aF7685.117873091703
aF10426.752066731211
aF4613.51679481991
aF163.13546361059565
aF0.0
aF0.0
aF795.7950855479714
aF0.0
aF86.73177331783727
asS'Bacteria.Firmicutes.Clostridia.Monoglobales.Monoglobaceae.Monoglobus.uncultured_bacterium'
p359
(lp360
F0.0
aF0.0
aF939.6313266749721
aF0.0
aF0.0
aF0.0
aF265.0951283672179
aF3836.317135549872
aF0.0
aF0.0
aF0.0
aF0.0
asS'Bacteria.Campilobacterota.Campylobacteria.Campylobacterales.Helicobacteraceae'
p361
(lp362
F0.0
aF0.0
aF0.0
aF0.0
aF0.0
aF0.0
aF0.0
aF0.0
aF0.0
aF19.47750209383147
aF0.0
aF0.0
asS'Bacteria.Firmicutes.Clostridia.Oscillospirales._Eubacterium__coprostanoligenes_group._Eubacterium__coprostanoligenes_group'
p363
(lp364
F35676.65981363856
aF6929.019248118021
aF5152.135813678499
aF10073.735590403989
aF2755.641617636106
aF0.0
aF1529.3949713493341
aF28388.746803069054
aF0.0
aF0.0
aF0.0
aF0.0
asS'Bacteria.Bacteroidota.Bacteroidia.Bacteroidales.Prevotellaceae.Prevotellaceae_UCG_001.uncultured_bacterium'
p365
(lp366
F2311.6184397598377
aF439.697063884951
aF0.0
aF0.0
aF8713.785655768226
aF0.0
aF591.3660555884093
aF0.0
aF66443.52378500259
aF4593.907993845108
aF77913.10953240051
aF13623.39329389929
asS'Bacteria.Firmicutes.Clostridia.Oscillospirales.Ruminococcaceae.Subdoligranulum'
p367
(lp368
F0.0
aF0.0
aF179.48014105027556
aF0.0
aF8192.448052431666
aF33994.33427762039
aF0.0
aF0.0
aF0.0
aF0.0
aF0.0
aF0.0
asS'Bacteria.Proteobacteria.Gammaproteobacteria.Enterobacterales.Enterobacteriaceae.Escherichia_Shigella'
p369
(lp370
F3539.026460871256
aF5534.118217862314
aF7780.991997297241
aF15577.941634645344
aF9011.692857674832
aF27842.978551193843
aF6647.770142131772
aF18414.322250639383
aF2512.3079683854908
aF1249.3426343043327
aF6784.811000716465
aF273.2050859511874
asS'Bacteria.Bacteroidota.Bacteroidia.Bacteroidales.Bacteroidaceae.Bacteroides'
p371
(lp372
F1984.3096341301261
aF257.7534512429023
aF0.0
aF0.0
aF32248.4546063901
aF0.0
aF183.5273965619201
aF0.0
aF67691.87557053576
aF5987.940643703618
aF60838.86505477053
aF36245.2080695242
asS'Bacteria.Firmicutes.Bacilli.Erysipelotrichales.Erysipelotrichaceae._Clostridium__innocuum_group'
p373
(lp374
F0.0
aF0.0
aF0.0
aF0.0
aF0.0
aF0.0
aF0.0
aF0.0
aF0.0
aF3586.6428855641093
aF0.0
aF0.0
asS'Bacteria.Firmicutes.Clostridia.Lachnospirales.Lachnospiraceae.Lachnospiraceae_UCG_006.uncultured_bacterium'
p375
(lp376
F2311.6184397598377
aF530.6688702059753
aF2776.663358601322
aF3219.4412711600376
aF0.0
aF0.0
aF0.0
aF0.0
aF401.81323096848683
aF0.0
aF0.0
aF0.0
asS'Bacteria.Actinobacteriota.Actinobacteria'
p377
(lp378
F19116.87992881034
aF10825.644952201896
aF5996.748242150384
aF13604.735694256933
aF10426.752066731211
aF4613.51679481991
aF163.13546361059565
aF0.0
aF0.0
aF795.7950855479714
aF8.632075064524765
aF86.73177331783727
asS'Bacteria.Actinobacteriota.Coriobacteriia.Coriobacteriales.uncultured'
p379
(lp380
F0.0
aF0.0
aF781.2664963364937
aF5296.500155779417
aF5958.144038132121
aF7932.011331444758
aF3894.8591937029714
aF3324.8081841432227
aF35.10989396812021
aF0.0
aF30.212262725836673
aF0.0
asS'Bacteria.Firmicutes.Clostridia.uncultured.uncultured'
p381
(lp382
F0.0
aF0.0
aF0.0
aF0.0
aF0.0
aF0.0
aF0.0
aF0.0
aF0.0
aF141.90751525505786
aF0.0
aF0.0
asS'Bacteria.Firmicutes.Clostridia.Oscillospirales.Ruminococcaceae'
p383
(lp384
F1963.8528337782693
aF530.6688702059753
aF907.9583606072764
aF0.0
aF0.0
aF1618.777822743828
aF1264.2998429821164
aF10741.687979539642
aF3425.165211556616
aF0.0
aF280.5424395970548
aF437.9954552550782
asS'Bacteria.Bacteroidota.Bacteroidia.Flavobacteriales.Weeksellaceae'
p385
(lp386
F0.0
aF0.0
aF0.0
aF0.0
aF0.0
aF0.0
aF1243.9079100307918
aF0.0
aF0.0
aF0.0
aF0.0
aF0.0
asS'Bacteria.Gemmatimonadota.Gemmatimonadetes'
p387
(lp388
F0.0
aF0.0
aF0.0
aF0.0
aF0.0
aF0.0
aF0.0
aF2813.2992327365732
aF0.0
aF0.0
aF0.0
aF0.0
asS'Bacteria.Firmicutes.Clostridia.Oscillospirales.Oscillospiraceae.Oscillibacter'
p389
(lp390
F0.0
aF0.0
aF0.0
aF0.0
aF0.0
aF0.0
aF0.0
aF0.0
aF394.0110323089046
aF0.0
aF0.0
aF342.5905046054572
asS'Bacteria.Actinobacteriota.Coriobacteriia.Coriobacteriales.Coriobacteriales_Incertae_Sedis.uncultured'
p391
(lp392
F0.0
aF0.0
aF0.0
aF0.0
aF446.86080285990903
aF0.0
aF387.4467260751647
aF0.0
aF0.0
aF0.0
aF0.0
aF0.0
asS'Bacteria.Firmicutes.Clostridia.Clostridia_UCG_014.Clostridia_UCG_014.Clostridia_UCG_014.unidentified_rumen'
p393
(lp394
F0.0
aF0.0
aF0.0
aF0.0
aF0.0
aF0.0
aF0.0
aF5882.35294117647
aF0.0
aF0.0
aF0.0
aF0.0
asS'Bacteria.Firmicutes.Clostridia.Lachnospirales.Lachnospiraceae'
p395
(lp396
F7548.559329835222
aF19255.699004616818
aF24367.068561413886
aF10177.588534634957
aF25768.972964921424
aF69850.26305139619
aF5668.957360468199
aF53196.93094629156
aF73929.73339887179
aF498.06755354226186
aF2675.943270002677
aF12367.950875123594
asS'Bacteria.Firmicutes.Clostridia.Peptostreptococcales_Tissierellales.Peptostreptococcaceae'
p397
(lp398
F14892.550656151876
aF151028.36046062058
aF211881.58533752826
aF168137.91670993873
aF16980.710508676544
aF17725.61715904492
aF56037.03175023961
aF8184.143222506393
aF2516.209067715282
aF116169.38748820912
aF1277.547109549665
aF13057.4684730004
asS'Bacteria.Firmicutes.Bacilli.Erysipelotrichales.Erysipelotrichaceae.Holdemania'
p399
(lp400
F0.0
aF0.0
aF0.0
aF0.0
aF0.0
aF1214.0833670578709
aF0.0
aF0.0
aF0.0
aF0.0
aF405.7075280326639
aF0.0
asS'Bacteria.Firmicutes.Clostridia.Clostridiales.Clostridiaceae'
p401
(lp402
F60378.24623850585
aF433677.7627000432
aF235425.15678118207
aF402326.3059507737
aF18768.15372011618
aF16997.167138810197
aF659964.5180366647
aF15089.514066496164
aF0.0
aF25.042502692069036
aF0.0
aF0.0
asS'Bacteria.Firmicutes.Clostridia.Oscillospirales.Oscillospiraceae.Oscillibacter.uncultured_bacterium'
p403
(lp404
F398.9076068612109
aF121.29574176136579
aF834.0547731159864
aF0.0
aF0.0
aF0.0
aF0.0
aF0.0
aF7193.627164134852
aF141.90751525505786
aF220.1179141453815
aF0.0
asS'Bacteria.Patescibacteria.Saccharimonadia.Saccharimonadales'
p405
(lp406
F3794.7364652694678
aF5625.090024183339
aF15361.38854283241
aF3738.705992314882
aF15193.267297236907
aF32456.495346013755
aF550.5821896857603
aF12531.969309462916
aF0.0
aF41.737504486781724
aF0.0
aF1051.6227514787768
asS'Bacteria.Firmicutes.Clostridia.Oscillospirales.Ruminococcaceae.Harryflintia'
p407
(lp408
F0.0
aF0.0
aF0.0
aF0.0
aF0.0
aF0.0
aF0.0
aF0.0
aF1154.7254016181757
aF44.520004785900504
aF0.0
aF0.0
asS'Bacteria.Firmicutes.Clostridia.Eubacteriales.Anaerofustaceae.Anaerofustis'
p409
(lp410
F327.3088056297115
aF75.80983860085361
aF190.03779640617412
aF0.0
aF0.0
aF404.694455685957
aF0.0
aF0.0
aF0.0
aF0.0
aF0.0
aF0.0
asS'Bacteria.Firmicutes.Bacilli.RF39.RF39.RF39.uncultured_bacterium'
p411
(lp412
F2014.9948346579117
aF0.0
aF263.9413838974641
aF4257.970713469726
aF16608.326506293284
aF3561.3112100364215
aF305.87899426986684
aF0.0
aF0.0
aF0.0
aF0.0
aF32.52441499418897
asS'Bacteria.Firmicutes.Clostridia.Clostridia_UCG_014.Clostridia_UCG_014.Clostridia_UCG_014.uncultured_Clostridiales'
p413
(lp414
F695.531211963137
aF166.78164492187796
aF422.3062142359425
aF0.0
aF0.0
aF0.0
aF448.6225249291381
aF0.0
aF0.0
aF0.0
aF0.0
aF0.0
asS'Bacteria.Firmicutes.Clostridia.Oscillospirales.Oscillospiraceae.UCG_005.uncultured_bacterium'
p415
(lp416
F0.0
aF523.08788634589
aF2005.9545176207273
aF0.0
aF7075.2960452818925
aF166086.60461351674
aF0.0
aF0.0
aF156.04397319164536
aF1900.4477042981277
aF0.0
aF0.0
asS'Bacteria.Actinobacteriota.Coriobacteriia.Coriobacteriales.Eggerthellaceae.Adlercreutzia.uncultured_bacterium'
p417
(lp418
F1339.9204230466316
aF0.0
aF0.0
aF5504.206044241354
aF3276.979220972666
aF0.0
aF3854.075327800322
aF0.0
aF0.0
aF178.08001914360202
aF0.0
aF138.77083730853963
asS'Bacteria.Firmicutes.Clostridia.Christensenellales.Christensenellaceae.uncultured'
p419
(lp420
F163.65440281485576
aF0.0
aF0.0
aF0.0
aF0.0
aF0.0
aF0.0
aF0.0
aF27.30769530853794
aF0.0
aF0.0
aF28.18782632829711
asS'Bacteria.Campilobacterota.Campylobacteria.Campylobacterales.Helicobacteraceae.Helicobacter'
p421
(lp422
F0.0
aF0.0
aF0.0
aF0.0
aF0.0
aF0.0
aF0.0
aF0.0
aF0.0
aF19.47750209383147
aF0.0
aF0.0
asS'Bacteria.Bacteroidota.Bacteroidia.Bacteroidales.Rikenellaceae.Alistipes.uncultured_bacterium'
p423
(lp424
F2659.384045741406
aF98.5527901811097
aF0.0
aF0.0
aF0.0
aF0.0
aF203.91932951324458
aF0.0
aF24534.013685056445
aF25665.78275907164
aF0.0
aF21429.252892504643
asS'Bacteria.Desulfobacterota.Desulfovibrionia.Desulfovibrionales.Desulfovibrionaceae.Desulfovibrio'
p425
(lp426
F0.0
aF0.0
aF0.0
aF1869.352996157441
aF4617.561629552393
aF0.0
aF0.0
aF0.0
aF0.0
aF0.0
aF0.0
aF0.0
asS'Bacteria.Cyanobacteria.Vampirivibrionia.Gastranaerophilales.Gastranaerophilales.Gastranaerophilales.uncultured_bacterium'
p427
(lp428
F0.0
aF0.0
aF0.0
aF519.2647211548448
aF0.0
aF0.0
aF0.0
aF0.0
aF241.86815844705032
aF0.0
aF0.0
aF2998.751062464223
asS'Bacteria.Bacteroidota.Bacteroidia.Bacteroidales.Rikenellaceae.Alistipes.Alistipes_timonensis'
p429
(lp430
F0.0
aF0.0
aF0.0
aF0.0
aF0.0
aF0.0
aF0.0
aF0.0
aF850.4396538944673
aF0.0
aF0.0
aF691.6858922097522
asS'Bacteria.Firmicutes.Clostridia.Peptostreptococcales_Tissierellales.Anaerovoracaceae._Eubacterium__nodatum_group.uncultured_bacterium'
p431
(lp432
F593.2472102038522
aF0.0
aF0.0
aF0.0
aF0.0
aF0.0
aF0.0
aF0.0
aF0.0
aF0.0
aF0.0
aF0.0
asS'Bacteria.Bacteroidota.Bacteroidia.Bacteroidales.Prevotellaceae.Prevotellaceae_UCG_001'
p433
(lp434
F2311.6184397598377
aF439.697063884951
aF0.0
aF0.0
aF8713.785655768226
aF0.0
aF591.3660555884093
aF0.0
aF66443.52378500259
aF4593.907993845108
aF77913.10953240051
aF13623.39329389929
asS'Bacteria.Proteobacteria.Gammaproteobacteria'
p435
(lp436
F6628.003314001659
aF11485.190548029324
aF13746.06727337993
aF21912.97123273445
aF122737.76718552168
aF35370.29542695264
aF23389.547095169146
aF31457.800511508947
aF3452.4729068651536
aF43298.487154587354
aF12136.69754072182
aF6899.512567433955
asS'Bacteria.Bacteroidota'
p437
(lp438
F391410.18953225535
aF34758.81099849138
aF45756.878312464374
aF1973.20594038841
aF212556.7885603634
aF32942.1286928369
aF22064.071453333065
aF562659.8465473145
aF653184.4673829084
aF748130.8554240667
aF784336.2365879137
aF869551.0763413069
asS'Bacteria.Bacteroidota.Bacteroidia.Bacteroidales.Rikenellaceae'
p439
(lp440
F3293.544856648972
aF98.5527901811097
aF0.0
aF0.0
aF2383.257615252848
aF0.0
aF203.91932951324458
aF0.0
aF26348.024873409322
aF26631.310362865857
aF0.0
aF25815.712328054262
asS'Bacteria.Firmicutes.Clostridia.Oscillospirales.Butyricicoccaceae.UCG_009.uncultured_bacterium'
p441
(lp442
F511.42000879642427
aF174.36262878196334
aF707.3629088452037
aF0.0
aF0.0
aF0.0
aF0.0
aF0.0
aF210.65936380872125
aF0.0
aF0.0
aF0.0
asS'Bacteria.Firmicutes.Clostridia.Clostridia_vadinBB60_group.Clostridia_vadinBB60_group.Clostridia_vadinBB60_group'
p443
(lp444
F0.0
aF0.0
aF158.36483033847844
aF0.0
aF0.0
aF0.0
aF0.0
aF0.0
aF1088.4067130117267
aF208.6875224339086
aF0.0
aF598.4492358930771
asS'Bacteria.Bacteroidota.Bacteroidia.Bacteroidales.Rikenellaceae.Alistipes'
p445
(lp446
F368.22240633342545
aF0.0
aF0.0
aF0.0
aF0.0
aF0.0
aF0.0
aF0.0
aF573.4616014792967
aF459.11254935459897
aF0.0
aF1038.6129854811013
asS'Bacteria.Firmicutes.Clostridia.Lachnospirales.Lachnospiraceae.Lachnospiraceae_NK4A136_group'
p447
(lp448
F4255.014473186249
aF3229.499124396364
aF5943.959965370891
aF0.0
aF4245.177627169136
aF12302.711452853093
aF0.0
aF0.0
aF95288.25222947825
aF0.0
aF427.2877156939758
aF3315.3220350743295
asS'Bacteria.Firmicutes.Clostridia.Eubacteriales.Anaerofustaceae.Anaerofustis.uncultured_bacterium'
p449
(lp450
F327.3088056297115
aF75.80983860085361
aF190.03779640617412
aF0.0
aF0.0
aF0.0
aF0.0
aF0.0
aF0.0
aF0.0
aF0.0
aF0.0
asS'Bacteria.Firmicutes.Clostridia.Lachnospirales.Lachnospiraceae.Anaerostipes'
p451
(lp452
F0.0
aF0.0
aF0.0
aF0.0
aF0.0
aF0.0
aF0.0
aF0.0
aF0.0
aF506.41505443961825
aF0.0
aF0.0
asS'Bacteria.Firmicutes.Clostridia.Christensenellales.Christensenellaceae'
p453
(lp454
F4500.496077408533
aF576.1547733664876
aF2037.6274836884227
aF41541.17769238757
aF30014.15059209056
aF3723.188992310804
aF3854.0753278003217
aF0.0
aF27.30769530853794
aF89.04000957180101
aF280.5424395970548
aF312.2343839442142
asS'Bacteria.Actinobacteriota.Actinobacteria.Bifidobacteriales.Bifidobacteriaceae.Bifidobacterium'
p455
(lp456
F18615.68832018984
aF7459.688118323997
aF4360.311661986107
aF0.0
aF10426.752066731211
aF0.0
aF0.0
aF0.0
aF0.0
aF0.0
aF0.0
aF0.0
asS'Bacteria.Firmicutes.Bacilli.Erysipelotrichales.Erysipelotrichaceae.Allobaculum'
p457
(lp458
F0.0
aF0.0
aF0.0
aF0.0
aF7969.017651001711
aF17078.106029947387
aF0.0
aF0.0
aF0.0
aF0.0
aF0.0
aF0.0
asS'Bacteria.Desulfobacterota'
p459
(lp460
F0.0
aF0.0
aF0.0
aF1869.352996157441
aF4617.561629552393
aF0.0
aF0.0
aF0.0
aF0.0
aF0.0
aF0.0
aF0.0
asS'Bacteria.Actinobacteriota.Coriobacteriia.Coriobacteriales.uncultured.uncultured'
p461
(lp462
F0.0
aF0.0
aF781.2664963364937
aF5296.500155779417
aF5958.144038132121
aF7932.011331444758
aF3894.8591937029714
aF3324.8081841432227
aF35.10989396812021
aF0.0
aF30.212262725836673
aF0.0
asS'Bacteria.Firmicutes.Bacilli.Erysipelotrichales.Erysipelatoclostridiaceae.Candidatus_Stoquefichus'
p463
(lp464
F0.0
aF0.0
aF0.0
aF0.0
aF0.0
aF0.0
aF0.0
aF0.0
aF198.95606581934783
aF0.0
aF0.0
aF0.0
asS'Bacteria.Actinobacteriota.Coriobacteriia.Coriobacteriales.Eggerthellaceae.Gordonibacter'
p465
(lp466
F0.0
aF341.14427370384124
aF0.0
aF0.0
aF0.0
aF0.0
aF0.0
aF0.0
aF0.0
aF0.0
aF0.0
aF0.0
asS'Bacteria.Firmicutes.Bacilli.Staphylococcales.Staphylococcaceae'
p467
(lp468
F0.0
aF113.71475790128044
aF0.0
aF5711.911932703292
aF0.0
aF1618.777822743828
aF0.0
aF0.0
aF0.0
aF0.0
aF0.0
aF0.0
asS'Bacteria.Firmicutes.Bacilli.Erysipelotrichales'
p469
(lp470
F45577.751183937326
aF89061.39838828283
aF73301.80113600373
aF132412.50389448542
aF72912.78766664183
aF39012.545528126255
aF89255.49052794716
aF7161.125319693095
aF663.1868860644928
aF7128.765766342317
aF630.1414797103077
aF4421.152144876755
asS'Bacteria.Bacteroidota.Bacteroidia.Bacteroidales.Prevotellaceae.Prevotellaceae_NK3B31_group'
p471
(lp472
F6904.170118751727
aF1076.4997081321214
aF263.9413838974641
aF0.0
aF1415.0592090563787
aF2509.1056252529334
aF305.87899426986684
aF0.0
aF30229.618706551497
aF567.6300610202314
aF139356.2198416878
aF190317.69848566325
asS'Bacteria.Bacteroidota.Bacteroidia.Bacteroidales.Tannerellaceae.Parabacteroides'
p473
(lp474
F644.3892110834946
aF280.4964028231584
aF0.0
aF0.0
aF1117.1520071497725
aF0.0
aF0.0
aF0.0
aF6682.583151932214
aF81791.59629259659
aF22931.107408910033
aF8215.667227532136
asS'Bacteria.Proteobacteria.Alphaproteobacteria.Rhizobiales.Beijerinckiaceae.Methylobacterium_Methylorubrum.Methylobacterium_hispanicum'
p475
(lp476
F61.370401055570916
aF0.0
aF0.0
aF0.0
aF0.0
aF0.0
aF0.0
aF0.0
aF0.0
aF0.0
aF0.0
aF0.0
asS'Bacteria.Actinobacteriota.Coriobacteriia.Coriobacteriales.Eggerthellaceae.Enterorhabdus.uncultured_bacterium'
p477
(lp478
F603.4756103797806
aF1637.492513778438
aF2396.5877657889737
aF0.0
aF5362.329634318909
aF2751.9222986645077
aF9849.30361548971
aF0.0
aF97.52748324477837
aF52.867505683256844
aF56.10848791941097
aF143.1074259744315
asS'Bacteria.Firmicutes.Bacilli.Erysipelotrichales.Erysipelatoclostridiaceae.Erysipelatoclostridiaceae'
p479
(lp480
F0.0
aF0.0
aF0.0
aF0.0
aF0.0
aF0.0
aF0.0
aF0.0
aF0.0
aF19.47750209383147
aF0.0
aF0.0
asS'Bacteria.Proteobacteria.Gammaproteobacteria.Burkholderiales.Oxalobacteraceae.Herminiimonas.uncultured_bacterium'
p481
(lp482
F0.0
aF0.0
aF0.0
aF0.0
aF0.0
aF0.0
aF428.2305919778136
aF0.0
aF0.0
aF0.0
aF0.0
aF0.0
asS'Bacteria.Firmicutes.Clostridia.Lachnospirales.Lachnospiraceae._Eubacterium__xylanophilum_group.uncultured_bacterium'
p483
(lp484
F4950.545685149387
aF6428.674313352387
aF10283.156316645202
aF0.0
aF2234.304014299545
aF14245.244840145686
aF2181.9368257917167
aF16112.531969309463
aF11949.067247150244
aF0.0
aF7932.876984298258
aF153.94889763916115
asS'Bacteria.Proteobacteria.Gammaproteobacteria.Burkholderiales.Sutterellaceae'
p485
(lp486
F1063.7536182965623
aF0.0
aF0.0
aF0.0
aF2830.1184181127574
aF0.0
aF0.0
aF0.0
aF624.1758927665815
aF41364.649446699805
aF4980.707312230789
aF6481.03176117539
asS'Bacteria.Firmicutes.Bacilli.Erysipelotrichales.Erysipelotrichaceae.Allobaculum.uncultured_bacterium'
p487
(lp488
F337.53720580564004
aF0.0
aF0.0
aF0.0
aF0.0
aF0.0
aF0.0
aF0.0
aF0.0
aF904.312597213604
aF0.0
aF776.2493711946435
asS'Bacteria.Campilobacterota.Campylobacteria.Campylobacterales'
p489
(lp490
F0.0
aF0.0
aF0.0
aF0.0
aF0.0
aF0.0
aF0.0
aF0.0
aF0.0
aF19.47750209383147
aF0.0
aF0.0
asS'Bacteria.Firmicutes.Clostridia.Peptostreptococcales_Tissierellales.Anaerovoracaceae.Anaerovorax'
p491
(lp492
F0.0
aF0.0
aF0.0
aF0.0
aF0.0
aF0.0
aF0.0
aF0.0
aF296.4835490641262
aF0.0
aF207.16980154859434
aF110.58301098024252
asS'Bacteria.Firmicutes.Clostridia.Oscillospirales.Ruminococcaceae._Eubacterium__siraeum_group.uncultured_bacterium'
p493
(lp494
F15260.7730624853
aF37.904919300426805
aF0.0
aF0.0
aF0.0
aF0.0
aF1549.7869043006588
aF16879.79539641944
aF0.0
aF0.0
aF0.0
aF726.3786015368871
asS'Bacteria.Firmicutes.Bacilli.Staphylococcales'
p495
(lp496
F0.0
aF113.71475790128044
aF0.0
aF5711.911932703292
aF0.0
aF1618.777822743828
aF0.0
aF0.0
aF0.0
aF0.0
aF0.0
aF0.0
asS'Bacteria.Firmicutes.Clostridia.Christensenellales.Christensenellaceae.Christensenellaceae_R_7_group'
p497
(lp498
F2086.593635889411
aF348.7252575639267
aF1456.9564391140018
aF41541.17769238757
aF30014.15059209056
aF3723.188992310804
aF2997.614143844695
aF0.0
aF0.0
aF89.04000957180101
aF280.5424395970548
aF173.46354663567453
asS'Bacteria.Deferribacterota.Deferribacteres.Deferribacterales'
p499
(lp500
F0.0
aF0.0
aF0.0
aF0.0
aF0.0
aF0.0
aF0.0
aF0.0
aF253.57145643642372
aF258.7725278180467
aF0.0
aF136.6025429755937
asS'Bacteria.Proteobacteria.Gammaproteobacteria.Pseudomonadales.Moraxellaceae'
p501
(lp502
F0.0
aF0.0
aF0.0
aF0.0
aF0.0
aF0.0
aF2732.519015477477
aF0.0
aF0.0
aF30.6075032903066
aF0.0
aF0.0
asS'Bacteria.Proteobacteria.Alphaproteobacteria.Sphingomonadales.Sphingomonadaceae'
p503
(lp504
F0.0
aF0.0
aF95.01889820308706
aF0.0
aF0.0
aF0.0
aF0.0
aF0.0
aF0.0
aF22.260002392950252
aF0.0
aF0.0
asS'Bacteria.Gemmatimonadota.Gemmatimonadetes.Gemmatimonadales.Gemmatimonadaceae.Roseisolibacter'
p505
(lp506
F0.0
aF0.0
aF0.0
aF0.0
aF0.0
aF0.0
aF0.0
aF2813.2992327365732
aF0.0
aF0.0
aF0.0
aF0.0
asS'Bacteria.Firmicutes.Clostridia.Lachnospirales.Defluviitaleaceae'
p507
(lp508
F0.0
aF0.0
aF0.0
aF0.0
aF0.0
aF0.0
aF0.0
aF0.0
aF0.0
aF55.65000598237563
aF0.0
aF134.43424864264776
asS'Bacteria.Firmicutes.Clostridia.Lachnospirales.Lachnospiraceae.Acetatifactor'
p509
(lp510
F0.0
aF0.0
aF0.0
aF0.0
aF0.0
aF0.0
aF0.0
aF0.0
aF319.89014504287303
aF0.0
aF0.0
aF229.83919929226877
asS'Bacteria.Proteobacteria.Alphaproteobacteria.Rhizobiales.Beijerinckiaceae.Methylobacterium_Methylorubrum.Methylobacterium_aerolatum'
p511
(lp512
F0.0
aF310.8203382634998
aF0.0
aF0.0
aF0.0
aF0.0
aF0.0
aF0.0
aF0.0
aF0.0
aF0.0
aF0.0
asS'Bacteria.Actinobacteriota.Coriobacteriia.Coriobacteriales.uncultured.uncultured.uncultured_bacterium'
p513
(lp514
F0.0
aF0.0
aF781.2664963364937
aF5296.500155779417
aF5958.144038132121
aF7932.011331444758
aF3894.8591937029714
aF3324.8081841432227
aF35.10989396812021
aF0.0
aF30.212262725836673
aF0.0
asS'Bacteria.Firmicutes.Clostridia.Oscillospirales._Eubacterium__coprostanoligenes_group._Eubacterium__coprostanoligenes_group.uncultured_bacterium'
p515
(lp516
F1841.1120316671274
aF144.0386933416219
aF411.748558880044
aF0.0
aF1861.9200119162876
aF13273.97814649939
aF632.1499214910582
aF40920.716112531976
aF21229.78255272335
aF0.0
aF0.0
aF711.2005412062656
asS'Bacteria.Firmicutes.Bacilli.Acholeplasmatales.Acholeplasmataceae'
p517
(lp518
F0.0
aF0.0
aF0.0
aF0.0
aF297.907201906606
aF0.0
aF61.17579885397336
aF0.0
aF0.0
aF1480.2901591311918
aF0.0
aF0.0
asS'Bacteria.Bacteroidota.Bacteroidia.Bacteroidales.Muribaculaceae.Muribaculaceae.uncultured_bacterium'
p519
(lp520
F363578.7126535539
aF30953.15710072853
aF45492.93692856691
aF1973.20594038841
aF140165.33849705814
aF30433.023067583967
aF15375.51744529864
aF522506.3938618926
aF375531.524783684
aF244773.76881318007
aF356219.8416877435
aF468054.5195927077
asS'Bacteria.Firmicutes.Clostridia.Peptococcales.Peptococcaceae'
p521
(lp522
F153.42600263892726
aF242.59148352273158
aF211.15310711797125
aF0.0
aF0.0
aF0.0
aF81.56773180529783
aF0.0
aF1817.9122876826686
aF180.86251944272078
aF215.8018766131191
aF604.9541188919148
asS'Bacteria.Firmicutes.Clostridia.Clostridia_UCG_014.Clostridia_UCG_014.Clostridia_UCG_014'
p523
(lp524
F145355.7949001197
aF42824.97782562221
aF75730.0618678604
aF58469.20760203552
aF269978.40172786167
aF160016.18777822738
aF35971.36972613634
aF44245.52429667519
aF1950.5496648955673
aF38.95500418766294
aF0.0
aF9668.42443060591
asS'Bacteria.Actinobacteriota.Coriobacteriia.Coriobacteriales.Atopobiaceae.Coriobacteriaceae_UCG_002'
p525
(lp526
F6126.811705381163
aF742.9364182883654
aF1541.4176819611903
aF3219.4412711600376
aF0.0
aF3804.127883447996
aF0.0
aF0.0
aF0.0
aF89.04000957180101
aF0.0
aF91.06836198372912
asS'Bacteria.Firmicutes.Clostridia.Oscillospirales.Oscillospiraceae.uncultured.uncultured_bacterium'
p527
(lp528
F0.0
aF0.0
aF0.0
aF0.0
aF0.0
aF0.0
aF346.66286017251576
aF0.0
aF308.1868470534996
aF0.0
aF0.0
aF0.0
asS'Bacteria.Firmicutes.Clostridia.Oscillospirales.Ruminococcaceae.Paludicola.uncultured_bacterium'
p529
(lp530
F0.0
aF0.0
aF0.0
aF0.0
aF0.0
aF0.0
aF0.0
aF0.0
aF0.0
aF0.0
aF64.74056298393573
aF36.86100366008084
asS'Bacteria.Actinobacteriota.Coriobacteriia.Coriobacteriales.Atopobiaceae.uncultured.uncultured_bacterium'
p531
(lp532
F122.74080211114183
aF0.0
aF0.0
aF0.0
aF0.0
aF0.0
aF530.1902567344358
aF0.0
aF0.0
aF0.0
aF0.0
aF0.0
asS'Bacteria.Proteobacteria.Alphaproteobacteria.Rhodospirillales.uncultured.uncultured.gut_metagenome'
p533
(lp534
F0.0
aF0.0
aF0.0
aF0.0
aF0.0
aF0.0
aF0.0
aF0.0
aF0.0
aF0.0
aF0.0
aF12027.528664851083
asS'Bacteria.Proteobacteria.Gammaproteobacteria.Pasteurellales.Pasteurellaceae'
p535
(lp536
F0.0
aF0.0
aF0.0
aF0.0
aF670.2912042898636
aF1375.9611493322539
aF0.0
aF0.0
aF105.32968190436063
aF52.867505683256844
aF0.0
aF52.03906399070236
asS'Bacteria.Firmicutes.Clostridia.Lachnospirales.Lachnospiraceae._Bacteroides__pectinophilus_group'
p537
(lp538
F0.0
aF409.3731284446095
aF0.0
aF0.0
aF1042.6752066731212
aF1133.1444759206795
aF0.0
aF0.0
aF0.0
aF0.0
aF0.0
aF0.0
asS'Bacteria.Firmicutes.Clostridia.Monoglobales.Monoglobaceae.Monoglobus'
p539
(lp540
F1421.7476244540594
aF4017.9214458452416
aF7231.993918790516
aF2284.764773081317
aF0.0
aF67179.27964386887
aF1692.5304349599298
aF22250.639386189257
aF908.9561438413343
aF0.0
aF612.8773295812583
aF130.0976599767559
asS'Bacteria.Firmicutes.Clostridia.Oscillospirales.Ruminococcaceae.Subdoligranulum.uncultured_bacterium'
p541
(lp542
F0.0
aF0.0
aF0.0
aF0.0
aF0.0
aF4451.639012545527
aF0.0
aF0.0
aF0.0
aF0.0
aF0.0
aF0.0
asS'Bacteria.Firmicutes.Clostridia.Oscillospirales.Ruminococcaceae.UBA1819.uncultured_bacterium'
p543
(lp544
F951.2412163613491
aF0.0
aF168.92248569437703
aF0.0
aF0.0
aF0.0
aF0.0
aF0.0
aF0.0
aF0.0
aF25.896225193574292
aF0.0
asS'Bacteria.Firmicutes.Clostridia.Lachnospirales.Lachnospiraceae.Acetatifactor.uncultured_bacterium'
p545
(lp546
F0.0
aF0.0
aF443.42152494773967
aF0.0
aF0.0
aF0.0
aF0.0
aF0.0
aF0.0
aF0.0
aF0.0
aF0.0
asS'Bacteria.Actinobacteriota.Coriobacteriia.Coriobacteriales.Eggerthellaceae'
p547
(lp548
F1943.3960334264123
aF2600.277464009279
aF4381.426972697904
aF5504.206044241354
aF8639.308855291576
aF7203.5613112100355
aF13703.378943290034
aF0.0
aF97.52748324477837
aF230.94752482685888
aF56.10848791941097
aF281.87826328297115
asS'Bacteria.Firmicutes.Bacilli.Lactobacillales.Enterococcaceae'
p549
(lp550
F0.0
aF0.0
aF0.0
aF0.0
aF0.0
aF0.0
aF0.0
aF0.0
aF0.0
aF0.0
aF155.37735116144577
aF0.0
asS'Bacteria.Firmicutes.Clostridia.Lachnospirales.Lachnospiraceae._Eubacterium__ruminantium_group'
p551
(lp552
F398.9076068612109
aF4055.826365145668
aF1858.1473426381472
aF0.0
aF0.0
aF0.0
aF0.0
aF0.0
aF0.0
aF0.0
aF0.0
aF0.0
asS'Bacteria.Proteobacteria.Gammaproteobacteria.Burkholderiales.Comamonadaceae.Comamonas'
p553
(lp554
F0.0
aF189.52459650213405
aF263.9413838974641
aF0.0
aF20034.259328219254
aF0.0
aF0.0
aF0.0
aF0.0
aF0.0
aF0.0
aF0.0
asS'Bacteria.Firmicutes.Clostridia.Oscillospirales._Clostridium__methylpentosum_group._Clostridium__methylpentosum_group.uncultured_organism'
p555
(lp556
F0.0
aF0.0
aF0.0
aF0.0
aF0.0
aF0.0
aF0.0
aF0.0
aF70.21978793624042
aF0.0
aF0.0
aF0.0
asS'Bacteria.Proteobacteria.Gammaproteobacteria.Burkholderiales.Alcaligenaceae'
p557
(lp558
F102.28400175928485
aF75.80983860085361
aF179.48014105027556
aF0.0
aF3500.4096224026207
aF0.0
aF1121.556312322845
aF0.0
aF0.0
aF0.0
aF0.0
aF0.0
asS'Bacteria.Firmicutes.Clostridia.Christensenellales.Christensenellaceae.Christensenellaceae_R_7_group.uncultured_prokaryote'
p559
(lp560
F1646.772428324486
aF227.42951580256087
aF580.671044574421
aF0.0
aF0.0
aF0.0
aF856.4611839556272
aF0.0
aF0.0
aF0.0
aF0.0
aF110.58301098024252
asS'Bacteria.Bacteroidota.Bacteroidia.Flavobacteriales'
p561
(lp562
F0.0
aF0.0
aF0.0
aF0.0
aF0.0
aF0.0
aF1243.9079100307918
aF0.0
aF0.0
aF0.0
aF0.0
aF0.0
asS'Bacteria.Firmicutes.Bacilli'
p563
(lp564
F143.1976024629988
aF1425.224965696048
aF654.574632065711
aF934.6764980787206
aF0.0
aF0.0
aF1427.4353065927119
aF0.0
aF1829.615585672042
aF4769.205512689591
aF4117.499805778313
aF2831.792398827387
asS'Bacteria.Firmicutes.Clostridia.Peptostreptococcales_Tissierellales.Anaerovoracaceae._Eubacterium__nodatum_group'
p565
(lp566
F378.450806509354
aF0.0
aF0.0
aF0.0
aF0.0
aF0.0
aF0.0
aF0.0
aF85.82418525540494
aF0.0
aF0.0
aF238.51237662405248
asS'Bacteria.Proteobacteria.Gammaproteobacteria.Burkholderiales.Oxalobacteraceae.Massilia'
p567
(lp568
F0.0
aF0.0
aF0.0
aF0.0
aF0.0
aF0.0
aF0.0
aF13043.478260869564
aF0.0
aF0.0
aF0.0
aF0.0
asS'Bacteria.Proteobacteria.Alphaproteobacteria.Sphingomonadales'
p569
(lp570
F0.0
aF0.0
aF95.01889820308706
aF0.0
aF0.0
aF0.0
aF0.0
aF0.0
aF0.0
aF22.260002392950252
aF0.0
aF0.0
asS'Bacteria.Actinobacteriota.Coriobacteriia.Coriobacteriales.Eggerthellaceae.Gordonibacter.uncultured_bacterium'
p571
(lp572
F0.0
aF341.14427370384124
aF0.0
aF0.0
aF0.0
aF0.0
aF0.0
aF0.0
aF0.0
aF0.0
aF0.0
aF0.0
asS'Bacteria.Actinobacteriota.Coriobacteriia.Coriobacteriales.Atopobiaceae.Coriobacteriaceae_UCG_002.uncultured_bacterium'
p573
(lp574
F6126.811705381163
aF742.9364182883654
aF1541.4176819611903
aF3219.4412711600376
aF0.0
aF3804.127883447996
aF0.0
aF0.0
aF0.0
aF89.04000957180101
aF0.0
aF91.06836198372912
asS'Bacteria.Bacteroidota.Bacteroidia.Bacteroidales.Muribaculaceae.Muribaculum.uncultured_bacterium'
p575
(lp576
F327.3088056297115
aF0.0
aF0.0
aF0.0
aF0.0
aF0.0
aF0.0
aF0.0
aF8863.297677285458
aF356.16003828720403
aF14484.621958272555
aF13482.454162257804
asS'Bacteria.Firmicutes.Bacilli.Erysipelotrichales.Erysipelotrichaceae.Faecalibaculum.uncultured_bacterium'
p577
(lp578
F5676.76209764031
aF712.612482848024
aF717.9205642011023
aF0.0
aF0.0
aF0.0
aF1733.3143008625786
aF0.0
aF0.0
aF111.30001196475126
aF0.0
aF86.73177331783727
asS'Bacteria.Bacteroidota.Bacteroidia.Flavobacteriales.Weeksellaceae.Chryseobacterium'
p579
(lp580
F0.0
aF0.0
aF0.0
aF0.0
aF0.0
aF0.0
aF1243.9079100307918
aF0.0
aF0.0
aF0.0
aF0.0
aF0.0
asS'Bacteria.Firmicutes.Clostridia.Clostridiales'
p581
(lp582
F60378.24623850585
aF433677.7627000432
aF235425.15678118207
aF402326.3059507737
aF18768.15372011618
aF16997.167138810197
aF659964.5180366647
aF15089.514066496164
aF0.0
aF25.042502692069036
aF0.0
aF0.0
asS'Bacteria.Firmicutes.Clostridia.Oscillospirales._Clostridium__methylpentosum_group._Clostridium__methylpentosum_group'
p583
(lp584
F0.0
aF0.0
aF0.0
aF0.0
aF0.0
aF0.0
aF0.0
aF0.0
aF70.21978793624042
aF0.0
aF0.0
aF0.0
asS'Bacteria.Firmicutes.Clostridia.Oscillospirales.Oscillospiraceae.UCG_005.uncultured_prokaryote'
p585
(lp586
F0.0
aF0.0
aF0.0
aF0.0
aF0.0
aF5099.150141643058
aF0.0
aF0.0
aF0.0
aF0.0
aF0.0
aF0.0
asS'Bacteria.Firmicutes.Bacilli.Erysipelotrichales.Erysipelotrichaceae.uncultured'
p587
(lp588
F0.0
aF0.0
aF0.0
aF519.2647211548448
aF0.0
aF0.0
aF0.0
aF0.0
aF0.0
aF0.0
aF0.0
aF0.0
asS'Bacteria.Proteobacteria.Gammaproteobacteria.Burkholderiales.Burkholderiaceae.Burkholderia_Caballeronia_Paraburkholderia'
p589
(lp590
F1534.2600263892728
aF4525.847364470961
aF2280.45355687409
aF4777.235434624572
aF12810.009681984058
aF1618.777822743828
aF4159.954322070189
aF0.0
aF109.23078123415176
aF425.7225457651736
aF133.79716350013385
aF93.23665631667507
asS'Bacteria.Firmicutes.Clostridia.Oscillospirales.Ruminococcaceae.Incertae_Sedis.uncultured_bacterium'
p591
(lp592
F378.450806509354
aF0.0
aF0.0
aF8827.500259632361
aF2755.641617636106
aF4613.51679481991
aF2936.438344990722
aF25319.693094629158
aF2808.7915174496165
aF0.0
aF103.58490077429717
aF192.97819563218792
asS'Bacteria.Firmicutes.Bacilli.Lactobacillales.Streptococcaceae.Lactococcus'
p593
(lp594
F0.0
aF0.0
aF0.0
aF0.0
aF0.0
aF0.0
aF0.0
aF0.0
aF0.0
aF72.34500777708833
aF0.0
aF0.0
asS'Bacteria.Firmicutes.Bacilli.Erysipelotrichales.Erysipelotrichaceae.uncultured.uncultured_bacterium'
p595
(lp596
F654.617611259423
aF0.0
aF0.0
aF0.0
aF5138.899232888954
aF0.0
aF0.0
aF0.0
aF0.0
aF0.0
aF0.0
aF110.58301098024252
asS'Bacteria.Firmicutes.Clostridia.Lachnospirales'
p597
(lp598
F23453.721603404018
aF52134.426005807036
aF71274.7313076712
aF52134.17800394641
aF100394.72704252622
aF135572.6426547956
aF10297.926140418851
aF88746.80306905371
aF190869.08690869084
aF16280.409250143992
aF21437.758422747254
aF18311.24564172839
asS'Bacteria.Firmicutes.Clostridia.Peptococcales.Peptococcaceae.uncultured'
p599
(lp600
F0.0
aF0.0
aF0.0
aF0.0
aF0.0
aF0.0
aF0.0
aF0.0
aF1318.5715734694033
aF0.0
aF64.74056298393573
aF41.19759232597271
asS'Bacteria.Actinobacteriota.Actinobacteria.Corynebacteriales.Corynebacteriaceae.Corynebacterium.Corynebacterium_stationis'
p601
(lp602
F0.0
aF0.0
aF0.0
aF5919.6178211652295
aF0.0
aF0.0
aF0.0
aF0.0
aF0.0
aF0.0
aF0.0
aF0.0
asS'Bacteria.Firmicutes.Clostridia.Oscillospirales.Oscillospiraceae.uncultured.Clostridium_sp_'
p603
(lp604
F0.0
aF0.0
aF0.0
aF0.0
aF0.0
aF0.0
aF0.0
aF0.0
aF8933.517465221697
aF0.0
aF366.8631902423025
aF398.9661572620514
asS'Bacteria.Firmicutes.Clostridia.Peptococcales.Peptococcaceae.uncultured.unidentified'
p605
(lp606
F153.42600263892726
aF0.0
aF0.0
aF0.0
aF0.0
aF0.0
aF0.0
aF0.0
aF97.52748324477837
aF125.21251346034515
aF107.90093830655955
aF435.82716092213224
asS'Bacteria.Actinobacteriota.Coriobacteriia.Coriobacteriales.Atopobiaceae.uncultured'
p607
(lp608
F122.74080211114183
aF0.0
aF0.0
aF0.0
aF0.0
aF0.0
aF530.1902567344358
aF0.0
aF0.0
aF0.0
aF0.0
aF0.0
asS'Bacteria.Actinobacteriota.Actinobacteria.Corynebacteriales.Corynebacteriaceae'
p609
(lp610
F0.0
aF0.0
aF0.0
aF5919.6178211652295
aF0.0
aF0.0
aF0.0
aF0.0
aF0.0
aF0.0
aF0.0
aF0.0
asS'Bacteria.Actinobacteriota.Coriobacteriia.Coriobacteriales.Eggerthellaceae.Adlercreutzia'
p611
(lp612
F0.0
aF621.6406765269996
aF1984.8392069089298
aF0.0
aF0.0
aF4451.639012545527
aF0.0
aF0.0
aF0.0
aF0.0
aF0.0
aF0.0
asS'Bacteria.Firmicutes.Clostridia.Oscillospirales.Ruminococcaceae.Ruminococcaceae'
p613
(lp614
F0.0
aF0.0
aF95.01889820308706
aF0.0
aF0.0
aF0.0
aF0.0
aF0.0
aF0.0
aF0.0
aF0.0
aF0.0
asS'Bacteria.Firmicutes.Clostridia.Peptostreptococcales_Tissierellales.Anaerovoracaceae._Eubacterium__brachy_group.uncultured_bacterium'
p615
(lp616
F0.0
aF144.0386933416219
aF242.82607318566693
aF0.0
aF0.0
aF1295.0222581950625
aF0.0
aF0.0
aF0.0
aF0.0
aF0.0
aF0.0
asS'Bacteria.Firmicutes.Clostridia.Peptococcales.Peptococcaceae.uncultured.uncultured_bacterium'
p617
(lp618
F0.0
aF242.59148352273158
aF211.15310711797125
aF0.0
aF0.0
aF0.0
aF0.0
aF0.0
aF401.81323096848683
aF55.65000598237563
aF43.16037532262382
aF127.92936564380996
asS'Bacteria.Firmicutes.Clostridia.Oscillospirales.UCG_010.UCG_010.unidentified'
p619
(lp620
F1431.976024629988
aF0.0
aF0.0
aF0.0
aF0.0
aF0.0
aF0.0
aF0.0
aF0.0
aF0.0
aF0.0
aF0.0
asS'Bacteria.Proteobacteria.Alphaproteobacteria.Caulobacterales.Caulobacteraceae.Brevundimonas'
p621
(lp622
F0.0
aF0.0
aF0.0
aF0.0
aF968.1984061964696
aF0.0
aF632.1499214910582
aF0.0
aF0.0
aF0.0
aF0.0
aF0.0
asS'Bacteria.Firmicutes.Clostridia.Lachnospirales.Lachnospiraceae._Eubacterium__hallii_group.Clostridium_sp_'
p623
(lp624
F0.0
aF0.0
aF0.0
aF0.0
aF0.0
aF0.0
aF0.0
aF0.0
aF0.0
aF66.78000717885075
aF850.2593938556893
aF0.0
asS'Bacteria.Proteobacteria.Alphaproteobacteria.Rhodospirillales'
p625
(lp626
F0.0
aF0.0
aF0.0
aF0.0
aF0.0
aF0.0
aF0.0
aF0.0
aF0.0
aF767.9700825567837
aF0.0
aF12027.528664851083
asS'Bacteria.Actinobacteriota.Actinobacteria.Micrococcales.Micrococcaceae.Rothia'
p627
(lp628
F0.0
aF341.14427370384124
aF0.0
aF0.0
aF0.0
aF0.0
aF0.0
aF0.0
aF0.0
aF0.0
aF8.632075064524765
aF0.0
asS'Bacteria.Firmicutes.Bacilli.Erysipelotrichales.Erysipelatoclostridiaceae.Erysipelotrichaceae_UCG_003'
p629
(lp630
F0.0
aF0.0
aF0.0
aF1557.7941634645342
aF0.0
aF0.0
aF0.0
aF0.0
aF0.0
aF0.0
aF0.0
aF0.0
asS'Bacteria.Firmicutes.Clostridia.Lachnospirales.Lachnospiraceae._Eubacterium__ruminantium_group.uncultured_bacterium'
p631
(lp632
F398.9076068612109
aF4055.826365145668
aF1858.1473426381472
aF0.0
aF0.0
aF0.0
aF0.0
aF0.0
aF0.0
aF0.0
aF0.0
aF0.0
asS'Bacteria.Firmicutes.Bacilli.RF39.RF39.RF39.uncultured_Lachnospiraceae'
p633
(lp634
F337.53720580564004
aF447.27804774503636
aF253.38372854156552
aF0.0
aF7820.064050048408
aF0.0
aF1386.651440690063
aF2813.2992327365732
aF0.0
aF0.0
aF0.0
aF0.0
asS'Bacteria.Firmicutes.Bacilli.Erysipelotrichales.Erysipelatoclostridiaceae.UCG_004.uncultured_bacterium'
p635
(lp636
F0.0
aF0.0
aF0.0
aF0.0
aF0.0
aF0.0
aF0.0
aF0.0
aF413.5165289578602
aF97.38751046915735
aF0.0
aF381.61980259848394
asS'Bacteria.Firmicutes.Bacilli.Erysipelotrichales.Erysipelatoclostridiaceae.Erysipelotrichaceae_UCG_003.uncultured_bacterium'
p637
(lp638
F0.0
aF0.0
aF0.0
aF1557.7941634645342
aF0.0
aF0.0
aF0.0
aF0.0
aF0.0
aF0.0
aF0.0
aF0.0
asS'Bacteria.Firmicutes.Bacilli.Staphylococcales.Staphylococcaceae.Staphylococcus'
p639
(lp640
F0.0
aF113.71475790128044
aF0.0
aF1765.5000519264722
aF0.0
aF1618.777822743828
aF0.0
aF0.0
aF0.0
aF0.0
aF0.0
aF0.0
asS'Bacteria.Firmicutes.Bacilli.RF39.RF39.RF39'
p641
(lp642
F910.3276156576352
aF1023.4328211115239
aF1266.9186427078275
aF0.0
aF2532.211216206151
aF8660.46135167948
aF0.0
aF0.0
aF0.0
aF0.0
aF0.0
aF0.0
asS'Bacteria.Firmicutes.Clostridia.Lachnospirales.Lachnospiraceae.Lachnospiraceae_UCG_010'
p643
(lp644
F0.0
aF0.0
aF0.0
aF0.0
aF0.0
aF0.0
aF0.0
aF0.0
aF222.36266179809468
aF0.0
aF0.0
aF0.0
asS'Bacteria.Firmicutes.Bacilli.Lactobacillales.Aerococcaceae.Aerococcus'
p645
(lp646
F0.0
aF0.0
aF0.0
aF1246.2353307716273
aF819.2448052431665
aF0.0
aF0.0
aF0.0
aF0.0
aF0.0
aF302.1226272583668
aF26.01953199535118
asS'Bacteria.Firmicutes.Clostridia.Monoglobales'
p647
(lp648
F7804.269334233434
aF4017.9214458452416
aF9290.736713190736
aF2284.764773081317
aF0.0
aF78106.02994738972
aF1957.6255633271476
aF26086.95652173913
aF908.9561438413343
aF0.0
aF2956.4857095997318
aF284.04655761591704
asS'Bacteria.Firmicutes.Clostridia.Lachnospirales.Lachnospiraceae._Bacteroides__pectinophilus_group.uncultured_bacterium'
p649
(lp650
F0.0
aF409.3731284446095
aF0.0
aF0.0
aF1042.6752066731212
aF1133.1444759206795
aF0.0
aF0.0
aF0.0
aF0.0
aF0.0
aF0.0
asS'Bacteria.Firmicutes.Clostridia.Monoglobales.Monoglobaceae.Monoglobus.unidentified'
p651
(lp652
F0.0
aF0.0
aF1119.1114677252476
aF0.0
aF0.0
aF0.0
aF0.0
aF0.0
aF0.0
aF0.0
aF2343.6083800184733
aF153.94889763916115
asS'Bacteria.Actinobacteriota.Actinobacteria.Micrococcales'
p653
(lp654
F0.0
aF341.14427370384124
aF0.0
aF0.0
aF0.0
aF0.0
aF0.0
aF0.0
aF0.0
aF0.0
aF8.632075064524765
aF0.0
asS'Bacteria.Firmicutes.Clostridia.Oscillospirales.Oscillospiraceae.NK4A214_group'
p655
(lp656
F2178.6492374727677
aF0.0
aF0.0
aF0.0
aF0.0
aF6394.17239983812
aF0.0
aF0.0
aF0.0
aF0.0
aF0.0
aF17.346354663567453
asS'Bacteria.Desulfobacterota.Desulfovibrionia.Desulfovibrionales'
p657
(lp658
F0.0
aF0.0
aF0.0
aF1869.352996157441
aF4617.561629552393
aF0.0
aF0.0
aF0.0
aF0.0
aF0.0
aF0.0
aF0.0
asS'Bacteria.Firmicutes.Clostridia.Clostridiales.Clostridiaceae.Clostridium_sensu_stricto_1'
p659
(lp660
F60378.24623850585
aF433677.7627000432
aF235425.15678118207
aF402326.3059507737
aF18768.15372011618
aF16997.167138810197
aF659964.5180366647
aF15089.514066496164
aF0.0
aF25.042502692069036
aF0.0
aF0.0
asS'Bacteria.Bacteroidota.Bacteroidia.Bacteroidales.Prevotellaceae.Prevotellaceae_NK3B31_group.uncultured_bacterium'
p661
(lp662
F6904.170118751727
aF1076.4997081321214
aF263.9413838974641
aF0.0
aF1415.0592090563787
aF2509.1056252529334
aF305.87899426986684
aF0.0
aF30229.618706551497
aF567.6300610202314
aF139356.2198416878
aF190317.69848566325
asS'Bacteria.Firmicutes.Clostridia.Peptostreptococcales_Tissierellales'
p663
(lp664
F0.0
aF0.0
aF253.38372854156552
aF0.0
aF0.0
aF0.0
aF0.0
aF0.0
aF0.0
aF0.0
aF0.0
aF0.0
asS'Bacteria.Cyanobacteria.Vampirivibrionia.Gastranaerophilales'
p665
(lp666
F286.3952049259976
aF0.0
aF0.0
aF519.2647211548448
aF0.0
aF0.0
aF0.0
aF0.0
aF241.86815844705032
aF573.1950616184689
aF0.0
aF4789.762181477563
asS'Bacteria.Actinobacteriota.Coriobacteriia'
p667
(lp668
F8192.948540918716
aF3343.213882297644
aF6704.111150995587
aF14020.147471180806
aF15044.313696283603
aF18939.700526102788
aF18515.875119802608
aF3324.8081841432227
aF132.63737721289857
aF319.9875343986599
aF86.32075064524764
aF372.9466252667002
asS'Bacteria.Firmicutes.Bacilli.Lactobacillales'
p669
(lp670
F664.8460114353516
aF18944.878666353317
aF48839.71367638675
aF32713.677432755216
aF16384.896104863332
aF3318.4945366248476
aF4812.496176512572
aF0.0
aF10216.979144722978
aF51634.85805074723
aF8260.895836750198
aF23664.764349771904
asS'Bacteria.Firmicutes.Bacilli.Erysipelotrichales.Erysipelatoclostridiaceae.Erysipelatoclostridium'
p671
(lp672
F0.0
aF0.0
aF0.0
aF0.0
aF0.0
aF1214.0833670578709
aF0.0
aF0.0
aF0.0
aF1124.1301208439877
aF224.43395167764388
aF0.0
asS'Bacteria.Proteobacteria.Alphaproteobacteria.Rhodospirillales.uncultured.uncultured.Azospirillum_sp_'
p673
(lp674
F0.0
aF0.0
aF0.0
aF0.0
aF0.0
aF0.0
aF0.0
aF0.0
aF0.0
aF767.9700825567837
aF0.0
aF0.0
asS'Bacteria.Firmicutes.Clostridia.Lachnospirales.Lachnospiraceae._Eubacterium__ventriosum_group'
p675
(lp676
F409.1360070371394
aF0.0
aF0.0
aF0.0
aF0.0
aF0.0
aF0.0
aF0.0
aF81.92308592561382
aF0.0
aF0.0
aF0.0
asS'Bacteria.Firmicutes.Clostridia.Lachnospirales.Lachnospiraceae.Lachnoclostridium'
p677
(lp678
F0.0
aF0.0
aF190.03779640617412
aF0.0
aF0.0
aF0.0
aF652.5418544423826
aF0.0
aF245.76925777684144
aF5562.218097938444
aF0.0
aF346.92709327134907
asS'Bacteria.Deferribacterota'
p679
(lp680
F0.0
aF0.0
aF0.0
aF0.0
aF0.0
aF0.0
aF0.0
aF0.0
aF253.57145643642372
aF258.7725278180467
aF0.0
aF136.6025429755937
asS'Bacteria.Gemmatimonadota.Gemmatimonadetes.Gemmatimonadales'
p681
(lp682
F0.0
aF0.0
aF0.0
aF0.0
aF0.0
aF0.0
aF0.0
aF2813.2992327365732
aF0.0
aF0.0
aF0.0
aF0.0
asS'Bacteria.Firmicutes.Clostridia.Oscillospirales._Eubacterium__coprostanoligenes_group._Eubacterium__coprostanoligenes_group.Clostridiales_bacterium'
p683
(lp684
F0.0
aF109234.39643996998
aF130756.5615828037
aF0.0
aF0.0
aF0.0
aF0.0
aF0.0
aF0.0
aF498.06755354226186
aF0.0
aF3853.0590296449204
asS'Bacteria.Cyanobacteria.Vampirivibrionia.Gastranaerophilales.Gastranaerophilales.Gastranaerophilales'
p685
(lp686
F286.3952049259976
aF0.0
aF0.0
aF0.0
aF0.0
aF0.0
aF0.0
aF0.0
aF0.0
aF136.3425146568203
aF0.0
aF1791.0111190133396
asS'Bacteria.Proteobacteria.Gammaproteobacteria.Enterobacterales.Enterobacteriaceae'
p687
(lp688
F3539.026460871256
aF5534.118217862314
aF7780.991997297241
aF15577.941634645344
aF9011.692857674832
aF27842.978551193843
aF6647.770142131772
aF18414.322250639383
aF2512.3079683854908
aF1249.3426343043327
aF6784.811000716465
aF273.2050859511874
asS'Bacteria.Firmicutes.Clostridia.Oscillospirales.Oscillospiraceae.Oscillospira'
p689
(lp690
F0.0
aF0.0
aF0.0
aF0.0
aF5138.899232888954
aF0.0
aF0.0
aF0.0
aF0.0
aF0.0
aF0.0
aF0.0
asS'Bacteria.Firmicutes.Clostridia.Monoglobales.Monoglobaceae'
p691
(lp692
F7804.269334233434
aF4017.9214458452416
aF9290.736713190736
aF2284.764773081317
aF0.0
aF78106.02994738972
aF1957.6255633271476
aF26086.95652173913
aF908.9561438413343
aF0.0
aF2956.4857095997318
aF284.04655761591704
asS'Bacteria.Firmicutes.Clostridia.Oscillospirales.Butyricicoccaceae.uncultured'
p693
(lp694
F0.0
aF0.0
aF0.0
aF0.0
aF8639.308855291576
aF4208.8223391339525
aF0.0
aF0.0
aF0.0
aF0.0
aF0.0
aF0.0
asS'Bacteria.Firmicutes.Clostridia.Oscillospirales.UCG_010.UCG_010.uncultured_organism'
p695
(lp696
F0.0
aF0.0
aF0.0
aF0.0
aF0.0
aF0.0
aF0.0
aF0.0
aF0.0
aF0.0
aF0.0
aF2465.3506565595244
asS'Bacteria.Firmicutes.Bacilli.Lactobacillales.Lactobacillaceae'
p697
(lp698
F664.8460114353516
aF18785.678005291524
aF48839.71367638675
aF27417.1772769758
aF11320.47367245103
aF1780.6556050182107
aF2610.1674177695304
aF0.0
aF9799.561516435328
aF50154.56789161604
aF7272.5232418621135
aF23588.874048118792
asS'Bacteria.Firmicutes.Bacilli.RF39.RF39.RF39.human_gut'
p699
(lp700
F0.0
aF0.0
aF0.0
aF0.0
aF0.0
aF0.0
aF387.4467260751647
aF0.0
aF0.0
aF0.0
aF0.0
aF0.0
asS'Bacteria.Firmicutes.Clostridia.Lachnospirales.Lachnospiraceae._Eubacterium__xylanophilum_group'
p701
(lp702
F0.0
aF439.697063884951
aF0.0
aF0.0
aF0.0
aF0.0
aF0.0
aF0.0
aF0.0
aF0.0
aF0.0
aF199.4830786310257
asS'Bacteria.Firmicutes.Clostridia.Lachnospirales.Lachnospiraceae.GCA_900066575.uncultured_bacterium'
p703
(lp704
F214.7964036944982
aF242.59148352273158
aF0.0
aF0.0
aF0.0
aF0.0
aF0.0
aF0.0
aF717.8022766815686
aF0.0
aF168.3254637582329
aF223.33431629343096
asS'Bacteria.Firmicutes.Clostridia.Oscillospirales.Butyricicoccaceae.uncultured.uncultured_bacterium'
p705
(lp706
F0.0
aF0.0
aF0.0
aF0.0
aF8639.308855291576
aF4208.8223391339525
aF0.0
aF0.0
aF0.0
aF0.0
aF0.0
aF0.0
asS'Bacteria.Firmicutes.Clostridia.Peptostreptococcales_Tissierellales.Anaerovoracaceae.Anaerovorax.uncultured_bacterium'
p707
(lp708
F0.0
aF0.0
aF0.0
aF0.0
aF0.0
aF0.0
aF203.91932951324458
aF0.0
aF0.0
aF0.0
aF0.0
aF0.0
asS'Bacteria.Firmicutes.Clostridia'
p709
(lp710
F715.988012314994
aF0.0
aF0.0
aF0.0
aF0.0
aF0.0
aF0.0
aF0.0
aF0.0
aF0.0
aF0.0
aF0.0
asS'Bacteria.Firmicutes.Clostridia.Lachnospirales.Lachnospiraceae.GCA_900066575'
p711
(lp712
F214.7964036944982
aF242.59148352273158
aF0.0
aF0.0
aF0.0
aF0.0
aF0.0
aF0.0
aF717.8022766815686
aF0.0
aF168.3254637582329
aF223.33431629343096
asS'Bacteria.Firmicutes.Bacilli.Erysipelotrichales.Erysipelotrichaceae'
p713
(lp714
F45577.751183937326
aF89061.39838828283
aF73301.80113600373
aF130854.70973102086
aF72168.01966187531
aF37798.46216106838
aF89255.49052794716
aF5370.843989769821
aF50.714291287284745
aF5887.770632935341
aF405.7075280326639
aF3842.217557980191
asS'Bacteria.Actinobacteriota.Coriobacteriia.Coriobacteriales.Eggerthellaceae.Enterorhabdus'
p715
(lp716
F603.4756103797806
aF1637.492513778438
aF2396.5877657889737
aF0.0
aF5362.329634318909
aF2751.9222986645077
aF9849.30361548971
aF0.0
aF97.52748324477837
aF52.867505683256844
aF56.10848791941097
aF143.1074259744315
asS'Bacteria.Proteobacteria.Gammaproteobacteria.Burkholderiales.Comamonadaceae'
p717
(lp718
F0.0
aF576.1547733664876
aF263.9413838974641
aF1557.7941634645342
aF65837.49162135994
aF3561.3112100364215
aF5628.17349456555
aF0.0
aF0.0
aF0.0
aF0.0
aF0.0
asS'Bacteria.Firmicutes.Clostridia.Oscillospirales._Eubacterium__coprostanoligenes_group'
p719
(lp720
F37517.77184530569
aF116307.45438142962
aF136320.44595536223
aF10073.735590403989
aF4617.561629552393
aF13273.97814649939
aF2161.5448928403925
aF69309.46291560103
aF21229.78255272335
aF498.06755354226186
aF0.0
aF7933.788964249165
asS'Bacteria.Firmicutes.Bacilli.Erysipelotrichales.Erysipelatoclostridiaceae.Erysipelatoclostridiaceae.uncultured_bacterium'
p721
(lp722
F0.0
aF0.0
aF0.0
aF0.0
aF0.0
aF0.0
aF0.0
aF0.0
aF0.0
aF19.47750209383147
aF0.0
aF0.0
asS'Bacteria.Firmicutes.Clostridia.uncultured.uncultured.uncultured'
p723
(lp724
F0.0
aF0.0
aF0.0
aF0.0
aF0.0
aF0.0
aF0.0
aF0.0
aF0.0
aF141.90751525505786
aF0.0
aF0.0
asS'Bacteria.Firmicutes.Clostridia.Lachnospirales.Lachnospiraceae.A2.uncultured_bacterium'
p725
(lp726
F0.0
aF0.0
aF1942.6085854853354
aF0.0
aF0.0
aF0.0
aF0.0
aF0.0
aF0.0
aF0.0
aF0.0
aF0.0
asS'Bacteria.Firmicutes.Clostridia.Clostridia_UCG_014'
p727
(lp728
F237708.020088578
aF57092.389450302864
aF98925.23068476953
aF69996.88441167306
aF280256.2001936396
aF268069.6074463779
aF36419.99225106548
aF61636.82864450128
aF5742.418213452549
aF38.95500418766294
aF0.0
aF9690.10737393537
asS'Bacteria.Firmicutes.Clostridia.Oscillospirales.Ruminococcaceae._Eubacterium__siraeum_group'
p729
(lp730
F15260.7730624853
aF37.904919300426805
aF0.0
aF0.0
aF0.0
aF0.0
aF1549.7869043006588
aF16879.79539641944
aF0.0
aF0.0
aF0.0
aF726.3786015368871
asS'Bacteria.Firmicutes.Clostridia.Lachnospirales.Lachnospiraceae.Fusicatenibacter'
p731
(lp732
F0.0
aF0.0
aF0.0
aF33856.05981929587
aF0.0
aF16754.35046539862
aF0.0
aF0.0
aF0.0
aF0.0
aF0.0
aF0.0
asS'Bacteria.Firmicutes.Clostridia.Oscillospirales.Ruminococcaceae.Fournierella'
p733
(lp734
F777.3584133705649
aF30.323935440341447
aF0.0
aF0.0
aF0.0
aF0.0
aF0.0
aF0.0
aF940.1649384796634
aF0.0
aF0.0
aF0.0
asS'Bacteria.Firmicutes.Bacilli.Erysipelotrichales.Erysipelatoclostridiaceae.Erysipelatoclostridium.uncultured_bacterium'
p735
(lp736
F0.0
aF0.0
aF0.0
aF0.0
aF744.7680047665151
aF0.0
aF0.0
aF1790.2813299232737
aF0.0
aF0.0
aF0.0
aF197.3147842980798
asS'Bacteria.Proteobacteria.Gammaproteobacteria.Enterobacterales.Morganellaceae'
p737
(lp738
F0.0
aF0.0
aF0.0
aF0.0
aF0.0
aF0.0
aF0.0
aF0.0
aF0.0
aF0.0
aF215.8018766131191
aF0.0
asS'Bacteria.Firmicutes.Clostridia.Peptococcales.Peptococcaceae.Peptococcus.uncultured_bacterium'
p739
(lp740
F0.0
aF0.0
aF0.0
aF0.0
aF0.0
aF0.0
aF81.56773180529783
aF0.0
aF0.0
aF0.0
aF0.0
aF0.0
asS'Bacteria.Bacteroidota.Bacteroidia.Bacteroidales.Tannerellaceae.Parabacteroides.Parabacteroides_goldsteinii'
p741
(lp742
F644.3892110834946
aF280.4964028231584
aF0.0
aF0.0
aF1117.1520071497725
aF0.0
aF0.0
aF0.0
aF6682.583151932214
aF81791.59629259659
aF22931.107408910033
aF8215.667227532136
asS'Bacteria.Firmicutes.Bacilli.Lactobacillales.Enterococcaceae.Enterococcus'
p743
(lp744
F0.0
aF0.0
aF0.0
aF0.0
aF0.0
aF0.0
aF0.0
aF0.0
aF0.0
aF0.0
aF155.37735116144577
aF0.0
asS'Bacteria.Firmicutes.Clostridia.Eubacteriales'
p745
(lp746
F327.3088056297115
aF75.80983860085361
aF190.03779640617412
aF0.0
aF0.0
aF404.694455685957
aF0.0
aF0.0
aF0.0
aF0.0
aF0.0
aF0.0
asS'Bacteria.Proteobacteria.Alphaproteobacteria.Rhodospirillales.uncultured'
p747
(lp748
F0.0
aF0.0
aF0.0
aF0.0
aF0.0
aF0.0
aF0.0
aF0.0
aF0.0
aF767.9700825567837
aF0.0
aF12027.528664851083
asS'Bacteria.Campilobacterota'
p749
(lp750
F0.0
aF0.0
aF0.0
aF0.0
aF0.0
aF0.0
aF0.0
aF0.0
aF0.0
aF19.47750209383147
aF0.0
aF0.0
asS'Bacteria.Firmicutes.Clostridia.Lachnospirales.Lachnospiraceae.Blautia.Lachnospiraceae_bacterium'
p751
(lp752
F0.0
aF68.22885474076826
aF633.4593213539138
aF0.0
aF0.0
aF0.0
aF0.0
aF0.0
aF0.0
aF0.0
aF0.0
aF411.975923259727
asS'Bacteria.Firmicutes.Clostridia.Oscillospirales.Oscillospiraceae.Papillibacter'
p753
(lp754
F726.2164124909225
aF128.87672562145116
aF0.0
aF0.0
aF0.0
aF2347.2278429785506
aF0.0
aF0.0
aF0.0
aF0.0
aF0.0
aF277.54167461707925
asS'Bacteria.Proteobacteria.Gammaproteobacteria.Enterobacterales'
p755
(lp756
F3539.026460871256
aF5534.118217862314
aF7780.991997297241
aF15577.941634645344
aF9011.692857674832
aF27842.978551193843
aF6647.770142131772
aF18414.322250639383
aF2512.3079683854908
aF1249.3426343043327
aF7000.612877329584
aF273.2050859511874
asS'Bacteria.Verrucomicrobiota.Verrucomicrobiae.Verrucomicrobiales.Akkermansiaceae'
p757
(lp758
F91288.47157016172
aF3494.833559499352
aF11001.076880846304
aF0.0
aF893.7216057198181
aF21205.989477944146
aF24368.359876832725
aF9974.424552429668
aF30358.35498443461
aF3823.155410989206
aF152571.92676547522
aF3141.858488438655
asS'Bacteria.Firmicutes.Clostridia.Clostridia_vadinBB60_group.Clostridia_vadinBB60_group'
p759
(lp760
F306.8520052778545
aF0.0
aF158.36483033847844
aF0.0
aF0.0
aF566.5722379603397
aF0.0
aF0.0
aF2379.670591172592
aF247.64252662157156
aF38.84433779036144
aF2781.9216291696303
asS'Bacteria.Actinobacteriota.Coriobacteriia.Coriobacteriales.Coriobacteriales_Incertae_Sedis.uncultured.gut_metagenome'
p761
(lp762
F0.0
aF0.0
aF0.0
aF0.0
aF446.86080285990903
aF0.0
aF387.4467260751647
aF0.0
aF0.0
aF0.0
aF0.0
aF0.0
asS'Bacteria.Firmicutes.Clostridia.Oscillospirales.Butyricicoccaceae.Butyricicoccus'
p763
(lp764
F0.0
aF0.0
aF0.0
aF0.0
aF0.0
aF0.0
aF0.0
aF0.0
aF0.0
aF0.0
aF0.0
aF28.18782632829711
asS'Bacteria.Firmicutes.Clostridia.Peptostreptococcales_Tissierellales.Anaerovoracaceae.Family_XIII_AD3011_group'
p765
(lp766
F450.04960774085333
aF0.0
aF0.0
aF0.0
aF0.0
aF0.0
aF0.0
aF0.0
aF0.0
aF0.0
aF60.42452545167335
aF229.83919929226877
asS'Bacteria.Firmicutes.Clostridia.Lachnospirales.Lachnospiraceae.Lachnoclostridium._Clostridium__aldenense'
p767
(lp768
F0.0
aF0.0
aF0.0
aF0.0
aF0.0
aF0.0
aF0.0
aF0.0
aF0.0
aF114.08251226387004
aF0.0
aF0.0
asS'Bacteria.Firmicutes.Clostridia.Oscillospirales.Ruminococcaceae.Ruminococcaceae.uncultured_bacterium'
p769
(lp770
F0.0
aF0.0
aF95.01889820308706
aF0.0
aF0.0
aF0.0
aF0.0
aF0.0
aF0.0
aF0.0
aF0.0
aF0.0
asS'Bacteria.Firmicutes.Clostridia.Clostridia_UCG_014.Clostridia_UCG_014.Clostridia_UCG_014.unidentified'
p771
(lp772
F74943.48808902802
aF11932.46859577436
aF16364.365801642774
aF5192.647211548447
aF6851.865643851938
aF26709.83407527316
aF0.0
aF11508.951406649616
aF0.0
aF0.0
aF0.0
aF21.682943329459317
asS'Bacteria.Firmicutes.Clostridia.Peptostreptococcales_Tissierellales.Anaerovoracaceae._Eubacterium__brachy_group'
p773
(lp774
F0.0
aF144.0386933416219
aF242.82607318566693
aF0.0
aF0.0
aF1295.0222581950625
aF0.0
aF0.0
aF0.0
aF0.0
aF0.0
aF0.0
asS'Bacteria.Firmicutes.Clostridia.Oscillospirales.Ruminococcaceae.Ruminococcus.unidentified'
p775
(lp776
F0.0
aF197.1055803622194
aF316.7296606769569
aF0.0
aF0.0
aF0.0
aF101.95966475662229
aF0.0
aF1061.0990177031886
aF0.0
aF0.0
aF0.0
asS'Bacteria.Firmicutes.Bacilli.Erysipelotrichales.Erysipelotrichaceae.Allobaculum.uncultured_Allobaculum'
p777
(lp778
F0.0
aF0.0
aF0.0
aF0.0
aF0.0
aF0.0
aF1039.9885805175472
aF0.0
aF0.0
aF0.0
aF0.0
aF0.0
asS'Bacteria.Firmicutes.Clostridia.Monoglobales.Monoglobaceae.Monoglobus.uncultured_organism'
p779
(lp780
F6382.521709779375
aF0.0
aF0.0
aF0.0
aF0.0
aF0.0
aF0.0
aF0.0
aF0.0
aF0.0
aF0.0
aF0.0
asS'Bacteria.Firmicutes.Clostridia.Lachnospirales.Lachnospiraceae.Dorea'
p781
(lp782
F0.0
aF0.0
aF0.0
aF0.0
aF2904.595218589409
aF0.0
aF0.0
aF0.0
aF46.813191957493615
aF0.0
aF0.0
aF0.0
asS'Bacteria.Firmicutes.Clostridia.Oscillospirales.Ruminococcaceae.uncultured'
p783
(lp784
F81.82720140742788
aF0.0
aF0.0
aF0.0
aF0.0
aF0.0
aF0.0
aF0.0
aF0.0
aF0.0
aF0.0
aF0.0
asS'Bacteria.Patescibacteria.Saccharimonadia.Saccharimonadales.Saccharimonadaceae.Candidatus_Saccharimonas'
p785
(lp786
F3794.7364652694678
aF5625.090024183339
aF15361.38854283241
aF3738.705992314882
aF15193.267297236907
aF32456.495346013755
aF550.5821896857603
aF12531.969309462916
aF0.0
aF41.737504486781724
aF0.0
aF1051.6227514787768
asS'Bacteria.Firmicutes.Clostridia.Peptostreptococcales_Tissierellales.Peptostreptococcaceae.Clostridioides'
p787
(lp788
F0.0
aF0.0
aF0.0
aF0.0
aF0.0
aF0.0
aF0.0
aF0.0
aF0.0
aF17621.574394319243
aF0.0
aF0.0
asS'Bacteria.Firmicutes.Bacilli.Lactobacillales.Lactobacillaceae.Lactobacillus.Lactobacillus_faecis'
p789
(lp790
F0.0
aF485.18296704546316
aF0.0
aF0.0
aF0.0
aF0.0
aF0.0
aF0.0
aF0.0
aF1380.1201483629156
aF0.0
aF765.407899529914
asS'Bacteria.Firmicutes.Clostridia.Oscillospirales.Ruminococcaceae.Anaerotruncus'
p791
(lp792
F0.0
aF0.0
aF0.0
aF0.0
aF0.0
aF0.0
aF0.0
aF0.0
aF288.68135040454393
aF0.0
aF0.0
aF19.514648996513387
asS'Bacteria.Firmicutes.Bacilli.Erysipelotrichales.Erysipelotrichaceae.Turicibacter'
p793
(lp794
F16641.607086235646
aF81882.20667278199
aF64834.56154057308
aF109772.56205213418
aF20779.02733298577
aF5341.966815054633
aF83627.3170333816
aF5370.843989769821
aF0.0
aF976.6576049906922
aF0.0
aF1016.9300421516419
asS'Bacteria.Firmicutes.Clostridia.Lachnospirales.Lachnospiraceae.Tuzzerella.uncultured_bacterium'
p795
(lp796
F163.65440281485576
aF0.0
aF0.0
aF0.0
aF0.0
aF0.0
aF0.0
aF0.0
aF0.0
aF0.0
aF0.0
aF23.851237662405246
asS'Bacteria.Patescibacteria.Saccharimonadia'
p797
(lp798
F3794.7364652694678
aF5625.090024183339
aF15361.38854283241
aF3738.705992314882
aF15193.267297236907
aF32456.495346013755
aF550.5821896857603
aF12531.969309462916
aF0.0
aF41.737504486781724
aF0.0
aF1051.6227514787768
asS'Bacteria.Campilobacterota.Campylobacteria.Campylobacterales.Helicobacteraceae.Helicobacter.Helicobacter_rodentium'
p799
(lp800
F0.0
aF0.0
aF0.0
aF0.0
aF0.0
aF0.0
aF0.0
aF0.0
aF0.0
aF19.47750209383147
aF0.0
aF0.0
asS'Bacteria.Firmicutes.Clostridia.Oscillospirales.Oscillospiraceae'
p801
(lp802
F8141.806540039074
aF849.0701923295605
aF1773.6860997909587
aF3634.853048083913
aF670.2912042898636
aF23472.278429785507
aF1141.9482452741695
aF14066.496163682863
aF28376.59652490071
aF520.3275559352121
aF3055.7545728417663
aF2406.8067095699844
asS'Bacteria.Actinobacteriota.Coriobacteriia.Coriobacteriales.Coriobacteriales_Incertae_Sedis'
p803
(lp804
F0.0
aF0.0
aF0.0
aF0.0
aF446.86080285990903
aF0.0
aF387.4467260751647
aF0.0
aF0.0
aF0.0
aF0.0
aF0.0
asS'Bacteria.Proteobacteria.Gammaproteobacteria.Burkholderiales.Comamonadaceae.Delftia'
p805
(lp806
F0.0
aF386.6301768643535
aF0.0
aF1557.7941634645342
aF45803.232293140674
aF3561.3112100364215
aF5628.17349456555
aF0.0
aF0.0
aF0.0
aF0.0
aF0.0
asS'Bacteria.Firmicutes.Clostridia.Clostridia_vadinBB60_group.Clostridia_vadinBB60_group.Clostridia_vadinBB60_group.uncultured_Clostridia'
p807
(lp808
F0.0
aF0.0
aF0.0
aF0.0
aF0.0
aF0.0
aF0.0
aF0.0
aF0.0
aF38.95500418766294
aF38.84433779036144
aF570.26140956478
asS'Bacteria.Firmicutes.Clostridia.Oscillospirales._Clostridium__methylpentosum_group'
p809
(lp810
F0.0
aF0.0
aF0.0
aF0.0
aF0.0
aF0.0
aF0.0
aF0.0
aF70.21978793624042
aF0.0
aF0.0
aF0.0
asS'Bacteria'
p811
(lp812
F1000000.0
aF1000000.0
aF1000000.0
aF1000000.0
aF1000000.0
aF1000000.0
aF1000000.0
aF1000000.0
aF1000000.0
aF1000000.0
aF1000000.0
aF1000000.0
assS'subclass_sl'
p813
(dp814
g12
(I0
I8
tp815
sg10
(I8
I12
tp816
ssS'norm'
p817
F1000000.0
sS'cls'
p818
(dp819
S'class'
p820
(S'HSD-NC'
p821
S'HSD-NC'
p822
S'HSD-NC'
p823
S'HSD-NC'
p824
S'HSD-NC'
p825
S'HSD-NC'
p826
S'HSD-NC'
p827
g5
S'NC'
p828
S'NC'
p829
S'NC'
p830
g3
tp831
sS'subclass'
p832
(lp833
S'HSD-NC_subcl'
p834
aS'HSD-NC_subcl'
p835
aS'HSD-NC_subcl'
p836
aS'HSD-NC_subcl'
p837
aS'HSD-NC_subcl'
p838
aS'HSD-NC_subcl'
p839
aS'HSD-NC_subcl'
p840
ag12
aS'NC_subcl'
p841
aS'NC_subcl'
p842
aS'NC_subcl'
p843
ag10
asS'subject'
p844
(S'S210421121688'
p845
S'S210421121689'
p846
S'S210421121690'
p847
S'S210421121698'
p848
S'S210421121699'
p849
S'S210421121700'
p850
S'S210421121701'
p851
S'S210421121702'
p852
S'S210421121673'
p853
S'S210421121674'
p854
S'S210421121675'
p855
S'S210421121676'
p856
tp857
ss.