(dp0
S'class_sl'
p1
(dp2
S'NC'
p3
(I8
I12
tp4
sS'HSD-NC'
p5
(I0
I8
tp6
ssS'class_hierarchy'
p7
(dp8
g3
(lp9
S'NC_subcl'
p10
asg5
(lp11
S'HSD-NC_subcl'
p12
assS'feats'
p13
(dp14
S'Bacteria.Actinobacteriota'
p15
(lp16
F27309.82846972905
aF14168.858834499542
aF12700.859393145975
aF27624.883165437743
aF25471.065763014823
aF23553.217320922708
aF18679.010583413197
aF3324.8081841432227
aF132.63737721289857
aF1115.7826199466317
aF94.95282570977237
aF459.67839858453755
asS'Bacteria.Firmicutes.Bacilli.Acholeplasmatales'
p17
(lp18
F0.0
aF0.0
aF0.0
aF0.0
aF297.90720190660613
aF0.0
aF61.17579885397335
aF0.0
aF0.0
aF1480.2901591311922
aF0.0
aF0.0
asS'Bacteria.Actinobacteriota.Actinobacteria.Micrococcales'
p19
(lp20
F0.0
aF341.1442737038413
aF0.0
aF0.0
aF0.0
aF0.0
aF0.0
aF0.0
aF0.0
aF0.0
aF8.632075064524761
aF0.0
asS'Bacteria.Firmicutes'
p21
(lp22
F479221.0050426013
aF930156.3956970336
aF901116.9999366541
aF941426.9394537337
aF611454.5319133091
aF853824.3626062324
aF909031.5871041415
aF377237.8516624041
aF312376.62773369526
aF201912.13420555444
aF50860.18628017988
aF101942.358063453
asS'Bacteria.Actinobacteriota.Actinobacteria.Bifidobacteriales'
p23
(lp24
F19116.879928810336
aF10484.500678498056
aF5996.748242150385
aF7685.117873091703
aF10426.752066731215
aF4613.516794819911
aF163.13546361059562
aF0.0
aF0.0
aF795.7950855479717
aF0.0
aF86.73177331783727
asS'Bacteria.Desulfobacterota.Desulfovibrionia.Desulfovibrionales'
p25
(lp26
F0.0
aF0.0
aF0.0
aF1869.352996157441
aF4617.561629552395
aF0.0
aF0.0
aF0.0
aF0.0
aF0.0
aF0.0
aF0.0
asS'Bacteria.Proteobacteria.Gammaproteobacteria.Pseudomonadales'
p27
(lp28
F388.6792066852824
aF773.2603537287071
aF3241.200194260859
aF0.0
aF28077.753779697625
aF971.2666936462971
aF5403.862232100979
aF0.0
aF101.42858257456949
aF205.9050221347899
aF21.580187661311903
aF0.0
asS'Bacteria.Firmicutes.Clostridia.Lachnospirales'
p29
(lp30
F23453.721603404014
aF52134.426005807036
aF71274.7313076712
aF52134.17800394641
aF100394.72704252625
aF135572.64265479564
aF10297.92614041885
aF88746.80306905371
aF190869.08690869084
aF16280.409250143995
aF21437.758422747243
aF18311.24564172839
asS'Bacteria.Firmicutes.Clostridia'
p31
(lp32
F715.988012314994
aF0.0
aF0.0
aF0.0
aF0.0
aF0.0
aF0.0
aF0.0
aF0.0
aF0.0
aF0.0
aF0.0
asS'Bacteria.Firmicutes.Clostridia.Clostridia_vadinBB60_group'
p33
(lp34
F306.8520052778545
aF0.0
aF158.36483033847847
aF0.0
aF0.0
aF566.57223796034
aF0.0
aF0.0
aF2379.670591172592
aF247.64252662157162
aF38.84433779036143
aF2781.9216291696307
asS'Bacteria.Firmicutes.Bacilli.RF39'
p35
(lp36
F3590.1684617508977
aF1561.6826751775848
aF1784.2437551468574
aF4257.970713469726
aF26960.601772547856
aF12221.772561715907
aF2079.977161035094
aF2813.2992327365732
aF0.0
aF0.0
aF0.0
aF32.52441499418897
asS'Bacteria.Proteobacteria.Gammaproteobacteria.Pasteurellales'
p37
(lp38
F0.0
aF0.0
aF0.0
aF0.0
aF670.2912042898638
aF1375.9611493322543
aF0.0
aF0.0
aF105.32968190436063
aF52.86750568325686
aF0.0
aF52.03906399070236
asS'Bacteria.Proteobacteria.Alphaproteobacteria'
p39
(lp40
F61.37040105557091
aF310.8203382634999
aF316.72966067695694
aF934.6764980787206
aF7075.296045281895
aF647.5111290975315
aF1916.8416974244985
aF0.0
aF0.0
aF826.4025888382783
aF0.0
aF12027.528664851083
asS'Bacteria.Proteobacteria.Gammaproteobacteria'
p41
(lp42
F6628.003314001658
aF11485.190548029324
aF13746.067273379931
aF21912.97123273445
aF122737.76718552172
aF35370.29542695265
aF23389.547095169146
aF31457.800511508947
aF3452.472906865154
aF43298.48715458737
aF12136.697540721812
aF6899.512567433955
asS'Bacteria.Deferribacterota.Deferribacteres'
p43
(lp44
F0.0
aF0.0
aF0.0
aF0.0
aF0.0
aF0.0
aF0.0
aF0.0
aF253.57145643642372
aF258.77252781804674
aF0.0
aF136.6025429755937
asS'Bacteria.Patescibacteria.Saccharimonadia.Saccharimonadales'
p45
(lp46
F3794.7364652694673
aF5625.09002418334
aF15361.388542832412
aF3738.705992314882
aF15193.267297236913
aF32456.495346013766
aF550.5821896857602
aF12531.969309462916
aF0.0
aF41.73750448678173
aF0.0
aF1051.6227514787768
asS'Bacteria.Proteobacteria.Alphaproteobacteria.Rhodospirillales'
p47
(lp48
F0.0
aF0.0
aF0.0
aF0.0
aF0.0
aF0.0
aF0.0
aF0.0
aF0.0
aF767.9700825567838
aF0.0
aF12027.528664851083
asS'Bacteria.Proteobacteria.Gammaproteobacteria.Burkholderiales'
p49
(lp50
F2700.29764644512
aF5177.811976438303
aF2723.8750818218296
aF6335.029598089106
aF84978.0293438594
aF5180.089032780252
aF11337.914720936396
aF13043.478260869564
aF733.4066740007332
aF41790.37199246499
aF5114.504475730921
aF6574.268417492064
asS'Bacteria.Campilobacterota.Campylobacteria.Campylobacterales'
p51
(lp52
F0.0
aF0.0
aF0.0
aF0.0
aF0.0
aF0.0
aF0.0
aF0.0
aF0.0
aF19.477502093831475
aF0.0
aF0.0
asS'Bacteria.Actinobacteriota.Actinobacteria'
p53
(lp54
F19116.879928810336
aF10825.644952201897
aF5996.748242150385
aF13604.735694256933
aF10426.752066731215
aF4613.516794819911
aF163.13546361059562
aF0.0
aF0.0
aF795.7950855479717
aF8.632075064524761
aF86.73177331783727
asS'Bacteria.Patescibacteria'
p55
(lp56
F3794.7364652694673
aF5625.09002418334
aF15361.388542832412
aF3738.705992314882
aF15193.267297236913
aF32456.495346013766
aF550.5821896857602
aF12531.969309462916
aF0.0
aF41.73750448678173
aF0.0
aF1051.6227514787768
asS'Bacteria.Proteobacteria.Alphaproteobacteria.Rhizobiales'
p57
(lp58
F61.37040105557091
aF310.8203382634999
aF221.71076247386986
aF934.6764980787206
aF6107.097639085426
aF647.5111290975315
aF1284.6917759334403
aF0.0
aF0.0
aF36.17250388854417
aF0.0
aF0.0
asS'Bacteria.Firmicutes.Clostridia.Oscillospirales'
p59
(lp60
F77040.31012509335
aF119862.93581180967
aF146508.58337380437
aF28974.971440440335
aF48484.397110300146
aF275192.2298664508
aF42578.35600236546
aF167519.18158567775
aF94777.2082172756
aF3725.7679005200494
aF11191.485321156353
aF25314.836337143755
asS'Bacteria.Campilobacterota.Campylobacteria'
p61
(lp62
F0.0
aF0.0
aF0.0
aF0.0
aF0.0
aF0.0
aF0.0
aF0.0
aF0.0
aF19.477502093831475
aF0.0
aF0.0
asS'Bacteria.Firmicutes.Clostridia.Clostridiales'
p63
(lp64
F60378.246238505846
aF433677.76270004327
aF235425.1567811821
aF402326.3059507737
aF18768.15372011619
aF16997.1671388102
aF659964.5180366645
aF15089.514066496164
aF0.0
aF25.04250269206904
aF0.0
aF0.0
asS'Bacteria'
p65
(lp66
F1000000.0
aF1000000.0
aF1000000.0
aF1000000.0
aF1000000.0
aF1000000.0
aF1000000.0
aF1000000.0
aF1000000.0
aF1000000.0
aF1000000.0
aF1000000.0
asS'Bacteria.Firmicutes.Clostridia.Peptostreptococcales_Tissierellales'
p67
(lp68
F16856.403489930144
aF151369.50473432444
aF212515.0446588822
aF168137.91670993873
aF16980.71050867655
aF19020.639417239985
aF56240.951079752835
aF8184.143222506393
aF3144.286059811654
aF116169.38748820915
aF1730.7310504372147
aF13692.778712553558
asS'Bacteria.Actinobacteriota.Actinobacteria.Corynebacteriales'
p69
(lp70
F0.0
aF0.0
aF0.0
aF5919.6178211652295
aF0.0
aF0.0
aF0.0
aF0.0
aF0.0
aF0.0
aF0.0
aF0.0
asS'Bacteria.Verrucomicrobiota'
p71
(lp72
F91288.47157016171
aF3494.8335594993523
aF11001.076880846305
aF0.0
aF893.7216057198184
aF21205.989477944153
aF24368.359876832717
aF9974.424552429668
aF30358.35498443461
aF3823.1554109892068
aF152571.92676547516
aF3141.858488438655
asS'Bacteria.Firmicutes.Bacilli.Staphylococcales'
p73
(lp74
F0.0
aF113.71475790128045
aF0.0
aF5711.911932703292
aF0.0
aF1618.7778227438287
aF0.0
aF0.0
aF0.0
aF0.0
aF0.0
aF0.0
asS'Bacteria.Gemmatimonadota.Gemmatimonadetes'
p75
(lp76
F0.0
aF0.0
aF0.0
aF0.0
aF0.0
aF0.0
aF0.0
aF2813.2992327365732
aF0.0
aF0.0
aF0.0
aF0.0
asS'Bacteria.Verrucomicrobiota.Verrucomicrobiae.Verrucomicrobiales'
p77
(lp78
F91288.47157016171
aF3494.8335594993523
aF11001.076880846305
aF0.0
aF893.7216057198184
aF21205.989477944153
aF24368.359876832717
aF9974.424552429668
aF30358.35498443461
aF3823.1554109892068
aF152571.92676547516
aF3141.858488438655
asS'Bacteria.Firmicutes.Clostridia.Christensenellales'
p79
(lp80
F4500.496077408533
aF576.1547733664876
aF2037.627483688423
aF41541.17769238757
aF30014.150592090566
aF3723.1889923108056
aF3854.0753278003212
aF0.0
aF27.30769530853794
aF89.04000957180104
aF280.54243959705474
aF312.2343839442142
asS'Bacteria.Bacteroidota.Bacteroidia.Bacteroidales'
p81
(lp82
F391410.1895322553
aF34758.81099849138
aF45756.87831246438
aF1973.20594038841
aF212556.78856036346
aF32942.12869283691
aF20820.163543302264
aF562659.8465473145
aF653184.4673829083
aF748130.855424067
aF784336.2365879134
aF869551.076341307
asS'Bacteria.Proteobacteria.Alphaproteobacteria.Sphingomonadales'
p83
(lp84
F0.0
aF0.0
aF95.01889820308708
aF0.0
aF0.0
aF0.0
aF0.0
aF0.0
aF0.0
aF22.26000239295026
aF0.0
aF0.0
asS'Bacteria.Actinobacteriota.Coriobacteriia'
p85
(lp86
F8192.948540918716
aF3343.213882297645
aF6704.111150995589
aF14020.147471180808
aF15044.313696283609
aF18939.700526102795
aF18515.875119802604
aF3324.8081841432227
aF132.63737721289857
aF319.98753439866
aF86.32075064524761
aF372.94662526670027
asS'Bacteria.Firmicutes.Bacilli.Lactobacillales'
p87
(lp88
F664.8460114353516
aF18944.87866635332
aF48839.71367638675
aF32713.677432755216
aF16384.89610486334
aF3318.4945366248485
aF4812.49617651257
aF0.0
aF10216.97914472298
aF51634.858050747236
aF8260.895836750196
aF23664.7643497719
asS'Bacteria.Firmicutes.Clostridia.Clostridia_UCG_014'
p89
(lp90
F237708.02008857796
aF57092.389450302864
aF98925.23068476954
aF69996.88441167306
aF280256.2001936397
aF268069.607446378
aF36419.99225106547
aF61636.82864450128
aF5742.418213452549
aF38.95500418766295
aF0.0
aF9690.107373935369
asS'Bacteria.Cyanobacteria'
p91
(lp92
F286.3952049259975
aF0.0
aF0.0
aF519.2647211548448
aF0.0
aF0.0
aF0.0
aF0.0
aF241.86815844705032
aF573.1950616184691
aF0.0
aF4789.762181477563
asS'Bacteria.Proteobacteria.Alphaproteobacteria.Caulobacterales'
p93
(lp94
F0.0
aF0.0
aF0.0
aF0.0
aF968.1984061964699
aF0.0
aF632.1499214910581
aF0.0
aF0.0
aF0.0
aF0.0
aF0.0
asS'Bacteria.Proteobacteria'
p95
(lp96
F6689.373715057229
aF11796.010886292825
aF14062.796934056887
aF22847.64773081317
aF129813.06323080361
aF36017.806556050185
aF25306.388792593643
aF31457.800511508947
aF3452.472906865154
aF44124.88974342565
aF12136.697540721812
aF18927.041232285035
asS'Bacteria.Campilobacterota'
p97
(lp98
F0.0
aF0.0
aF0.0
aF0.0
aF0.0
aF0.0
aF0.0
aF0.0
aF0.0
aF19.477502093831475
aF0.0
aF0.0
asS'Bacteria.Bacteroidota.Bacteroidia'
p99
(lp100
F391410.1895322553
aF34758.81099849138
aF45756.87831246438
aF1973.20594038841
aF212556.78856036346
aF32942.12869283691
aF22064.071453333057
aF562659.8465473145
aF653184.4673829083
aF748130.855424067
aF784336.2365879134
aF869551.076341307
asS'Bacteria.Firmicutes.Clostridia.Peptococcales'
p101
(lp102
F153.42600263892726
aF242.5914835227316
aF211.15310711797127
aF0.0
aF0.0
aF0.0
aF81.56773180529781
aF0.0
aF1817.9122876826686
aF180.86251944272084
aF215.80187661311905
aF604.954118891915
asS'Bacteria.Desulfobacterota.Desulfovibrionia'
p103
(lp104
F0.0
aF0.0
aF0.0
aF1869.352996157441
aF4617.561629552395
aF0.0
aF0.0
aF0.0
aF0.0
aF0.0
aF0.0
aF0.0
asS'Bacteria.Bacteroidota'
p105
(lp106
F391410.1895322553
aF34758.81099849138
aF45756.87831246438
aF1973.20594038841
aF212556.78856036346
aF32942.12869283691
aF22064.071453333057
aF562659.8465473145
aF653184.4673829083
aF748130.855424067
aF784336.2365879134
aF869551.076341307
asS'Bacteria.Desulfobacterota'
p107
(lp108
F0.0
aF0.0
aF0.0
aF1869.352996157441
aF4617.561629552395
aF0.0
aF0.0
aF0.0
aF0.0
aF0.0
aF0.0
aF0.0
asS'Bacteria.Patescibacteria.Saccharimonadia'
p109
(lp110
F3794.7364652694673
aF5625.09002418334
aF15361.388542832412
aF3738.705992314882
aF15193.267297236913
aF32456.495346013766
aF550.5821896857602
aF12531.969309462916
aF0.0
aF41.73750448678173
aF0.0
aF1051.6227514787768
asS'Bacteria.Gemmatimonadota.Gemmatimonadetes.Gemmatimonadales'
p111
(lp112
F0.0
aF0.0
aF0.0
aF0.0
aF0.0
aF0.0
aF0.0
aF2813.2992327365732
aF0.0
aF0.0
aF0.0
aF0.0
asS'Bacteria.Firmicutes.Clostridia.Eubacteriales'
p113
(lp114
F327.30880562971146
aF75.80983860085362
aF190.03779640617415
aF0.0
aF0.0
aF404.69445568595717
aF0.0
aF0.0
aF0.0
aF0.0
aF0.0
aF0.0
asS'Bacteria.Bacteroidota.Bacteroidia.Flavobacteriales'
p115
(lp116
F0.0
aF0.0
aF0.0
aF0.0
aF0.0
aF0.0
aF1243.9079100307915
aF0.0
aF0.0
aF0.0
aF0.0
aF0.0
asS'Bacteria.Proteobacteria.Gammaproteobacteria.Enterobacterales'
p117
(lp118
F3539.0264608712555
aF5534.118217862315
aF7780.991997297242
aF15577.941634645344
aF9011.692857674834
aF27842.97855119385
aF6647.770142131771
aF18414.322250639383
aF2512.3079683854908
aF1249.3426343043332
aF7000.612877329581
aF273.2050859511874
asS'Bacteria.Gemmatimonadota'
p119
(lp120
F0.0
aF0.0
aF0.0
aF0.0
aF0.0
aF0.0
aF0.0
aF2813.2992327365732
aF0.0
aF0.0
aF0.0
aF0.0
asS'Bacteria.Firmicutes.Clostridia.Monoglobales'
p121
(lp122
F7804.269334233433
aF4017.921445845242
aF9290.736713190738
aF2284.764773081317
aF0.0
aF78106.02994738972
aF1957.6255633271471
aF26086.95652173913
aF908.9561438413343
aF0.0
aF2956.4857095997304
aF284.04655761591704
asS'Bacteria.Firmicutes.Bacilli'
p123
(lp124
F143.19760246299876
aF1425.2249656960482
aF654.5746320657111
aF934.6764980787206
aF0.0
aF0.0
aF1427.4353065927114
aF0.0
aF1829.615585672042
aF4769.205512689592
aF4117.499805778311
aF2831.792398827387
asS'Bacteria.Cyanobacteria.Vampirivibrionia'
p125
(lp126
F286.3952049259975
aF0.0
aF0.0
aF519.2647211548448
aF0.0
aF0.0
aF0.0
aF0.0
aF241.86815844705032
aF573.1950616184691
aF0.0
aF4789.762181477563
asS'Bacteria.Cyanobacteria.Vampirivibrionia.Gastranaerophilales'
p127
(lp128
F286.3952049259975
aF0.0
aF0.0
aF519.2647211548448
aF0.0
aF0.0
aF0.0
aF0.0
aF241.86815844705032
aF573.1950616184691
aF0.0
aF4789.762181477563
asS'Bacteria.Deferribacterota.Deferribacteres.Deferribacterales'
p129
(lp130
F0.0
aF0.0
aF0.0
aF0.0
aF0.0
aF0.0
aF0.0
aF0.0
aF253.57145643642372
aF258.77252781804674
aF0.0
aF136.6025429755937
asS'Bacteria.Verrucomicrobiota.Verrucomicrobiae'
p131
(lp132
F91288.47157016171
aF3494.8335594993523
aF11001.076880846305
aF0.0
aF893.7216057198184
aF21205.989477944153
aF24368.359876832717
aF9974.424552429668
aF30358.35498443461
aF3823.1554109892068
aF152571.92676547516
aF3141.858488438655
asS'Bacteria.Deferribacterota'
p133
(lp134
F0.0
aF0.0
aF0.0
aF0.0
aF0.0
aF0.0
aF0.0
aF0.0
aF253.57145643642372
aF258.77252781804674
aF0.0
aF136.6025429755937
asS'Bacteria.Actinobacteriota.Coriobacteriia.Coriobacteriales'
p135
(lp136
F8192.948540918716
aF3343.213882297645
aF6704.111150995589
aF14020.147471180808
aF15044.313696283609
aF18939.700526102795
aF18515.875119802604
aF3324.8081841432227
aF132.63737721289857
aF319.98753439866
aF86.32075064524761
aF372.94662526670027
asS'Bacteria.Firmicutes.Clostridia.uncultured'
p137
(lp138
F0.0
aF0.0
aF0.0
aF0.0
aF0.0
aF0.0
aF0.0
aF0.0
aF0.0
aF141.9075152550579
aF0.0
aF0.0
asS'Bacteria.Firmicutes.Bacilli.Erysipelotrichales'
p139
(lp140
F45577.751183937326
aF89061.39838828285
aF73301.80113600373
aF132412.50389448542
aF72912.78766664186
aF39012.54552812627
aF89255.49052794711
aF7161.125319693095
aF663.1868860644928
aF7128.76576634232
aF630.1414797103076
aF4421.152144876754
assS'subclass_sl'
p141
(dp142
g12
(I0
I8
tp143
sg10
(I8
I12
tp144
ssS'norm'
p145
F1000000.0
sS'cls'
p146
(dp147
S'class'
p148
(S'HSD-NC'
p149
S'HSD-NC'
p150
S'HSD-NC'
p151
S'HSD-NC'
p152
S'HSD-NC'
p153
S'HSD-NC'
p154
S'HSD-NC'
p155
g5
S'NC'
p156
S'NC'
p157
S'NC'
p158
g3
tp159
sS'subclass'
p160
(lp161
S'HSD-NC_subcl'
p162
aS'HSD-NC_subcl'
p163
aS'HSD-NC_subcl'
p164
aS'HSD-NC_subcl'
p165
aS'HSD-NC_subcl'
p166
aS'HSD-NC_subcl'
p167
aS'HSD-NC_subcl'
p168
ag12
aS'NC_subcl'
p169
aS'NC_subcl'
p170
aS'NC_subcl'
p171
ag10
asS'subject'
p172
(S'S210421121688'
p173
S'S210421121689'
p174
S'S210421121690'
p175
S'S210421121698'
p176
S'S210421121699'
p177
S'S210421121700'
p178
S'S210421121701'
p179
S'S210421121702'
p180
S'S210421121673'
p181
S'S210421121674'
p182
S'S210421121675'
p183
S'S210421121676'
p184
tp185
ss.