(dp0
S'class_sl'
p1
(dp2
S'NR'
p3
(I4
I9
tp4
sS'NC'
p5
(I0
I4
tp6
ssS'class_hierarchy'
p7
(dp8
g3
(lp9
S'NR_subcl'
p10
asg5
(lp11
S'NC_subcl'
p12
assS'feats'
p13
(dp14
S'Bacteria.Campilobacterota'
p15
(lp16
F0.0
aF17.577737544289622
aF0.0
aF0.0
aF0.0
aF0.0
aF0.0
aF38.39150560515982
aF0.0
asS'Bacteria.Firmicutes.Clostridia'
p17
(lp18
F297628.7911544876
aF123546.38388272135
aF38456.24123059972
aF70414.2355428333
aF27598.923467388897
aF78103.70370370371
aF115318.62150491154
aF285100.80512471753
aF63741.4241217147
asS'Bacteria.Campilobacterota.Campylobacteria'
p19
(lp20
F0.0
aF17.577737544289622
aF0.0
aF0.0
aF0.0
aF0.0
aF0.0
aF38.39150560515982
aF0.0
asS'Bacteria.Proteobacteria.Alphaproteobacteria'
p21
(lp22
F0.0
aF745.798292950574
aF0.0
aF11929.622325405342
aF38.32592365476008
aF0.0
aF74.98533375089872
aF126.1435184169537
aF0.0
asS'Bacteria.Proteobacteria.Gammaproteobacteria'
p23
(lp24
F3416.6718141948236
aF39075.31056095583
aF12102.848387291147
aF6847.650528950895
aF13856.950619176589
aF2637.0370370370374
aF4600.570770716903
aF4069.499594146941
aF3033.367037411527
asS'Bacteria.Deferribacterota.Deferribacteres'
p25
(lp26
F250.94199765272717
aF233.532798802705
aF0.0
aF135.4905726519806
aF0.0
aF0.0
aF0.0
aF87.75201281179388
aF0.0
asS'Bacteria.Actinobacteriota'
p27
(lp28
F131.26196800296498
aF1006.9532507514484
aF94.68800303001609
aF455.9365301939666
aF55.35966750132012
aF992.5925925925927
aF105.8616476483276
aF9164.600838031723
aF2361.5474922130006
asS'Bacteria.Firmicutes'
p29
(lp30
F310206.77620606584
aF182218.36070019664
aF51428.49764571193
aF101112.52814655348
aF43223.12501064609
aF205481.48148148152
aF137686.3054726061
aF386054.01136388566
aF109289.43207497236
asS'Bacteria.Actinobacteriota.Actinobacteria'
p31
(lp32
F0.0
aF718.1761339524045
aF8.608000275456009
aF86.02576041395595
aF0.0
aF0.0
aF0.0
aF6115.2183928218865
aF373.2330806658478
asS'Bacteria.Bacteroidota'
p33
(lp34
F655711.4398665761
aF772697.253604064
aF784227.5610952819
aF870608.6537613688
aF806948.0641150118
aF790074.0740740742
aF857532.2767752778
aF599077.5069653161
aF884833.8434185436
asS'Bacteria.Verrucomicrobiota'
p35
(lp36
F30043.54808820804
aF3450.2587694077056
aF152146.40486868494
aF3116.2831709955544
aF135878.1746640094
aF0.0
aF0.0
aF268.74053923611876
aF40.716336072637944
asS'Bacteria.Actinobacteriota.Coriobacteriia'
p37
(lp38
F131.26196800296498
aF288.7771167990438
aF86.0800027545601
aF369.9107697800106
aF55.35966750132012
aF992.5925925925927
aF105.8616476483276
aF3049.3824452098374
aF1988.3144115471528
asS'Bacteria.Cyanobacteria'
p39
(lp40
F239.36005929952438
aF517.2877048748089
aF0.0
aF4750.7726188607185
aF0.0
aF814.8148148148149
aF0.0
aF164.53502402211353
aF441.09364078691107
asS'Bacteria.Patescibacteria.Saccharimonadia'
p41
(lp42
F0.0
aF37.66658045204919
aF0.0
aF1043.062345019216
aF0.0
aF0.0
aF0.0
aF948.8186385275213
aF0.0
asS'Bacteria.Proteobacteria'
p43
(lp44
F3416.6718141948236
aF39821.1088539064
aF12102.848387291147
aF18777.272854356237
aF13895.276542831349
aF2637.0370370370374
aF4675.5561044678025
aF4195.643112563895
aF3033.367037411527
asS'Bacteria.Bacteroidota.Bacteroidia'
p45
(lp46
F655711.4398665761
aF772697.253604064
aF784227.5610952819
aF870608.6537613688
aF806948.0641150118
aF790074.0740740742
aF857532.2767752778
aF599077.5069653161
aF884833.8434185436
asS'Bacteria.Patescibacteria'
p47
(lp48
F0.0
aF37.66658045204919
aF0.0
aF1043.062345019216
aF0.0
aF0.0
aF0.0
aF948.8186385275213
aF0.0
asS'Bacteria.Firmicutes.Bacilli'
p49
(lp50
F12577.985051578233
aF58671.97681747529
aF12972.256415112204
aF30698.292603720183
aF15624.201543257192
aF127377.7777777778
aF22367.683967694553
aF100953.20623916811
aF45548.00795325765
asS'Bacteria.Cyanobacteria.Vampirivibrionia'
p51
(lp52
F239.36005929952438
aF517.2877048748089
aF0.0
aF4750.7726188607185
aF0.0
aF814.8148148148149
aF0.0
aF164.53502402211353
aF441.09364078691107
asS'Bacteria.Verrucomicrobiota.Verrucomicrobiae'
p53
(lp54
F30043.54808820804
aF3450.2587694077056
aF152146.40486868494
aF3116.2831709955544
aF135878.1746640094
aF0.0
aF0.0
aF268.74053923611876
aF40.716336072637944
asS'Bacteria.Deferribacterota'
p55
(lp56
F250.94199765272717
aF233.532798802705
aF0.0
aF135.4905726519806
aF0.0
aF0.0
aF0.0
aF87.75201281179388
aF0.0
asS'Bacteria'
p57
(lp58
F1000000.0
aF1000000.0
aF1000000.0
aF1000000.0
aF1000000.0
aF1000000.0
aF1000000.0
aF1000000.0
aF1000000.0
assS'subclass_sl'
p59
(dp60
g12
(I0
I4
tp61
sg10
(I4
I9
tp62
ssS'norm'
p63
F1000000.0
sS'cls'
p64
(dp65
S'class'
p66
(S'NC'
p67
S'NC'
p68
S'NC'
p69
g5
S'NR'
p70
S'NR'
p71
S'NR'
p72
S'NR'
p73
g3
tp74
sS'subclass'
p75
(lp76
S'NC_subcl'
p77
aS'NC_subcl'
p78
aS'NC_subcl'
p79
ag12
aS'NR_subcl'
p80
aS'NR_subcl'
p81
aS'NR_subcl'
p82
aS'NR_subcl'
p83
ag10
asS'subject'
p84
(S'S210421121673'
p85
S'S210421121674'
p86
S'S210421121675'
p87
S'S210421121676'
p88
S'S210421121677'
p89
S'S210421121678'
p90
S'S210421121679'
p91
S'S210421121680'
p92
S'S210421121681'
p93
tp94
ss.