(dp0
S'class_sl'
p1
(dp2
S'NR'
p3
(I4
I9
tp4
sS'NC'
p5
(I0
I4
tp6
ssS'class_hierarchy'
p7
(dp8
g3
(lp9
S'NR_subcl'
p10
asg5
(lp11
S'NC_subcl'
p12
assS'feats'
p13
(dp14
S'Bacteria.Firmicutes.Clostridia.Oscillospirales.Ruminococcaceae.Ruminococcaceae'
p15
(lp16
F0.0
aF0.0
aF0.0
aF0.0
aF0.0
aF0.0
aF0.0
aF981.725643331944
aF0.0
asS'Bacteria.Firmicutes.Bacilli.Acholeplasmatales'
p17
(lp18
F0.0
aF1335.908053366011
aF0.0
aF0.0
aF0.0
aF0.0
aF0.0
aF0.0
aF0.0
asS'Bacteria.Campilobacterota.Campylobacteria.Campylobacterales.Helicobacteraceae.Helicobacter'
p19
(lp20
F0.0
aF17.577737544289615
aF0.0
aF0.0
aF0.0
aF0.0
aF0.0
aF38.39150560515982
aF0.0
asS'Bacteria.Firmicutes.Clostridia.Oscillospirales.UCG_010'
p21
(lp22
F0.0
aF0.0
aF0.0
aF4137.839075911283
aF0.0
aF399.99999999999994
aF0.0
aF422.30656165675805
aF285.01435250846566
asS'Bacteria.Actinobacteriota.Actinobacteria.Bifidobacteriales'
p23
(lp24
F0.0
aF718.1761339524043
aF0.0
aF86.02576041395598
aF0.0
aF0.0
aF0.0
aF6115.2183928218865
aF0.0
asS'Bacteria.Cyanobacteria.Vampirivibrionia.Gastranaerophilales.Gastranaerophilales'
p25
(lp26
F239.36005929952432
aF517.2877048748087
aF0.0
aF4750.77261886072
aF0.0
aF814.8148148148146
aF0.0
aF164.53502402211353
aF441.09364078691107
asS'Bacteria.Proteobacteria.Alphaproteobacteria.Caulobacterales.Caulobacteraceae.Brevundimonas'
p27
(lp28
F0.0
aF0.0
aF0.0
aF0.0
aF0.0
aF0.0
aF0.0
aF49.36050720663406
aF0.0
asS'Bacteria.Firmicutes.Clostridia.Lachnospirales.Lachnospiraceae.Lachnospiraceae_UCG_006'
p29
(lp30
F397.6465501266291
aF0.0
aF0.0
aF0.0
aF0.0
aF0.0
aF0.0
aF910.4271329223615
aF420.7354727505921
asS'Bacteria.Firmicutes.Clostridia.Oscillospirales.Oscillospiraceae.Intestinimonas'
p31
(lp32
F0.0
aF0.0
aF0.0
aF0.0
aF89.42715519444018
aF0.0
aF0.0
aF0.0
aF0.0
asS'Bacteria.Bacteroidota.Bacteroidia.Bacteroidales.Prevotellaceae.Prevotellaceae_UCG_001'
p33
(lp34
F65754.52467724997
aF4145.83495508888
aF77695.81048626594
aF13512.496317022138
aF85130.39330914541
aF62488.88888888887
aF72021.20761674552
aF25003.839150560518
aF65607.58952504394
asS'Bacteria.Firmicutes.Clostridia.Lachnospirales.Lachnospiraceae.Lachnospiraceae_UCG_001'
p35
(lp36
F0.0
aF0.0
aF0.0
aF210.76311301419216
aF0.0
aF0.0
aF0.0
aF0.0
aF0.0
asS'Bacteria.Proteobacteria.Gammaproteobacteria'
p37
(lp38
F3416.6718141948227
aF39075.310560955826
aF12102.848387291146
aF6847.650528950897
aF13856.950619176589
aF2637.037037037036
aF4600.570770716902
aF4069.499594146941
aF3033.367037411527
asS'Bacteria.Proteobacteria.Alphaproteobacteria.Rhodospirillales'
p39
(lp40
F0.0
aF693.0650803177049
aF0.0
aF11929.622325405346
aF0.0
aF0.0
aF0.0
aF0.0
aF0.0
asS'Bacteria.Actinobacteriota.Actinobacteria.Micrococcales.Micrococcaceae.Rothia'
p41
(lp42
F0.0
aF0.0
aF8.608000275456009
aF0.0
aF0.0
aF0.0
aF0.0
aF0.0
aF0.0
asS'Bacteria.Firmicutes.Clostridia.Lachnospirales.Lachnospiraceae.Tyzzerella'
p43
(lp44
F2065.4456729878307
aF0.0
aF0.0
aF0.0
aF0.0
aF0.0
aF0.0
aF0.0
aF0.0
asS'Bacteria.Proteobacteria.Alphaproteobacteria.Rhodospirillales.uncultured.uncultured'
p45
(lp46
F0.0
aF693.0650803177049
aF0.0
aF11929.622325405346
aF0.0
aF0.0
aF0.0
aF0.0
aF0.0
asS'Bacteria.Firmicutes.Clostridia.Peptostreptococcales_Tissierellales.Peptostreptococcaceae.Romboutsia'
p47
(lp48
F2490.1167459385997
aF88935.81865801505
aF1273.9840407674894
aF12951.178230321075
aF1111.4517859880423
aF1748.1481481481478
aF3158.2058215084394
aF53172.23526314636
aF4438.080631917536
asS'Bacteria.Bacteroidota.Bacteroidia.Bacteroidales.Rikenellaceae'
p49
(lp50
F26074.803879177212
aF24033.789433770846
aF0.0
aF25605.567587214002
aF0.0
aF2918.518518518518
aF11763.875594920402
aF444.24456485970654
aF1431.8578185544345
asS'Bacteria.Verrucomicrobiota.Verrucomicrobiae.Verrucomicrobiales.Akkermansiaceae.Akkermansia'
p51
(lp52
F30043.548088208034
aF3450.2587694077047
aF152146.40486868494
aF3116.283170995556
aF135878.1746640094
aF0.0
aF0.0
aF268.74053923611876
aF40.716336072637944
asS'Bacteria.Bacteroidota.Bacteroidia.Bacteroidales.Muribaculaceae.Muribaculum'
p53
(lp54
F8771.387979492247
aF321.421486524153
aF14444.224462215183
aF13372.704456349458
aF13265.028020508627
aF5881.48148148148
aF13541.469095015236
aF5396.748787925323
aF11183.420307951223
asS'Bacteria.Bacteroidota.Bacteroidia.Bacteroidales.Rikenellaceae.Alistipes'
p55
(lp56
F26074.803879177212
aF24033.789433770846
aF0.0
aF25605.567587214002
aF0.0
aF2918.518518518518
aF11763.875594920402
aF444.24456485970654
aF1431.8578185544345
asS'Bacteria.Firmicutes.Clostridia.Lachnospirales.Lachnospiraceae.Lachnospiraceae_NK4A136_group'
p57
(lp58
F94466.14985483969
aF0.0
aF426.09601363507244
aF3720.6141379035967
aF323.64113308464067
aF9555.555555555553
aF28741.43733652094
aF62364.25860518176
aF11353.071708253881
asS'Bacteria.Firmicutes.Clostridia.Lachnospirales.Lachnospiraceae.Roseburia'
p59
(lp60
F5053.585768114151
aF3334.7479226880873
aF7191.984230143496
aF180.65409686930758
aF4931.26884357913
aF0.0
aF6638.407487947209
aF1272.4041857710113
aF0.0
asS'Bacteria.Firmicutes.Clostridia.Lachnospirales.Lachnospiraceae.Anaerostipes'
p61
(lp62
F0.0
aF457.02117615153
aF0.0
aF0.0
aF0.0
aF0.0
aF57.34172580951077
aF0.0
aF0.0
asS'Bacteria.Firmicutes.Bacilli.Erysipelotrichales.Erysipelotrichaceae.uncultured'
p63
(lp64
F50.188399530545425
aF0.0
aF0.0
aF191.40731692105206
aF0.0
aF1288.8888888888887
aF110.27254963367457
aF499.0895728670777
aF841.4709455011842
asS'Bacteria.Firmicutes.Clostridia.Lachnospirales.Lachnospiraceae.Lachnospiraceae_NC2004_group'
p65
(lp66
F0.0
aF0.0
aF0.0
aF0.0
aF0.0
aF0.0
aF149.9706675017974
aF0.0
aF0.0
asS'Bacteria.Firmicutes.Clostridia.Christensenellales.Christensenellaceae'
p67
(lp68
F27.02452282413984
aF80.35537163103825
aF279.7600089523203
aF309.69273749024154
aF144.7868226957603
aF0.0
aF0.0
aF263.25603843538164
aF74.64661613316957
asS'Bacteria.Actinobacteriota.Actinobacteria.Bifidobacteriales.Bifidobacteriaceae.Bifidobacterium'
p69
(lp70
F0.0
aF718.1761339524043
aF0.0
aF86.02576041395598
aF0.0
aF0.0
aF0.0
aF6115.2183928218865
aF0.0
asS'Bacteria.Bacteroidota.Bacteroidia'
p71
(lp72
F655711.4398665759
aF772697.2536040638
aF784227.561095282
aF870608.6537613691
aF806948.0641150117
aF790074.0740740739
aF857532.2767752776
aF599077.5069653161
aF884833.8434185438
asS'Bacteria.Firmicutes.Bacilli.Lactobacillales.Lactobacillaceae.Lactobacillus'
p73
(lp74
F9697.943047748468
aF45262.67417654576
aF7252.240232071687
aF23396.85618858568
aF8465.770691740337
aF122222.22222222219
aF18247.901513380468
aF87291.31474453196
aF37594.750307069036
asS'Bacteria.Firmicutes.Bacilli.Staphylococcales.Staphylococcaceae.Staphylococcus'
p75
(lp76
F0.0
aF0.0
aF0.0
aF0.0
aF0.0
aF414.8148148148147
aF97.03984367763363
aF252.2870368339074
aF1058.6247378885867
asS'Bacteria.Firmicutes.Bacilli.RF39.RF39.RF39'
p77
(lp78
F0.0
aF0.0
aF0.0
aF32.25966015523349
aF0.0
aF0.0
aF727.7988275822521
aF0.0
aF0.0
asS'Bacteria.Firmicutes.Clostridia.Lachnospirales.Lachnospiraceae.Lachnospiraceae_UCG_010'
p79
(lp80
F220.056828710853
aF0.0
aF0.0
aF0.0
aF0.0
aF0.0
aF119.09435360436854
aF0.0
aF0.0
asS'Bacteria.Firmicutes.Bacilli.Erysipelotrichales.Erysipelotrichaceae.Allobaculum'
p81
(lp82
F0.0
aF816.1092431277323
aF0.0
aF769.9305557049062
aF0.0
aF0.0
aF216.13419728200213
aF394.8840576530725
aF441.09364078691107
asS'Bacteria.Proteobacteria.Alphaproteobacteria.Rhizobiales.Rhizobiaceae'
p83
(lp84
F0.0
aF32.644369725109286
aF0.0
aF0.0
aF38.32592365476008
aF0.0
aF74.9853337508987
aF0.0
aF0.0
asS'Bacteria.Firmicutes.Bacilli.Lactobacillales.Aerococcaceae.Aerococcus'
p85
(lp86
F0.0
aF0.0
aF301.2800096409603
aF25.807728124186795
aF246.9892857751205
aF0.0
aF83.80713772159268
aF0.0
aF149.29323226633915
asS'Bacteria.Actinobacteriota.Coriobacteriia.Coriobacteriales.uncultured.uncultured'
p87
(lp88
F34.74581505960837
aF0.0
aF30.12800096409603
aF0.0
aF0.0
aF562.9629629629628
aF48.51992183881681
aF998.1791457341554
aF251.084072447934
asS'Bacteria.Firmicutes.Bacilli.Erysipelotrichales.Erysipelatoclostridiaceae.Candidatus_Stoquefichus'
p89
(lp90
F196.8929520044474
aF0.0
aF0.0
aF0.0
aF0.0
aF0.0
aF0.0
aF0.0
aF0.0
asS'Bacteria.Firmicutes.Bacilli.Erysipelotrichales.Erysipelotrichaceae.Faecalibaculum'
p91
(lp92
F0.0
aF100.44421453879781
aF0.0
aF86.02576041395598
aF0.0
aF0.0
aF0.0
aF488.1205712656034
aF0.0
asS'Bacteria.Firmicutes.Clostridia.Monoglobales'
p93
(lp94
F899.5305454320834
aF0.0
aF2948.240094343683
aF281.73436535570585
aF1984.4311581242441
aF533.3333333333333
aF392.5702766958815
aF8500.976241142533
aF678.6056012106325
asS'Bacteria.Firmicutes.Bacilli.Staphylococcales'
p95
(lp96
F0.0
aF0.0
aF0.0
aF0.0
aF0.0
aF414.8148148148147
aF273.4759230915129
aF466.18256806265504
aF1642.2255549297306
asS'Bacteria.Cyanobacteria.Vampirivibrionia'
p97
(lp98
F239.36005929952432
aF517.2877048748087
aF0.0
aF4750.77261886072
aF0.0
aF814.8148148148146
aF0.0
aF164.53502402211353
aF441.09364078691107
asS'Bacteria.Firmicutes.Clostridia.Oscillospirales.Ruminococcaceae.Candidatus_Soleaferrea'
p99
(lp100
F0.0
aF0.0
aF0.0
aF25.807728124186795
aF0.0
aF0.0
aF0.0
aF0.0
aF0.0
asS'Bacteria.Bacteroidota.Bacteroidia.Bacteroidales.Muribaculaceae.Muribaculaceae'
p101
(lp102
F404587.9918463153
aF281728.44404378353
aF463403.0868288988
aF546252.8254085687
aF484465.22561193723
aF431496.29629629623
aF382495.77656134893
aF522991.0273566901
aF484700.8367207064
asS'Bacteria.Proteobacteria.Alphaproteobacteria.Rickettsiales'
p103
(lp104
F0.0
aF0.0
aF0.0
aF0.0
aF0.0
aF0.0
aF0.0
aF76.78301121031964
aF0.0
asS'Bacteria.Deferribacterota'
p105
(lp106
F250.9419976527271
aF233.53279880270492
aF0.0
aF135.49057265198067
aF0.0
aF0.0
aF0.0
aF87.75201281179388
aF0.0
asS'Bacteria.Actinobacteriota.Coriobacteriia.Coriobacteriales'
p107
(lp108
F131.26196800296495
aF288.7771167990437
aF86.0800027545601
aF369.9107697800107
aF55.35966750132012
aF992.5925925925924
aF105.86164764832759
aF3049.3824452098374
aF1988.314411547153
asS'Bacteria.Proteobacteria.Alphaproteobacteria.Rhizobiales.Rhizobiaceae.Allorhizobium_Neorhizobium_Pararhizobium_Rhizobium'
p109
(lp110
F0.0
aF32.644369725109286
aF0.0
aF0.0
aF38.32592365476008
aF0.0
aF74.9853337508987
aF0.0
aF0.0
asS'Bacteria.Bacteroidota.Bacteroidia.Bacteroidales.Prevotellaceae.Prevotellaceae_NK3B31_group'
p111
(lp112
F29916.146766322803
aF512.2654941478688
aF138967.5564469618
aF188768.47672035397
aF128498.30514248728
aF45422.22222222221
aF9183.497933492417
aF6049.40438321304
aF28779.663547342923
asS'Bacteria.Bacteroidota.Bacteroidia.Bacteroidales.Tannerellaceae.Parabacteroides'
p113
(lp114
F6613.286799678793
aF73813.94215919905
aF22867.152731748887
aF8148.790155211981
aF25205.682456947212
aF2014.8148148148143
aF27585.78101636003
aF1656.3192418226095
aF2327.617212152469
asS'Bacteria.Actinobacteriota.Actinobacteria.Micrococcales'
p115
(lp116
F0.0
aF0.0
aF8.608000275456009
aF0.0
aF0.0
aF0.0
aF0.0
aF0.0
aF0.0
asS'Bacteria.Firmicutes.Clostridia.Lachnospirales.Lachnospiraceae.Frisingicoccus'
p117
(lp118
F0.0
aF457.02117615153
aF0.0
aF34.410304165582396
aF0.0
aF666.6666666666665
aF110.27254963367457
aF0.0
aF162.86534429055177
asS'Bacteria.Firmicutes.Clostridia.Clostridia_UCG_014.Clostridia_UCG_014'
p119
(lp120
F5682.871085304836
aF35.15547508857923
aF0.0
aF9611.228082249232
aF0.0
aF488.88888888888874
aF0.0
aF394.8840576530725
aF1574.3649948086672
asS'Bacteria.Firmicutes.Bacilli.Erysipelotrichales.Erysipelatoclostridiaceae.Erysipelatoclostridiaceae'
p121
(lp122
F0.0
aF17.577737544289615
aF0.0
aF0.0
aF0.0
aF0.0
aF0.0
aF0.0
aF0.0
asS'Bacteria.Firmicutes.Clostridia.Oscillospirales.Oscillospiraceae.Flavonifractor'
p123
(lp124
F0.0
aF236.04390416617485
aF0.0
aF0.0
aF0.0
aF0.0
aF0.0
aF0.0
aF0.0
asS'Bacteria.Proteobacteria.Gammaproteobacteria.Pasteurellales.Pasteurellaceae.Haemophilus'
p125
(lp126
F104.23744517882511
aF0.0
aF0.0
aF0.0
aF0.0
aF0.0
aF0.0
aF0.0
aF0.0
asS'Bacteria.Firmicutes.Clostridia.Oscillospirales.Oscillospiraceae.NK4A214_group'
p127
(lp128
F54.04904564827968
aF60.26652872327869
aF223.80800716185624
aF116.13477655884058
aF170.33743846560037
aF0.0
aF269.06502110616594
aF2939.692429195095
aF190.0095683389771
asS'Bacteria.Campilobacterota'
p129
(lp130
F0.0
aF17.577737544289615
aF0.0
aF0.0
aF0.0
aF0.0
aF0.0
aF38.39150560515982
aF0.0
asS'Bacteria.Deferribacterota.Deferribacteres.Deferribacterales.Deferribacteraceae.Mucispirillum'
p131
(lp132
F250.9419976527271
aF233.53279880270492
aF0.0
aF135.49057265198067
aF0.0
aF0.0
aF0.0
aF87.75201281179388
aF0.0
asS'Bacteria.Firmicutes.Bacilli.RF39.RF39'
p133
(lp134
F0.0
aF0.0
aF0.0
aF32.25966015523349
aF0.0
aF0.0
aF727.7988275822521
aF0.0
aF0.0
asS'Bacteria.Proteobacteria.Gammaproteobacteria.Pseudomonadales.Moraxellaceae.Acinetobacter'
p135
(lp136
F0.0
aF27.6221589981694
aF0.0
aF0.0
aF0.0
aF0.0
aF0.0
aF82.26751201105677
aF0.0
asS'Bacteria.Firmicutes.Clostridia.Clostridia_vadinBB60_group'
p137
(lp138
F2354.994131817901
aF223.48837734882514
aF38.73600123955204
aF2759.2762652776382
aF0.0
aF474.07407407407396
aF114.68345161902154
aF351.0080512471755
aF264.65618447214666
asS'Bacteria.Firmicutes.Bacilli.Erysipelotrichales.Erysipelatoclostridiaceae.UCG_004'
p139
(lp140
F409.22848847983187
aF87.88868772144808
aF0.0
aF378.51334582140635
aF0.0
aF0.0
aF26.465411912081898
aF76.78301121031964
aF0.0
asS'Bacteria.Proteobacteria.Gammaproteobacteria.Burkholderiales.Alcaligenaceae.Achromobacter'
p141
(lp142
F0.0
aF0.0
aF0.0
aF0.0
aF0.0
aF0.0
aF79.39623573624569
aF0.0
aF0.0
asS'Bacteria.Firmicutes.Clostridia.Oscillospirales.Oscillospiraceae.Colidextribacter'
p143
(lp144
F4084.5635925628503
aF42.68879117898907
aF499.2640159764485
aF434.43009009047773
aF587.6641627063212
aF770.3703703703702
aF1755.5389901680992
aF904.9426321216245
aF1011.1223458038424
asS'Bacteria.Bacteroidota.Bacteroidia.Bacteroidales.Tannerellaceae'
p145
(lp146
F6613.286799678793
aF73813.94215919905
aF22867.152731748887
aF8148.790155211981
aF25205.682456947212
aF2014.8148148148143
aF27585.78101636003
aF1656.3192418226095
aF2327.617212152469
asS'Bacteria.Proteobacteria.Gammaproteobacteria.Burkholderiales.Sutterellaceae'
p147
(lp148
F617.7033788374821
aF37330.092333344204
aF4966.816158938117
aF6428.274946932861
aF5697.787316674332
aF903.7037037037035
aF3489.0234704094632
aF257.7715376346445
aF1302.9227543244142
asS'Bacteria.Firmicutes.Clostridia.Clostridiales.Clostridiaceae.Clostridium_sensu_stricto_1'
p149
(lp150
F0.0
aF22.599948271229508
aF0.0
aF0.0
aF0.0
aF0.0
aF0.0
aF290.6785424390672
aF0.0
asS'Bacteria.Campilobacterota.Campylobacteria.Campylobacterales'
p151
(lp152
F0.0
aF17.577737544289615
aF0.0
aF0.0
aF0.0
aF0.0
aF0.0
aF38.39150560515982
aF0.0
asS'Bacteria.Firmicutes.Clostridia.Peptostreptococcales_Tissierellales.Anaerovoracaceae.Anaerovorax'
p153
(lp154
F293.409104947804
aF0.0
aF206.5920066109442
aF109.68284452779389
aF93.68559115608019
aF0.0
aF172.02517742853232
aF0.0
aF0.0
asS'Bacteria.Proteobacteria.Alphaproteobacteria.Rhizobiales'
p155
(lp156
F0.0
aF32.644369725109286
aF0.0
aF0.0
aF38.32592365476008
aF0.0
aF74.9853337508987
aF0.0
aF0.0
asS'Bacteria.Firmicutes.Clostridia.Lachnospirales.Defluviitaleaceae.Defluviitaleaceae_UCG_011'
p157
(lp158
F0.0
aF50.222107269398904
aF0.0
aF133.33992864163176
aF0.0
aF518.5185185185184
aF0.0
aF43.87600640589694
aF386.8051926900605
asS'Bacteria.Firmicutes.Bacilli.RF39'
p159
(lp160
F0.0
aF0.0
aF0.0
aF32.25966015523349
aF0.0
aF0.0
aF727.7988275822521
aF0.0
aF0.0
asS'Bacteria.Firmicutes.Clostridia.Peptostreptococcales_Tissierellales'
p161
(lp162
F3111.680770893816
aF104838.64892487021
aF1725.9040552289298
aF13581.316925353301
aF1362.699507724803
aF1748.1481481481478
aF3771.3211974716705
aF53600.02632560385
aF4580.587808171769
asS'Bacteria.Firmicutes.Clostridia.Peptococcales'
p163
(lp164
F1799.0610908641668
aF163.22184862554644
aF215.20000688640022
aF600.029678887343
aF225.69710596692047
aF0.0
aF1133.6018102341745
aF614.2640896825571
aF318.94463256899724
asS'Bacteria.Actinobacteriota.Actinobacteria.Corynebacteriales'
p165
(lp166
F0.0
aF0.0
aF0.0
aF0.0
aF0.0
aF0.0
aF0.0
aF0.0
aF373.23308066584787
asS'Bacteria.Verrucomicrobiota'
p167
(lp168
F30043.548088208034
aF3450.2587694077047
aF152146.40486868494
aF3116.283170995556
aF135878.1746640094
aF0.0
aF0.0
aF268.74053923611876
aF40.716336072637944
asS'Bacteria.Firmicutes.Clostridia.Peptostreptococcales_Tissierellales.Anaerovoracaceae.Family_XIII_UCG_001'
p169
(lp170
F154.42584470937052
aF0.0
aF0.0
aF0.0
aF0.0
aF0.0
aF0.0
aF148.0815216199022
aF0.0
asS'Bacteria.Firmicutes.Clostridia.Christensenellales.Christensenellaceae.Christensenellaceae_R_7_group'
p171
(lp172
F0.0
aF80.35537163103825
aF279.7600089523203
aF281.73436535570585
aF144.7868226957603
aF0.0
aF0.0
aF148.0815216199022
aF74.64661613316957
asS'Bacteria.Cyanobacteria.Vampirivibrionia.Gastranaerophilales'
p173
(lp174
F239.36005929952432
aF517.2877048748087
aF0.0
aF4750.77261886072
aF0.0
aF814.8148148148146
aF0.0
aF164.53502402211353
aF441.09364078691107
asS'Bacteria.Actinobacteriota.Coriobacteriia.Coriobacteriales.Eggerthellaceae.Parvibacter'
p175
(lp176
F0.0
aF0.0
aF0.0
aF0.0
aF0.0
aF0.0
aF57.34172580951077
aF455.21356646118073
aF0.0
asS'Bacteria.Firmicutes.Clostridia.Oscillospirales.Ruminococcaceae.Anaerotruncus'
p177
(lp178
F285.6878127123355
aF0.0
aF0.0
aF19.355796093140096
aF0.0
aF0.0
aF0.0
aF0.0
aF0.0
asS'Bacteria.Bacteroidota.Bacteroidia.Bacteroidales'
p179
(lp180
F655711.4398665759
aF772697.2536040638
aF784227.561095282
aF870608.6537613691
aF806948.0641150117
aF790074.0740740739
aF857532.2767752776
aF599077.5069653161
aF884833.8434185438
asS'Bacteria.Actinobacteriota.Coriobacteriia'
p181
(lp182
F131.26196800296495
aF288.7771167990437
aF86.0800027545601
aF369.9107697800107
aF55.35966750132012
aF992.5925925925924
aF105.86164764832759
aF3049.3824452098374
aF1988.314411547153
asS'Bacteria.Firmicutes.Clostridia.Lachnospirales.Lachnospiraceae.Tuzzerella'
p183
(lp184
F0.0
aF0.0
aF0.0
aF23.657084113837897
aF0.0
aF0.0
aF0.0
aF0.0
aF0.0
asS'Bacteria.Deferribacterota.Deferribacteres.Deferribacterales'
p185
(lp186
F250.9419976527271
aF233.53279880270492
aF0.0
aF135.49057265198067
aF0.0
aF0.0
aF0.0
aF87.75201281179388
aF0.0
asS'Bacteria.Proteobacteria.Gammaproteobacteria.Pseudomonadales.Moraxellaceae'
p187
(lp188
F0.0
aF27.6221589981694
aF0.0
aF0.0
aF0.0
aF0.0
aF0.0
aF82.26751201105677
aF0.0
asS'Bacteria.Firmicutes.Clostridia.Oscillospirales.Oscillospiraceae.uncultured'
p189
(lp190
F14651.152016801529
aF0.0
aF4458.944142686213
aF1473.1911470889963
aF2618.9381164086053
aF2607.4074074074065
aF1195.3544380290323
aF31201.325055393463
aF156.0792882784455
asS'Bacteria.Firmicutes.Clostridia.Oscillospirales.Ruminococcaceae.Paludicola'
p191
(lp192
F0.0
aF0.0
aF64.56000206592007
aF36.560948175931294
aF0.0
aF0.0
aF0.0
aF433.27556325823224
aF0.0
asS'Bacteria.Firmicutes.Clostridia.Lachnospirales.Lachnospiraceae._Eubacterium__ventriosum_group'
p193
(lp194
F81.07356847241952
aF0.0
aF0.0
aF0.0
aF0.0
aF0.0
aF57.34172580951077
aF0.0
aF0.0
asS'Bacteria.Firmicutes.Clostridia.Lachnospirales.Lachnospiraceae.Lachnoclostridium'
p195
(lp196
F243.22070541725859
aF5122.654941478688
aF0.0
aF344.1030416558239
aF0.0
aF0.0
aF0.0
aF0.0
aF162.86534429055177
asS'Bacteria.Patescibacteria'
p197
(lp198
F0.0
aF37.666580452049175
aF0.0
aF1043.0623450192165
aF0.0
aF0.0
aF0.0
aF948.8186385275213
aF0.0
asS'Bacteria.Firmicutes.Clostridia.Lachnospirales.Defluviitaleaceae'
p199
(lp200
F0.0
aF50.222107269398904
aF0.0
aF133.33992864163176
aF0.0
aF518.5185185185184
aF0.0
aF43.87600640589694
aF386.8051926900605
asS'Bacteria.Firmicutes.Clostridia.Lachnospirales.Lachnospiraceae.Acetatifactor'
p201
(lp202
F316.57298165420957
aF0.0
aF0.0
aF227.96826509698337
aF0.0
aF0.0
aF0.0
aF0.0
aF0.0
asS'Bacteria.Firmicutes.Clostridia.Lachnospirales.Lachnospiraceae.Hungatella'
p203
(lp204
F0.0
aF2797.371374905519
aF0.0
aF0.0
aF0.0
aF0.0
aF0.0
aF0.0
aF0.0
asS'Bacteria.Firmicutes.Clostridia.Lachnospirales.Lachnospiraceae.GCA_900066575'
p205
(lp206
F710.3588856631045
aF0.0
aF167.85600537139217
aF221.51633306593666
aF0.0
aF607.4074074074073
aF1235.0525558971551
aF0.0
aF0.0
asS'Bacteria.Firmicutes.Clostridia.Oscillospirales.UCG_010.UCG_010'
p207
(lp208
F0.0
aF0.0
aF0.0
aF4137.839075911283
aF0.0
aF399.99999999999994
aF0.0
aF422.30656165675805
aF285.01435250846566
asS'Bacteria.Bacteroidota.Bacteroidia.Bacteroidales.Bacteroidaceae'
p209
(lp210
F113993.2979183396
aF388141.55603154947
aF66849.73013919136
aF74947.79311664881
aF70383.42957398607
aF239851.8518518518
aF340940.668957395
aF37535.92348024483
aF290802.85828679235
asS'Bacteria.Firmicutes.Bacilli.Staphylococcales.Staphylococcaceae.Jeotgalicoccus'
p211
(lp212
F0.0
aF0.0
aF0.0
aF0.0
aF0.0
aF0.0
aF176.4360794138793
aF213.8955312287476
aF583.6008170411438
asS'Bacteria.Proteobacteria.Alphaproteobacteria.Rickettsiales.Mitochondria.Mitochondria'
p213
(lp214
F0.0
aF0.0
aF0.0
aF0.0
aF0.0
aF0.0
aF0.0
aF76.78301121031964
aF0.0
asS'Bacteria.Firmicutes.Clostridia.Oscillospirales.Ruminococcaceae.UBA1819'
p215
(lp216
F0.0
aF0.0
aF25.824000826368025
aF53.766100258722496
aF0.0
aF0.0
aF0.0
aF0.0
aF0.0
asS'Bacteria.Cyanobacteria.Vampirivibrionia.Gastranaerophilales.Gastranaerophilales.Gastranaerophilales'
p217
(lp218
F239.36005929952432
aF517.2877048748087
aF0.0
aF4750.77261886072
aF0.0
aF814.8148148148146
aF0.0
aF164.53502402211353
aF441.09364078691107
asS'Bacteria.Proteobacteria.Gammaproteobacteria.Enterobacterales.Enterobacteriaceae'
p219
(lp220
F2486.2560998208655
aF1127.4863081980054
aF6765.888216508422
aF270.98114530396134
aF8005.859607883217
aF1733.3333333333328
aF630.7589839046185
aF3109.7119540179456
aF1445.4299305786471
asS'Bacteria.Firmicutes.Bacilli.Erysipelotrichales'
p221
(lp222
F656.3098400148248
aF6433.451941210001
aF628.3840201082887
aF4385.163137101406
aF681.3497538624015
aF1288.8888888888887
aF1235.052555897155
aF5138.977250290679
aF1574.3649948086675
asS'Bacteria.Proteobacteria.Alphaproteobacteria'
p223
(lp224
F0.0
aF745.7982929505738
aF0.0
aF11929.622325405346
aF38.32592365476008
aF0.0
aF74.9853337508987
aF126.1435184169537
aF0.0
asS'Bacteria.Firmicutes.Bacilli.Acholeplasmatales.Acholeplasmataceae'
p225
(lp226
F0.0
aF1335.908053366011
aF0.0
aF0.0
aF0.0
aF0.0
aF0.0
aF0.0
aF0.0
asS'Bacteria.Firmicutes.Clostridia.Monoglobales.Monoglobaceae'
p227
(lp228
F899.5305454320834
aF0.0
aF2948.240094343683
aF281.73436535570585
aF1984.4311581242441
aF533.3333333333333
aF392.5702766958815
aF8500.976241142533
aF678.6056012106325
asS'Bacteria.Firmicutes.Clostridia.uncultured'
p229
(lp230
F0.0
aF128.0663735369672
aF0.0
aF0.0
aF0.0
aF0.0
aF0.0
aF1294.3421889739598
aF0.0
asS'Bacteria.Firmicutes.Clostridia.Peptococcales.Peptococcaceae'
p231
(lp232
F1799.0610908641668
aF163.22184862554644
aF215.20000688640022
aF600.029678887343
aF225.69710596692047
aF0.0
aF1133.6018102341745
aF614.2640896825571
aF318.94463256899724
asS'Bacteria.Firmicutes.Bacilli.Lactobacillales.Lactobacillaceae'
p233
(lp234
F9697.943047748468
aF45262.67417654576
aF7252.240232071687
aF23396.85618858568
aF8465.770691740337
aF122222.22222222219
aF18247.901513380468
aF87291.31474453196
aF37594.750307069036
asS'Bacteria.Firmicutes.Clostridia.Clostridia_UCG_014.Clostridia_UCG_014.Clostridia_UCG_014'
p235
(lp236
F5682.871085304836
aF35.15547508857923
aF0.0
aF9611.228082249232
aF0.0
aF488.88888888888874
aF0.0
aF394.8840576530725
aF1574.3649948086672
asS'Bacteria.Proteobacteria.Alphaproteobacteria.Rickettsiales.Mitochondria'
p237
(lp238
F0.0
aF0.0
aF0.0
aF0.0
aF0.0
aF0.0
aF0.0
aF76.78301121031964
aF0.0
asS'Bacteria.Firmicutes.Clostridia.Lachnospirales.Lachnospiraceae._Eubacterium__xylanophilum_group'
p239
(lp240
F11825.159058620047
aF0.0
aF7910.752253144072
aF350.55497368687065
aF4599.11083857121
aF2844.444444444444
aF3233.1911552593383
aF25760.70026106224
aF2612.631564660935
asS'Bacteria.Proteobacteria.Alphaproteobacteria.Sphingomonadales.Sphingomonadaceae.Sphingomonas'
p241
(lp242
F0.0
aF20.088842907759563
aF0.0
aF0.0
aF0.0
aF0.0
aF0.0
aF0.0
aF0.0
asS'Bacteria.Proteobacteria.Gammaproteobacteria.Pasteurellales.Pasteurellaceae.Rodentibacter'
p243
(lp244
F0.0
aF47.71100190592896
aF0.0
aF51.61545624837359
aF0.0
aF0.0
aF0.0
aF0.0
aF0.0
asS'Bacteria.Actinobacteriota.Coriobacteriia.Coriobacteriales.Atopobiaceae.Coriobacteriaceae_UCG_002'
p245
(lp246
F0.0
aF80.35537163103825
aF0.0
aF90.32704843465379
aF0.0
aF429.6296296296295
aF0.0
aF1595.989733014501
aF1737.2303390992192
asS'Bacteria.Proteobacteria.Gammaproteobacteria.Pseudomonadales.Pseudomonadaceae'
p247
(lp248
F100.37679906109085
aF158.19963789860654
aF21.520000688640025
aF0.0
aF0.0
aF0.0
aF291.11953103290085
aF82.26751201105677
aF149.29323226633915
asS'Bacteria.Proteobacteria.Alphaproteobacteria.Caulobacterales.Caulobacteraceae'
p249
(lp250
F0.0
aF0.0
aF0.0
aF0.0
aF0.0
aF0.0
aF0.0
aF49.36050720663406
aF0.0
asS'Bacteria.Proteobacteria.Alphaproteobacteria.Sphingomonadales.Sphingomonadaceae'
p251
(lp252
F0.0
aF20.088842907759563
aF0.0
aF0.0
aF0.0
aF0.0
aF0.0
aF0.0
aF0.0
asS'Bacteria.Proteobacteria.Gammaproteobacteria.Pseudomonadales.Pseudomonadaceae.Pseudomonas'
p253
(lp254
F100.37679906109085
aF158.19963789860654
aF21.520000688640025
aF0.0
aF0.0
aF0.0
aF291.11953103290085
aF82.26751201105677
aF149.29323226633915
asS'Bacteria.Firmicutes.Clostridia'
p255
(lp256
F297628.7911544875
aF123546.38388272126
aF38456.24123059971
aF70414.23554283334
aF27598.923467388897
aF78103.70370370366
aF115318.6215049115
aF285100.8051247176
aF63741.42412171472
asS'Bacteria.Firmicutes.Clostridia.Lachnospirales.Lachnospiraceae.Marvinbryantia'
p257
(lp258
F0.0
aF233.53279880270492
aF2121.872067899906
aF38.71159218628019
aF2520.9940892908853
aF162.9629629629629
aF0.0
aF0.0
aF0.0
asS'Bacteria.Campilobacterota.Campylobacteria'
p259
(lp260
F0.0
aF17.577737544289615
aF0.0
aF0.0
aF0.0
aF0.0
aF0.0
aF38.39150560515982
aF0.0
asS'Bacteria.Patescibacteria.Saccharimonadia.Saccharimonadales.Saccharimonadaceae'
p261
(lp262
F0.0
aF37.666580452049175
aF0.0
aF1043.0623450192165
aF0.0
aF0.0
aF0.0
aF948.8186385275213
aF0.0
asS'Bacteria.Firmicutes.Bacilli.Erysipelotrichales.Erysipelotrichaceae'
p263
(lp264
F50.188399530545425
aF5313.498949102404
aF404.5760129464324
aF3810.9411863382497
aF540.8213671282812
aF1288.8888888888887
aF886.5912990547434
aF5001.864730272251
aF1282.5645862880954
asS'Bacteria.Actinobacteriota'
p265
(lp266
F131.26196800296495
aF1006.9532507514479
aF94.68800303001609
aF455.9365301939667
aF55.35966750132012
aF992.5925925925924
aF105.86164764832759
aF9164.600838031723
aF2361.547492213001
asS'Bacteria.Proteobacteria.Gammaproteobacteria.Pasteurellales.Pasteurellaceae'
p267
(lp268
F104.23744517882511
aF47.71100190592896
aF0.0
aF51.61545624837359
aF0.0
aF0.0
aF0.0
aF0.0
aF0.0
asS'Bacteria.Actinobacteriota.Coriobacteriia.Coriobacteriales.Eggerthellaceae.Enterorhabdus'
p269
(lp270
F96.51615294335657
aF47.71100190592896
aF55.95200179046406
aF141.94250468302738
aF0.0
aF0.0
aF0.0
aF0.0
aF0.0
asS'Bacteria.Proteobacteria.Gammaproteobacteria.Burkholderiales'
p271
(lp272
F725.8014701340414
aF37714.29145395511
aF5100.240163207685
aF6525.053927398561
aF5731.854804367452
aF903.7037037037035
aF3678.6922557793837
aF795.252616106882
aF1438.6438745665407
asS'Bacteria.Firmicutes.Clostridia.Peptostreptococcales_Tissierellales.Anaerovoracaceae'
p273
(lp274
F621.5640249552164
aF0.0
aF451.9200144614405
aF630.1386950322277
aF251.24772173676055
aF0.0
aF613.1153759632305
aF427.7910624574951
aF142.50717625423283
asS'Bacteria.Firmicutes'
p275
(lp276
F310206.7762060658
aF182218.3607001966
aF51428.497645711934
aF101112.52814655352
aF43223.12501064608
aF205481.48148148152
aF137686.30547260607
aF386054.0113638858
aF109289.43207497238
asS'Bacteria.Firmicutes.Clostridia.Oscillospirales.Ruminococcaceae.Ruminococcus'
p277
(lp278
F1633.0533078015933
aF0.0
aF1515.0080484802575
aF5563.716054772604
aF1166.8114534893623
aF23955.55555555555
aF1085.0818883953577
aF5204.791259899524
aF26329.89732697254
asS'Bacteria.Firmicutes.Clostridia.Monoglobales.Monoglobaceae.Monoglobus'
p279
(lp280
F899.5305454320834
aF0.0
aF2948.240094343683
aF281.73436535570585
aF1984.4311581242441
aF533.3333333333333
aF392.5702766958815
aF8500.976241142533
aF678.6056012106325
asS'Bacteria.Proteobacteria'
p281
(lp282
F3416.6718141948227
aF39821.10885390639
aF12102.848387291146
aF18777.27285435624
aF13895.276542831347
aF2637.037037037036
aF4675.556104467802
aF4195.643112563895
aF3033.367037411527
asS'Bacteria.Proteobacteria.Gammaproteobacteria.Burkholderiales.Alcaligenaceae.Alcaligenes'
p283
(lp284
F0.0
aF0.0
aF0.0
aF0.0
aF34.06748769312007
aF0.0
aF0.0
aF0.0
aF0.0
asS'Bacteria.Firmicutes.Clostridia.Oscillospirales'
p285
(lp286
F93794.39743035393
aF3362.3700816862565
aF11160.272357128717
aF25108.768820823407
aF7988.825864036657
aF57703.70370370369
aF30611.659778308058
aF80161.46370357373
aF37832.26226749277
asS'Bacteria.Actinobacteriota.Coriobacteriia.Coriobacteriales.Atopobiaceae'
p287
(lp288
F0.0
aF80.35537163103825
aF0.0
aF90.32704843465379
aF0.0
aF429.6296296296295
aF0.0
aF1595.989733014501
aF1737.2303390992192
asS'Bacteria.Proteobacteria.Gammaproteobacteria.Burkholderiales.Comamonadaceae'
p289
(lp290
F0.0
aF0.0
aF0.0
aF4.3012880206977995
aF0.0
aF0.0
aF0.0
aF0.0
aF0.0
asS'Bacteria.Firmicutes.Bacilli.Erysipelotrichales.Erysipelatoclostridiaceae'
p291
(lp292
F606.1214404842792
aF1119.9529921075957
aF223.80800716185624
aF574.2219507631562
aF140.5283867341203
aF0.0
aF348.4612568424116
aF137.11252001842794
aF291.8004085205719
asS'Bacteria.Firmicutes.Clostridia.Oscillospirales._Eubacterium__coprostanoligenes_group'
p293
(lp294
F21009.63617270986
aF449.48786006112016
aF0.0
aF7869.206433866624
aF0.0
aF19629.629629629624
aF52.930823824163795
aF16299.936379790712
aF2761.924796927274
asS'Bacteria.Firmicutes.Bacilli.Acholeplasmatales.Acholeplasmataceae.Anaeroplasma'
p295
(lp296
F0.0
aF1335.908053366011
aF0.0
aF0.0
aF0.0
aF0.0
aF0.0
aF0.0
aF0.0
asS'Bacteria.Actinobacteriota.Coriobacteriia.Coriobacteriales.Eggerthellaceae'
p297
(lp298
F96.51615294335657
aF208.42174516800546
aF55.95200179046406
aF279.58372134535693
aF55.35966750132012
aF0.0
aF57.34172580951077
aF455.21356646118073
aF0.0
asS'Bacteria.Firmicutes.Bacilli.Lactobacillales.Enterococcaceae'
p299
(lp300
F0.0
aF0.0
aF154.94400495820815
aF0.0
aF0.0
aF0.0
aF0.0
aF0.0
aF0.0
asS'Bacteria.Firmicutes.Clostridia.Lachnospirales.Lachnospiraceae.uncultured'
p301
(lp302
F301.1303971832725
aF0.0
aF0.0
aF0.0
aF0.0
aF0.0
aF0.0
aF0.0
aF0.0
asS'Bacteria.Firmicutes.Clostridia.Christensenellales'
p303
(lp304
F27.02452282413984
aF80.35537163103825
aF279.7600089523203
aF309.69273749024154
aF144.7868226957603
aF0.0
aF0.0
aF263.25603843538164
aF74.64661613316957
asS'Bacteria.Proteobacteria.Gammaproteobacteria.Burkholderiales.Sutterellaceae.Parasutterella'
p305
(lp306
F617.7033788374821
aF37330.092333344204
aF4966.816158938117
aF6428.274946932861
aF5697.787316674332
aF903.7037037037035
aF3489.0234704094632
aF257.7715376346445
aF1302.9227543244142
asS'Bacteria.Firmicutes.Clostridia.uncultured.uncultured.uncultured'
p307
(lp308
F0.0
aF128.0663735369672
aF0.0
aF0.0
aF0.0
aF0.0
aF0.0
aF1294.3421889739598
aF0.0
asS'Bacteria.Firmicutes.Bacilli.Erysipelotrichales.Erysipelotrichaceae.Dubosiella'
p309
(lp310
F0.0
aF278.73269534516396
aF0.0
aF1754.9255124447022
aF0.0
aF0.0
aF560.1845521390668
aF3405.87499725775
aF0.0
asS'Bacteria.Firmicutes.Clostridia.Lachnospirales.Lachnospiraceae.Dorea'
p311
(lp312
F46.327753412811155
aF0.0
aF0.0
aF0.0
aF0.0
aF0.0
aF0.0
aF0.0
aF0.0
asS'Bacteria.Firmicutes.Clostridia.Clostridia_UCG_014'
p313
(lp314
F5682.871085304836
aF35.15547508857923
aF0.0
aF9611.228082249232
aF0.0
aF488.88888888888874
aF0.0
aF394.8840576530725
aF1574.3649948086672
asS'Bacteria.Firmicutes.Clostridia.Oscillospirales.Ruminococcaceae._Eubacterium__siraeum_group'
p315
(lp316
F0.0
aF0.0
aF0.0
aF720.4657434668813
aF0.0
aF0.0
aF0.0
aF0.0
aF0.0
asS'Bacteria.Proteobacteria.Gammaproteobacteria.Enterobacterales'
p317
(lp318
F2486.2560998208655
aF1127.4863081980054
aF6981.088223394822
aF270.98114530396134
aF8125.095814809138
aF1733.3333333333328
aF630.7589839046185
aF3109.7119540179456
aF1445.4299305786471
asS'Bacteria.Proteobacteria.Alphaproteobacteria.Caulobacterales'
p319
(lp320
F0.0
aF0.0
aF0.0
aF0.0
aF0.0
aF0.0
aF0.0
aF49.36050720663406
aF0.0
asS'Bacteria.Firmicutes.Clostridia.Oscillospirales.Ruminococcaceae.Fournierella'
p321
(lp322
F930.4157143739574
aF0.0
aF0.0
aF0.0
aF0.0
aF0.0
aF0.0
aF0.0
aF0.0
asS'Bacteria.Firmicutes.Bacilli.Erysipelotrichales.Erysipelotrichaceae.Turicibacter'
p323
(lp324
F0.0
aF881.3979825779508
aF0.0
aF1008.652040853634
aF0.0
aF0.0
aF0.0
aF213.8955312287476
aF0.0
asS'Bacteria.Firmicutes.Clostridia.Clostridia_vadinBB60_group.Clostridia_vadinBB60_group'
p325
(lp326
F2354.994131817901
aF223.48837734882514
aF38.73600123955204
aF2759.2762652776382
aF0.0
aF474.07407407407396
aF114.68345161902154
aF351.0080512471755
aF264.65618447214666
asS'Bacteria.Firmicutes.Bacilli.Lactobacillales.Streptococcaceae.Streptococcus'
p327
(lp328
F413.08913459756616
aF1270.6193139157924
aF529.3920169405445
aF49.46481223802469
aF408.80985231744086
aF2133.333333333333
aF361.6939627984526
aF1875.6992738520942
aF2293.6869320919377
asS'Bacteria.Firmicutes.Bacilli.Lactobacillales.Streptococcaceae'
p329
(lp330
F413.08913459756616
aF1335.908053366011
aF529.3920169405445
aF49.46481223802469
aF408.80985231744086
aF2133.333333333333
aF361.6939627984526
aF1875.6992738520942
aF2293.6869320919377
asS'Bacteria.Bacteroidota'
p331
(lp332
F655711.4398665759
aF772697.2536040638
aF784227.561095282
aF870608.6537613691
aF806948.0641150117
aF790074.0740740739
aF857532.2767752776
aF599077.5069653161
aF884833.8434185438
asS'Bacteria.Proteobacteria.Gammaproteobacteria.Burkholderiales.Alcaligenaceae'
p333
(lp334
F0.0
aF0.0
aF0.0
aF0.0
aF34.06748769312007
aF0.0
aF79.39623573624569
aF0.0
aF0.0
asS'Bacteria.Firmicutes.Clostridia.Lachnospirales.Lachnospiraceae._Eubacterium__hallii_group'
p335
(lp336
F0.0
aF60.26652872327869
aF847.8880271324168
aF0.0
aF770.7769090568415
aF0.0
aF167.61427544318536
aF0.0
aF352.87491262952886
asS'Bacteria.Firmicutes.Bacilli.Lactobacillales.Enterococcaceae.Enterococcus'
p337
(lp338
F0.0
aF0.0
aF154.94400495820815
aF0.0
aF0.0
aF0.0
aF0.0
aF0.0
aF0.0
asS'Bacteria.Bacteroidota.Bacteroidia.Bacteroidales.Prevotellaceae'
p339
(lp340
F95670.67144357278
aF4658.100449236748
aF216663.36693322775
aF202280.97303737613
aF213628.6984516327
aF107911.11111111108
aF81204.70555023795
aF31053.24353377356
aF94387.25307238685
asS'Bacteria.Firmicutes.Clostridia.Oscillospirales.Ruminococcaceae.Incertae_Sedis'
p341
(lp342
F4308.481067391437
aF0.0
aF710.1600227251207
aF191.40731692105206
aF425.84359616400087
aF3866.6666666666656
aF846.8931811866207
aF5314.481275914267
aF1879.737515353452
asS'Bacteria.Firmicutes.Clostridia.Clostridia_vadinBB60_group.Clostridia_vadinBB60_group.Clostridia_vadinBB60_group'
p343
(lp344
F2354.994131817901
aF223.48837734882514
aF38.73600123955204
aF2759.2762652776382
aF0.0
aF474.07407407407396
aF114.68345161902154
aF351.0080512471755
aF264.65618447214666
asS'Bacteria.Proteobacteria.Alphaproteobacteria.Rhodospirillales.uncultured'
p345
(lp346
F0.0
aF693.0650803177049
aF0.0
aF11929.622325405346
aF0.0
aF0.0
aF0.0
aF0.0
aF0.0
asS'Bacteria.Proteobacteria.Gammaproteobacteria.Pasteurellales'
p347
(lp348
F104.23744517882511
aF47.71100190592896
aF0.0
aF51.61545624837359
aF0.0
aF0.0
aF0.0
aF0.0
aF0.0
asS'Bacteria.Proteobacteria.Gammaproteobacteria.Burkholderiales.Burkholderiaceae'
p349
(lp350
F108.09809129655936
aF384.1991206109016
aF133.42400426956814
aF92.47769244500269
aF0.0
aF0.0
aF110.27254963367457
aF537.4810784722375
aF135.7211202421265
asS'Bacteria.Firmicutes.Bacilli'
p351
(lp352
F1810.6430292173695
aF4304.034592987487
aF4106.016131392516
aF2808.7410775156627
aF5821.281959561892
aF1318.5185185185182
aF1437.9540472231163
aF6181.032402430731
aF2293.6869320919377
asS'Bacteria.Proteobacteria.Gammaproteobacteria.Enterobacterales.Morganellaceae.Proteus'
p353
(lp354
F0.0
aF0.0
aF215.20000688640022
aF0.0
aF119.23620692592026
aF0.0
aF0.0
aF0.0
aF0.0
asS'Bacteria.Verrucomicrobiota.Verrucomicrobiae'
p355
(lp356
F30043.548088208034
aF3450.2587694077047
aF152146.40486868494
aF3116.283170995556
aF135878.1746640094
aF0.0
aF0.0
aF268.74053923611876
aF40.716336072637944
asS'Bacteria.Firmicutes.Clostridia.Peptostreptococcales_Tissierellales.Anaerovoracaceae._Eubacterium__nodatum_group'
p357
(lp358
F84.93421459015379
aF0.0
aF0.0
aF236.57084113837897
aF0.0
aF0.0
aF247.010511179431
aF71.29851040958252
aF142.50717625423283
asS'Bacteria.Firmicutes.Clostridia.Oscillospirales.Oscillospiraceae.Papillibacter'
p359
(lp360
F0.0
aF0.0
aF0.0
aF275.28243332465917
aF0.0
aF1022.2222222222221
aF0.0
aF0.0
aF909.3315056222475
asS'Bacteria.Firmicutes.Bacilli.Lactobacillales.Aerococcaceae'
p361
(lp362
F0.0
aF0.0
aF301.2800096409603
aF25.807728124186795
aF246.9892857751205
aF0.0
aF83.80713772159268
aF0.0
aF149.29323226633915
asS'Bacteria.Firmicutes.Bacilli.Erysipelotrichales.Erysipelotrichaceae.Faecalitalea'
p363
(lp364
F0.0
aF0.0
aF0.0
aF0.0
aF68.13497538624014
aF0.0
aF0.0
aF0.0
aF0.0
asS'Bacteria.Proteobacteria.Alphaproteobacteria.Sphingomonadales'
p365
(lp366
F0.0
aF20.088842907759563
aF0.0
aF0.0
aF0.0
aF0.0
aF0.0
aF0.0
aF0.0
asS'Bacteria.Campilobacterota.Campylobacteria.Campylobacterales.Helicobacteraceae'
p367
(lp368
F0.0
aF17.577737544289615
aF0.0
aF0.0
aF0.0
aF0.0
aF0.0
aF38.39150560515982
aF0.0
asS'Bacteria.Proteobacteria.Gammaproteobacteria.Enterobacterales.Enterobacteriaceae.Escherichia_Shigella'
p369
(lp370
F2486.2560998208655
aF1127.4863081980054
aF6765.888216508422
aF270.98114530396134
aF8005.859607883217
aF1733.3333333333328
aF630.7589839046185
aF3109.7119540179456
aF1445.4299305786471
asS'Bacteria.Verrucomicrobiota.Verrucomicrobiae.Verrucomicrobiales.Akkermansiaceae'
p371
(lp372
F30043.548088208034
aF3450.2587694077047
aF152146.40486868494
aF3116.283170995556
aF135878.1746640094
aF0.0
aF0.0
aF268.74053923611876
aF40.716336072637944
asS'Bacteria.Firmicutes.Clostridia.Oscillospirales._Eubacterium__coprostanoligenes_group._Eubacterium__coprostanoligenes_group'
p373
(lp374
F21009.63617270986
aF449.48786006112016
aF0.0
aF7869.206433866624
aF0.0
aF19629.629629629624
aF52.930823824163795
aF16299.936379790712
aF2761.924796927274
asS'Bacteria.Deferribacterota.Deferribacteres.Deferribacterales.Deferribacteraceae'
p375
(lp376
F250.9419976527271
aF233.53279880270492
aF0.0
aF135.49057265198067
aF0.0
aF0.0
aF0.0
aF87.75201281179388
aF0.0
asS'Bacteria.Proteobacteria.Gammaproteobacteria.Pseudomonadales'
p377
(lp378
F100.37679906109085
aF185.82179689677594
aF21.520000688640025
aF0.0
aF0.0
aF0.0
aF291.11953103290085
aF164.53502402211353
aF149.29323226633915
asS'Bacteria.Firmicutes.Clostridia.Oscillospirales.Butyricicoccaceae.UCG_009'
p379
(lp380
F208.47489035765022
aF0.0
aF0.0
aF0.0
aF0.0
aF0.0
aF238.18870720873707
aF159.0505232213764
aF88.21872815738222
asS'Bacteria.Firmicutes.Clostridia.Oscillospirales.Butyricicoccaceae.Butyricicoccus'
p381
(lp382
F1366.6687256779292
aF0.0
aF0.0
aF79.57382838290928
aF0.0
aF0.0
aF295.53043301824783
aF383.91505605159824
aF237.51196042372135
asS'Bacteria.Firmicutes.Clostridia.Peptostreptococcales_Tissierellales.Anaerovoracaceae.Family_XIII_AD3011_group'
p383
(lp384
F88.79486070788806
aF0.0
aF245.32800785049625
aF283.88500936605476
aF157.56213058068033
aF0.0
aF145.55976551645043
aF0.0
aF0.0
asS'Bacteria.Bacteroidota.Bacteroidia.Bacteroidales.Bacteroidaceae.Bacteroides'
p385
(lp386
F113993.2979183396
aF388141.55603154947
aF66849.73013919136
aF74947.79311664881
aF70383.42957398607
aF239851.8518518518
aF340940.668957395
aF37535.92348024483
aF290802.85828679235
asS'Bacteria.Firmicutes.Bacilli.Erysipelotrichales.Erysipelotrichaceae._Clostridium__innocuum_group'
p387
(lp388
F0.0
aF3236.8148135127594
aF0.0
aF0.0
aF0.0
aF0.0
aF0.0
aF0.0
aF0.0
asS'Bacteria.Firmicutes.Clostridia.Lachnospirales'
p389
(lp390
F189959.23157699668
aF14692.477481662649
aF22088.12870682012
aF18162.18866739646
aF15892.483008840514
aF17155.55555555555
aF79294.7849905827
aF139629.90588596626
aF18417.35601685657
asS'Bacteria.Actinobacteriota.Actinobacteria.Corynebacteriales.Corynebacteriaceae.Corynebacterium'
p391
(lp392
F0.0
aF0.0
aF0.0
aF0.0
aF0.0
aF0.0
aF0.0
aF0.0
aF373.23308066584787
asS'Bacteria.Deferribacterota.Deferribacteres'
p393
(lp394
F250.9419976527271
aF233.53279880270492
aF0.0
aF135.49057265198067
aF0.0
aF0.0
aF0.0
aF87.75201281179388
aF0.0
asS'Bacteria.Firmicutes.Clostridia.Clostridiales'
p395
(lp396
F0.0
aF22.599948271229508
aF0.0
aF0.0
aF0.0
aF0.0
aF0.0
aF290.6785424390672
aF0.0
asS'Bacteria.Firmicutes.Bacilli.Lactobacillales'
p397
(lp398
F10111.032182346034
aF46598.58222991177
aF8237.8562636114
aF23472.12872894789
aF9121.569829832899
aF124355.55555555552
aF18693.40261390051
aF89167.01401838406
aF40037.73047142731
asS'Bacteria.Actinobacteriota.Actinobacteria'
p399
(lp400
F0.0
aF718.1761339524043
aF8.608000275456009
aF86.02576041395598
aF0.0
aF0.0
aF0.0
aF6115.2183928218865
aF373.23308066584787
asS'Bacteria.Firmicutes.Clostridia.Peptostreptococcales_Tissierellales.Anaerovoracaceae._Eubacterium__brachy_group'
p401
(lp402
F0.0
aF0.0
aF0.0
aF0.0
aF0.0
aF0.0
aF48.51992183881681
aF208.41103042801046
aF0.0
asS'Bacteria.Actinobacteriota.Coriobacteriia.Coriobacteriales.uncultured'
p403
(lp404
F34.74581505960837
aF0.0
aF30.12800096409603
aF0.0
aF0.0
aF562.9629629629628
aF48.51992183881681
aF998.1791457341554
aF251.084072447934
asS'Bacteria.Firmicutes.Clostridia.uncultured.uncultured'
p405
(lp406
F0.0
aF128.0663735369672
aF0.0
aF0.0
aF0.0
aF0.0
aF0.0
aF1294.3421889739598
aF0.0
asS'Bacteria.Firmicutes.Clostridia.Oscillospirales.Ruminococcaceae'
p407
(lp408
F3389.647291370683
aF0.0
aF279.7600089523203
aF434.43009009047773
aF251.24772173676055
aF0.0
aF0.0
aF3713.0070420990287
aF162.86534429055177
asS'Bacteria.Firmicutes.Clostridia.Oscillospirales.Ruminococcaceae.DTU089'
p409
(lp410
F0.0
aF0.0
aF0.0
aF0.0
aF0.0
aF0.0
aF70.57443176555172
aF0.0
aF0.0
asS'Bacteria.Firmicutes.Clostridia.Oscillospirales._Clostridium__methylpentosum_group._Clostridium__methylpentosum_group'
p411
(lp412
F69.49163011921674
aF0.0
aF0.0
aF0.0
aF0.0
aF0.0
aF0.0
aF0.0
aF0.0
asS'Bacteria.Firmicutes.Clostridia.Oscillospirales.Ruminococcaceae.uncultured'
p413
(lp414
F1721.8481685094814
aF85.37758235797814
aF116.20800371865612
aF232.26955311768117
aF0.0
aF0.0
aF83.80713772159268
aF2539.323870741285
aF325.73068858110355
asS'Bacteria.Actinobacteriota.Actinobacteria.Bifidobacteriales.Bifidobacteriaceae'
p415
(lp416
F0.0
aF718.1761339524043
aF0.0
aF86.02576041395598
aF0.0
aF0.0
aF0.0
aF6115.2183928218865
aF0.0
asS'Bacteria.Firmicutes.Clostridia.Oscillospirales.Oscillospiraceae.Oscillibacter'
p417
(lp418
F7508.956698993142
aF128.0663735369672
aF219.5040070241282
aF339.80175363512615
aF183.11274635052038
aF0.0
aF2068.7130311277347
aF0.0
aF0.0
asS'Bacteria.Patescibacteria.Saccharimonadia.Saccharimonadales.Saccharimonadaceae.Candidatus_Saccharimonas'
p419
(lp420
F0.0
aF37.666580452049175
aF0.0
aF1043.0623450192165
aF0.0
aF0.0
aF0.0
aF948.8186385275213
aF0.0
asS'Bacteria.Firmicutes.Clostridia.Peptostreptococcales_Tissierellales.Peptostreptococcaceae.Clostridioides'
p421
(lp422
F0.0
aF15902.830266855162
aF0.0
aF0.0
aF0.0
aF0.0
aF0.0
aF0.0
aF0.0
asS'Bacteria.Firmicutes.Clostridia.Lachnospirales.Lachnospiraceae.Lachnospiraceae_FCS020_group'
p423
(lp424
F0.0
aF0.0
aF0.0
aF0.0
aF0.0
aF0.0
aF0.0
aF0.0
aF169.65140030265812
asS'Bacteria.Firmicutes.Clostridia.Lachnospirales.Lachnospiraceae'
p425
(lp426
F74232.50355179442
aF449.48786006112016
aF3378.6401081164836
aF12267.273435030123
aF2682.8146558332055
aF2459.2592592592587
aF37642.637542951146
aF42965.57927297458
aF1832.2351232687076
asS'Bacteria.Firmicutes.Bacilli.Erysipelotrichales.Erysipelatoclostridiaceae.Erysipelatoclostridium'
p427
(lp428
F0.0
aF1014.4865668418579
aF223.80800716185624
aF195.70860494174988
aF140.5283867341203
aF0.0
aF321.9958449303297
aF60.329508808108294
aF291.8004085205719
asS'Bacteria.Proteobacteria.Gammaproteobacteria.Burkholderiales.Burkholderiaceae.Burkholderia_Caballeronia_Paraburkholderia'
p429
(lp430
F108.09809129655936
aF384.1991206109016
aF133.42400426956814
aF92.47769244500269
aF0.0
aF0.0
aF110.27254963367457
aF537.4810784722375
aF135.7211202421265
asS'Bacteria.Patescibacteria.Saccharimonadia'
p431
(lp432
F0.0
aF37.666580452049175
aF0.0
aF1043.0623450192165
aF0.0
aF0.0
aF0.0
aF948.8186385275213
aF0.0
asS'Bacteria.Firmicutes.Bacilli.Lactobacillales.Streptococcaceae.Lactococcus'
p433
(lp434
F0.0
aF65.28873945021857
aF0.0
aF0.0
aF0.0
aF0.0
aF0.0
aF0.0
aF0.0
asS'Bacteria.Firmicutes.Clostridia.Peptostreptococcales_Tissierellales.Peptostreptococcaceae'
p435
(lp436
F2490.1167459385997
aF104838.64892487021
aF1273.9840407674894
aF12951.178230321075
aF1111.4517859880423
aF1748.1481481481478
aF3158.2058215084394
aF53172.23526314636
aF4438.080631917536
asS'Bacteria.Firmicutes.Bacilli.Erysipelotrichales.Erysipelotrichaceae.Holdemania'
p437
(lp438
F0.0
aF0.0
aF404.5760129464324
aF0.0
aF472.686391742041
aF0.0
aF0.0
aF0.0
aF0.0
asS'Bacteria.Firmicutes.Clostridia.Peptococcales.Peptococcaceae.uncultured'
p439
(lp440
F1799.0610908641668
aF163.22184862554644
aF215.20000688640022
aF600.029678887343
aF225.69710596692047
aF0.0
aF1133.6018102341745
aF614.2640896825571
aF318.94463256899724
asS'Bacteria.Verrucomicrobiota.Verrucomicrobiae.Verrucomicrobiales'
p441
(lp442
F30043.548088208034
aF3450.2587694077047
aF152146.40486868494
aF3116.283170995556
aF135878.1746640094
aF0.0
aF0.0
aF268.74053923611876
aF40.716336072637944
asS'Bacteria.Firmicutes.Clostridia.Oscillospirales.Butyricicoccaceae'
p443
(lp444
F1575.1436160355793
aF0.0
aF0.0
aF79.57382838290928
aF0.0
aF0.0
aF533.7191402269848
aF542.9655792729747
aF325.73068858110355
asS'Bacteria.Firmicutes.Clostridia.Clostridiales.Clostridiaceae'
p445
(lp446
F0.0
aF22.599948271229508
aF0.0
aF0.0
aF0.0
aF0.0
aF0.0
aF290.6785424390672
aF0.0
asS'Bacteria.Proteobacteria.Gammaproteobacteria.Enterobacterales.Morganellaceae'
p447
(lp448
F0.0
aF0.0
aF215.20000688640022
aF0.0
aF119.23620692592026
aF0.0
aF0.0
aF0.0
aF0.0
asS'Bacteria.Bacteroidota.Bacteroidia.Bacteroidales.Muribaculaceae'
p449
(lp450
F413359.3798258075
aF282049.8655303077
aF477847.31129111396
aF559625.5298649182
aF497730.2536324458
aF437377.7777777777
aF396037.2456563642
aF528387.7761446154
aF495884.2570286576
asS'Bacteria.Firmicutes.Clostridia.Lachnospirales.Lachnospiraceae.Blautia'
p451
(lp452
F0.0
aF1730.1515954307922
aF43.04000137728005
aF408.62236196629095
aF63.87653942460013
aF340.74074074074065
aF1142.4236142048685
aF6312.660421648422
aF963.6199537190981
asS'Bacteria.Patescibacteria.Saccharimonadia.Saccharimonadales'
p453
(lp454
F0.0
aF37.666580452049175
aF0.0
aF1043.0623450192165
aF0.0
aF0.0
aF0.0
aF948.8186385275213
aF0.0
asS'Bacteria.Cyanobacteria'
p455
(lp456
F239.36005929952432
aF517.2877048748087
aF0.0
aF4750.77261886072
aF0.0
aF814.8148148148146
aF0.0
aF164.53502402211353
aF441.09364078691107
asS'Bacteria.Firmicutes.Bacilli.Staphylococcales.Staphylococcaceae'
p457
(lp458
F0.0
aF0.0
aF0.0
aF0.0
aF0.0
aF414.8148148148147
aF273.4759230915129
aF466.18256806265504
aF1642.2255549297306
asS'Bacteria.Firmicutes.Clostridia.Oscillospirales.Ruminococcaceae.Harryflintia'
p459
(lp460
F1142.751250849342
aF40.177685815519126
aF0.0
aF0.0
aF0.0
aF0.0
aF189.66878536992024
aF1053.0241537415266
aF0.0
asS'Bacteria.Actinobacteriota.Actinobacteria.Micrococcales.Micrococcaceae'
p461
(lp462
F0.0
aF0.0
aF8.608000275456009
aF0.0
aF0.0
aF0.0
aF0.0
aF0.0
aF0.0
asS'Bacteria.Actinobacteriota.Actinobacteria.Corynebacteriales.Corynebacteriaceae'
p463
(lp464
F0.0
aF0.0
aF0.0
aF0.0
aF0.0
aF0.0
aF0.0
aF0.0
aF373.23308066584787
asS'Bacteria.Actinobacteriota.Coriobacteriia.Coriobacteriales.Eggerthellaceae.Adlercreutzia'
p465
(lp466
F0.0
aF160.7107432620765
aF0.0
aF137.64121666232958
aF55.35966750132012
aF0.0
aF0.0
aF0.0
aF0.0
asS'Bacteria.Firmicutes.Clostridia.Oscillospirales._Clostridium__methylpentosum_group'
p467
(lp468
F69.49163011921674
aF0.0
aF0.0
aF0.0
aF0.0
aF0.0
aF0.0
aF0.0
aF0.0
asS'Bacteria.Firmicutes.Clostridia.Oscillospirales.Oscillospiraceae'
p469
(lp470
F28082.33986039903
aF469.5767029688798
aF3047.232097511427
aF2387.214851487279
aF2495.4434735210452
aF4251.851851851851
aF22050.099024749565
aF8007.371169076192
aF3365.883782004737
asS'Bacteria.Firmicutes.Clostridia.Oscillospirales.Oscillospiraceae.UCG_003'
p471
(lp472
F2964.976218419914
aF0.0
aF0.0
aF0.0
aF0.0
aF814.8148148148146
aF0.0
aF0.0
aF0.0
asS'Bacteria.Firmicutes.Clostridia.Christensenellales.Christensenellaceae.uncultured'
p473
(lp474
F27.02452282413984
aF0.0
aF0.0
aF27.958372134535697
aF0.0
aF0.0
aF0.0
aF115.17451681547946
aF0.0
asS'Bacteria.Firmicutes.Clostridia.Oscillospirales.Oscillospiraceae.UCG_005'
p475
(lp476
F382.20396565569206
aF1850.6846528773497
aF0.0
aF653.7957791460655
aF0.0
aF385.1851851851851
aF410.21388463726936
aF603.295088081083
aF128.93506423002015
asS'Bacteria'
p477
(lp478
F1000000.0
aF1000000.0
aF1000000.0
aF1000000.0
aF1000000.0
aF1000000.0
aF1000000.0
aF1000000.0
aF1000000.0
asS'Bacteria.Firmicutes.Clostridia.Oscillospirales.Oscillospiraceae.UCG_007'
p479
(lp480
F0.0
aF0.0
aF0.0
aF64.51932031046698
aF0.0
aF0.0
aF0.0
aF0.0
aF0.0
assS'subclass_sl'
p481
(dp482
g12
(I0
I4
tp483
sg10
(I4
I9
tp484
ssS'norm'
p485
F1000000.0
sS'cls'
p486
(dp487
S'class'
p488
(S'NC'
p489
S'NC'
p490
S'NC'
p491
g5
S'NR'
p492
S'NR'
p493
S'NR'
p494
S'NR'
p495
g3
tp496
sS'subclass'
p497
(lp498
S'NC_subcl'
p499
aS'NC_subcl'
p500
aS'NC_subcl'
p501
ag12
aS'NR_subcl'
p502
aS'NR_subcl'
p503
aS'NR_subcl'
p504
aS'NR_subcl'
p505
ag10
asS'subject'
p506
(S'S210421121673'
p507
S'S210421121674'
p508
S'S210421121675'
p509
S'S210421121676'
p510
S'S210421121677'
p511
S'S210421121678'
p512
S'S210421121679'
p513
S'S210421121680'
p514
S'S210421121681'
p515
tp516
ss.