(dp0
S'class_sl'
p1
(dp2
S'NR'
p3
(I4
I9
tp4
sS'NC'
p5
(I0
I4
tp6
ssS'class_hierarchy'
p7
(dp8
g3
(lp9
S'NR_subcl'
p10
asg5
(lp11
S'NC_subcl'
p12
assS'feats'
p13
(dp14
S'Bacteria.Firmicutes.Bacilli.Acholeplasmatales'
p15
(lp16
F0.0
aF1335.9080533660117
aF0.0
aF0.0
aF0.0
aF0.0
aF0.0
aF0.0
aF0.0
asS'Bacteria.Firmicutes.Bacilli.Lactobacillales.Streptococcaceae'
p17
(lp18
F413.08913459756633
aF1335.9080533660117
aF529.3920169405445
aF49.46481223802468
aF408.80985231744086
aF2133.3333333333335
aF361.6939627984527
aF1875.699273852094
aF2293.6869320919377
asS'Bacteria.Actinobacteriota.Actinobacteria.Bifidobacteriales'
p19
(lp20
F0.0
aF718.1761339524046
aF0.0
aF86.02576041395595
aF0.0
aF0.0
aF0.0
aF6115.218392821886
aF0.0
asS'Bacteria.Firmicutes.Bacilli.RF39'
p21
(lp22
F0.0
aF0.0
aF0.0
aF32.25966015523348
aF0.0
aF0.0
aF727.7988275822523
aF0.0
aF0.0
asS'Bacteria.Firmicutes.Clostridia.Peptostreptococcales_Tissierellales.Anaerovoracaceae'
p23
(lp24
F621.5640249552166
aF0.0
aF451.9200144614405
aF630.1386950322275
aF251.24772173676055
aF0.0
aF613.1153759632307
aF427.7910624574951
aF142.5071762542328
asS'Bacteria.Proteobacteria.Gammaproteobacteria'
p25
(lp26
F3416.671814194824
aF39075.31056095583
aF12102.848387291146
aF6847.650528950895
aF13856.950619176589
aF2637.0370370370365
aF4600.570770716903
aF4069.4995941469406
aF3033.3670374115263
asS'Bacteria.Proteobacteria.Alphaproteobacteria.Rhodospirillales'
p27
(lp28
F0.0
aF693.0650803177052
aF0.0
aF11929.622325405342
aF0.0
aF0.0
aF0.0
aF0.0
aF0.0
asS'Bacteria.Bacteroidota.Bacteroidia.Bacteroidales.Prevotellaceae'
p29
(lp30
F95670.6714435728
aF4658.10044923675
aF216663.36693322775
aF202280.97303737604
aF213628.6984516327
aF107911.11111111111
aF81204.70555023797
aF31053.243533773555
aF94387.25307238687
asS'Bacteria.Bacteroidota.Bacteroidia.Bacteroidales.Rikenellaceae'
p31
(lp32
F26074.80387917722
aF24033.789433770857
aF0.0
aF25605.56758721399
aF0.0
aF2918.5185185185187
aF11763.875594920404
aF444.2445648597065
aF1431.8578185544345
asS'Bacteria.Firmicutes.Bacilli.Lactobacillales.Aerococcaceae'
p33
(lp34
F0.0
aF0.0
aF301.2800096409603
aF25.807728124186788
aF246.9892857751205
aF0.0
aF83.8071377215927
aF0.0
aF149.29323226633915
asS'Bacteria.Firmicutes.Clostridia.Clostridiales'
p35
(lp36
F0.0
aF22.59994827122952
aF0.0
aF0.0
aF0.0
aF0.0
aF0.0
aF290.6785424390672
aF0.0
asS'Bacteria.Firmicutes.Clostridia.Christensenellales.Christensenellaceae'
p37
(lp38
F27.02452282413985
aF80.35537163103828
aF279.7600089523203
aF309.6927374902414
aF144.7868226957603
aF0.0
aF0.0
aF263.25603843538164
aF74.64661613316957
asS'Bacteria.Proteobacteria'
p39
(lp40
F3416.671814194824
aF39821.10885390641
aF12102.848387291146
aF18777.272854356237
aF13895.276542831347
aF2637.0370370370365
aF4675.5561044678025
aF4195.643112563895
aF3033.3670374115263
asS'Bacteria.Bacteroidota.Bacteroidia'
p41
(lp42
F655711.4398665762
aF772697.2536040642
aF784227.561095282
aF870608.6537613688
aF806948.0641150118
aF790074.074074074
aF857532.2767752778
aF599077.506965316
aF884833.8434185436
asS'Bacteria.Proteobacteria.Alphaproteobacteria.Rhizobiales.Rhizobiaceae'
p43
(lp44
F0.0
aF32.6443697251093
aF0.0
aF0.0
aF38.32592365476008
aF0.0
aF74.98533375089872
aF0.0
aF0.0
asS'Bacteria.Firmicutes.Clostridia.Monoglobales'
p45
(lp46
F899.5305454320836
aF0.0
aF2948.240094343683
aF281.7343653557058
aF1984.4311581242441
aF533.3333333333334
aF392.57027669588155
aF8500.97624114253
aF678.6056012106324
asS'Bacteria.Cyanobacteria.Vampirivibrionia'
p47
(lp48
F239.3600592995244
aF517.287704874809
aF0.0
aF4750.7726188607185
aF0.0
aF814.8148148148148
aF0.0
aF164.5350240221135
aF441.09364078691107
asS'Bacteria.Firmicutes.Bacilli.Staphylococcales.Staphylococcaceae'
p49
(lp50
F0.0
aF0.0
aF0.0
aF0.0
aF0.0
aF414.8148148148148
aF273.475923091513
aF466.182568062655
aF1642.2255549297304
asS'Bacteria.Proteobacteria.Alphaproteobacteria.Rickettsiales'
p51
(lp52
F0.0
aF0.0
aF0.0
aF0.0
aF0.0
aF0.0
aF0.0
aF76.78301121031963
aF0.0
asS'Bacteria.Deferribacterota'
p53
(lp54
F250.9419976527272
aF233.53279880270503
aF0.0
aF135.4905726519806
aF0.0
aF0.0
aF0.0
aF87.75201281179388
aF0.0
asS'Bacteria.Actinobacteriota.Coriobacteriia.Coriobacteriales'
p55
(lp56
F131.261968002965
aF288.7771167990439
aF86.0800027545601
aF369.9107697800106
aF55.35966750132012
aF992.5925925925926
aF105.8616476483276
aF3049.382445209837
aF1988.3144115471528
asS'Bacteria.Firmicutes.Bacilli.Erysipelotrichales'
p57
(lp58
F656.3098400148249
aF6433.451941210002
aF628.3840201082887
aF4385.163137101405
aF681.3497538624015
aF1288.888888888889
aF1235.0525558971556
aF5138.977250290678
aF1574.3649948086672
asS'Bacteria.Actinobacteriota.Actinobacteria.Micrococcales'
p59
(lp60
F0.0
aF0.0
aF8.608000275456009
aF0.0
aF0.0
aF0.0
aF0.0
aF0.0
aF0.0
asS'Bacteria.Firmicutes.Clostridia.Clostridia_UCG_014.Clostridia_UCG_014'
p61
(lp62
F5682.871085304838
aF35.15547508857925
aF0.0
aF9611.22808224923
aF0.0
aF488.88888888888886
aF0.0
aF394.88405765307243
aF1574.364994808667
asS'Bacteria.Campilobacterota'
p63
(lp64
F0.0
aF17.577737544289626
aF0.0
aF0.0
aF0.0
aF0.0
aF0.0
aF38.391505605159814
aF0.0
asS'Bacteria.Firmicutes.Bacilli.RF39.RF39'
p65
(lp66
F0.0
aF0.0
aF0.0
aF32.25966015523348
aF0.0
aF0.0
aF727.7988275822523
aF0.0
aF0.0
asS'Bacteria.Firmicutes.Clostridia.Clostridia_vadinBB60_group'
p67
(lp68
F2354.9941318179017
aF223.48837734882522
aF38.73600123955204
aF2759.2762652776373
aF0.0
aF474.0740740740741
aF114.68345161902157
aF351.0080512471755
aF264.65618447214666
asS'Bacteria.Bacteroidota.Bacteroidia.Bacteroidales.Tannerellaceae'
p69
(lp70
F6613.2867996787945
aF73813.94215919908
aF22867.152731748887
aF8148.790155211978
aF25205.682456947212
aF2014.8148148148148
aF27585.781016360033
aF1656.3192418226092
aF2327.6172121524687
asS'Bacteria.Proteobacteria.Gammaproteobacteria.Burkholderiales.Sutterellaceae'
p71
(lp72
F617.7033788374823
aF37330.092333344226
aF4966.816158938117
aF6428.274946932859
aF5697.787316674332
aF903.7037037037037
aF3489.023470409464
aF257.7715376346445
aF1302.9227543244142
asS'Bacteria.Bacteroidota.Bacteroidia.Bacteroidales.Muribaculaceae'
p73
(lp74
F413359.3798258077
aF282049.86553030787
aF477847.31129111396
aF559625.5298649181
aF497730.2536324459
aF437377.77777777775
aF396037.2456563643
aF528387.7761446153
aF495884.25702865754
asS'Bacteria.Campilobacterota.Campylobacteria.Campylobacterales'
p75
(lp76
F0.0
aF17.577737544289626
aF0.0
aF0.0
aF0.0
aF0.0
aF0.0
aF38.391505605159814
aF0.0
asS'Bacteria.Proteobacteria.Alphaproteobacteria.Rhizobiales'
p77
(lp78
F0.0
aF32.6443697251093
aF0.0
aF0.0
aF38.32592365476008
aF0.0
aF74.98533375089872
aF0.0
aF0.0
asS'Bacteria.Cyanobacteria'
p79
(lp80
F239.3600592995244
aF517.287704874809
aF0.0
aF4750.7726188607185
aF0.0
aF814.8148148148148
aF0.0
aF164.5350240221135
aF441.09364078691107
asS'Bacteria.Firmicutes.Clostridia.Peptostreptococcales_Tissierellales'
p81
(lp82
F3111.6807708938168
aF104838.64892487027
aF1725.9040552289298
aF13581.316925353298
aF1362.699507724803
aF1748.1481481481483
aF3771.3211974716705
aF53600.026325603845
aF4580.587808171769
asS'Bacteria.Actinobacteriota.Actinobacteria.Corynebacteriales'
p83
(lp84
F0.0
aF0.0
aF0.0
aF0.0
aF0.0
aF0.0
aF0.0
aF0.0
aF373.2330806658478
asS'Bacteria.Verrucomicrobiota'
p85
(lp86
F30043.548088208045
aF3450.258769407706
aF152146.40486868494
aF3116.2831709955544
aF135878.1746640094
aF0.0
aF0.0
aF268.7405392361187
aF40.716336072637944
asS'Bacteria.Firmicutes.Bacilli.Staphylococcales'
p87
(lp88
F0.0
aF0.0
aF0.0
aF0.0
aF0.0
aF414.8148148148148
aF273.475923091513
aF466.182568062655
aF1642.2255549297304
asS'Bacteria.Firmicutes.Clostridia.Oscillospirales.Butyricicoccaceae'
p89
(lp90
F1575.14361603558
aF0.0
aF0.0
aF79.57382838290926
aF0.0
aF0.0
aF533.719140226985
aF542.9655792729747
aF325.73068858110355
asS'Bacteria.Cyanobacteria.Vampirivibrionia.Gastranaerophilales'
p91
(lp92
F239.3600592995244
aF517.287704874809
aF0.0
aF4750.7726188607185
aF0.0
aF814.8148148148148
aF0.0
aF164.5350240221135
aF441.09364078691107
asS'Bacteria.Verrucomicrobiota.Verrucomicrobiae.Verrucomicrobiales'
p93
(lp94
F30043.548088208045
aF3450.258769407706
aF152146.40486868494
aF3116.2831709955544
aF135878.1746640094
aF0.0
aF0.0
aF268.7405392361187
aF40.716336072637944
asS'Bacteria.Bacteroidota.Bacteroidia.Bacteroidales'
p95
(lp96
F655711.4398665762
aF772697.2536040642
aF784227.561095282
aF870608.6537613688
aF806948.0641150118
aF790074.074074074
aF857532.2767752778
aF599077.506965316
aF884833.8434185436
asS'Bacteria.Actinobacteriota.Coriobacteriia'
p97
(lp98
F131.261968002965
aF288.7771167990439
aF86.0800027545601
aF369.9107697800106
aF55.35966750132012
aF992.5925925925926
aF105.8616476483276
aF3049.382445209837
aF1988.3144115471528
asS'Bacteria.Firmicutes.Bacilli.Lactobacillales'
p99
(lp100
F10111.032182346038
aF46598.58222991179
aF8237.8562636114
aF23472.128728947882
aF9121.5698298329
aF124355.55555555555
aF18693.402613900515
aF89167.01401838404
aF40037.730471427305
asS'Bacteria.Deferribacterota.Deferribacteres.Deferribacterales'
p101
(lp102
F250.9419976527272
aF233.53279880270503
aF0.0
aF135.4905726519806
aF0.0
aF0.0
aF0.0
aF87.75201281179388
aF0.0
asS'Bacteria.Proteobacteria.Gammaproteobacteria.Pseudomonadales.Moraxellaceae'
p103
(lp104
F0.0
aF27.62215899816941
aF0.0
aF0.0
aF0.0
aF0.0
aF0.0
aF82.26751201105675
aF0.0
asS'Bacteria.Firmicutes.Clostridia.Peptococcales'
p105
(lp106
F1799.0610908641672
aF163.22184862554653
aF215.20000688640022
aF600.0296788873428
aF225.69710596692047
aF0.0
aF1133.6018102341748
aF614.264089682557
aF318.94463256899724
asS'Bacteria.Patescibacteria'
p107
(lp108
F0.0
aF37.666580452049196
aF0.0
aF1043.062345019216
aF0.0
aF0.0
aF0.0
aF948.8186385275212
aF0.0
asS'Bacteria.Firmicutes.Clostridia.Lachnospirales.Defluviitaleaceae'
p109
(lp110
F0.0
aF50.22210726939893
aF0.0
aF133.33992864163173
aF0.0
aF518.5185185185185
aF0.0
aF43.87600640589694
aF386.80519269006044
asS'Bacteria.Bacteroidota.Bacteroidia.Bacteroidales.Bacteroidaceae'
p111
(lp112
F113993.29791833964
aF388141.55603154964
aF66849.73013919136
aF74947.79311664878
aF70383.42957398607
aF239851.85185185185
aF340940.66895739513
aF37535.923480244826
aF290802.8582867923
asS'Bacteria.Proteobacteria.Gammaproteobacteria.Enterobacterales.Enterobacteriaceae'
p113
(lp114
F2486.2560998208664
aF1127.486308198006
aF6765.888216508422
aF270.9811453039612
aF8005.859607883217
aF1733.3333333333333
aF630.7589839046186
aF3109.711954017945
aF1445.429930578647
asS'Bacteria.Proteobacteria.Alphaproteobacteria'
p115
(lp116
F0.0
aF745.7982929505741
aF0.0
aF11929.622325405342
aF38.32592365476008
aF0.0
aF74.98533375089872
aF126.14351841695368
aF0.0
asS'Bacteria.Firmicutes.Bacilli.Acholeplasmatales.Acholeplasmataceae'
p117
(lp118
F0.0
aF1335.9080533660117
aF0.0
aF0.0
aF0.0
aF0.0
aF0.0
aF0.0
aF0.0
asS'Bacteria.Firmicutes.Clostridia.Monoglobales.Monoglobaceae'
p119
(lp120
F899.5305454320836
aF0.0
aF2948.240094343683
aF281.7343653557058
aF1984.4311581242441
aF533.3333333333334
aF392.57027669588155
aF8500.97624114253
aF678.6056012106324
asS'Bacteria.Firmicutes.Clostridia.uncultured'
p121
(lp122
F0.0
aF128.06637353696726
aF0.0
aF0.0
aF0.0
aF0.0
aF0.0
aF1294.3421889739595
aF0.0
asS'Bacteria.Firmicutes.Clostridia.Peptococcales.Peptococcaceae'
p123
(lp124
F1799.0610908641672
aF163.22184862554653
aF215.20000688640022
aF600.0296788873428
aF225.69710596692047
aF0.0
aF1133.6018102341748
aF614.264089682557
aF318.94463256899724
asS'Bacteria.Firmicutes.Bacilli.Lactobacillales.Lactobacillaceae'
p125
(lp126
F9697.943047748471
aF45262.674176545785
aF7252.240232071687
aF23396.856188585672
aF8465.770691740337
aF122222.22222222222
aF18247.90151338047
aF87291.31474453196
aF37594.750307069036
asS'Bacteria.Firmicutes.Clostridia.Oscillospirales.UCG_010'
p127
(lp128
F0.0
aF0.0
aF0.0
aF4137.839075911282
aF0.0
aF400.0
aF0.0
aF422.306561656758
aF285.0143525084656
asS'Bacteria.Proteobacteria.Alphaproteobacteria.Rickettsiales.Mitochondria'
p129
(lp130
F0.0
aF0.0
aF0.0
aF0.0
aF0.0
aF0.0
aF0.0
aF76.78301121031963
aF0.0
asS'Bacteria.Proteobacteria.Gammaproteobacteria.Pseudomonadales.Pseudomonadaceae'
p131
(lp132
F100.37679906109088
aF158.19963789860662
aF21.520000688640025
aF0.0
aF0.0
aF0.0
aF291.1195310329009
aF82.26751201105675
aF149.29323226633915
asS'Bacteria.Proteobacteria.Alphaproteobacteria.Caulobacterales.Caulobacteraceae'
p133
(lp134
F0.0
aF0.0
aF0.0
aF0.0
aF0.0
aF0.0
aF0.0
aF49.360507206634054
aF0.0
asS'Bacteria.Proteobacteria.Alphaproteobacteria.Sphingomonadales.Sphingomonadaceae'
p135
(lp136
F0.0
aF20.08884290775957
aF0.0
aF0.0
aF0.0
aF0.0
aF0.0
aF0.0
aF0.0
asS'Bacteria.Firmicutes.Clostridia'
p137
(lp138
F297628.79115448764
aF123546.38388272138
aF38456.24123059972
aF70414.2355428333
aF27598.923467388897
aF78103.7037037037
aF115318.62150491154
aF285100.8051247176
aF63741.4241217147
asS'Bacteria.Actinobacteriota.Actinobacteria.Micrococcales.Micrococcaceae'
p139
(lp140
F0.0
aF0.0
aF8.608000275456009
aF0.0
aF0.0
aF0.0
aF0.0
aF0.0
aF0.0
asS'Bacteria.Campilobacterota.Campylobacteria'
p141
(lp142
F0.0
aF17.577737544289626
aF0.0
aF0.0
aF0.0
aF0.0
aF0.0
aF38.391505605159814
aF0.0
asS'Bacteria.Patescibacteria.Saccharimonadia.Saccharimonadales.Saccharimonadaceae'
p143
(lp144
F0.0
aF37.666580452049196
aF0.0
aF1043.062345019216
aF0.0
aF0.0
aF0.0
aF948.8186385275212
aF0.0
asS'Bacteria.Firmicutes.Bacilli.Erysipelotrichales.Erysipelotrichaceae'
p145
(lp146
F50.18839953054544
aF5313.498949102406
aF404.5760129464324
aF3810.9411863382493
aF540.8213671282812
aF1288.888888888889
aF886.5912990547437
aF5001.86473027225
aF1282.5645862880951
asS'Bacteria.Actinobacteriota'
p147
(lp148
F131.261968002965
aF1006.9532507514485
aF94.68800303001609
aF455.9365301939665
aF55.35966750132012
aF992.5925925925926
aF105.8616476483276
aF9164.600838031723
aF2361.5474922130006
asS'Bacteria.Proteobacteria.Gammaproteobacteria.Pasteurellales.Pasteurellaceae'
p149
(lp150
F104.23744517882514
aF47.71100190592898
aF0.0
aF51.615456248373576
aF0.0
aF0.0
aF0.0
aF0.0
aF0.0
asS'Bacteria.Proteobacteria.Gammaproteobacteria.Burkholderiales'
p151
(lp152
F725.8014701340417
aF37714.29145395513
aF5100.240163207685
aF6525.05392739856
aF5731.854804367452
aF903.7037037037037
aF3678.6922557793846
aF795.2526161068819
aF1438.6438745665405
asS'Bacteria.Firmicutes'
p153
(lp154
F310206.77620606584
aF182218.36070019667
aF51428.497645711934
aF101112.52814655348
aF43223.12501064609
aF205481.4814814815
aF137686.3054726061
aF386054.01136388566
aF109289.43207497236
asS'Bacteria.Firmicutes.Clostridia.Oscillospirales'
p155
(lp156
F93794.39743035396
aF3362.3700816862583
aF11160.272357128717
aF25108.768820823396
aF7988.825864036657
aF57703.7037037037
aF30611.659778308065
aF80161.4637035737
aF37832.26226749276
asS'Bacteria.Actinobacteriota.Coriobacteriia.Coriobacteriales.Atopobiaceae'
p157
(lp158
F0.0
aF80.35537163103828
aF0.0
aF90.32704843465375
aF0.0
aF429.6296296296296
aF0.0
aF1595.989733014501
aF1737.230339099219
asS'Bacteria.Proteobacteria.Gammaproteobacteria.Burkholderiales.Comamonadaceae'
p159
(lp160
F0.0
aF0.0
aF0.0
aF4.301288020697798
aF0.0
aF0.0
aF0.0
aF0.0
aF0.0
asS'Bacteria.Firmicutes.Bacilli.Erysipelotrichales.Erysipelatoclostridiaceae'
p161
(lp162
F606.1214404842794
aF1119.952992107596
aF223.80800716185624
aF574.221950763156
aF140.5283867341203
aF0.0
aF348.46125684241173
aF137.11252001842792
aF291.8004085205719
asS'Bacteria.Firmicutes.Clostridia.Oscillospirales._Eubacterium__coprostanoligenes_group'
p163
(lp164
F21009.636172709867
aF449.4878600611204
aF0.0
aF7869.206433866621
aF0.0
aF19629.629629629628
aF52.9308238241638
aF16299.93637979071
aF2761.924796927274
asS'Bacteria.Actinobacteriota.Coriobacteriia.Coriobacteriales.Eggerthellaceae'
p165
(lp166
F96.5161529433566
aF208.42174516800557
aF55.95200179046406
aF279.5837213453568
aF55.35966750132012
aF0.0
aF57.341725809510784
aF455.2135664611807
aF0.0
asS'Bacteria.Firmicutes.Bacilli.Lactobacillales.Enterococcaceae'
p167
(lp168
F0.0
aF0.0
aF154.94400495820815
aF0.0
aF0.0
aF0.0
aF0.0
aF0.0
aF0.0
asS'Bacteria.Firmicutes.Clostridia.Christensenellales'
p169
(lp170
F27.02452282413985
aF80.35537163103828
aF279.7600089523203
aF309.6927374902414
aF144.7868226957603
aF0.0
aF0.0
aF263.25603843538164
aF74.64661613316957
asS'Bacteria.Firmicutes.Clostridia.Clostridia_UCG_014'
p171
(lp172
F5682.871085304838
aF35.15547508857925
aF0.0
aF9611.22808224923
aF0.0
aF488.88888888888886
aF0.0
aF394.88405765307243
aF1574.364994808667
asS'Bacteria.Proteobacteria.Alphaproteobacteria.Caulobacterales'
p173
(lp174
F0.0
aF0.0
aF0.0
aF0.0
aF0.0
aF0.0
aF0.0
aF49.360507206634054
aF0.0
asS'Bacteria.Cyanobacteria.Vampirivibrionia.Gastranaerophilales.Gastranaerophilales'
p175
(lp176
F239.3600592995244
aF517.287704874809
aF0.0
aF4750.7726188607185
aF0.0
aF814.8148148148148
aF0.0
aF164.5350240221135
aF441.09364078691107
asS'Bacteria.Bacteroidota'
p177
(lp178
F655711.4398665762
aF772697.2536040642
aF784227.561095282
aF870608.6537613688
aF806948.0641150118
aF790074.074074074
aF857532.2767752778
aF599077.506965316
aF884833.8434185436
asS'Bacteria.Proteobacteria.Gammaproteobacteria.Burkholderiales.Alcaligenaceae'
p179
(lp180
F0.0
aF0.0
aF0.0
aF0.0
aF34.06748769312007
aF0.0
aF79.3962357362457
aF0.0
aF0.0
asS'Bacteria.Proteobacteria.Alphaproteobacteria.Rhodospirillales.uncultured'
p181
(lp182
F0.0
aF693.0650803177052
aF0.0
aF11929.622325405342
aF0.0
aF0.0
aF0.0
aF0.0
aF0.0
asS'Bacteria.Proteobacteria.Gammaproteobacteria.Pasteurellales'
p183
(lp184
F104.23744517882514
aF47.71100190592898
aF0.0
aF51.615456248373576
aF0.0
aF0.0
aF0.0
aF0.0
aF0.0
asS'Bacteria.Proteobacteria.Gammaproteobacteria.Burkholderiales.Burkholderiaceae'
p185
(lp186
F108.0980912965594
aF384.1991206109018
aF133.42400426956814
aF92.47769244500265
aF0.0
aF0.0
aF110.2725496336746
aF537.4810784722374
aF135.72112024212646
asS'Bacteria.Firmicutes.Bacilli'
p187
(lp188
F1810.64302921737
aF4304.034592987488
aF4106.016131392516
aF2808.741077515662
aF5821.281959561892
aF1318.5185185185185
aF1437.9540472231167
aF6181.03240243073
aF2293.6869320919377
asS'Bacteria.Verrucomicrobiota.Verrucomicrobiae'
p189
(lp190
F30043.548088208045
aF3450.258769407706
aF152146.40486868494
aF3116.2831709955544
aF135878.1746640094
aF0.0
aF0.0
aF268.7405392361187
aF40.716336072637944
asS'Bacteria.Actinobacteriota.Actinobacteria.Bifidobacteriales.Bifidobacteriaceae'
p191
(lp192
F0.0
aF718.1761339524046
aF0.0
aF86.02576041395595
aF0.0
aF0.0
aF0.0
aF6115.218392821886
aF0.0
asS'Bacteria.Proteobacteria.Alphaproteobacteria.Sphingomonadales'
p193
(lp194
F0.0
aF20.08884290775957
aF0.0
aF0.0
aF0.0
aF0.0
aF0.0
aF0.0
aF0.0
asS'Bacteria.Campilobacterota.Campylobacteria.Campylobacterales.Helicobacteraceae'
p195
(lp196
F0.0
aF17.577737544289626
aF0.0
aF0.0
aF0.0
aF0.0
aF0.0
aF38.391505605159814
aF0.0
asS'Bacteria.Verrucomicrobiota.Verrucomicrobiae.Verrucomicrobiales.Akkermansiaceae'
p197
(lp198
F30043.548088208045
aF3450.258769407706
aF152146.40486868494
aF3116.2831709955544
aF135878.1746640094
aF0.0
aF0.0
aF268.7405392361187
aF40.716336072637944
asS'Bacteria.Firmicutes.Clostridia.Clostridia_vadinBB60_group.Clostridia_vadinBB60_group'
p199
(lp200
F2354.9941318179017
aF223.48837734882522
aF38.73600123955204
aF2759.2762652776373
aF0.0
aF474.0740740740741
aF114.68345161902157
aF351.0080512471755
aF264.65618447214666
asS'Bacteria.Proteobacteria.Gammaproteobacteria.Pseudomonadales'
p201
(lp202
F100.37679906109088
aF185.82179689677605
aF21.520000688640025
aF0.0
aF0.0
aF0.0
aF291.1195310329009
aF164.5350240221135
aF149.29323226633915
asS'Bacteria.Deferribacterota.Deferribacteres'
p203
(lp204
F250.9419976527272
aF233.53279880270503
aF0.0
aF135.4905726519806
aF0.0
aF0.0
aF0.0
aF87.75201281179388
aF0.0
asS'Bacteria.Actinobacteriota.Actinobacteria'
p205
(lp206
F0.0
aF718.1761339524046
aF8.608000275456009
aF86.02576041395595
aF0.0
aF0.0
aF0.0
aF6115.218392821886
aF373.2330806658478
asS'Bacteria.Actinobacteriota.Coriobacteriia.Coriobacteriales.uncultured'
p207
(lp208
F34.745815059608375
aF0.0
aF30.12800096409603
aF0.0
aF0.0
aF562.9629629629629
aF48.51992183881682
aF998.1791457341553
aF251.08407244793398
asS'Bacteria.Firmicutes.Clostridia.uncultured.uncultured'
p209
(lp210
F0.0
aF128.06637353696726
aF0.0
aF0.0
aF0.0
aF0.0
aF0.0
aF1294.3421889739595
aF0.0
asS'Bacteria.Firmicutes.Clostridia.Oscillospirales.Ruminococcaceae'
p211
(lp212
F13411.884613008835
aF125.55526817349731
aF2711.520086768643
aF7277.779331020674
aF1843.9027713901237
aF27822.222222222223
aF2276.0254244390435
aF19239.628808985806
aF28698.230875197645
asS'Bacteria.Firmicutes.Clostridia.Lachnospirales.Lachnospiraceae'
p213
(lp214
F189959.23157699677
aF14642.255374393257
aF22088.12870682012
aF18028.848738754823
aF15892.483008840514
aF16637.037037037036
aF79294.78499058272
aF139586.02987956037
aF18030.5508241665
asS'Bacteria.Patescibacteria.Saccharimonadia'
p215
(lp216
F0.0
aF37.666580452049196
aF0.0
aF1043.062345019216
aF0.0
aF0.0
aF0.0
aF948.8186385275212
aF0.0
asS'Bacteria.Firmicutes.Clostridia.Peptostreptococcales_Tissierellales.Peptostreptococcaceae'
p217
(lp218
F2490.1167459386
aF104838.64892487027
aF1273.9840407674894
aF12951.17823032107
aF1111.4517859880423
aF1748.1481481481483
aF3158.2058215084403
aF53172.23526314635
aF4438.080631917536
asS'Bacteria.Firmicutes.Clostridia.Lachnospirales'
p219
(lp220
F189959.23157699677
aF14692.477481662656
aF22088.12870682012
aF18162.188667396455
aF15892.483008840514
aF17155.555555555555
aF79294.78499058272
aF139629.90588596626
aF18417.35601685656
asS'Bacteria.Firmicutes.Clostridia.Clostridiales.Clostridiaceae'
p221
(lp222
F0.0
aF22.59994827122952
aF0.0
aF0.0
aF0.0
aF0.0
aF0.0
aF290.6785424390672
aF0.0
asS'Bacteria.Proteobacteria.Gammaproteobacteria.Enterobacterales.Morganellaceae'
p223
(lp224
F0.0
aF0.0
aF215.20000688640022
aF0.0
aF119.23620692592026
aF0.0
aF0.0
aF0.0
aF0.0
asS'Bacteria.Patescibacteria.Saccharimonadia.Saccharimonadales'
p225
(lp226
F0.0
aF37.666580452049196
aF0.0
aF1043.062345019216
aF0.0
aF0.0
aF0.0
aF948.8186385275212
aF0.0
asS'Bacteria.Proteobacteria.Gammaproteobacteria.Enterobacterales'
p227
(lp228
F2486.2560998208664
aF1127.486308198006
aF6981.088223394822
aF270.9811453039612
aF8125.095814809138
aF1733.3333333333333
aF630.7589839046186
aF3109.711954017945
aF1445.429930578647
asS'Bacteria.Deferribacterota.Deferribacteres.Deferribacterales.Deferribacteraceae'
p229
(lp230
F250.9419976527272
aF233.53279880270503
aF0.0
aF135.4905726519806
aF0.0
aF0.0
aF0.0
aF87.75201281179388
aF0.0
asS'Bacteria.Actinobacteriota.Actinobacteria.Corynebacteriales.Corynebacteriaceae'
p231
(lp232
F0.0
aF0.0
aF0.0
aF0.0
aF0.0
aF0.0
aF0.0
aF0.0
aF373.2330806658478
asS'Bacteria.Firmicutes.Clostridia.Oscillospirales._Clostridium__methylpentosum_group'
p233
(lp234
F69.49163011921675
aF0.0
aF0.0
aF0.0
aF0.0
aF0.0
aF0.0
aF0.0
aF0.0
asS'Bacteria.Firmicutes.Clostridia.Oscillospirales.Oscillospiraceae'
p235
(lp236
F57728.24139848046
aF2787.3269534516403
aF8448.752270360073
aF5744.37015164191
aF6144.9230926465325
aF9851.85185185185
aF27748.984389817873
aF43656.626373867446
aF5761.361554278269
asS'Bacteria'
p237
(lp238
F1000000.0
aF1000000.0
aF1000000.0
aF1000000.0
aF1000000.0
aF1000000.0
aF1000000.0
aF1000000.0
aF1000000.0
assS'subclass_sl'
p239
(dp240
g12
(I0
I4
tp241
sg10
(I4
I9
tp242
ssS'norm'
p243
F1000000.0
sS'cls'
p244
(dp245
S'class'
p246
(S'NC'
p247
S'NC'
p248
S'NC'
p249
g5
S'NR'
p250
S'NR'
p251
S'NR'
p252
S'NR'
p253
g3
tp254
sS'subclass'
p255
(lp256
S'NC_subcl'
p257
aS'NC_subcl'
p258
aS'NC_subcl'
p259
ag12
aS'NR_subcl'
p260
aS'NR_subcl'
p261
aS'NR_subcl'
p262
aS'NR_subcl'
p263
ag10
asS'subject'
p264
(S'S210421121673'
p265
S'S210421121674'
p266
S'S210421121675'
p267
S'S210421121676'
p268
S'S210421121677'
p269
S'S210421121678'
p270
S'S210421121679'
p271
S'S210421121680'
p272
S'S210421121681'
p273
tp274
ss.