(dp0
S'class_sl'
p1
(dp2
S'NR'
p3
(I4
I9
tp4
sS'NC'
p5
(I0
I4
tp6
ssS'class_hierarchy'
p7
(dp8
g3
(lp9
S'NR_subcl'
p10
asg5
(lp11
S'NC_subcl'
p12
assS'feats'
p13
(dp14
S'Bacteria.Firmicutes.Bacilli.Acholeplasmatales'
p15
(lp16
F0.0
aF1335.9080533660112
aF0.0
aF0.0
aF0.0
aF0.0
aF0.0
aF0.0
aF0.0
asS'Bacteria.Proteobacteria.Alphaproteobacteria.Sphingomonadales'
p17
(lp18
F0.0
aF20.088842907759567
aF0.0
aF0.0
aF0.0
aF0.0
aF0.0
aF0.0
aF0.0
asS'Bacteria.Firmicutes'
p19
(lp20
F310206.7762060658
aF182218.3607001966
aF51428.497645711934
aF101112.52814655348
aF43223.125010646094
aF205481.4814814815
aF137686.30547260607
aF386054.0113638857
aF109289.43207497236
asS'Bacteria.Actinobacteriota.Actinobacteria.Bifidobacteriales'
p21
(lp22
F0.0
aF718.1761339524045
aF0.0
aF86.02576041395595
aF0.0
aF0.0
aF0.0
aF6115.2183928218865
aF0.0
asS'Bacteria.Proteobacteria.Gammaproteobacteria.Pasteurellales'
p23
(lp24
F104.23744517882513
aF47.711001905928974
aF0.0
aF51.615456248373576
aF0.0
aF0.0
aF0.0
aF0.0
aF0.0
asS'Bacteria.Proteobacteria.Gammaproteobacteria.Pseudomonadales'
p25
(lp26
F100.37679906109086
aF185.821796896776
aF21.520000688640025
aF0.0
aF0.0
aF0.0
aF291.1195310329009
aF164.53502402211353
aF149.29323226633915
asS'Bacteria.Firmicutes.Clostridia.Lachnospirales'
p27
(lp28
F189959.23157699674
aF14692.477481662652
aF22088.12870682012
aF18162.188667396455
aF15892.483008840516
aF17155.555555555555
aF79294.78499058272
aF139629.9058859663
aF18417.356016856567
asS'Bacteria.Firmicutes.Clostridia'
p29
(lp30
F297628.7911544876
aF123546.38388272133
aF38456.24123059973
aF70414.2355428333
aF27598.9234673889
aF78103.70370370371
aF115318.62150491154
aF285100.8051247176
aF63741.42412171472
asS'Bacteria.Firmicutes.Clostridia.Clostridia_vadinBB60_group'
p31
(lp32
F2354.9941318179012
aF223.4883773488252
aF38.73600123955204
aF2759.2762652776373
aF0.0
aF474.0740740740741
aF114.68345161902157
aF351.0080512471755
aF264.65618447214666
asS'Bacteria.Firmicutes.Bacilli.RF39'
p33
(lp34
F0.0
aF0.0
aF0.0
aF32.25966015523348
aF0.0
aF0.0
aF727.7988275822523
aF0.0
aF0.0
asS'Bacteria.Actinobacteriota.Actinobacteria.Micrococcales'
p35
(lp36
F0.0
aF0.0
aF8.608000275456009
aF0.0
aF0.0
aF0.0
aF0.0
aF0.0
aF0.0
asS'Bacteria.Cyanobacteria.Vampirivibrionia'
p37
(lp38
F239.36005929952438
aF517.2877048748089
aF0.0
aF4750.7726188607185
aF0.0
aF814.8148148148148
aF0.0
aF164.53502402211353
aF441.09364078691107
asS'Bacteria.Proteobacteria.Gammaproteobacteria'
p39
(lp40
F3416.6718141948236
aF39075.310560955826
aF12102.84838729115
aF6847.650528950895
aF13856.95061917659
aF2637.0370370370365
aF4600.570770716903
aF4069.499594146941
aF3033.367037411527
asS'Bacteria.Deferribacterota.Deferribacteres'
p41
(lp42
F250.94199765272717
aF233.53279880270497
aF0.0
aF135.4905726519806
aF0.0
aF0.0
aF0.0
aF87.75201281179388
aF0.0
asS'Bacteria.Patescibacteria.Saccharimonadia.Saccharimonadales'
p43
(lp44
F0.0
aF37.66658045204919
aF0.0
aF1043.062345019216
aF0.0
aF0.0
aF0.0
aF948.8186385275213
aF0.0
asS'Bacteria.Proteobacteria.Alphaproteobacteria.Rhodospirillales'
p45
(lp46
F0.0
aF693.065080317705
aF0.0
aF11929.622325405342
aF0.0
aF0.0
aF0.0
aF0.0
aF0.0
asS'Bacteria.Proteobacteria.Gammaproteobacteria.Burkholderiales'
p47
(lp48
F725.8014701340416
aF37714.29145395511
aF5100.240163207685
aF6525.05392739856
aF5731.854804367453
aF903.7037037037037
aF3678.692255779384
aF795.2526161068821
aF1438.6438745665407
asS'Bacteria.Campilobacterota.Campylobacteria.Campylobacterales'
p49
(lp50
F0.0
aF17.57773754428962
aF0.0
aF0.0
aF0.0
aF0.0
aF0.0
aF38.39150560515982
aF0.0
asS'Bacteria.Actinobacteriota.Actinobacteria'
p51
(lp52
F0.0
aF718.1761339524045
aF8.608000275456009
aF86.02576041395595
aF0.0
aF0.0
aF0.0
aF6115.2183928218865
aF373.23308066584787
asS'Bacteria.Patescibacteria'
p53
(lp54
F0.0
aF37.66658045204919
aF0.0
aF1043.062345019216
aF0.0
aF0.0
aF0.0
aF948.8186385275213
aF0.0
asS'Bacteria.Proteobacteria.Alphaproteobacteria.Rhizobiales'
p55
(lp56
F0.0
aF32.64436972510929
aF0.0
aF0.0
aF38.32592365476009
aF0.0
aF74.98533375089872
aF0.0
aF0.0
asS'Bacteria.Firmicutes.Clostridia.Oscillospirales'
p57
(lp58
F93794.39743035394
aF3362.3700816862574
aF11160.272357128717
aF25108.768820823396
aF7988.825864036658
aF57703.7037037037
aF30611.659778308065
aF80161.46370357371
aF37832.26226749276
asS'Bacteria.Campilobacterota.Campylobacteria'
p59
(lp60
F0.0
aF17.57773754428962
aF0.0
aF0.0
aF0.0
aF0.0
aF0.0
aF38.39150560515982
aF0.0
asS'Bacteria.Firmicutes.Clostridia.Clostridiales'
p61
(lp62
F0.0
aF22.59994827122951
aF0.0
aF0.0
aF0.0
aF0.0
aF0.0
aF290.6785424390672
aF0.0
asS'Bacteria'
p63
(lp64
F1000000.0
aF1000000.0
aF1000000.0
aF1000000.0
aF1000000.0
aF1000000.0
aF1000000.0
aF1000000.0
aF1000000.0
asS'Bacteria.Firmicutes.Clostridia.Peptostreptococcales_Tissierellales'
p65
(lp66
F3111.6807708938168
aF104838.64892487024
aF1725.90405522893
aF13581.316925353298
aF1362.6995077248032
aF1748.1481481481483
aF3771.321197471671
aF53600.02632560385
aF4580.587808171769
asS'Bacteria.Actinobacteriota.Actinobacteria.Corynebacteriales'
p67
(lp68
F0.0
aF0.0
aF0.0
aF0.0
aF0.0
aF0.0
aF0.0
aF0.0
aF373.23308066584787
asS'Bacteria.Verrucomicrobiota'
p69
(lp70
F30043.54808820804
aF3450.2587694077056
aF152146.40486868497
aF3116.2831709955544
aF135878.17466400942
aF0.0
aF0.0
aF268.74053923611876
aF40.716336072637944
asS'Bacteria.Firmicutes.Bacilli.Staphylococcales'
p71
(lp72
F0.0
aF0.0
aF0.0
aF0.0
aF0.0
aF414.8148148148148
aF273.475923091513
aF466.18256806265504
aF1642.2255549297306
asS'Bacteria.Firmicutes.Clostridia.Clostridia_UCG_014'
p73
(lp74
F5682.871085304837
aF35.15547508857924
aF0.0
aF9611.22808224923
aF0.0
aF488.88888888888886
aF0.0
aF394.8840576530725
aF1574.3649948086672
asS'Bacteria.Firmicutes.Clostridia.Christensenellales'
p75
(lp76
F27.024522824139847
aF80.35537163103827
aF279.7600089523203
aF309.6927374902414
aF144.78682269576032
aF0.0
aF0.0
aF263.25603843538164
aF74.64661613316957
asS'Bacteria.Bacteroidota.Bacteroidia.Bacteroidales'
p77
(lp78
F655711.4398665761
aF772697.2536040639
aF784227.561095282
aF870608.6537613688
aF806948.064115012
aF790074.074074074
aF857532.2767752778
aF599077.5069653161
aF884833.8434185437
asS'Bacteria.Actinobacteriota.Coriobacteriia'
p79
(lp80
F131.26196800296498
aF288.77711679904377
aF86.0800027545601
aF369.9107697800106
aF55.359667501320125
aF992.5925925925926
aF105.8616476483276
aF3049.3824452098374
aF1988.314411547153
asS'Bacteria.Firmicutes.Bacilli.Lactobacillales'
p81
(lp82
F10111.032182346038
aF46598.582229911786
aF8237.8562636114
aF23472.128728947882
aF9121.5698298329
aF124355.55555555555
aF18693.402613900515
aF89167.01401838406
aF40037.73047142732
asS'Bacteria.Verrucomicrobiota.Verrucomicrobiae.Verrucomicrobiales'
p83
(lp84
F30043.54808820804
aF3450.2587694077056
aF152146.40486868497
aF3116.2831709955544
aF135878.17466400942
aF0.0
aF0.0
aF268.74053923611876
aF40.716336072637944
asS'Bacteria.Cyanobacteria'
p85
(lp86
F239.36005929952438
aF517.2877048748089
aF0.0
aF4750.7726188607185
aF0.0
aF814.8148148148148
aF0.0
aF164.53502402211353
aF441.09364078691107
asS'Bacteria.Proteobacteria.Alphaproteobacteria.Caulobacterales'
p87
(lp88
F0.0
aF0.0
aF0.0
aF0.0
aF0.0
aF0.0
aF0.0
aF49.36050720663406
aF0.0
asS'Bacteria.Proteobacteria'
p89
(lp90
F3416.6718141948236
aF39821.1088539064
aF12102.84838729115
aF18777.272854356237
aF13895.27654283135
aF2637.0370370370365
aF4675.5561044678025
aF4195.643112563895
aF3033.367037411527
asS'Bacteria.Campilobacterota'
p91
(lp92
F0.0
aF17.57773754428962
aF0.0
aF0.0
aF0.0
aF0.0
aF0.0
aF38.39150560515982
aF0.0
asS'Bacteria.Bacteroidota.Bacteroidia'
p93
(lp94
F655711.4398665761
aF772697.2536040639
aF784227.561095282
aF870608.6537613688
aF806948.064115012
aF790074.074074074
aF857532.2767752778
aF599077.5069653161
aF884833.8434185437
asS'Bacteria.Firmicutes.Clostridia.Peptococcales'
p95
(lp96
F1799.0610908641672
aF163.22184862554647
aF215.20000688640025
aF600.0296788873428
aF225.6971059669205
aF0.0
aF1133.6018102341748
aF614.2640896825571
aF318.94463256899724
asS'Bacteria.Bacteroidota'
p97
(lp98
F655711.4398665761
aF772697.2536040639
aF784227.561095282
aF870608.6537613688
aF806948.064115012
aF790074.074074074
aF857532.2767752778
aF599077.5069653161
aF884833.8434185437
asS'Bacteria.Patescibacteria.Saccharimonadia'
p99
(lp100
F0.0
aF37.66658045204919
aF0.0
aF1043.062345019216
aF0.0
aF0.0
aF0.0
aF948.8186385275213
aF0.0
asS'Bacteria.Actinobacteriota'
p101
(lp102
F131.26196800296498
aF1006.9532507514483
aF94.6880030300161
aF455.9365301939666
aF55.359667501320125
aF992.5925925925926
aF105.8616476483276
aF9164.600838031723
aF2361.547492213001
asS'Bacteria.Proteobacteria.Gammaproteobacteria.Enterobacterales'
p103
(lp104
F2486.256099820866
aF1127.4863081980059
aF6981.088223394824
aF270.9811453039612
aF8125.095814809139
aF1733.3333333333333
aF630.7589839046186
aF3109.7119540179456
aF1445.4299305786471
asS'Bacteria.Firmicutes.Clostridia.Monoglobales'
p105
(lp106
F899.5305454320836
aF0.0
aF2948.2400943436833
aF281.7343653557058
aF1984.4311581242443
aF533.3333333333334
aF392.57027669588155
aF8500.976241142533
aF678.6056012106325
asS'Bacteria.Firmicutes.Bacilli'
p107
(lp108
F1810.6430292173698
aF4304.0345929874875
aF4106.016131392516
aF2808.741077515662
aF5821.281959561893
aF1318.5185185185185
aF1437.9540472231167
aF6181.032402430731
aF2293.6869320919377
asS'Bacteria.Proteobacteria.Alphaproteobacteria'
p109
(lp110
F0.0
aF745.7982929505739
aF0.0
aF11929.622325405342
aF38.32592365476009
aF0.0
aF74.98533375089872
aF126.1435184169537
aF0.0
asS'Bacteria.Cyanobacteria.Vampirivibrionia.Gastranaerophilales'
p111
(lp112
F239.36005929952438
aF517.2877048748089
aF0.0
aF4750.7726188607185
aF0.0
aF814.8148148148148
aF0.0
aF164.53502402211353
aF441.09364078691107
asS'Bacteria.Deferribacterota.Deferribacteres.Deferribacterales'
p113
(lp114
F250.94199765272717
aF233.53279880270497
aF0.0
aF135.4905726519806
aF0.0
aF0.0
aF0.0
aF87.75201281179388
aF0.0
asS'Bacteria.Verrucomicrobiota.Verrucomicrobiae'
p115
(lp116
F30043.54808820804
aF3450.2587694077056
aF152146.40486868497
aF3116.2831709955544
aF135878.17466400942
aF0.0
aF0.0
aF268.74053923611876
aF40.716336072637944
asS'Bacteria.Proteobacteria.Alphaproteobacteria.Rickettsiales'
p117
(lp118
F0.0
aF0.0
aF0.0
aF0.0
aF0.0
aF0.0
aF0.0
aF76.78301121031964
aF0.0
asS'Bacteria.Deferribacterota'
p119
(lp120
F250.94199765272717
aF233.53279880270497
aF0.0
aF135.4905726519806
aF0.0
aF0.0
aF0.0
aF87.75201281179388
aF0.0
asS'Bacteria.Actinobacteriota.Coriobacteriia.Coriobacteriales'
p121
(lp122
F131.26196800296498
aF288.77711679904377
aF86.0800027545601
aF369.9107697800106
aF55.359667501320125
aF992.5925925925926
aF105.8616476483276
aF3049.3824452098374
aF1988.314411547153
asS'Bacteria.Firmicutes.Clostridia.uncultured'
p123
(lp124
F0.0
aF128.06637353696723
aF0.0
aF0.0
aF0.0
aF0.0
aF0.0
aF1294.3421889739598
aF0.0
asS'Bacteria.Firmicutes.Bacilli.Erysipelotrichales'
p125
(lp126
F656.3098400148249
aF6433.451941210001
aF628.3840201082887
aF4385.163137101405
aF681.3497538624016
aF1288.888888888889
aF1235.0525558971556
aF5138.977250290679
aF1574.3649948086672
assS'subclass_sl'
p127
(dp128
g12
(I0
I4
tp129
sg10
(I4
I9
tp130
ssS'norm'
p131
F1000000.0
sS'cls'
p132
(dp133
S'class'
p134
(S'NC'
p135
S'NC'
p136
S'NC'
p137
g5
S'NR'
p138
S'NR'
p139
S'NR'
p140
S'NR'
p141
g3
tp142
sS'subclass'
p143
(lp144
S'NC_subcl'
p145
aS'NC_subcl'
p146
aS'NC_subcl'
p147
ag12
aS'NR_subcl'
p148
aS'NR_subcl'
p149
aS'NR_subcl'
p150
aS'NR_subcl'
p151
ag10
asS'subject'
p152
(S'S210421121673'
p153
S'S210421121674'
p154
S'S210421121675'
p155
S'S210421121676'
p156
S'S210421121677'
p157
S'S210421121678'
p158
S'S210421121679'
p159
S'S210421121680'
p160
S'S210421121681'
p161
tp162
ss.