(dp0
S'class_sl'
p1
(dp2
S'NR'
p3
(I4
I9
tp4
sS'NC'
p5
(I0
I4
tp6
ssS'class_hierarchy'
p7
(dp8
g3
(lp9
S'NR_subcl'
p10
asg5
(lp11
S'NC_subcl'
p12
assS'feats'
p13
(dp14
S'Bacteria.Actinobacteriota'
p15
(lp16
F65.63098400148249
aF503.47662537572415
aF47.344001515008046
aF227.9682650969833
aF27.67983375066006
aF496.2962962962963
aF52.9308238241638
aF4582.300419015861
aF1180.7737461065003
asS'Bacteria'
p17
(lp18
F500000.0
aF500000.0
aF500000.0
aF500000.0
aF500000.0
aF500000.0
aF500000.0
aF500000.0
aF500000.0
asS'Bacteria.Cyanobacteria'
p19
(lp20
F119.68002964976219
aF258.64385243740446
aF0.0
aF2375.3863094303592
aF0.0
aF407.4074074074074
aF0.0
aF82.26751201105675
aF220.54682039345553
asS'Bacteria.Firmicutes'
p21
(lp22
F155103.38810303292
aF91109.18035009831
aF25714.248822855963
aF50556.26407327674
aF21611.562505323043
aF102740.74074074074
aF68843.15273630305
aF193027.00568194283
aF54644.71603748618
asS'Bacteria.Patescibacteria'
p23
(lp24
F0.0
aF18.833290226024594
aF0.0
aF521.531172509608
aF0.0
aF0.0
aF0.0
aF474.4093192637606
aF0.0
asS'Bacteria.Campilobacterota'
p25
(lp26
F0.0
aF8.78886877214481
aF0.0
aF0.0
aF0.0
aF0.0
aF0.0
aF19.195752802579907
aF0.0
asS'Bacteria.Proteobacteria'
p27
(lp28
F1708.3359070974118
aF19910.5544269532
aF6051.424193645574
aF9388.636427178119
aF6947.638271415674
aF1318.5185185185185
aF2337.7780522339012
aF2097.8215562819473
aF1516.6835187057634
asS'Bacteria.Deferribacterota'
p29
(lp30
F125.47099882636358
aF116.76639940135249
aF0.0
aF67.7452863259903
aF0.0
aF0.0
aF0.0
aF43.87600640589694
aF0.0
asS'Bacteria.Verrucomicrobiota'
p31
(lp32
F15021.77404410402
aF1725.1293847038528
aF76073.20243434247
aF1558.1415854977772
aF67939.0873320047
aF0.0
aF0.0
aF134.37026961805935
aF20.358168036318972
asS'Bacteria.Bacteroidota'
p33
(lp34
F327855.71993328806
aF386348.62680203194
aF392113.7805476409
aF435304.3268806844
aF403474.0320575059
aF395037.037037037
aF428766.1383876389
aF299538.753482658
aF442416.9217092718
assS'subclass_sl'
p35
(dp36
g12
(I0
I4
tp37
sg10
(I4
I9
tp38
ssS'norm'
p39
F1000000.0
sS'cls'
p40
(dp41
S'class'
p42
(S'NC'
p43
S'NC'
p44
S'NC'
p45
g5
S'NR'
p46
S'NR'
p47
S'NR'
p48
S'NR'
p49
g3
tp50
sS'subclass'
p51
(lp52
S'NC_subcl'
p53
aS'NC_subcl'
p54
aS'NC_subcl'
p55
ag12
aS'NR_subcl'
p56
aS'NR_subcl'
p57
aS'NR_subcl'
p58
aS'NR_subcl'
p59
ag10
asS'subject'
p60
(S'S210421121673'
p61
S'S210421121674'
p62
S'S210421121675'
p63
S'S210421121676'
p64
S'S210421121677'
p65
S'S210421121678'
p66
S'S210421121679'
p67
S'S210421121680'
p68
S'S210421121681'
p69
tp70
ss.