(dp0
S'class_sl'
p1
(dp2
S'NR'
p3
(I4
I9
tp4
sS'NC'
p5
(I0
I4
tp6
ssS'class_hierarchy'
p7
(dp8
g3
(lp9
S'NR_subcl'
p10
asg5
(lp11
S'NC_subcl'
p12
assS'feats'
p13
(dp14
S'Bacteria.Firmicutes.Bacilli.Acholeplasmatales'
p15
(lp16
F0.0
aF1335.908053366011
aF0.0
aF0.0
aF0.0
aF0.0
aF0.0
aF0.0
aF0.0
asS'Bacteria.Firmicutes.Bacilli.Lactobacillales.Streptococcaceae'
p17
(lp18
F413.0891345975664
aF1335.908053366011
aF529.3920169405446
aF49.46481223802469
aF408.80985231744074
aF2133.3333333333326
aF361.69396279845273
aF1875.6992738520942
aF2293.6869320919377
asS'Bacteria.Firmicutes.Bacilli.Lactobacillales.Streptococcaceae.Streptococcus'
p19
(lp20
F413.0891345975664
aF1270.6193139157924
aF486.3520155632646
aF49.46481223802469
aF408.80985231744074
aF1970.3703703703698
aF269.065021106166
aF1875.6992738520942
aF2293.6869320919377
asS'Bacteria.Firmicutes.Clostridia.Oscillospirales.Ruminococcaceae.uncultured.uncultured_bacterium'
p21
(lp22
F1721.848168509482
aF85.37758235797814
aF116.20800371865614
aF232.26955311768117
aF0.0
aF0.0
aF0.0
aF575.8725840773974
aF183.22351232687075
asS'Bacteria.Firmicutes.Clostridia.Lachnospirales.Lachnospiraceae.Lachnospiraceae_UCG_006'
p23
(lp24
F397.6465501266293
aF0.0
aF0.0
aF0.0
aF0.0
aF0.0
aF0.0
aF910.4271329223615
aF420.73547275059207
asS'Bacteria.Firmicutes.Clostridia.Lachnospirales.Lachnospiraceae.Lachnospiraceae_UCG_001'
p25
(lp26
F0.0
aF0.0
aF0.0
aF210.76311301419216
aF0.0
aF0.0
aF0.0
aF0.0
aF0.0
asS'Bacteria.Actinobacteriota.Actinobacteria.Bifidobacteriales.Bifidobacteriaceae.Bifidobacterium.Bifidobacterium_animalis'
p27
(lp28
F0.0
aF718.1761339524043
aF0.0
aF86.02576041395598
aF0.0
aF0.0
aF0.0
aF6115.2183928218865
aF0.0
asS'Bacteria.Verrucomicrobiota.Verrucomicrobiae.Verrucomicrobiales.Akkermansiaceae.Akkermansia'
p29
(lp30
F30043.54808820805
aF3450.2587694077047
aF152146.40486868497
aF3116.283170995556
aF135878.17466400936
aF0.0
aF0.0
aF268.74053923611876
aF40.716336072637944
asS'Bacteria.Firmicutes.Bacilli.Lactobacillales.Lactobacillaceae.Lactobacillus'
p31
(lp32
F8238.618815244921
aF26813.583071132074
aF5212.144166788615
aF15749.166087784992
aF6200.282760147852
aF14888.888888888885
aF6550.189448240271
aF17769.78259438826
aF6419.608987452582
asS'Bacteria.Actinobacteriota.Actinobacteria.Bifidobacteriales'
p33
(lp34
F0.0
aF718.1761339524043
aF0.0
aF86.02576041395598
aF0.0
aF0.0
aF0.0
aF6115.2183928218865
aF0.0
asS'Bacteria.Firmicutes.Clostridia.Oscillospirales.Oscillospiraceae.UCG_003.uncultured_bacterium'
p35
(lp36
F2964.9762184199153
aF0.0
aF0.0
aF0.0
aF0.0
aF814.8148148148146
aF0.0
aF0.0
aF0.0
asS'Bacteria.Firmicutes.Bacilli.Erysipelotrichales.Erysipelotrichaceae.Faecalibaculum'
p37
(lp38
F0.0
aF100.44421453879781
aF0.0
aF86.02576041395598
aF0.0
aF0.0
aF0.0
aF488.1205712656034
aF0.0
asS'Bacteria.Cyanobacteria.Vampirivibrionia'
p39
(lp40
F239.36005929952444
aF517.2877048748087
aF0.0
aF4750.772618860719
aF0.0
aF814.8148148148146
aF0.0
aF164.53502402211353
aF441.09364078691107
asS'Bacteria.Firmicutes.Clostridia.Oscillospirales.Ruminococcaceae.Incertae_Sedis'
p41
(lp42
F1528.815862622769
aF0.0
aF606.8640194196488
aF0.0
aF310.8658251997206
aF0.0
aF0.0
aF0.0
aF325.73068858110355
asS'Bacteria.Bacteroidota.Bacteroidia.Bacteroidales.Muribaculaceae.Muribaculaceae'
p43
(lp44
F24777.626783618514
aF59578.48585368792
aF104328.96333852685
aF65482.8088271033
aF104446.65883114448
aF175762.96296296292
aF41987.37599851794
aF34481.05653423426
aF80957.64822442844
asS'Bacteria.Firmicutes.Clostridia.Lachnospirales.Lachnospiraceae.Frisingicoccus'
p45
(lp46
F0.0
aF457.02117615153
aF0.0
aF34.410304165582396
aF0.0
aF666.6666666666665
aF110.27254963367461
aF0.0
aF162.86534429055177
asS'Bacteria.Proteobacteria.Gammaproteobacteria.Pasteurellales'
p47
(lp48
F104.23744517882515
aF47.71100190592896
aF0.0
aF51.61545624837359
aF0.0
aF0.0
aF0.0
aF0.0
aF0.0
asS'Bacteria.Proteobacteria.Gammaproteobacteria.Pseudomonadales.Moraxellaceae.Acinetobacter'
p49
(lp50
F0.0
aF27.6221589981694
aF0.0
aF0.0
aF0.0
aF0.0
aF0.0
aF82.26751201105677
aF0.0
asS'Bacteria.Firmicutes.Clostridia.Clostridia_vadinBB60_group'
p51
(lp52
F2354.9941318179017
aF223.48837734882514
aF38.736001239552046
aF2759.2762652776382
aF0.0
aF474.07407407407396
aF114.68345161902158
aF351.0080512471755
aF264.6561844721466
asS'Bacteria.Firmicutes.Bacilli.Erysipelotrichales.Erysipelatoclostridiaceae.UCG_004'
p53
(lp54
F409.2284884798321
aF87.88868772144808
aF0.0
aF378.51334582140635
aF0.0
aF0.0
aF26.465411912081905
aF76.78301121031964
aF0.0
asS'Bacteria.Firmicutes.Clostridia.Oscillospirales.Oscillospiraceae.Colidextribacter'
p55
(lp56
F3760.269318673174
aF42.68879117898907
aF499.2640159764486
aF434.43009009047773
aF587.664162706321
aF770.3703703703702
aF1755.5389901680996
aF904.9426321216245
aF1011.1223458038423
asS'Bacteria.Bacteroidota.Bacteroidia.Bacteroidales.Tannerellaceae'
p57
(lp58
F6613.286799678795
aF73813.94215919905
aF22867.152731748894
aF8148.790155211981
aF25205.68245694721
aF2014.8148148148143
aF27585.781016360037
aF1656.3192418226095
aF2327.6172121524687
asS'Bacteria.Firmicutes.Clostridia.Peptostreptococcales_Tissierellales.Anaerovoracaceae.Family_XIII_UCG_001.uncultured_bacterium'
p59
(lp60
F154.4258447093706
aF0.0
aF0.0
aF0.0
aF0.0
aF0.0
aF0.0
aF148.0815216199022
aF0.0
asS'Bacteria.Bacteroidota.Bacteroidia.Bacteroidales.Muribaculaceae'
p61
(lp62
F413359.3798258077
aF282049.8655303077
aF477847.3112911141
aF559625.5298649182
aF497730.25363244576
aF437377.77777777764
aF396037.2456563643
aF528387.7761446154
aF495884.25702865754
asS'Bacteria.Proteobacteria.Alphaproteobacteria.Rhizobiales'
p63
(lp64
F0.0
aF32.644369725109286
aF0.0
aF0.0
aF38.325923654760075
aF0.0
aF74.98533375089873
aF0.0
aF0.0
asS'Bacteria.Bacteroidota.Bacteroidia.Bacteroidales.Muribaculaceae.Muribaculaceae.uncultured_Bacteroidales'
p65
(lp66
F8172.987831243438
aF1875.795706512049
aF3847.776123128837
aF16525.54857552095
aF3692.063978741887
aF2296.2962962962956
aF1120.369104278134
aF17528.46455915583
aF5211.691017297657
asS'Bacteria.Firmicutes.Clostridia.Lachnospirales.Defluviitaleaceae.Defluviitaleaceae_UCG_011'
p67
(lp68
F0.0
aF50.222107269398904
aF0.0
aF133.33992864163176
aF0.0
aF0.0
aF0.0
aF0.0
aF386.80519269006044
asS'Bacteria.Actinobacteriota.Actinobacteria.Corynebacteriales'
p69
(lp70
F0.0
aF0.0
aF0.0
aF0.0
aF0.0
aF0.0
aF0.0
aF0.0
aF373.2330806658478
asS'Bacteria.Verrucomicrobiota'
p71
(lp72
F30043.54808820805
aF3450.2587694077047
aF152146.40486868497
aF3116.283170995556
aF135878.17466400936
aF0.0
aF0.0
aF268.74053923611876
aF40.716336072637944
asS'Bacteria.Firmicutes.Bacilli.Lactobacillales'
p73
(lp74
F10111.032182346038
aF46598.58222991177
aF8237.856263611402
aF23472.12872894789
aF9121.569829832897
aF124355.55555555552
aF18693.402613900522
aF89167.01401838406
aF40037.730471427305
asS'Bacteria.Firmicutes.Clostridia.Oscillospirales.Ruminococcaceae.Candidatus_Soleaferrea'
p75
(lp76
F0.0
aF0.0
aF0.0
aF25.807728124186795
aF0.0
aF0.0
aF0.0
aF0.0
aF0.0
asS'Bacteria.Firmicutes.Clostridia.Oscillospirales.Oscillospiraceae.UCG_007.uncultured_bacterium'
p77
(lp78
F0.0
aF0.0
aF0.0
aF64.51932031046698
aF0.0
aF0.0
aF0.0
aF0.0
aF0.0
asS'Bacteria.Bacteroidota.Bacteroidia.Bacteroidales'
p79
(lp80
F655711.4398665762
aF772697.2536040639
aF784227.5610952821
aF870608.6537613692
aF806948.0641150117
aF790074.0740740738
aF857532.2767752778
aF599077.5069653161
aF884833.8434185437
asS'Bacteria.Cyanobacteria'
p81
(lp82
F239.36005929952444
aF517.2877048748087
aF0.0
aF4750.772618860719
aF0.0
aF814.8148148148146
aF0.0
aF164.53502402211353
aF441.09364078691107
asS'Bacteria.Firmicutes.Clostridia.Peptococcales'
p83
(lp84
F1799.0610908641672
aF163.22184862554644
aF215.20000688640027
aF600.029678887343
aF225.69710596692042
aF0.0
aF1133.601810234175
aF614.2640896825573
aF318.94463256899724
asS'Bacteria.Firmicutes.Clostridia.Lachnospirales.Lachnospiraceae.Hungatella'
p85
(lp86
F0.0
aF2797.371374905519
aF0.0
aF0.0
aF0.0
aF0.0
aF0.0
aF0.0
aF0.0
asS'Bacteria.Firmicutes.Bacilli.Staphylococcales.Staphylococcaceae.Jeotgalicoccus'
p87
(lp88
F0.0
aF0.0
aF0.0
aF0.0
aF0.0
aF0.0
aF176.43607941387936
aF213.8955312287476
aF583.6008170411438
asS'Bacteria.Firmicutes.Clostridia.Oscillospirales.Ruminococcaceae.UBA1819'
p89
(lp90
F0.0
aF0.0
aF0.0
aF53.766100258722496
aF0.0
aF0.0
aF0.0
aF0.0
aF0.0
asS'Bacteria.Firmicutes.Clostridia.Clostridia_UCG_014.Clostridia_UCG_014.Clostridia_UCG_014.uncultured_bacterium'
p91
(lp92
F3752.5480264377056
aF0.0
aF0.0
aF0.0
aF0.0
aF0.0
aF0.0
aF82.26751201105677
aF0.0
asS'Bacteria.Firmicutes.Clostridia.Oscillospirales.UCG_010'
p93
(lp94
F0.0
aF0.0
aF0.0
aF4137.839075911283
aF0.0
aF399.99999999999994
aF0.0
aF422.30656165675805
aF285.0143525084656
asS'Bacteria.Firmicutes.Clostridia.Oscillospirales.UCG_010.UCG_010.unidentified'
p95
(lp96
F0.0
aF0.0
aF0.0
aF0.0
aF0.0
aF399.99999999999994
aF0.0
aF131.62801921769082
aF169.6514003026581
asS'Bacteria.Proteobacteria.Alphaproteobacteria.Rickettsiales.Mitochondria'
p97
(lp98
F0.0
aF0.0
aF0.0
aF0.0
aF0.0
aF0.0
aF0.0
aF76.78301121031964
aF0.0
asS'Bacteria.Proteobacteria.Alphaproteobacteria.Sphingomonadales.Sphingomonadaceae.Sphingomonas'
p99
(lp100
F0.0
aF20.088842907759563
aF0.0
aF0.0
aF0.0
aF0.0
aF0.0
aF0.0
aF0.0
asS'Bacteria.Proteobacteria.Gammaproteobacteria.Pseudomonadales.Pseudomonadaceae'
p101
(lp102
F100.37679906109089
aF158.19963789860654
aF21.520000688640028
aF0.0
aF0.0
aF0.0
aF291.11953103290097
aF82.26751201105677
aF149.29323226633915
asS'Bacteria.Proteobacteria.Gammaproteobacteria.Pseudomonadales.Pseudomonadaceae.Pseudomonas'
p103
(lp104
F100.37679906109089
aF158.19963789860654
aF21.520000688640028
aF0.0
aF0.0
aF0.0
aF291.11953103290097
aF82.26751201105677
aF149.29323226633915
asS'Bacteria.Firmicutes.Clostridia.uncultured.uncultured.uncultured.uncultured_bacterium'
p105
(lp106
F0.0
aF128.0663735369672
aF0.0
aF0.0
aF0.0
aF0.0
aF0.0
aF1294.3421889739598
aF0.0
asS'Bacteria.Actinobacteriota.Actinobacteria.Micrococcales.Micrococcaceae'
p107
(lp108
F0.0
aF0.0
aF8.60800027545601
aF0.0
aF0.0
aF0.0
aF0.0
aF0.0
aF0.0
asS'Bacteria.Actinobacteriota'
p109
(lp110
F131.261968002965
aF1006.9532507514479
aF94.68800303001612
aF455.9365301939667
aF55.359667501320104
aF992.5925925925924
aF105.86164764832762
aF9164.600838031723
aF2361.5474922130006
asS'Bacteria.Proteobacteria.Gammaproteobacteria.Burkholderiales'
p111
(lp112
F725.8014701340418
aF37714.29145395511
aF5100.240163207686
aF6525.053927398561
aF5731.85480436745
aF903.7037037037035
aF3678.692255779385
aF795.252616106882
aF1438.6438745665405
asS'Bacteria.Firmicutes.Clostridia.Oscillospirales.Ruminococcaceae.Ruminococcus'
p113
(lp114
F119.68002964976222
aF0.0
aF0.0
aF5563.716054772604
aF0.0
aF22340.740740740737
aF926.2894169228666
aF3197.4639668297395
aF25759.868621955608
asS'Bacteria.Bacteroidota.Bacteroidia.Bacteroidales.Bacteroidaceae.Bacteroides.uncultured_bacterium'
p115
(lp116
F73.35227623695104
aF0.0
aF0.0
aF0.0
aF0.0
aF0.0
aF0.0
aF0.0
aF0.0
asS'Bacteria.Firmicutes.Clostridia.Christensenellales'
p117
(lp118
F27.024522824139854
aF80.35537163103825
aF279.76000895232033
aF309.69273749024154
aF144.78682269576026
aF0.0
aF0.0
aF263.25603843538164
aF74.64661613316957
asS'Bacteria.Patescibacteria.Saccharimonadia.Saccharimonadales.Saccharimonadaceae.Candidatus_Saccharimonas.uncultured_bacterium'
p119
(lp120
F0.0
aF37.666580452049175
aF0.0
aF1043.0623450192165
aF0.0
aF0.0
aF0.0
aF948.8186385275213
aF0.0
asS'Bacteria.Cyanobacteria.Vampirivibrionia.Gastranaerophilales.Gastranaerophilales'
p121
(lp122
F239.36005929952444
aF517.2877048748087
aF0.0
aF4750.772618860719
aF0.0
aF814.8148148148146
aF0.0
aF164.53502402211353
aF441.09364078691107
asS'Bacteria.Bacteroidota.Bacteroidia.Bacteroidales.Prevotellaceae'
p123
(lp124
F95670.67144357282
aF4658.100449236748
aF216663.36693322778
aF202280.97303737613
aF213628.69845163263
aF107911.11111111108
aF81204.70555023798
aF31053.24353377356
aF94387.25307238685
asS'Bacteria.Firmicutes.Clostridia.Lachnospirales.Lachnospiraceae.Anaerostipes.Anaerostipes_sp_'
p125
(lp126
F0.0
aF0.0
aF0.0
aF0.0
aF0.0
aF0.0
aF57.34172580951079
aF0.0
aF0.0
asS'Bacteria.Bacteroidota.Bacteroidia.Bacteroidales.Muribaculaceae.Muribaculum'
p127
(lp128
F8771.38797949225
aF321.421486524153
aF14444.224462215187
aF13372.704456349458
aF13265.028020508624
aF5881.48148148148
aF13541.46909501524
aF5396.748787925323
aF11183.42030795122
asS'Bacteria.Proteobacteria.Gammaproteobacteria.Burkholderiales.Burkholderiaceae'
p129
(lp130
F108.09809129655942
aF384.1991206109016
aF133.42400426956817
aF92.47769244500269
aF0.0
aF0.0
aF110.27254963367461
aF537.4810784722375
aF135.72112024212646
asS'Bacteria.Proteobacteria.Gammaproteobacteria.Enterobacterales.Morganellaceae.Proteus'
p131
(lp132
F0.0
aF0.0
aF215.20000688640027
aF0.0
aF119.23620692592023
aF0.0
aF0.0
aF0.0
aF0.0
asS'Bacteria.Firmicutes.Clostridia.Oscillospirales.Ruminococcaceae.Anaerotruncus.uncultured_bacterium'
p133
(lp134
F285.6878127123356
aF0.0
aF0.0
aF19.355796093140096
aF0.0
aF0.0
aF0.0
aF0.0
aF0.0
asS'Bacteria.Firmicutes.Clostridia.Oscillospirales.Ruminococcaceae.uncultured._Clostridium__leptum'
p135
(lp136
F0.0
aF0.0
aF0.0
aF0.0
aF0.0
aF0.0
aF0.0
aF1661.8037426233466
aF0.0
asS'Bacteria.Proteobacteria.Gammaproteobacteria.Pseudomonadales'
p137
(lp138
F100.37679906109089
aF185.82179689677594
aF21.520000688640028
aF0.0
aF0.0
aF0.0
aF291.11953103290097
aF164.53502402211353
aF149.29323226633915
asS'Bacteria.Firmicutes.Clostridia.Oscillospirales.Butyricicoccaceae.UCG_009'
p139
(lp140
F208.4748903576503
aF0.0
aF0.0
aF0.0
aF0.0
aF0.0
aF238.18870720873716
aF159.0505232213764
aF88.21872815738222
asS'Bacteria.Actinobacteriota.Actinobacteria.Corynebacteriales.Corynebacteriaceae.Corynebacterium'
p141
(lp142
F0.0
aF0.0
aF0.0
aF0.0
aF0.0
aF0.0
aF0.0
aF0.0
aF373.2330806658478
asS'Bacteria.Firmicutes.Bacilli.Lactobacillales.Lactobacillaceae.Lactobacillus.Lactobacillus_intestinalis'
p143
(lp144
F1459.3242325035521
aF17203.582845132594
aF2040.0960652830745
aF6888.512765147526
aF2265.487931592484
aF2014.8148148148143
aF4918.155713661888
aF22157.383234977955
aF2877.287749133081
asS'Bacteria.Deferribacterota.Deferribacteres'
p145
(lp146
F250.94199765272722
aF233.53279880270492
aF0.0
aF135.49057265198067
aF0.0
aF0.0
aF0.0
aF87.75201281179388
aF0.0
asS'Bacteria.Firmicutes.Clostridia.Oscillospirales.Oscillospiraceae.Colidextribacter.uncultured_bacterium'
p147
(lp148
F324.29427388967827
aF0.0
aF0.0
aF0.0
aF0.0
aF0.0
aF0.0
aF0.0
aF0.0
asS'Bacteria.Deferribacterota.Deferribacteres.Deferribacterales.Deferribacteraceae.Mucispirillum.Mucispirillum_schaedleri'
p149
(lp150
F250.94199765272722
aF233.53279880270492
aF0.0
aF135.49057265198067
aF0.0
aF0.0
aF0.0
aF87.75201281179388
aF0.0
asS'Bacteria.Firmicutes.Clostridia.Lachnospirales.Lachnospiraceae.Lachnospiraceae_NK4A136_group.uncultured_bacterium'
p151
(lp152
F166.0077830625734
aF0.0
aF0.0
aF0.0
aF0.0
aF0.0
aF0.0
aF263.25603843538164
aF0.0
asS'Bacteria.Verrucomicrobiota.Verrucomicrobiae.Verrucomicrobiales'
p153
(lp154
F30043.54808820805
aF3450.2587694077047
aF152146.40486868497
aF3116.283170995556
aF135878.17466400936
aF0.0
aF0.0
aF268.74053923611876
aF40.716336072637944
asS'Bacteria.Cyanobacteria.Vampirivibrionia.Gastranaerophilales.Gastranaerophilales.Gastranaerophilales.Acinetobacter_sp_'
p155
(lp156
F0.0
aF394.24354206478137
aF0.0
aF0.0
aF0.0
aF0.0
aF0.0
aF0.0
aF0.0
asS'Bacteria.Firmicutes.Clostridia.Lachnospirales.Lachnospiraceae.Blautia'
p157
(lp158
F0.0
aF1730.1515954307922
aF43.040001377280056
aF0.0
aF63.87653942460012
aF0.0
aF710.1552196408645
aF98.72101441326812
aF0.0
asS'Bacteria.Firmicutes.Clostridia.Oscillospirales.Oscillospiraceae.NK4A214_group.unidentified'
p159
(lp160
F54.04904564827971
aF60.26652872327869
aF223.8080071618563
aF98.92962447604938
aF170.33743846560031
aF0.0
aF269.065021106166
aF109.69001601474235
aF88.21872815738222
asS'Bacteria.Actinobacteriota.Coriobacteriia.Coriobacteriales.uncultured'
p161
(lp162
F34.74581505960838
aF0.0
aF30.12800096409604
aF0.0
aF0.0
aF562.9629629629628
aF48.51992183881683
aF998.1791457341554
aF251.08407244793398
asS'Bacteria.Firmicutes.Clostridia.Oscillospirales.Oscillospiraceae.UCG_003'
p163
(lp164
F2964.9762184199153
aF0.0
aF0.0
aF0.0
aF0.0
aF814.8148148148146
aF0.0
aF0.0
aF0.0
asS'Bacteria.Firmicutes.Clostridia.Oscillospirales.Oscillospiraceae.UCG_005'
p165
(lp166
F181.45036753351044
aF135.59968962737705
aF0.0
aF653.7957791460655
aF0.0
aF385.1851851851851
aF410.21388463726953
aF603.295088081083
aF128.93506423002015
asS'Bacteria.Firmicutes.Clostridia.Oscillospirales.Oscillospiraceae.UCG_007'
p167
(lp168
F0.0
aF0.0
aF0.0
aF64.51932031046698
aF0.0
aF0.0
aF0.0
aF0.0
aF0.0
asS'Bacteria.Firmicutes.Clostridia.Oscillospirales.UCG_010.UCG_010.metagenome'
p169
(lp170
F0.0
aF0.0
aF0.0
aF221.51633306593666
aF0.0
aF0.0
aF0.0
aF0.0
aF0.0
asS'Bacteria.Firmicutes.Clostridia.Peptostreptococcales_Tissierellales.Anaerovoracaceae'
p171
(lp172
F621.5640249552166
aF0.0
aF451.9200144614406
aF630.1386950322276
aF251.2477217367605
aF0.0
aF613.1153759632308
aF427.7910624574952
aF142.5071762542328
asS'Bacteria.Firmicutes.Bacilli.RF39'
p173
(lp174
F0.0
aF0.0
aF0.0
aF32.25966015523349
aF0.0
aF0.0
aF727.7988275822523
aF0.0
aF0.0
asS'Bacteria.Bacteroidota.Bacteroidia.Bacteroidales.Rikenellaceae.Alistipes.Alistipes_finegoldii'
p175
(lp176
F386.06461177342646
aF457.02117615153
aF0.0
aF2634.538912677402
aF0.0
aF2103.703703703703
aF238.18870720873716
aF0.0
aF1431.8578185544345
asS'Bacteria.Firmicutes.Clostridia.Lachnospirales.Lachnospiraceae.Tyzzerella'
p177
(lp178
F2065.4456729878316
aF0.0
aF0.0
aF0.0
aF0.0
aF0.0
aF0.0
aF0.0
aF0.0
asS'Bacteria.Proteobacteria.Alphaproteobacteria.Rhodospirillales.uncultured.uncultured'
p179
(lp180
F0.0
aF693.0650803177049
aF0.0
aF11929.622325405346
aF0.0
aF0.0
aF0.0
aF0.0
aF0.0
asS'Bacteria.Firmicutes.Clostridia.Peptostreptococcales_Tissierellales.Peptostreptococcaceae.Romboutsia'
p181
(lp182
F2490.1167459386006
aF88935.81865801505
aF1273.9840407674897
aF12951.178230321075
aF1111.451785988042
aF1748.1481481481478
aF3158.2058215084403
aF53172.23526314636
aF4438.080631917536
asS'Bacteria.Firmicutes.Bacilli.Lactobacillales.Aerococcaceae'
p183
(lp184
F0.0
aF0.0
aF301.2800096409604
aF25.807728124186795
aF246.98928577512044
aF0.0
aF83.80713772159271
aF0.0
aF149.29323226633915
asS'Bacteria.Firmicutes.Clostridia.Lachnospirales.Lachnospiraceae.Roseburia'
p185
(lp186
F5011.1186608190765
aF3334.7479226880873
aF7191.984230143497
aF180.65409686930758
aF4931.268843579129
aF0.0
aF6638.407487947211
aF1272.4041857710113
aF0.0
asS'Bacteria.Firmicutes.Clostridia.Lachnospirales.Lachnospiraceae.Roseburia.uncultured_bacterium'
p187
(lp188
F42.467107295076914
aF0.0
aF0.0
aF0.0
aF0.0
aF0.0
aF0.0
aF0.0
aF0.0
asS'Bacteria.Firmicutes.Clostridia.Peptostreptococcales_Tissierellales.Anaerovoracaceae.Family_XIII_AD3011_group.uncultured_bacterium'
p189
(lp190
F88.79486070788809
aF0.0
aF185.07200592230424
aF55.916744269071394
aF85.16871923280016
aF0.0
aF145.55976551645048
aF0.0
aF0.0
asS'Bacteria.Proteobacteria'
p191
(lp192
F3416.6718141948245
aF39821.10885390639
aF12102.84838729115
aF18777.272854356244
aF13895.276542831343
aF2637.037037037036
aF4675.556104467803
aF4195.643112563895
aF3033.3670374115263
asS'Bacteria.Bacteroidota.Bacteroidia'
p193
(lp194
F655711.4398665762
aF772697.2536040639
aF784227.5610952821
aF870608.6537613692
aF806948.0641150117
aF790074.0740740738
aF857532.2767752778
aF599077.5069653161
aF884833.8434185437
asS'Bacteria.Firmicutes.Clostridia.Clostridia_vadinBB60_group.Clostridia_vadinBB60_group.Clostridia_vadinBB60_group.unidentified'
p195
(lp196
F872.5060226079438
aF0.0
aF0.0
aF200.00989296244768
aF0.0
aF0.0
aF0.0
aF131.62801921769082
aF162.86534429055177
asS'Bacteria.Proteobacteria.Alphaproteobacteria.Rhizobiales.Rhizobiaceae'
p197
(lp198
F0.0
aF32.644369725109286
aF0.0
aF0.0
aF38.325923654760075
aF0.0
aF74.98533375089873
aF0.0
aF0.0
asS'Bacteria.Firmicutes.Bacilli.Erysipelotrichales.Erysipelotrichaceae.Dubosiella.uncultured_bacterium'
p199
(lp200
F0.0
aF278.73269534516396
aF0.0
aF1754.9255124447022
aF0.0
aF0.0
aF560.184552139067
aF3405.87499725775
aF0.0
asS'Bacteria.Firmicutes.Clostridia.Oscillospirales.Ruminococcaceae.Harryflintia.uncultured_bacterium'
p201
(lp202
F1142.7512508493423
aF40.177685815519126
aF0.0
aF0.0
aF0.0
aF0.0
aF189.6687853699203
aF1053.0241537415266
aF0.0
asS'Bacteria.Actinobacteriota.Coriobacteriia.Coriobacteriales'
p203
(lp204
F131.261968002965
aF288.7771167990437
aF86.08000275456011
aF369.9107697800107
aF55.359667501320104
aF992.5925925925924
aF105.86164764832762
aF3049.3824452098374
aF1988.3144115471528
asS'Bacteria.Proteobacteria.Alphaproteobacteria.Rhizobiales.Rhizobiaceae.Allorhizobium_Neorhizobium_Pararhizobium_Rhizobium'
p205
(lp206
F0.0
aF32.644369725109286
aF0.0
aF0.0
aF38.325923654760075
aF0.0
aF74.98533375089873
aF0.0
aF0.0
asS'Bacteria.Bacteroidota.Bacteroidia.Bacteroidales.Bacteroidaceae.Bacteroides.Bacteroides_caecimuris'
p207
(lp208
F14461.980357032555
aF95941.80262209619
aF0.0
aF12912.466638134794
aF0.0
aF9733.33333333333
aF14657.427297308028
aF4645.372178224338
aF6460.3253235252205
asS'Bacteria.Firmicutes.Bacilli.Acholeplasmatales.Acholeplasmataceae.Anaeroplasma.uncultured_bacterium'
p209
(lp210
F0.0
aF1335.908053366011
aF0.0
aF0.0
aF0.0
aF0.0
aF0.0
aF0.0
aF0.0
asS'Bacteria.Firmicutes.Bacilli.Erysipelotrichales.Erysipelotrichaceae.uncultured.uncultured_Allobaculum'
p211
(lp212
F50.188399530545446
aF0.0
aF0.0
aF81.72447239325818
aF0.0
aF903.7037037037035
aF110.27254963367461
aF499.0895728670777
aF739.6801053195894
asS'Bacteria.Firmicutes.Clostridia.Oscillospirales.Oscillospiraceae.UCG_005.uncultured_Clostridiales'
p213
(lp214
F46.32775341281118
aF0.0
aF0.0
aF0.0
aF0.0
aF0.0
aF0.0
aF0.0
aF0.0
asS'Bacteria.Firmicutes.Clostridia.Lachnospirales.Lachnospiraceae.Tyzzerella._Clostridium__colinum'
p215
(lp216
F2065.4456729878316
aF0.0
aF0.0
aF0.0
aF0.0
aF0.0
aF0.0
aF0.0
aF0.0
asS'Bacteria.Firmicutes.Clostridia.Clostridia_UCG_014.Clostridia_UCG_014'
p217
(lp218
F5682.871085304838
aF35.15547508857923
aF0.0
aF9611.228082249232
aF0.0
aF488.88888888888874
aF0.0
aF394.88405765307243
aF1574.364994808667
asS'Bacteria.Firmicutes.Clostridia.Oscillospirales.Oscillospiraceae.Flavonifractor'
p219
(lp220
F0.0
aF236.04390416617485
aF0.0
aF0.0
aF0.0
aF0.0
aF0.0
aF0.0
aF0.0
asS'Bacteria.Proteobacteria.Gammaproteobacteria.Pasteurellales.Pasteurellaceae.Haemophilus'
p221
(lp222
F104.23744517882515
aF0.0
aF0.0
aF0.0
aF0.0
aF0.0
aF0.0
aF0.0
aF0.0
asS'Bacteria.Deferribacterota.Deferribacteres.Deferribacterales.Deferribacteraceae.Mucispirillum'
p223
(lp224
F250.94199765272722
aF233.53279880270492
aF0.0
aF135.49057265198067
aF0.0
aF0.0
aF0.0
aF87.75201281179388
aF0.0
asS'Bacteria.Firmicutes.Bacilli.RF39.RF39'
p225
(lp226
F0.0
aF0.0
aF0.0
aF32.25966015523349
aF0.0
aF0.0
aF727.7988275822523
aF0.0
aF0.0
asS'Bacteria.Proteobacteria.Gammaproteobacteria.Burkholderiales.Alcaligenaceae.Achromobacter'
p227
(lp228
F0.0
aF0.0
aF0.0
aF0.0
aF0.0
aF0.0
aF79.39623573624571
aF0.0
aF0.0
asS'Bacteria.Firmicutes.Bacilli.Erysipelotrichales.Erysipelotrichaceae.Turicibacter.uncultured_bacterium'
p229
(lp230
F0.0
aF881.3979825779508
aF0.0
aF1008.652040853634
aF0.0
aF0.0
aF0.0
aF213.8955312287476
aF0.0
asS'Bacteria.Firmicutes.Clostridia.Peptostreptococcales_Tissierellales.Anaerovoracaceae.Family_XIII_UCG_001'
p231
(lp232
F154.4258447093706
aF0.0
aF0.0
aF0.0
aF0.0
aF0.0
aF0.0
aF148.0815216199022
aF0.0
asS'Bacteria.Firmicutes.Clostridia.Oscillospirales.Butyricicoccaceae'
p233
(lp234
F1575.1436160355802
aF0.0
aF0.0
aF79.57382838290928
aF0.0
aF0.0
aF533.719140226985
aF542.9655792729747
aF325.73068858110355
asS'Bacteria.Firmicutes.Clostridia.Oscillospirales._Eubacterium__coprostanoligenes_group._Eubacterium__coprostanoligenes_group.uncultured_Clostridium'
p235
(lp236
F0.0
aF0.0
aF0.0
aF3342.1007920821903
aF0.0
aF0.0
aF0.0
aF0.0
aF305.37252054478455
asS'Bacteria.Firmicutes.Clostridia.Oscillospirales.Butyricicoccaceae.Butyricicoccus.uncultured_bacterium'
p237
(lp238
F1366.6687256779298
aF0.0
aF0.0
aF51.61545624837359
aF0.0
aF0.0
aF295.53043301824795
aF383.91505605159824
aF237.51196042372132
asS'Bacteria.Firmicutes.Clostridia.Lachnospirales.Lachnospiraceae.Lachnospiraceae_NK4A136_group.Trichinella_pseudospiralis'
p239
(lp240
F0.0
aF0.0
aF0.0
aF432.2794460801289
aF0.0
aF0.0
aF0.0
aF71.29851040958252
aF0.0
asS'Bacteria.Firmicutes.Clostridia.Oscillospirales.Oscillospiraceae.uncultured'
p241
(lp242
F5505.281363889061
aF0.0
aF4093.1041309793336
aF1077.472649184799
aF2393.241010441684
aF2607.4074074074065
aF1195.3544380290327
aF31201.325055393463
aF0.0
asS'Bacteria.Firmicutes.Clostridia.Oscillospirales.Ruminococcaceae.Paludicola'
p243
(lp244
F0.0
aF0.0
aF0.0
aF0.0
aF0.0
aF0.0
aF0.0
aF279.709540837593
aF0.0
asS'Bacteria.Firmicutes.Clostridia.Clostridia_vadinBB60_group.Clostridia_vadinBB60_group.Clostridia_vadinBB60_group.uncultured_bacterium'
p245
(lp246
F405.3678423620978
aF0.0
aF0.0
aF1400.0692507371336
aF0.0
aF237.03703703703698
aF0.0
aF82.26751201105677
aF101.79084018159486
asS'Bacteria.Firmicutes.Clostridia.Christensenellales.Christensenellaceae.uncultured.uncultured_bacterium'
p247
(lp248
F27.024522824139854
aF0.0
aF0.0
aF27.958372134535697
aF0.0
aF0.0
aF0.0
aF115.17451681547946
aF0.0
asS'Bacteria.Patescibacteria'
p249
(lp250
F0.0
aF37.666580452049175
aF0.0
aF1043.0623450192165
aF0.0
aF0.0
aF0.0
aF948.8186385275213
aF0.0
asS'Bacteria.Firmicutes.Clostridia.Oscillospirales.Oscillospiraceae.Papillibacter.uncultured_bacterium'
p251
(lp252
F0.0
aF0.0
aF0.0
aF275.28243332465917
aF0.0
aF1022.2222222222221
aF0.0
aF0.0
aF909.3315056222474
asS'Bacteria.Firmicutes.Clostridia.Oscillospirales.UCG_010.UCG_010'
p253
(lp254
F0.0
aF0.0
aF0.0
aF662.3983551874611
aF0.0
aF0.0
aF0.0
aF87.75201281179388
aF0.0
asS'Bacteria.Bacteroidota.Bacteroidia.Bacteroidales.Bacteroidaceae'
p255
(lp256
F113993.29791833964
aF388141.55603154947
aF66849.73013919138
aF74947.79311664881
aF70383.42957398605
aF239851.85185185182
aF340940.6689573951
aF37535.92348024483
aF290802.8582867923
asS'Bacteria.Bacteroidota.Bacteroidia.Bacteroidales.Bacteroidaceae.Bacteroides.Bacteroides_fragilis'
p257
(lp258
F32468.03385014517
aF286795.8546672659
aF6180.544197777416
aF26085.161201521805
aF5029.21287069685
aF229496.29629629626
aF306575.33158955676
aF30740.626988131546
aF282299.9301036231
asS'Bacteria.Firmicutes.Clostridia.Oscillospirales.Ruminococcaceae.Incertae_Sedis.uncultured_Clostridiales'
p259
(lp260
F0.0
aF0.0
aF0.0
aF0.0
aF0.0
aF370.37037037037027
aF0.0
aF329.07004804422706
aF0.0
asS'Bacteria.Proteobacteria.Alphaproteobacteria'
p261
(lp262
F0.0
aF745.7982929505738
aF0.0
aF11929.622325405346
aF38.325923654760075
aF0.0
aF74.98533375089873
aF126.1435184169537
aF0.0
asS'Bacteria.Firmicutes.Clostridia.Oscillospirales.Ruminococcaceae.Candidatus_Soleaferrea.Ruminococcaceae_bacterium'
p263
(lp264
F0.0
aF0.0
aF0.0
aF25.807728124186795
aF0.0
aF0.0
aF0.0
aF0.0
aF0.0
asS'Bacteria.Firmicutes.Clostridia.Oscillospirales.Ruminococcaceae.Ruminococcus.uncultured_Ruminococcus'
p265
(lp266
F463.2775341281118
aF0.0
aF1515.008048480258
aF0.0
aF1166.811453489362
aF1614.8148148148143
aF158.79247147249143
aF2007.327293069785
aF570.0287050169312
asS'Bacteria.Firmicutes.Clostridia.uncultured'
p267
(lp268
F0.0
aF128.0663735369672
aF0.0
aF0.0
aF0.0
aF0.0
aF0.0
aF1294.3421889739598
aF0.0
asS'Bacteria.Firmicutes.Clostridia.Oscillospirales.UCG_010.UCG_010.uncultured_rumen'
p269
(lp270
F0.0
aF0.0
aF0.0
aF62.368676300118096
aF0.0
aF0.0
aF0.0
aF0.0
aF0.0
asS'Bacteria.Proteobacteria.Gammaproteobacteria.Pasteurellales.Pasteurellaceae.Rodentibacter'
p271
(lp272
F0.0
aF47.71100190592896
aF0.0
aF51.61545624837359
aF0.0
aF0.0
aF0.0
aF0.0
aF0.0
asS'Bacteria.Proteobacteria.Alphaproteobacteria.Caulobacterales.Caulobacteraceae'
p273
(lp274
F0.0
aF0.0
aF0.0
aF0.0
aF0.0
aF0.0
aF0.0
aF49.36050720663406
aF0.0
asS'Bacteria.Proteobacteria.Gammaproteobacteria.Pseudomonadales.Moraxellaceae.Acinetobacter.Acinetobacter_ursingii'
p275
(lp276
F0.0
aF27.6221589981694
aF0.0
aF0.0
aF0.0
aF0.0
aF0.0
aF82.26751201105677
aF0.0
asS'Bacteria.Firmicutes.Clostridia.Lachnospirales.Lachnospiraceae.Marvinbryantia'
p277
(lp278
F0.0
aF233.53279880270492
aF2121.8720678999066
aF38.71159218628019
aF2520.994089290885
aF162.9629629629629
aF0.0
aF0.0
aF0.0
asS'Bacteria.Campilobacterota.Campylobacteria'
p279
(lp280
F0.0
aF17.577737544289615
aF0.0
aF0.0
aF0.0
aF0.0
aF0.0
aF38.39150560515982
aF0.0
asS'Bacteria.Patescibacteria.Saccharimonadia.Saccharimonadales.Saccharimonadaceae'
p281
(lp282
F0.0
aF37.666580452049175
aF0.0
aF1043.0623450192165
aF0.0
aF0.0
aF0.0
aF948.8186385275213
aF0.0
asS'Bacteria.Firmicutes.Clostridia.Oscillospirales.UCG_010.UCG_010.uncultured_bacterium'
p283
(lp284
F0.0
aF0.0
aF0.0
aF746.2734715910682
aF0.0
aF0.0
aF0.0
aF202.92652962727334
aF115.3629522058075
asS'Bacteria.Firmicutes'
p285
(lp286
F310206.7762060661
aF182218.36070019662
aF51428.49764571195
aF101112.52814655351
aF43223.1250106461
aF205481.48148148143
aF137686.30547260612
aF386054.0113638857
aF109289.43207497236
asS'Bacteria.Proteobacteria.Gammaproteobacteria.Burkholderiales.Alcaligenaceae.Alcaligenes'
p287
(lp288
F0.0
aF0.0
aF0.0
aF0.0
aF34.067487693120064
aF0.0
aF0.0
aF0.0
aF0.0
asS'Bacteria.Firmicutes.Clostridia.Oscillospirales'
p289
(lp290
F93794.39743035397
aF3362.3700816862565
aF11160.27235712872
aF25108.76882082341
aF7988.825864036654
aF57703.703703703686
aF30611.65977830807
aF80161.46370357371
aF37832.26226749276
asS'Bacteria.Actinobacteriota.Coriobacteriia.Coriobacteriales.Atopobiaceae'
p291
(lp292
F0.0
aF80.35537163103825
aF0.0
aF90.32704843465379
aF0.0
aF429.6296296296295
aF0.0
aF1595.989733014501
aF1737.230339099219
asS'Bacteria.Firmicutes.Clostridia.Oscillospirales.Oscillospiraceae.Intestinimonas.uncultured_bacterium'
p293
(lp294
F0.0
aF0.0
aF0.0
aF0.0
aF89.42715519444016
aF0.0
aF0.0
aF0.0
aF0.0
asS'Bacteria.Firmicutes.Bacilli.Erysipelotrichales.Erysipelatoclostridiaceae'
p295
(lp296
F606.1214404842796
aF1119.9529921075957
aF223.8080071618563
aF574.2219507631562
aF140.52838673412026
aF0.0
aF348.46125684241173
aF137.11252001842794
aF291.8004085205719
asS'Bacteria.Firmicutes.Bacilli.Acholeplasmatales.Acholeplasmataceae.Anaeroplasma'
p297
(lp298
F0.0
aF1335.908053366011
aF0.0
aF0.0
aF0.0
aF0.0
aF0.0
aF0.0
aF0.0
asS'Bacteria.Firmicutes.Clostridia.Lachnospirales.Lachnospiraceae.Lachnospiraceae_UCG_010.uncultured_bacterium'
p299
(lp300
F220.0568287108531
aF0.0
aF0.0
aF0.0
aF0.0
aF0.0
aF119.09435360436858
aF0.0
aF0.0
asS'Bacteria.Firmicutes.Clostridia.Lachnospirales.Lachnospiraceae.uncultured'
p301
(lp302
F301.13039718327263
aF0.0
aF0.0
aF0.0
aF0.0
aF0.0
aF0.0
aF0.0
aF0.0
asS'Bacteria.Proteobacteria.Gammaproteobacteria.Burkholderiales.Sutterellaceae.Parasutterella'
p303
(lp304
F617.7033788374824
aF37330.092333344204
aF4966.816158938118
aF6428.274946932861
aF5697.78731667433
aF903.7037037037035
aF3489.023470409464
aF257.7715376346445
aF1302.9227543244142
asS'Bacteria.Firmicutes.Bacilli.Erysipelotrichales.Erysipelotrichaceae.Dubosiella'
p305
(lp306
F0.0
aF278.73269534516396
aF0.0
aF1754.9255124447022
aF0.0
aF0.0
aF560.184552139067
aF3405.87499725775
aF0.0
asS'Bacteria.Proteobacteria.Alphaproteobacteria.Caulobacterales'
p307
(lp308
F0.0
aF0.0
aF0.0
aF0.0
aF0.0
aF0.0
aF0.0
aF49.36050720663406
aF0.0
asS'Bacteria.Bacteroidota'
p309
(lp310
F655711.4398665762
aF772697.2536040639
aF784227.5610952821
aF870608.6537613692
aF806948.0641150117
aF790074.0740740738
aF857532.2767752778
aF599077.5069653161
aF884833.8434185437
asS'Bacteria.Firmicutes.Clostridia.Lachnospirales.Lachnospiraceae._Eubacterium__hallii_group'
p311
(lp312
F0.0
aF60.26652872327869
aF847.888027132417
aF0.0
aF770.7769090568414
aF0.0
aF167.61427544318542
aF0.0
aF352.87491262952886
asS'Bacteria.Verrucomicrobiota.Verrucomicrobiae'
p313
(lp314
F30043.54808820805
aF3450.2587694077047
aF152146.40486868497
aF3116.283170995556
aF135878.17466400936
aF0.0
aF0.0
aF268.74053923611876
aF40.716336072637944
asS'Bacteria.Actinobacteriota.Actinobacteria.Bifidobacteriales.Bifidobacteriaceae'
p315
(lp316
F0.0
aF718.1761339524043
aF0.0
aF86.02576041395598
aF0.0
aF0.0
aF0.0
aF6115.2183928218865
aF0.0
asS'Bacteria.Firmicutes.Bacilli.Erysipelotrichales.Erysipelotrichaceae.Faecalitalea'
p317
(lp318
F0.0
aF0.0
aF0.0
aF0.0
aF68.13497538624013
aF0.0
aF0.0
aF0.0
aF0.0
asS'Bacteria.Campilobacterota.Campylobacteria.Campylobacterales.Helicobacteraceae'
p319
(lp320
F0.0
aF17.577737544289615
aF0.0
aF0.0
aF0.0
aF0.0
aF0.0
aF38.39150560515982
aF0.0
asS'Bacteria.Firmicutes.Clostridia.Oscillospirales._Eubacterium__coprostanoligenes_group._Eubacterium__coprostanoligenes_group'
p321
(lp322
F0.0
aF0.0
aF0.0
aF0.0
aF0.0
aF19629.629629629624
aF0.0
aF16299.936379790712
aF183.22351232687075
asS'Bacteria.Bacteroidota.Bacteroidia.Bacteroidales.Prevotellaceae.Prevotellaceae_UCG_001.uncultured_bacterium'
p323
(lp324
F65754.52467725
aF4145.83495508888
aF77695.81048626595
aF13512.496317022138
aF85130.3933091454
aF62488.88888888887
aF72021.20761674555
aF25003.839150560518
aF65607.58952504394
asS'Bacteria.Proteobacteria.Gammaproteobacteria.Enterobacterales.Enterobacteriaceae.Escherichia_Shigella'
p325
(lp326
F2486.2560998208664
aF1127.4863081980054
aF6765.888216508424
aF270.98114530396134
aF8005.859607883214
aF1733.3333333333328
aF630.7589839046187
aF3109.7119540179456
aF1445.429930578647
asS'Bacteria.Bacteroidota.Bacteroidia.Bacteroidales.Bacteroidaceae.Bacteroides'
p327
(lp328
F66989.93143492496
aF5403.898742187323
aF60669.18594141396
aF35950.16527699221
aF65354.216703289196
aF622.2222222222221
aF19707.910070530324
aF2149.92431388895
aF2042.6028596440037
asS'Bacteria.Firmicutes.Bacilli.Erysipelotrichales.Erysipelotrichaceae._Clostridium__innocuum_group'
p329
(lp330
F0.0
aF3236.8148135127594
aF0.0
aF0.0
aF0.0
aF0.0
aF0.0
aF0.0
aF0.0
asS'Bacteria.Firmicutes.Clostridia.Lachnospirales.Lachnospiraceae.Lachnospiraceae_UCG_006.uncultured_bacterium'
p331
(lp332
F397.6465501266293
aF0.0
aF0.0
aF0.0
aF0.0
aF0.0
aF0.0
aF910.4271329223615
aF420.73547275059207
asS'Bacteria.Actinobacteriota.Actinobacteria'
p333
(lp334
F0.0
aF718.1761339524043
aF8.60800027545601
aF86.02576041395598
aF0.0
aF0.0
aF0.0
aF6115.2183928218865
aF373.2330806658478
asS'Bacteria.Deferribacterota.Deferribacteres.Deferribacterales.Deferribacteraceae'
p335
(lp336
F250.94199765272722
aF233.53279880270492
aF0.0
aF135.49057265198067
aF0.0
aF0.0
aF0.0
aF87.75201281179388
aF0.0
asS'Bacteria.Firmicutes.Clostridia.uncultured.uncultured'
p337
(lp338
F0.0
aF128.0663735369672
aF0.0
aF0.0
aF0.0
aF0.0
aF0.0
aF1294.3421889739598
aF0.0
asS'Bacteria.Firmicutes.Clostridia.Oscillospirales.Ruminococcaceae'
p339
(lp340
F3389.6472913706843
aF0.0
aF279.76000895232033
aF434.43009009047773
aF251.2477217367605
aF0.0
aF0.0
aF3713.0070420990287
aF162.86534429055177
asS'Bacteria.Firmicutes.Clostridia.Oscillospirales.Ruminococcaceae.DTU089'
p341
(lp342
F0.0
aF0.0
aF0.0
aF0.0
aF0.0
aF0.0
aF70.57443176555175
aF0.0
aF0.0
asS'Bacteria.Firmicutes.Clostridia.Oscillospirales.Oscillospiraceae.Oscillibacter'
p343
(lp344
F389.92525789116075
aF0.0
aF0.0
aF339.80175363512615
aF0.0
aF0.0
aF0.0
aF0.0
aF0.0
asS'Bacteria.Firmicutes.Clostridia.Lachnospirales.Lachnospiraceae.Lachnospiraceae_FCS020_group'
p345
(lp346
F0.0
aF0.0
aF0.0
aF0.0
aF0.0
aF0.0
aF0.0
aF0.0
aF169.6514003026581
asS'Bacteria.Firmicutes.Clostridia.Lachnospirales.Lachnospiraceae'
p347
(lp348
F74232.50355179445
aF449.48786006112016
aF3378.6401081164845
aF12267.273435030123
aF2682.8146558332046
aF2459.2592592592587
aF37642.63754295116
aF42965.57927297458
aF1832.2351232687074
asS'Bacteria.Firmicutes.Clostridia.Peptostreptococcales_Tissierellales.Peptostreptococcaceae'
p349
(lp350
F2490.1167459386006
aF104838.64892487021
aF1273.9840407674897
aF12951.178230321075
aF1111.451785988042
aF1748.1481481481478
aF3158.2058215084403
aF53172.23526314636
aF4438.080631917536
asS'Bacteria.Firmicutes.Bacilli.Erysipelotrichales.Erysipelotrichaceae.Holdemania'
p351
(lp352
F0.0
aF0.0
aF404.5760129464325
aF0.0
aF472.6863917420409
aF0.0
aF0.0
aF0.0
aF0.0
asS'Bacteria.Firmicutes.Clostridia.Clostridiales.Clostridiaceae'
p353
(lp354
F0.0
aF22.599948271229508
aF0.0
aF0.0
aF0.0
aF0.0
aF0.0
aF290.6785424390672
aF0.0
asS'Bacteria.Proteobacteria.Gammaproteobacteria.Enterobacterales.Morganellaceae'
p355
(lp356
F0.0
aF0.0
aF215.20000688640027
aF0.0
aF119.23620692592023
aF0.0
aF0.0
aF0.0
aF0.0
asS'Bacteria.Patescibacteria.Saccharimonadia.Saccharimonadales'
p357
(lp358
F0.0
aF37.666580452049175
aF0.0
aF1043.0623450192165
aF0.0
aF0.0
aF0.0
aF948.8186385275213
aF0.0
asS'Bacteria.Firmicutes.Bacilli.RF39.RF39.RF39.uncultured_bacterium'
p359
(lp360
F0.0
aF0.0
aF0.0
aF32.25966015523349
aF0.0
aF0.0
aF0.0
aF0.0
aF0.0
asS'Bacteria.Firmicutes.Clostridia.Clostridia_UCG_014.Clostridia_UCG_014.Clostridia_UCG_014.uncultured_Clostridiales'
p361
(lp362
F0.0
aF0.0
aF0.0
aF0.0
aF0.0
aF162.9629629629629
aF0.0
aF0.0
aF0.0
asS'Bacteria.Firmicutes.Clostridia.Oscillospirales.Oscillospiraceae.UCG_005.uncultured_bacterium'
p363
(lp364
F154.4258447093706
aF1715.0849632499726
aF0.0
aF0.0
aF0.0
aF0.0
aF0.0
aF0.0
aF0.0
asS'Bacteria.Firmicutes.Bacilli.Erysipelotrichales.Erysipelotrichaceae.Turicibacter'
p365
(lp366
F0.0
aF881.3979825779508
aF0.0
aF1008.652040853634
aF0.0
aF0.0
aF0.0
aF213.8955312287476
aF0.0
asS'Bacteria.Firmicutes.Clostridia.Christensenellales.Christensenellaceae.uncultured'
p367
(lp368
F27.024522824139854
aF0.0
aF0.0
aF27.958372134535697
aF0.0
aF0.0
aF0.0
aF115.17451681547946
aF0.0
asS'Bacteria.Campilobacterota.Campylobacteria.Campylobacterales.Helicobacteraceae.Helicobacter'
p369
(lp370
F0.0
aF17.577737544289615
aF0.0
aF0.0
aF0.0
aF0.0
aF0.0
aF38.39150560515982
aF0.0
asS'Bacteria.Bacteroidota.Bacteroidia.Bacteroidales.Rikenellaceae.Alistipes.uncultured_bacterium'
p371
(lp372
F24279.603434430792
aF23162.435872646773
aF0.0
aF21254.814754278177
aF0.0
aF0.0
aF10414.13958740423
aF148.0815216199022
aF0.0
asS'Bacteria.Cyanobacteria.Vampirivibrionia.Gastranaerophilales.Gastranaerophilales.Gastranaerophilales.uncultured_bacterium'
p373
(lp374
F239.36005929952444
aF0.0
aF0.0
aF2974.340666312528
aF0.0
aF814.8148148148146
aF0.0
aF164.53502402211353
aF441.09364078691107
asS'Bacteria.Bacteroidota.Bacteroidia.Bacteroidales.Rikenellaceae.Alistipes.Alistipes_timonensis'
p375
(lp376
F841.6208536660697
aF0.0
aF0.0
aF686.055439301299
aF0.0
aF414.8148148148147
aF763.0860434650283
aF296.1630432398044
aF0.0
asS'Bacteria.Firmicutes.Clostridia.Oscillospirales.Oscillospiraceae.Intestinimonas'
p377
(lp378
F0.0
aF0.0
aF0.0
aF0.0
aF89.42715519444016
aF0.0
aF0.0
aF0.0
aF0.0
asS'Bacteria.Bacteroidota.Bacteroidia.Bacteroidales.Prevotellaceae.Prevotellaceae_UCG_001'
p379
(lp380
F65754.52467725
aF4145.83495508888
aF77695.81048626595
aF13512.496317022138
aF85130.3933091454
aF62488.88888888887
aF72021.20761674555
aF25003.839150560518
aF65607.58952504394
asS'Bacteria.Proteobacteria.Gammaproteobacteria'
p381
(lp382
F3416.6718141948245
aF39075.310560955826
aF12102.84838729115
aF6847.650528950897
aF13856.950619176585
aF2637.037037037036
aF4600.570770716904
aF4069.499594146941
aF3033.3670374115263
asS'Bacteria.Bacteroidota.Bacteroidia.Bacteroidales.Rikenellaceae'
p383
(lp384
F26074.803879177223
aF24033.789433770842
aF0.0
aF25605.567587214
aF0.0
aF2918.518518518518
aF11763.875594920406
aF444.24456485970654
aF1431.8578185544345
asS'Bacteria.Firmicutes.Clostridia.Oscillospirales.Butyricicoccaceae.UCG_009.uncultured_bacterium'
p385
(lp386
F208.4748903576503
aF0.0
aF0.0
aF0.0
aF0.0
aF0.0
aF238.18870720873716
aF159.0505232213764
aF88.21872815738222
asS'Bacteria.Firmicutes.Clostridia.Clostridia_vadinBB60_group.Clostridia_vadinBB60_group.Clostridia_vadinBB60_group'
p387
(lp388
F1077.1202668478597
aF188.3329022602459
aF0.0
aF593.5777468562962
aF0.0
aF0.0
aF0.0
aF0.0
aF0.0
asS'Bacteria.Bacteroidota.Bacteroidia.Bacteroidales.Rikenellaceae.Alistipes'
p389
(lp390
F567.514979306937
aF414.3323849725409
aF0.0
aF1030.158480957123
aF0.0
aF399.99999999999994
aF348.46125684241173
aF0.0
aF0.0
asS'Bacteria.Firmicutes.Clostridia.Lachnospirales.Lachnospiraceae.Lachnospiraceae_NK4A136_group'
p391
(lp392
F94300.14207177715
aF0.0
aF426.09601363507255
aF3288.334691823468
aF323.6411330846406
aF9555.555555555553
aF28741.437336520947
aF62029.7040563368
aF11353.07170825388
asS'Bacteria.Firmicutes.Clostridia.Lachnospirales.Lachnospiraceae.Anaerostipes'
p393
(lp394
F0.0
aF457.02117615153
aF0.0
aF0.0
aF0.0
aF0.0
aF0.0
aF0.0
aF0.0
asS'Bacteria.Firmicutes.Clostridia.Christensenellales.Christensenellaceae'
p395
(lp396
F27.024522824139854
aF80.35537163103825
aF279.76000895232033
aF309.69273749024154
aF144.78682269576026
aF0.0
aF0.0
aF263.25603843538164
aF74.64661613316957
asS'Bacteria.Actinobacteriota.Actinobacteria.Bifidobacteriales.Bifidobacteriaceae.Bifidobacterium'
p397
(lp398
F0.0
aF718.1761339524043
aF0.0
aF86.02576041395598
aF0.0
aF0.0
aF0.0
aF6115.2183928218865
aF0.0
asS'Bacteria.Firmicutes.Bacilli.Erysipelotrichales.Erysipelotrichaceae.Allobaculum'
p399
(lp400
F0.0
aF0.0
aF0.0
aF0.0
aF0.0
aF0.0
aF216.13419728200222
aF0.0
aF149.29323226633915
asS'Bacteria.Actinobacteriota.Coriobacteriia.Coriobacteriales.uncultured.uncultured'
p401
(lp402
F34.74581505960838
aF0.0
aF30.12800096409604
aF0.0
aF0.0
aF562.9629629629628
aF48.51992183881683
aF998.1791457341554
aF251.08407244793398
asS'Bacteria.Firmicutes.Bacilli.Erysipelotrichales.Erysipelatoclostridiaceae.Candidatus_Stoquefichus'
p403
(lp404
F196.89295200444752
aF0.0
aF0.0
aF0.0
aF0.0
aF0.0
aF0.0
aF0.0
aF0.0
asS'Bacteria.Firmicutes.Bacilli.Staphylococcales.Staphylococcaceae'
p405
(lp406
F0.0
aF0.0
aF0.0
aF0.0
aF0.0
aF414.8148148148147
aF273.475923091513
aF466.18256806265504
aF1642.2255549297304
asS'Bacteria.Firmicutes.Bacilli.Erysipelotrichales'
p407
(lp408
F656.309840014825
aF6433.451941210001
aF628.3840201082888
aF4385.163137101406
aF681.3497538624013
aF1288.8888888888887
aF1235.0525558971556
aF5138.977250290678
aF1574.3649948086672
asS'Bacteria.Bacteroidota.Bacteroidia.Bacteroidales.Prevotellaceae.Prevotellaceae_NK3B31_group'
p409
(lp410
F29916.146766322818
aF512.2654941478688
aF138967.55644696183
aF188768.47672035397
aF128498.30514248725
aF45422.22222222221
aF9183.497933492421
aF6049.40438321304
aF28779.663547342923
asS'Bacteria.Bacteroidota.Bacteroidia.Bacteroidales.Tannerellaceae.Parabacteroides'
p411
(lp412
F6613.286799678795
aF73813.94215919905
aF22867.152731748894
aF8148.790155211981
aF25205.68245694721
aF2014.8148148148143
aF27585.781016360037
aF1656.3192418226095
aF2327.6172121524687
asS'Bacteria.Actinobacteriota.Coriobacteriia.Coriobacteriales.Eggerthellaceae.Enterorhabdus.uncultured_bacterium'
p413
(lp414
F96.51615294335662
aF47.71100190592896
aF55.952001790464074
aF141.94250468302738
aF0.0
aF0.0
aF0.0
aF0.0
aF0.0
asS'Bacteria.Actinobacteriota.Coriobacteriia.Coriobacteriales.Eggerthellaceae.Parvibacter.uncultured_bacterium'
p415
(lp416
F0.0
aF0.0
aF0.0
aF0.0
aF0.0
aF0.0
aF57.34172580951079
aF455.21356646118073
aF0.0
asS'Bacteria.Firmicutes.Bacilli.Erysipelotrichales.Erysipelatoclostridiaceae.Erysipelatoclostridiaceae'
p417
(lp418
F0.0
aF17.577737544289615
aF0.0
aF0.0
aF0.0
aF0.0
aF0.0
aF0.0
aF0.0
asS'Bacteria.Firmicutes.Clostridia.Lachnospirales.Lachnospiraceae._Eubacterium__xylanophilum_group.uncultured_bacterium'
p419
(lp420
F11825.159058620053
aF0.0
aF7910.752253144074
aF152.69572473477186
aF4599.110838571209
aF2844.444444444444
aF3233.1911552593397
aF25760.70026106224
aF2612.6315646609346
asS'Bacteria.Proteobacteria.Gammaproteobacteria.Burkholderiales.Sutterellaceae'
p421
(lp422
F617.7033788374824
aF37330.092333344204
aF4966.816158938118
aF6428.274946932861
aF5697.78731667433
aF903.7037037037035
aF3489.023470409464
aF257.7715376346445
aF1302.9227543244142
asS'Bacteria.Firmicutes.Bacilli.Erysipelotrichales.Erysipelotrichaceae.Allobaculum.uncultured_bacterium'
p423
(lp424
F0.0
aF816.1092431277323
aF0.0
aF769.9305557049062
aF0.0
aF0.0
aF0.0
aF394.8840576530725
aF291.8004085205719
asS'Bacteria.Campilobacterota.Campylobacteria.Campylobacterales'
p425
(lp426
F0.0
aF17.577737544289615
aF0.0
aF0.0
aF0.0
aF0.0
aF0.0
aF38.39150560515982
aF0.0
asS'Bacteria.Firmicutes.Clostridia.Peptostreptococcales_Tissierellales.Anaerovoracaceae.Anaerovorax'
p427
(lp428
F293.40910494780417
aF0.0
aF206.59200661094425
aF109.68284452779389
aF93.68559115608016
aF0.0
aF0.0
aF0.0
aF0.0
asS'Bacteria.Firmicutes.Clostridia.Oscillospirales.Ruminococcaceae._Eubacterium__siraeum_group.uncultured_bacterium'
p429
(lp430
F0.0
aF0.0
aF0.0
aF720.4657434668813
aF0.0
aF0.0
aF0.0
aF0.0
aF0.0
asS'Bacteria.Firmicutes.Bacilli.Staphylococcales'
p431
(lp432
F0.0
aF0.0
aF0.0
aF0.0
aF0.0
aF414.8148148148147
aF273.475923091513
aF466.18256806265504
aF1642.2255549297304
asS'Bacteria.Firmicutes.Clostridia.Christensenellales.Christensenellaceae.Christensenellaceae_R_7_group'
p433
(lp434
F0.0
aF80.35537163103825
aF279.76000895232033
aF172.05152082791196
aF144.78682269576026
aF0.0
aF0.0
aF148.0815216199022
aF74.64661613316957
asS'Bacteria.Deferribacterota.Deferribacteres.Deferribacterales'
p435
(lp436
F250.94199765272722
aF233.53279880270492
aF0.0
aF135.49057265198067
aF0.0
aF0.0
aF0.0
aF87.75201281179388
aF0.0
asS'Bacteria.Proteobacteria.Gammaproteobacteria.Pseudomonadales.Moraxellaceae'
p437
(lp438
F0.0
aF27.6221589981694
aF0.0
aF0.0
aF0.0
aF0.0
aF0.0
aF82.26751201105677
aF0.0
asS'Bacteria.Proteobacteria.Alphaproteobacteria.Sphingomonadales.Sphingomonadaceae'
p439
(lp440
F0.0
aF20.088842907759563
aF0.0
aF0.0
aF0.0
aF0.0
aF0.0
aF0.0
aF0.0
asS'Bacteria.Firmicutes.Clostridia.Lachnospirales.Defluviitaleaceae'
p441
(lp442
F0.0
aF50.222107269398904
aF0.0
aF133.33992864163176
aF0.0
aF518.5185185185184
aF0.0
aF43.87600640589694
aF386.80519269006044
asS'Bacteria.Firmicutes.Clostridia.Lachnospirales.Lachnospiraceae.Acetatifactor'
p443
(lp444
F316.5729816542097
aF0.0
aF0.0
aF227.96826509698337
aF0.0
aF0.0
aF0.0
aF0.0
aF0.0
asS'Bacteria.Proteobacteria.Alphaproteobacteria.Rickettsiales.Mitochondria.Mitochondria'
p445
(lp446
F0.0
aF0.0
aF0.0
aF0.0
aF0.0
aF0.0
aF0.0
aF76.78301121031964
aF0.0
asS'Bacteria.Actinobacteriota.Coriobacteriia.Coriobacteriales.uncultured.uncultured.uncultured_bacterium'
p447
(lp448
F34.74581505960838
aF0.0
aF30.12800096409604
aF0.0
aF0.0
aF562.9629629629628
aF48.51992183881683
aF998.1791457341554
aF251.08407244793398
asS'Bacteria.Firmicutes.Clostridia.Oscillospirales._Eubacterium__coprostanoligenes_group._Eubacterium__coprostanoligenes_group.uncultured_bacterium'
p449
(lp450
F21009.63617270987
aF0.0
aF0.0
aF705.4112353944391
aF0.0
aF0.0
aF52.93082382416381
aF0.0
aF2273.3287640556186
asS'Bacteria.Firmicutes.Bacilli.Acholeplasmatales.Acholeplasmataceae'
p451
(lp452
F0.0
aF1335.908053366011
aF0.0
aF0.0
aF0.0
aF0.0
aF0.0
aF0.0
aF0.0
asS'Bacteria.Firmicutes.Clostridia.Peptococcales.Peptococcaceae'
p453
(lp454
F1799.0610908641672
aF163.22184862554644
aF215.20000688640027
aF600.029678887343
aF225.69710596692042
aF0.0
aF1133.601810234175
aF614.2640896825573
aF318.94463256899724
asS'Bacteria.Firmicutes.Clostridia.Clostridia_UCG_014.Clostridia_UCG_014.Clostridia_UCG_014'
p455
(lp456
F1930.3230588671324
aF35.15547508857923
aF0.0
aF9589.721642145743
aF0.0
aF325.9259259259258
aF0.0
aF312.6165456420157
aF1574.364994808667
asS'Bacteria.Actinobacteriota.Coriobacteriia.Coriobacteriales.Atopobiaceae.Coriobacteriaceae_UCG_002'
p457
(lp458
F0.0
aF80.35537163103825
aF0.0
aF90.32704843465379
aF0.0
aF429.6296296296295
aF0.0
aF1595.989733014501
aF1737.230339099219
asS'Bacteria.Firmicutes.Clostridia.Oscillospirales.Oscillospiraceae.uncultured.uncultured_bacterium'
p459
(lp460
F304.9910433010069
aF0.0
aF0.0
aF0.0
aF0.0
aF0.0
aF0.0
aF0.0
aF0.0
asS'Bacteria.Firmicutes.Clostridia.Oscillospirales.Ruminococcaceae.Paludicola.uncultured_bacterium'
p461
(lp462
F0.0
aF0.0
aF64.56000206592009
aF36.560948175931294
aF0.0
aF0.0
aF0.0
aF153.56602242063929
aF0.0
asS'Bacteria.Proteobacteria.Alphaproteobacteria.Rhodospirillales.uncultured.uncultured.gut_metagenome'
p463
(lp464
F0.0
aF0.0
aF0.0
aF11929.622325405346
aF0.0
aF0.0
aF0.0
aF0.0
aF0.0
asS'Bacteria.Proteobacteria.Gammaproteobacteria.Pasteurellales.Pasteurellaceae'
p465
(lp466
F104.23744517882515
aF47.71100190592896
aF0.0
aF51.61545624837359
aF0.0
aF0.0
aF0.0
aF0.0
aF0.0
asS'Bacteria.Firmicutes.Clostridia.Monoglobales.Monoglobaceae.Monoglobus'
p467
(lp468
F899.5305454320837
aF0.0
aF611.1680195573767
aF129.03864062093396
aF327.8995690462806
aF533.3333333333333
aF392.5702766958816
aF8500.976241142533
aF678.6056012106324
asS'Bacteria.Firmicutes.Clostridia.Oscillospirales.Ruminococcaceae.Incertae_Sedis.Clostridium_sp_'
p469
(lp470
F0.0
aF0.0
aF0.0
aF0.0
aF0.0
aF0.0
aF0.0
aF3054.8669460105743
aF0.0
asS'Bacteria.Firmicutes.Clostridia.Oscillospirales.Ruminococcaceae.UBA1819.uncultured_bacterium'
p471
(lp472
F0.0
aF0.0
aF25.82400082636803
aF0.0
aF0.0
aF0.0
aF0.0
aF0.0
aF0.0
asS'Bacteria.Actinobacteriota.Coriobacteriia.Coriobacteriales.Eggerthellaceae'
p473
(lp474
F96.51615294335662
aF208.42174516800546
aF55.952001790464074
aF279.58372134535693
aF55.359667501320104
aF0.0
aF57.34172580951079
aF455.21356646118073
aF0.0
asS'Bacteria.Firmicutes.Bacilli.Lactobacillales.Enterococcaceae'
p475
(lp476
F0.0
aF0.0
aF154.94400495820818
aF0.0
aF0.0
aF0.0
aF0.0
aF0.0
aF0.0
asS'Bacteria.Firmicutes.Clostridia.Oscillospirales._Clostridium__methylpentosum_group._Clostridium__methylpentosum_group.uncultured_organism'
p477
(lp478
F69.49163011921677
aF0.0
aF0.0
aF0.0
aF0.0
aF0.0
aF0.0
aF0.0
aF0.0
asS'Bacteria.Proteobacteria.Gammaproteobacteria.Burkholderiales.Alcaligenaceae'
p479
(lp480
F0.0
aF0.0
aF0.0
aF0.0
aF34.067487693120064
aF0.0
aF79.39623573624571
aF0.0
aF0.0
asS'Bacteria.Firmicutes.Clostridia.Christensenellales.Christensenellaceae.Christensenellaceae_R_7_group.uncultured_prokaryote'
p481
(lp482
F0.0
aF0.0
aF0.0
aF109.68284452779389
aF0.0
aF0.0
aF0.0
aF0.0
aF0.0
asS'Bacteria.Firmicutes.Bacilli'
p483
(lp484
F1810.6430292173702
aF4304.034592987487
aF4106.016131392517
aF2808.7410775156627
aF5821.28195956189
aF1318.5185185185182
aF1437.9540472231167
aF6181.032402430731
aF2293.6869320919377
asS'Bacteria.Firmicutes.Clostridia.Peptostreptococcales_Tissierellales.Anaerovoracaceae._Eubacterium__nodatum_group'
p485
(lp486
F84.93421459015383
aF0.0
aF0.0
aF236.57084113837897
aF0.0
aF0.0
aF247.0105111794311
aF71.29851040958252
aF142.5071762542328
asS'Bacteria.Proteobacteria.Alphaproteobacteria.Sphingomonadales'
p487
(lp488
F0.0
aF20.088842907759563
aF0.0
aF0.0
aF0.0
aF0.0
aF0.0
aF0.0
aF0.0
asS'Bacteria.Actinobacteriota.Coriobacteriia.Coriobacteriales.Atopobiaceae.Coriobacteriaceae_UCG_002.uncultured_bacterium'
p489
(lp490
F0.0
aF80.35537163103825
aF0.0
aF90.32704843465379
aF0.0
aF429.6296296296295
aF0.0
aF1595.989733014501
aF1737.230339099219
asS'Bacteria.Bacteroidota.Bacteroidia.Bacteroidales.Muribaculaceae.Muribaculum.uncultured_bacterium'
p491
(lp492
F8771.38797949225
aF321.421486524153
aF14444.224462215187
aF13372.704456349458
aF13265.028020508624
aF5881.48148148148
aF13541.46909501524
aF5396.748787925323
aF11183.42030795122
asS'Bacteria.Firmicutes.Bacilli.Erysipelotrichales.Erysipelotrichaceae.Faecalibaculum.uncultured_bacterium'
p493
(lp494
F0.0
aF100.44421453879781
aF0.0
aF86.02576041395598
aF0.0
aF0.0
aF0.0
aF488.1205712656034
aF0.0
asS'Bacteria.Firmicutes.Clostridia.Clostridiales'
p495
(lp496
F0.0
aF22.599948271229508
aF0.0
aF0.0
aF0.0
aF0.0
aF0.0
aF290.6785424390672
aF0.0
asS'Bacteria.Firmicutes.Clostridia.Oscillospirales._Clostridium__methylpentosum_group._Clostridium__methylpentosum_group'
p497
(lp498
F69.49163011921677
aF0.0
aF0.0
aF0.0
aF0.0
aF0.0
aF0.0
aF0.0
aF0.0
asS'Bacteria.Firmicutes.Bacilli.Erysipelotrichales.Erysipelotrichaceae.uncultured'
p499
(lp500
F50.188399530545446
aF0.0
aF0.0
aF191.40731692105206
aF0.0
aF1288.8888888888887
aF110.27254963367461
aF499.0895728670777
aF841.4709455011842
asS'Bacteria.Firmicutes.Clostridia.Lachnospirales.Lachnospiraceae.Lachnospiraceae_NC2004_group.uncultured_Clostridiaceae'
p501
(lp502
F0.0
aF0.0
aF0.0
aF0.0
aF0.0
aF0.0
aF149.97066750179746
aF0.0
aF0.0
asS'Bacteria.Proteobacteria.Gammaproteobacteria.Burkholderiales.Burkholderiaceae.Burkholderia_Caballeronia_Paraburkholderia'
p503
(lp504
F108.09809129655942
aF384.1991206109016
aF133.42400426956817
aF92.47769244500269
aF0.0
aF0.0
aF110.27254963367461
aF537.4810784722375
aF135.72112024212646
asS'Bacteria.Firmicutes.Clostridia.Oscillospirales.Ruminococcaceae.Incertae_Sedis.uncultured_bacterium'
p505
(lp506
F2779.6652047686707
aF0.0
aF103.29600330547213
aF191.40731692105206
aF114.97777096428021
aF3496.2962962962956
aF846.893181186621
aF1930.5442818594654
aF1554.0068267723482
asS'Bacteria.Firmicutes.Bacilli.Lactobacillales.Streptococcaceae.Lactococcus'
p507
(lp508
F0.0
aF65.28873945021857
aF0.0
aF0.0
aF0.0
aF0.0
aF0.0
aF0.0
aF0.0
asS'Bacteria.Firmicutes.Bacilli.Erysipelotrichales.Erysipelotrichaceae.uncultured.uncultured_bacterium'
p509
(lp510
F0.0
aF0.0
aF0.0
aF109.68284452779389
aF0.0
aF385.1851851851851
aF0.0
aF0.0
aF101.79084018159486
asS'Bacteria.Firmicutes.Clostridia.Lachnospirales'
p511
(lp512
F189959.23157699677
aF14692.477481662649
aF22088.128706820124
aF18162.18866739646
aF15892.48300884051
aF17155.55555555555
aF79294.78499058273
aF139629.9058859663
aF18417.356016856567
asS'Bacteria.Firmicutes.Clostridia.Peptococcales.Peptococcaceae.uncultured'
p513
(lp514
F1304.8983877941814
aF0.0
aF64.56000206592009
aF40.86223619662909
aF68.13497538624013
aF0.0
aF0.0
aF0.0
aF0.0
asS'Bacteria.Actinobacteriota.Actinobacteria.Corynebacteriales.Corynebacteriaceae.Corynebacterium.Corynebacterium_stationis'
p515
(lp516
F0.0
aF0.0
aF0.0
aF0.0
aF0.0
aF0.0
aF0.0
aF0.0
aF373.2330806658478
asS'Bacteria.Firmicutes.Clostridia.Oscillospirales.Oscillospiraceae.uncultured.Clostridium_sp_'
p517
(lp518
F8840.879609611467
aF0.0
aF365.8400117068805
aF395.71849790419753
aF225.69710596692042
aF0.0
aF0.0
aF0.0
aF156.07928827844546
asS'Bacteria.Firmicutes.Clostridia.Peptococcales.Peptococcaceae.uncultured.unidentified'
p519
(lp520
F96.51615294335662
aF112.99974135614754
aF107.60000344320014
aF432.2794460801289
aF119.23620692592023
aF0.0
aF992.4529467030716
aF542.9655792729747
aF318.94463256899724
asS'Bacteria.Firmicutes.Clostridia.Oscillospirales.Ruminococcaceae.Harryflintia'
p521
(lp522
F1142.7512508493423
aF40.177685815519126
aF0.0
aF0.0
aF0.0
aF0.0
aF189.6687853699203
aF1053.0241537415266
aF0.0
asS'Bacteria.Actinobacteriota.Actinobacteria.Corynebacteriales.Corynebacteriaceae'
p523
(lp524
F0.0
aF0.0
aF0.0
aF0.0
aF0.0
aF0.0
aF0.0
aF0.0
aF373.2330806658478
asS'Bacteria.Actinobacteriota.Coriobacteriia.Coriobacteriales.Eggerthellaceae.Adlercreutzia'
p525
(lp526
F0.0
aF0.0
aF0.0
aF0.0
aF55.359667501320104
aF0.0
aF0.0
aF0.0
aF0.0
asS'Bacteria.Firmicutes.Clostridia.Oscillospirales.Ruminococcaceae.Ruminococcaceae'
p527
(lp528
F0.0
aF0.0
aF0.0
aF0.0
aF0.0
aF0.0
aF0.0
aF981.725643331944
aF0.0
asS'Bacteria.Firmicutes.Clostridia.Peptostreptococcales_Tissierellales.Anaerovoracaceae._Eubacterium__brachy_group.uncultured_bacterium'
p529
(lp530
F0.0
aF0.0
aF0.0
aF0.0
aF0.0
aF0.0
aF48.51992183881683
aF208.41103042801046
aF0.0
asS'Bacteria.Firmicutes.Clostridia.Peptococcales.Peptococcaceae.uncultured.uncultured_bacterium'
p531
(lp532
F397.6465501266293
aF50.222107269398904
aF43.040001377280056
aF126.88799661058509
aF38.325923654760075
aF0.0
aF141.1488635311035
aF71.29851040958252
aF0.0
asS'Bacteria.Proteobacteria.Alphaproteobacteria.Caulobacterales.Caulobacteraceae.Brevundimonas'
p533
(lp534
F0.0
aF0.0
aF0.0
aF0.0
aF0.0
aF0.0
aF0.0
aF49.36050720663406
aF0.0
asS'Bacteria.Firmicutes.Clostridia.Lachnospirales.Lachnospiraceae._Eubacterium__hallii_group.Clostridium_sp_'
p535
(lp536
F0.0
aF60.26652872327869
aF847.888027132417
aF0.0
aF770.7769090568414
aF0.0
aF167.61427544318542
aF0.0
aF352.87491262952886
asS'Bacteria.Proteobacteria.Alphaproteobacteria.Rhodospirillales'
p537
(lp538
F0.0
aF693.0650803177049
aF0.0
aF11929.622325405346
aF0.0
aF0.0
aF0.0
aF0.0
aF0.0
asS'Bacteria.Firmicutes.Bacilli.Lactobacillales.Streptococcaceae.Streptococcus.Streptococcus_agalactiae'
p539
(lp540
F0.0
aF0.0
aF43.040001377280056
aF0.0
aF0.0
aF162.9629629629629
aF92.62894169228667
aF0.0
aF0.0
asS'Bacteria.Actinobacteriota.Actinobacteria.Micrococcales.Micrococcaceae.Rothia'
p541
(lp542
F0.0
aF0.0
aF8.60800027545601
aF0.0
aF0.0
aF0.0
aF0.0
aF0.0
aF0.0
asS'Bacteria.Firmicutes.Bacilli.RF39.RF39.RF39.uncultured_Lachnospiraceae'
p543
(lp544
F0.0
aF0.0
aF0.0
aF0.0
aF0.0
aF0.0
aF727.7988275822523
aF0.0
aF0.0
asS'Bacteria.Firmicutes.Clostridia.Lachnospirales.Defluviitaleaceae.Defluviitaleaceae_UCG_011.uncultured_bacterium'
p545
(lp546
F0.0
aF0.0
aF0.0
aF0.0
aF0.0
aF518.5185185185184
aF0.0
aF43.87600640589694
aF0.0
asS'Bacteria.Firmicutes.Bacilli.Erysipelotrichales.Erysipelatoclostridiaceae.UCG_004.uncultured_bacterium'
p547
(lp548
F409.2284884798321
aF87.88868772144808
aF0.0
aF378.51334582140635
aF0.0
aF0.0
aF26.465411912081905
aF76.78301121031964
aF0.0
asS'Bacteria.Firmicutes.Clostridia.Lachnospirales.Lachnospiraceae.Lachnospiraceae_NC2004_group'
p549
(lp550
F0.0
aF0.0
aF0.0
aF0.0
aF0.0
aF0.0
aF149.97066750179746
aF0.0
aF0.0
asS'Bacteria.Firmicutes.Bacilli.Staphylococcales.Staphylococcaceae.Staphylococcus'
p551
(lp552
F0.0
aF0.0
aF0.0
aF0.0
aF0.0
aF414.8148148148147
aF97.03984367763366
aF252.2870368339074
aF1058.6247378885867
asS'Bacteria.Firmicutes.Bacilli.RF39.RF39.RF39'
p553
(lp554
F0.0
aF0.0
aF0.0
aF32.25966015523349
aF0.0
aF0.0
aF727.7988275822523
aF0.0
aF0.0
asS'Bacteria.Firmicutes.Clostridia.Lachnospirales.Lachnospiraceae.Lachnospiraceae_UCG_010'
p555
(lp556
F220.0568287108531
aF0.0
aF0.0
aF0.0
aF0.0
aF0.0
aF119.09435360436858
aF0.0
aF0.0
asS'Bacteria.Firmicutes.Bacilli.Lactobacillales.Aerococcaceae.Aerococcus'
p557
(lp558
F0.0
aF0.0
aF301.2800096409604
aF25.807728124186795
aF246.98928577512044
aF0.0
aF83.80713772159271
aF0.0
aF149.29323226633915
asS'Bacteria.Firmicutes.Clostridia.Monoglobales'
p559
(lp560
F899.5305454320837
aF0.0
aF2948.2400943436837
aF281.7343653557058
aF1984.4311581242437
aF533.3333333333333
aF392.5702766958816
aF8500.976241142533
aF678.6056012106324
asS'Bacteria.Cyanobacteria.Vampirivibrionia.Gastranaerophilales'
p561
(lp562
F239.36005929952444
aF517.2877048748087
aF0.0
aF4750.772618860719
aF0.0
aF814.8148148148146
aF0.0
aF164.53502402211353
aF441.09364078691107
asS'Bacteria.Proteobacteria.Alphaproteobacteria.Rickettsiales'
p563
(lp564
F0.0
aF0.0
aF0.0
aF0.0
aF0.0
aF0.0
aF0.0
aF76.78301121031964
aF0.0
asS'Bacteria.Firmicutes.Clostridia.Monoglobales.Monoglobaceae.Monoglobus.unidentified'
p565
(lp566
F0.0
aF0.0
aF2337.072074786307
aF152.69572473477186
aF1656.531589077963
aF0.0
aF0.0
aF0.0
aF0.0
asS'Bacteria.Actinobacteriota.Actinobacteria.Micrococcales'
p567
(lp568
F0.0
aF0.0
aF8.60800027545601
aF0.0
aF0.0
aF0.0
aF0.0
aF0.0
aF0.0
asS'Bacteria.Firmicutes.Clostridia.Oscillospirales.Oscillospiraceae.NK4A214_group'
p569
(lp570
F0.0
aF0.0
aF0.0
aF17.205152082791198
aF0.0
aF0.0
aF0.0
aF2830.0024131803525
aF101.79084018159486
asS'Bacteria.Campilobacterota'
p571
(lp572
F0.0
aF17.577737544289615
aF0.0
aF0.0
aF0.0
aF0.0
aF0.0
aF38.39150560515982
aF0.0
asS'Bacteria.Firmicutes.Clostridia.Clostridiales.Clostridiaceae.Clostridium_sensu_stricto_1'
p573
(lp574
F0.0
aF22.599948271229508
aF0.0
aF0.0
aF0.0
aF0.0
aF0.0
aF290.6785424390672
aF0.0
asS'Bacteria.Bacteroidota.Bacteroidia.Bacteroidales.Prevotellaceae.Prevotellaceae_NK3B31_group.uncultured_bacterium'
p575
(lp576
F29916.146766322818
aF512.2654941478688
aF138967.55644696183
aF188768.47672035397
aF128498.30514248725
aF45422.22222222221
aF9183.497933492421
aF6049.40438321304
aF28779.663547342923
asS'Bacteria.Firmicutes.Clostridia.Peptostreptococcales_Tissierellales'
p577
(lp578
F3111.680770893817
aF104838.64892487021
aF1725.9040552289302
aF13581.316925353301
aF1362.6995077248025
aF1748.1481481481478
aF3771.3211974716714
aF53600.02632560385
aF4580.587808171769
asS'Bacteria.Actinobacteriota.Coriobacteriia.Coriobacteriales.Eggerthellaceae.Parvibacter'
p579
(lp580
F0.0
aF0.0
aF0.0
aF0.0
aF0.0
aF0.0
aF57.34172580951079
aF455.21356646118073
aF0.0
asS'Bacteria.Actinobacteriota.Coriobacteriia'
p581
(lp582
F131.261968002965
aF288.7771167990437
aF86.08000275456011
aF369.9107697800107
aF55.359667501320104
aF992.5925925925924
aF105.86164764832762
aF3049.3824452098374
aF1988.3144115471528
asS'Bacteria.Firmicutes.Clostridia.Lachnospirales.Lachnospiraceae.Tuzzerella'
p583
(lp584
F0.0
aF0.0
aF0.0
aF23.657084113837897
aF0.0
aF0.0
aF0.0
aF0.0
aF0.0
asS'Bacteria.Firmicutes.Bacilli.Erysipelotrichales.Erysipelatoclostridiaceae.Erysipelatoclostridium'
p585
(lp586
F0.0
aF1014.4865668418579
aF223.8080071618563
aF0.0
aF140.52838673412026
aF0.0
aF304.35223698894185
aF60.329508808108294
aF291.8004085205719
asS'Bacteria.Firmicutes.Clostridia.Oscillospirales.Oscillospiraceae'
p587
(lp588
F28082.339860399046
aF469.5767029688798
aF3047.232097511428
aF2387.214851487279
aF2495.443473521045
aF4251.851851851851
aF22050.099024749572
aF8007.371169076192
aF3365.8837820047365
asS'Bacteria.Proteobacteria.Alphaproteobacteria.Rhodospirillales.uncultured.uncultured.Azospirillum_sp_'
p589
(lp590
F0.0
aF693.0650803177049
aF0.0
aF0.0
aF0.0
aF0.0
aF0.0
aF0.0
aF0.0
asS'Bacteria.Firmicutes.Clostridia.Lachnospirales.Lachnospiraceae._Eubacterium__ventriosum_group'
p591
(lp592
F81.07356847241957
aF0.0
aF0.0
aF0.0
aF0.0
aF0.0
aF57.34172580951079
aF0.0
aF0.0
asS'Bacteria.Firmicutes.Clostridia.Lachnospirales.Lachnospiraceae.Lachnoclostridium'
p593
(lp594
F243.2207054172587
aF5019.699621576421
aF0.0
aF344.1030416558239
aF0.0
aF0.0
aF0.0
aF0.0
aF162.86534429055177
asS'Bacteria.Deferribacterota'
p595
(lp596
F250.94199765272722
aF233.53279880270492
aF0.0
aF135.49057265198067
aF0.0
aF0.0
aF0.0
aF87.75201281179388
aF0.0
asS'Bacteria.Firmicutes.Clostridia.Oscillospirales._Eubacterium__coprostanoligenes_group._Eubacterium__coprostanoligenes_group.Clostridiales_bacterium'
p597
(lp598
F0.0
aF449.48786006112016
aF0.0
aF3821.6944063899946
aF0.0
aF0.0
aF0.0
aF0.0
aF0.0
asS'Bacteria.Cyanobacteria.Vampirivibrionia.Gastranaerophilales.Gastranaerophilales.Gastranaerophilales'
p599
(lp600
F0.0
aF123.0441628100273
aF0.0
aF1776.431952548191
aF0.0
aF0.0
aF0.0
aF0.0
aF0.0
asS'Bacteria.Proteobacteria.Gammaproteobacteria.Enterobacterales.Enterobacteriaceae'
p601
(lp602
F2486.2560998208664
aF1127.4863081980054
aF6765.888216508424
aF270.98114530396134
aF8005.859607883214
aF1733.3333333333328
aF630.7589839046187
aF3109.7119540179456
aF1445.429930578647
asS'Bacteria.Firmicutes.Clostridia.Monoglobales.Monoglobaceae'
p603
(lp604
F899.5305454320837
aF0.0
aF2948.2400943436837
aF281.7343653557058
aF1984.4311581242437
aF533.3333333333333
aF392.5702766958816
aF8500.976241142533
aF678.6056012106324
asS'Bacteria.Firmicutes.Clostridia.Oscillospirales.UCG_010.UCG_010.uncultured_organism'
p605
(lp606
F0.0
aF0.0
aF0.0
aF2445.282239766699
aF0.0
aF0.0
aF0.0
aF0.0
aF0.0
asS'Bacteria.Firmicutes.Bacilli.Lactobacillales.Lactobacillaceae'
p607
(lp608
F9697.943047748475
aF45262.67417654576
aF7252.240232071689
aF23396.85618858568
aF8465.770691740336
aF122222.2222222222
aF18247.90151338047
aF87291.31474453196
aF37594.750307069036
asS'Bacteria.Firmicutes.Clostridia.Lachnospirales.Lachnospiraceae._Eubacterium__xylanophilum_group'
p609
(lp610
F0.0
aF0.0
aF0.0
aF197.85924895209877
aF0.0
aF0.0
aF0.0
aF0.0
aF0.0
asS'Bacteria.Firmicutes.Clostridia.Lachnospirales.Lachnospiraceae.GCA_900066575.uncultured_bacterium'
p611
(lp612
F710.3588856631047
aF0.0
aF167.8560053713922
aF221.51633306593666
aF0.0
aF607.4074074074073
aF1235.0525558971556
aF0.0
aF0.0
asS'Bacteria.Firmicutes.Clostridia.Peptostreptococcales_Tissierellales.Anaerovoracaceae.Anaerovorax.uncultured_bacterium'
p613
(lp614
F0.0
aF0.0
aF0.0
aF0.0
aF0.0
aF0.0
aF172.02517742853237
aF0.0
aF0.0
asS'Bacteria.Firmicutes.Clostridia'
p615
(lp616
F297628.7911544878
aF123546.38388272126
aF38456.24123059973
aF70414.23554283334
aF27598.92346738889
aF78103.70370370368
aF115318.62150491156
aF285100.8051247176
aF63741.42412171473
asS'Bacteria.Firmicutes.Clostridia.Lachnospirales.Lachnospiraceae.GCA_900066575'
p617
(lp618
F710.3588856631047
aF0.0
aF167.8560053713922
aF221.51633306593666
aF0.0
aF607.4074074074073
aF1235.0525558971556
aF0.0
aF0.0
asS'Bacteria.Firmicutes.Bacilli.Erysipelotrichales.Erysipelotrichaceae'
p619
(lp620
F50.188399530545446
aF5313.498949102404
aF404.5760129464325
aF3810.9411863382497
aF540.821367128281
aF1288.8888888888887
aF886.5912990547438
aF5001.86473027225
aF1282.5645862880951
asS'Bacteria.Actinobacteriota.Coriobacteriia.Coriobacteriales.Eggerthellaceae.Enterorhabdus'
p621
(lp622
F96.51615294335662
aF47.71100190592896
aF55.952001790464074
aF141.94250468302738
aF0.0
aF0.0
aF0.0
aF0.0
aF0.0
asS'Bacteria.Proteobacteria.Gammaproteobacteria.Burkholderiales.Comamonadaceae'
p623
(lp624
F0.0
aF0.0
aF0.0
aF4.3012880206977995
aF0.0
aF0.0
aF0.0
aF0.0
aF0.0
asS'Bacteria.Firmicutes.Clostridia.Oscillospirales._Eubacterium__coprostanoligenes_group'
p625
(lp626
F21009.63617270987
aF449.48786006112016
aF0.0
aF7869.206433866624
aF0.0
aF19629.629629629624
aF52.93082382416381
aF16299.936379790712
aF2761.924796927274
asS'Bacteria.Firmicutes.Bacilli.Erysipelotrichales.Erysipelatoclostridiaceae.Erysipelatoclostridiaceae.uncultured_bacterium'
p627
(lp628
F0.0
aF17.577737544289615
aF0.0
aF0.0
aF0.0
aF0.0
aF0.0
aF0.0
aF0.0
asS'Bacteria.Firmicutes.Clostridia.uncultured.uncultured.uncultured'
p629
(lp630
F0.0
aF128.0663735369672
aF0.0
aF0.0
aF0.0
aF0.0
aF0.0
aF1294.3421889739598
aF0.0
asS'Bacteria.Bacteroidota.Bacteroidia.Bacteroidales.Muribaculaceae.Muribaculaceae.uncultured_bacterium'
p631
(lp632
F371637.37723145355
aF220274.16248358358
aF355226.3473672432
aF464244.46800594457
aF376326.5028020508
aF253437.03703703696
aF339388.031458553
aF470981.50626329996
aF398531.4974789802
asS'Bacteria.Firmicutes.Clostridia.Clostridia_UCG_014'
p633
(lp634
F5682.871085304838
aF35.15547508857923
aF0.0
aF9611.228082249232
aF0.0
aF488.88888888888874
aF0.0
aF394.88405765307243
aF1574.364994808667
asS'Bacteria.Firmicutes.Clostridia.Oscillospirales.Ruminococcaceae._Eubacterium__siraeum_group'
p635
(lp636
F0.0
aF0.0
aF0.0
aF720.4657434668813
aF0.0
aF0.0
aF0.0
aF0.0
aF0.0
asS'Bacteria.Firmicutes.Clostridia.Oscillospirales.Ruminococcaceae.Fournierella'
p637
(lp638
F930.4157143739578
aF0.0
aF0.0
aF0.0
aF0.0
aF0.0
aF0.0
aF0.0
aF0.0
asS'Bacteria.Firmicutes.Bacilli.Erysipelotrichales.Erysipelatoclostridiaceae.Erysipelatoclostridium.uncultured_bacterium'
p639
(lp640
F0.0
aF0.0
aF0.0
aF195.70860494174988
aF0.0
aF0.0
aF17.643607941387938
aF0.0
aF0.0
asS'Bacteria.Firmicutes.Clostridia.Oscillospirales.Oscillospiraceae.Oscillibacter.uncultured_bacterium'
p641
(lp642
F7119.0314411019845
aF128.0663735369672
aF219.50400702412827
aF0.0
aF183.11274635052033
aF0.0
aF2068.7130311277356
aF0.0
aF0.0
asS'Bacteria.Bacteroidota.Bacteroidia.Bacteroidales.Tannerellaceae.Parabacteroides.Parabacteroides_goldsteinii'
p643
(lp644
F6613.286799678795
aF73813.94215919905
aF22867.152731748894
aF8148.790155211981
aF25205.68245694721
aF2014.8148148148143
aF27585.781016360037
aF1656.3192418226095
aF2327.6172121524687
asS'Bacteria.Firmicutes.Bacilli.Lactobacillales.Enterococcaceae.Enterococcus'
p645
(lp646
F0.0
aF0.0
aF154.94400495820818
aF0.0
aF0.0
aF0.0
aF0.0
aF0.0
aF0.0
asS'Bacteria.Proteobacteria.Alphaproteobacteria.Rhodospirillales.uncultured'
p647
(lp648
F0.0
aF693.0650803177049
aF0.0
aF11929.622325405346
aF0.0
aF0.0
aF0.0
aF0.0
aF0.0
asS'Bacteria.Firmicutes.Clostridia.Lachnospirales.Lachnospiraceae.Blautia.Lachnospiraceae_bacterium'
p649
(lp650
F0.0
aF0.0
aF0.0
aF408.62236196629095
aF0.0
aF340.74074074074065
aF432.26839456400444
aF6213.939407235154
aF963.619953719098
asS'Bacteria.Firmicutes.Clostridia.Oscillospirales.Oscillospiraceae.Papillibacter'
p651
(lp652
F0.0
aF0.0
aF0.0
aF275.28243332465917
aF0.0
aF1022.2222222222221
aF0.0
aF0.0
aF909.3315056222474
asS'Bacteria.Verrucomicrobiota.Verrucomicrobiae.Verrucomicrobiales.Akkermansiaceae'
p653
(lp654
F30043.54808820805
aF3450.2587694077047
aF152146.40486868497
aF3116.283170995556
aF135878.17466400936
aF0.0
aF0.0
aF268.74053923611876
aF40.716336072637944
asS'Bacteria.Firmicutes.Clostridia.Clostridia_vadinBB60_group.Clostridia_vadinBB60_group'
p655
(lp656
F2354.9941318179017
aF223.48837734882514
aF38.736001239552046
aF2759.2762652776382
aF0.0
aF474.07407407407396
aF114.68345161902158
aF351.0080512471755
aF264.6561844721466
asS'Bacteria.Firmicutes.Clostridia.Oscillospirales.Butyricicoccaceae.Butyricicoccus'
p657
(lp658
F0.0
aF0.0
aF0.0
aF27.958372134535697
aF0.0
aF0.0
aF0.0
aF0.0
aF0.0
asS'Bacteria.Firmicutes.Clostridia.Peptostreptococcales_Tissierellales.Anaerovoracaceae.Family_XIII_AD3011_group'
p659
(lp660
F0.0
aF0.0
aF60.25600192819208
aF227.96826509698337
aF72.39341134788013
aF0.0
aF0.0
aF0.0
aF0.0
asS'Bacteria.Firmicutes.Clostridia.Lachnospirales.Lachnospiraceae.Lachnoclostridium._Clostridium__aldenense'
p661
(lp662
F0.0
aF102.95531990226776
aF0.0
aF0.0
aF0.0
aF0.0
aF0.0
aF0.0
aF0.0
asS'Bacteria.Firmicutes.Clostridia.Oscillospirales.Ruminococcaceae.Ruminococcaceae.uncultured_bacterium'
p663
(lp664
F0.0
aF0.0
aF0.0
aF0.0
aF0.0
aF0.0
aF0.0
aF981.725643331944
aF0.0
asS'Bacteria.Firmicutes.Clostridia.Clostridia_UCG_014.Clostridia_UCG_014.Clostridia_UCG_014.unidentified'
p665
(lp666
F0.0
aF0.0
aF0.0
aF21.506440103488995
aF0.0
aF0.0
aF0.0
aF0.0
aF0.0
asS'Bacteria.Firmicutes.Clostridia.Peptostreptococcales_Tissierellales.Anaerovoracaceae._Eubacterium__brachy_group'
p667
(lp668
F0.0
aF0.0
aF0.0
aF0.0
aF0.0
aF0.0
aF48.51992183881683
aF208.41103042801046
aF0.0
asS'Bacteria.Firmicutes.Clostridia.Oscillospirales.Ruminococcaceae.Ruminococcus.unidentified'
p669
(lp670
F1050.09574402372
aF0.0
aF0.0
aF0.0
aF0.0
aF0.0
aF0.0
aF0.0
aF0.0
asS'Bacteria.Firmicutes.Clostridia.Lachnospirales.Lachnospiraceae.Dorea'
p671
(lp672
F46.32775341281118
aF0.0
aF0.0
aF0.0
aF0.0
aF0.0
aF0.0
aF0.0
aF0.0
asS'Bacteria.Firmicutes.Clostridia.Oscillospirales.Ruminococcaceae.uncultured'
p673
(lp674
F0.0
aF0.0
aF0.0
aF0.0
aF0.0
aF0.0
aF83.80713772159271
aF301.6475440405415
aF142.5071762542328
asS'Bacteria.Patescibacteria.Saccharimonadia.Saccharimonadales.Saccharimonadaceae.Candidatus_Saccharimonas'
p675
(lp676
F0.0
aF37.666580452049175
aF0.0
aF1043.0623450192165
aF0.0
aF0.0
aF0.0
aF948.8186385275213
aF0.0
asS'Bacteria.Firmicutes.Clostridia.Peptostreptococcales_Tissierellales.Peptostreptococcaceae.Clostridioides'
p677
(lp678
F0.0
aF15902.830266855162
aF0.0
aF0.0
aF0.0
aF0.0
aF0.0
aF0.0
aF0.0
asS'Bacteria.Firmicutes.Bacilli.Lactobacillales.Lactobacillaceae.Lactobacillus.Lactobacillus_faecis'
p679
(lp680
F0.0
aF1245.5082602810928
aF0.0
aF759.1773356531617
aF0.0
aF105318.5185185185
aF6779.556351478314
aF47364.14891516575
aF28297.85357048337
asS'Bacteria.Firmicutes.Clostridia.Oscillospirales.Ruminococcaceae.Anaerotruncus'
p681
(lp682
F285.6878127123356
aF0.0
aF0.0
aF19.355796093140096
aF0.0
aF0.0
aF0.0
aF0.0
aF0.0
asS'Bacteria.Firmicutes.Clostridia.Lachnospirales.Lachnospiraceae.Tuzzerella.uncultured_bacterium'
p683
(lp684
F0.0
aF0.0
aF0.0
aF23.657084113837897
aF0.0
aF0.0
aF0.0
aF0.0
aF0.0
asS'Bacteria.Patescibacteria.Saccharimonadia'
p685
(lp686
F0.0
aF37.666580452049175
aF0.0
aF1043.0623450192165
aF0.0
aF0.0
aF0.0
aF948.8186385275213
aF0.0
asS'Bacteria.Campilobacterota.Campylobacteria.Campylobacterales.Helicobacteraceae.Helicobacter.Helicobacter_rodentium'
p687
(lp688
F0.0
aF17.577737544289615
aF0.0
aF0.0
aF0.0
aF0.0
aF0.0
aF38.39150560515982
aF0.0
asS'Bacteria.Actinobacteriota.Coriobacteriia.Coriobacteriales.Eggerthellaceae.Adlercreutzia.uncultured_bacterium'
p689
(lp690
F0.0
aF160.7107432620765
aF0.0
aF137.64121666232958
aF0.0
aF0.0
aF0.0
aF0.0
aF0.0
asS'Bacteria.Proteobacteria.Gammaproteobacteria.Enterobacterales'
p691
(lp692
F2486.2560998208664
aF1127.4863081980054
aF6981.088223394824
aF270.98114530396134
aF8125.095814809136
aF1733.3333333333328
aF630.7589839046187
aF3109.7119540179456
aF1445.429930578647
asS'Bacteria.Firmicutes.Clostridia.Clostridia_vadinBB60_group.Clostridia_vadinBB60_group.Clostridia_vadinBB60_group.uncultured_Clostridia'
p693
(lp694
F0.0
aF35.15547508857923
aF38.736001239552046
aF565.6193747217606
aF0.0
aF237.03703703703698
aF114.68345161902158
aF137.11252001842794
aF0.0
asS'Bacteria.Firmicutes.Clostridia.Oscillospirales._Clostridium__methylpentosum_group'
p695
(lp696
F69.49163011921677
aF0.0
aF0.0
aF0.0
aF0.0
aF0.0
aF0.0
aF0.0
aF0.0
asS'Bacteria'
p697
(lp698
F1000000.0
aF1000000.0
aF1000000.0
aF1000000.0
aF1000000.0
aF1000000.0
aF1000000.0
aF1000000.0
aF1000000.0
assS'subclass_sl'
p699
(dp700
g12
(I0
I4
tp701
sg10
(I4
I9
tp702
ssS'norm'
p703
F1000000.0
sS'cls'
p704
(dp705
S'class'
p706
(S'NC'
p707
S'NC'
p708
S'NC'
p709
g5
S'NR'
p710
S'NR'
p711
S'NR'
p712
S'NR'
p713
g3
tp714
sS'subclass'
p715
(lp716
S'NC_subcl'
p717
aS'NC_subcl'
p718
aS'NC_subcl'
p719
ag12
aS'NR_subcl'
p720
aS'NR_subcl'
p721
aS'NR_subcl'
p722
aS'NR_subcl'
p723
ag10
asS'subject'
p724
(S'S210421121673'
p725
S'S210421121674'
p726
S'S210421121675'
p727
S'S210421121676'
p728
S'S210421121677'
p729
S'S210421121678'
p730
S'S210421121679'
p731
S'S210421121680'
p732
S'S210421121681'
p733
tp734
ss.