(dp0
S'class_sl'
p1
(dp2
S'NC'
p3
(I0
I4
tp4
sS'STD-NC'
p5
(I4
I11
tp6
ssS'class_hierarchy'
p7
(dp8
g3
(lp9
S'NC_subcl'
p10
asg5
(lp11
S'STD-NC_subcl'
p12
assS'feats'
p13
(dp14
S'Bacteria.Chloroflexi'
p15
(lp16
F0.0
aF0.0
aF0.0
aF0.0
aF0.0
aF0.0
aF0.0
aF0.0
aF179.60771198355042
aF0.0
aF0.0
asS'Bacteria.Chloroflexi.Chloroflexia'
p17
(lp18
F0.0
aF0.0
aF0.0
aF0.0
aF0.0
aF0.0
aF0.0
aF0.0
aF179.60771198355042
aF0.0
aF0.0
asS'Eukaryota'
p19
(lp20
F0.0
aF0.0
aF0.0
aF0.0
aF0.0
aF0.0
aF0.0
aF0.0
aF1399.7014795959444
aF0.0
aF0.0
asS'Bacteria.Campilobacterota'
p21
(lp22
F0.0
aF19.490734939926774
aF0.0
aF0.0
aF0.0
aF66.3035756571158
aF0.0
aF327.1345529580513
aF0.0
aF0.0
aF0.0
asS'Bacteria.Firmicutes.Clostridia'
p23
(lp24
F300073.0494431445
aF136992.02272062819
aF37851.64915794108
aF70996.43510768404
aF487594.54427210934
aF534908.8325834716
aF145571.73913964734
aF678628.0480132867
aF386850.2381350526
aF274426.8077601411
aF382744.96197993465
asS'Bacteria.Campilobacterota.Campylobacteria'
p25
(lp26
F0.0
aF19.490734939926774
aF0.0
aF0.0
aF0.0
aF66.3035756571158
aF0.0
aF327.1345529580513
aF0.0
aF0.0
aF0.0
asS'Bacteria.Proteobacteria.Alphaproteobacteria'
p27
(lp28
F0.0
aF826.964039594036
aF0.0
aF12028.258927409772
aF133.63148001318498
aF0.0
aF334.78406427854037
aF578.7765167719369
aF247.73477514972467
aF0.0
aF0.0
asS'Bacteria.Proteobacteria.Gammaproteobacteria'
p29
(lp30
F3457.1527905277917
aF43327.90377145722
aF12136.697540721814
aF6904.268329704833
aF2538.9981202505146
aF5228.51053753256
aF4826.823407762752
aF41244.11786909585
aF7165.728371205787
aF9536.407155454774
aF16884.956775667157
asS'Bacteria.Deferribacterota.Deferribacteres'
p31
(lp32
F253.91517670543107
aF258.9483356304557
aF0.0
aF136.61083692569238
aF677.0661654001372
aF0.0
aF0.0
aF0.0
aF0.0
aF125.97631645250694
aF0.0
asS'Bacteria.Actinobacteriota'
p33
(lp34
F132.8171693536101
aF1116.5406729872336
aF94.95282570977237
aF459.7063083848696
aF579.0697467238016
aF2131.1863604072933
aF3538.540426235205
aF42527.49188454667
aF780.3645417216328
aF1058.2010582010582
aF8847.254748894093
asS'Bacteria.Firmicutes'
p35
(lp36
F312800.0593770875
aF202049.31155939805
aF50860.18628017989
aF101948.54758827662
aF500120.2683320118
aF611849.3961638645
aF235052.31530725973
aF853972.1683988022
aF472981.42608523316
aF303237.59133282944
aF572642.900511753
asS'Bacteria.Actinobacteriota.Actinobacteria'
p37
(lp38
F0.0
aF796.3357418312938
aF8.632075064524761
aF86.73703931789993
aF0.0
aF28.415818138763914
aF3335.1273238887497
aF3321.67392234329
aF0.0
aF0.0
aF4597.102957758696
asS'Bacteria.Patescibacteria'
p39
(lp40
F0.0
aF41.76586058555737
aF0.0
aF1051.6866017295367
aF507.7996240501029
aF1288.183755623964
aF1186.5764303543203
aF6341.377488109918
aF1486.4086508983482
aF1234.567901234568
aF9830.28305432677
asS'Bacteria.Acidobacteriota'
p41
(lp42
F0.0
aF0.0
aF0.0
aF0.0
aF0.0
aF0.0
aF0.0
aF377.46294572082843
aF0.0
aF0.0
aF0.0
asS'Bacteria.Verrucomicrobiota'
p43
(lp44
F30399.50623264099
aF3825.752829637055
aF152571.92676547516
aF3142.0492492909248
aF587.9785120580138
aF11764.14870944826
aF37597.52175036975
aF0.0
aF6701.225667800053
aF82615.26832955405
aF24575.707635816925
asS'Bacteria.Actinobacteriota.Coriobacteriia'
p45
(lp46
F132.8171693536101
aF320.2049311559398
aF86.32075064524761
aF372.9692690669697
aF579.0697467238016
aF2102.77054226853
aF203.41310234645488
aF39205.81796220338
aF780.3645417216328
aF1058.2010582010582
aF4250.151791135398
asS'Bacteria.Cyanobacteria'
p47
(lp48
F242.1960147036419
aF573.5844853749879
aF0.0
aF4790.052996331024
aF293.9892560290069
aF0.0
aF745.8480419370013
aF2541.5838345202446
aF501.6629196781925
aF188.9644746787604
aF0.0
asS'Bacteria.Patescibacteria.Saccharimonadia'
p49
(lp50
F0.0
aF41.76586058555737
aF0.0
aF1051.6866017295367
aF507.7996240501029
aF1288.183755623964
aF1186.5764303543203
aF6341.377488109918
aF1486.4086508983482
aF1234.567901234568
aF9830.28305432677
asS'Bacteria.Proteobacteria'
p51
(lp52
F3457.1527905277917
aF44154.867811051256
aF12136.697540721814
aF18932.527257114605
aF2672.6296002636996
aF5228.51053753256
aF5161.607472041293
aF41822.89438586778
aF7413.4631463555115
aF9536.407155454774
aF16884.956775667157
asS'Bacteria.Bacteroidota.Bacteroidia'
p53
(lp54
F652714.3532389811
aF747959.7377103956
aF784336.2365879134
aF869538.8191619468
aF494561.19876346336
aF367672.2708974663
aF716717.5905718027
aF52089.886509474316
aF506722.9024606257
aF602003.0234315948
aF367218.89727354207
asS'Bacteria.Bacteroidota'
p55
(lp56
F652714.3532389811
aF747959.7377103956
aF784336.2365879134
aF869538.8191619468
aF494561.19876346336
aF367672.2708974663
aF716717.5905718027
aF52089.886509474316
aF506722.9024606257
aF602003.0234315948
aF367218.89727354207
asS'Bacteria.Desulfobacterota'
p57
(lp58
F0.0
aF0.0
aF0.0
aF0.0
aF0.0
aF0.0
aF0.0
aF0.0
aF1833.2373361079628
aF0.0
aF0.0
asS'Bacteria.Desulfobacterota.Desulfovibrionia'
p59
(lp60
F0.0
aF0.0
aF0.0
aF0.0
aF0.0
aF0.0
aF0.0
aF0.0
aF1833.2373361079628
aF0.0
aF0.0
asS'Bacteria.Firmicutes.Bacilli'
p61
(lp62
F12727.00993394299
aF65057.288838769855
aF13008.537122238815
aF30952.112480592587
aF12525.724059902537
aF76940.56358039309
aF89480.57616761241
aF175344.1203855155
aF86131.18795018054
aF28810.783572688335
aF189897.9385318183
asS'Bacteria.Cyanobacteria.Vampirivibrionia'
p63
(lp64
F242.1960147036419
aF573.5844853749879
aF0.0
aF4790.052996331024
aF293.9892560290069
aF0.0
aF745.8480419370013
aF2189.285085180805
aF501.6629196781925
aF188.9644746787604
aF0.0
asS'Bacteria.Acidobacteriota.Blastocatellia'
p65
(lp66
F0.0
aF0.0
aF0.0
aF0.0
aF0.0
aF0.0
aF0.0
aF377.46294572082843
aF0.0
aF0.0
aF0.0
asS'Bacteria.Verrucomicrobiota.Verrucomicrobiae'
p67
(lp68
F30399.50623264099
aF3825.752829637055
aF152571.92676547516
aF3142.0492492909248
aF587.9785120580138
aF11764.14870944826
aF37597.52175036975
aF0.0
aF6701.225667800053
aF82615.26832955405
aF24575.707635816925
asS'Bacteria.Deferribacterota'
p69
(lp70
F253.91517670543107
aF258.9483356304557
aF0.0
aF136.61083692569238
aF677.0661654001372
aF0.0
aF0.0
aF0.0
aF0.0
aF125.97631645250694
aF0.0
asS'Bacteria.Cyanobacteria.Cyanobacteriia'
p71
(lp72
F0.0
aF0.0
aF0.0
aF0.0
aF0.0
aF0.0
aF0.0
aF352.29874933943984
aF0.0
aF0.0
aF0.0
asS'Bacteria'
p73
(lp74
F1000000.0
aF1000000.0
aF1000000.0
aF1000000.0
aF1000000.0
aF1000000.0
aF1000000.0
aF1000000.0
aF998600.2985204041
aF1000000.0
aF1000000.0
assS'subclass_sl'
p75
(dp76
g10
(I0
I4
tp77
sg12
(I4
I11
tp78
ssS'norm'
p79
F1000000.0
sS'cls'
p80
(dp81
S'class'
p82
(S'NC'
p83
S'NC'
p84
S'NC'
p85
g3
S'STD-NC'
p86
S'STD-NC'
p87
S'STD-NC'
p88
S'STD-NC'
p89
S'STD-NC'
p90
S'STD-NC'
p91
g5
tp92
sS'subclass'
p93
(lp94
S'NC_subcl'
p95
aS'NC_subcl'
p96
aS'NC_subcl'
p97
ag10
aS'STD-NC_subcl'
p98
aS'STD-NC_subcl'
p99
aS'STD-NC_subcl'
p100
aS'STD-NC_subcl'
p101
aS'STD-NC_subcl'
p102
aS'STD-NC_subcl'
p103
ag12
asS'subject'
p104
(S'S210421121673'
p105
S'S210421121674'
p106
S'S210421121675'
p107
S'S210421121676'
p108
S'S210421121682'
p109
S'S210421121683'
p110
S'S210421121684'
p111
S'S210421121694'
p112
S'S210421121695'
p113
S'S210421121696'
p114
S'S210421121697'
p115
tp116
ss.