(dp0
S'class_sl'
p1
(dp2
S'NC'
p3
(I0
I4
tp4
sS'STD-NC'
p5
(I4
I11
tp6
ssS'class_hierarchy'
p7
(dp8
g3
(lp9
S'NC_subcl'
p10
asg5
(lp11
S'STD-NC_subcl'
p12
assS'feats'
p13
(dp14
S'Bacteria.Chloroflexi'
p15
(lp16
F0.0
aF0.0
aF0.0
aF0.0
aF0.0
aF0.0
aF0.0
aF0.0
aF179.60771198355044
aF0.0
aF0.0
asS'Bacteria.Chloroflexi.Chloroflexia'
p17
(lp18
F0.0
aF0.0
aF0.0
aF0.0
aF0.0
aF0.0
aF0.0
aF0.0
aF179.60771198355044
aF0.0
aF0.0
asS'Bacteria.Firmicutes.Bacilli.Acholeplasmatales'
p19
(lp20
F0.0
aF1481.2958554344348
aF0.0
aF0.0
aF365.2593787027056
aF104.19133317546765
aF29.664410758857997
aF0.0
aF371.6021627245872
aF0.0
aF0.0
asS'Bacteria.Actinobacteriota.Actinobacteria.Micrococcales'
p21
(lp22
F0.0
aF0.0
aF8.632075064524761
aF0.0
aF0.0
aF28.415818138763903
aF72.04214041436941
aF1811.8221394599764
aF0.0
aF0.0
aF0.0
asS'Eukaryota'
p23
(lp24
F0.0
aF0.0
aF0.0
aF0.0
aF0.0
aF0.0
aF0.0
aF0.0
aF1399.7014795959449
aF0.0
aF0.0
asS'Bacteria.Firmicutes'
p25
(lp26
F312800.05937708734
aF202049.31155939802
aF50860.18628017988
aF101948.54758827662
aF500120.2683320118
aF611849.3961638644
aF235052.31530725968
aF853972.168398802
aF472981.4260852333
aF303237.5913328294
aF572642.9005117528
asS'Bacteria.Actinobacteriota.Actinobacteria.Bifidobacteriales'
p27
(lp28
F0.0
aF796.3357418312938
aF0.0
aF86.73703931789993
aF0.0
aF0.0
aF3263.08518347438
aF1509.8517828833137
aF0.0
aF0.0
aF4597.102957758695
asS'Bacteria.Desulfobacterota.Desulfovibrionia.Desulfovibrionales'
p29
(lp30
F0.0
aF0.0
aF0.0
aF0.0
aF0.0
aF0.0
aF0.0
aF0.0
aF1833.2373361079633
aF0.0
aF0.0
asS'Bacteria.Proteobacteria.Gammaproteobacteria.Pseudomonadales'
p31
(lp32
F101.5660706821724
aF206.04491222208304
aF21.580187661311903
aF0.0
aF0.0
aF0.0
aF80.5176863454717
aF7977.050252900174
aF173.41434260480733
aF302.34315948601653
aF2023.8818053025698
asS'Bacteria.Firmicutes.Clostridia.Lachnospirales'
p33
(lp34
F191127.8130871788
aF16291.470019073076
aF21437.758422747243
aF18312.35742599162
aF238523.28305820096
aF178044.04451811506
aF36563.505146775264
aF96555.02151538791
aF92987.24785244919
aF75069.28697404887
aF89282.10021106194
asS'Bacteria.Firmicutes.Clostridia'
p35
(lp36
F0.0
aF0.0
aF0.0
aF0.0
aF0.0
aF596.732180914042
aF0.0
aF0.0
aF0.0
aF0.0
aF0.0
asS'Bacteria.Firmicutes.Clostridia.Clostridia_vadinBB60_group'
p37
(lp38
F2382.8962736971216
aF247.8107728076404
aF38.84433779036143
aF2782.09053612164
aF739.4275227396234
aF947.1939379587968
aF402.5884317273585
aF0.0
aF12591.11994698476
aF0.0
aF0.0
asS'Bacteria.Firmicutes.Bacilli.RF39'
p39
(lp40
F0.0
aF0.0
aF0.0
aF32.526389744212466
aF1033.4167787686304
aF1373.4312100402556
aF1279.8074355964452
aF19275.77442814364
aF1690.7898403968716
aF8012.0937263794385
aF19891.8668864024
asS'Bacteria.Proteobacteria.Gammaproteobacteria.Pasteurellales'
p41
(lp42
F105.47245801610211
aF52.903423408372674
aF0.0
aF52.04222359073995
aF356.35061336849327
aF824.0587260241533
aF0.0
aF1786.6579430785878
aF222.96129763475227
aF0.0
aF0.0
asS'Bacteria.Proteobacteria.Alphaproteobacteria'
p43
(lp44
F0.0
aF826.964039594036
aF0.0
aF12028.258927409772
aF133.63148001318498
aF0.0
aF334.78406427854026
aF578.7765167719369
aF247.73477514972473
aF0.0
aF0.0
asS'Bacteria.Proteobacteria.Gammaproteobacteria'
p45
(lp46
F3457.1527905277912
aF43327.90377145722
aF12136.697540721812
aF6904.268329704834
aF2538.9981202505146
aF5228.510537532558
aF4826.82340776275
aF41244.117869095855
aF7165.728371205788
aF9536.407155454772
aF16884.956775667153
asS'Bacteria.Cyanobacteria.Cyanobacteriia.Chloroplast'
p47
(lp48
F0.0
aF0.0
aF0.0
aF0.0
aF0.0
aF0.0
aF0.0
aF352.29874933943984
aF0.0
aF0.0
aF0.0
asS'Bacteria.Acidobacteriota.Blastocatellia.Blastocatellales'
p49
(lp50
F0.0
aF0.0
aF0.0
aF0.0
aF0.0
aF0.0
aF0.0
aF377.46294572082843
aF0.0
aF0.0
aF0.0
asS'Bacteria.Patescibacteria.Saccharimonadia.Saccharimonadales'
p51
(lp52
F0.0
aF41.76586058555737
aF0.0
aF1051.6866017295367
aF507.7996240501029
aF1288.1837556239636
aF1186.57643035432
aF6341.377488109918
aF1486.4086508983487
aF1234.5679012345677
aF9830.283054326768
asS'Bacteria.Proteobacteria.Alphaproteobacteria.Rhodospirillales'
p53
(lp54
F0.0
aF768.4918347742556
aF0.0
aF12028.258927409772
aF133.63148001318498
aF0.0
aF334.78406427854026
aF0.0
aF0.0
aF0.0
aF0.0
asS'Bacteria.Proteobacteria.Gammaproteobacteria.Burkholderiales'
p55
(lp56
F734.400818778785
aF41818.76400896574
aF5114.504475730921
aF6579.004432262709
aF1772.844301508254
aF2055.410845370589
aF4314.052878931063
aF21616.044691612777
aF4744.12094411723
aF4850.088183421515
aF4654.928152195911
asS'Bacteria.Campilobacterota.Campylobacteria.Campylobacterales'
p57
(lp58
F0.0
aF19.490734939926774
aF0.0
aF0.0
aF0.0
aF66.30357565711579
aF0.0
aF327.1345529580513
aF0.0
aF0.0
aF0.0
asS'Bacteria.Actinobacteriota.Actinobacteria'
p59
(lp60
F0.0
aF796.3357418312938
aF8.632075064524761
aF86.73703931789993
aF0.0
aF28.415818138763903
aF3335.127323888749
aF3321.67392234329
aF0.0
aF0.0
aF4597.102957758695
asS'Bacteria.Patescibacteria'
p61
(lp62
F0.0
aF41.76586058555737
aF0.0
aF1051.6866017295367
aF507.7996240501029
aF1288.1837556239636
aF1186.57643035432
aF6341.377488109918
aF1486.4086508983487
aF1234.5679012345677
aF9830.283054326768
asS'Bacteria.Proteobacteria.Alphaproteobacteria.Rhizobiales'
p63
(lp64
F0.0
aF36.19707917414972
aF0.0
aF0.0
aF0.0
aF0.0
aF0.0
aF0.0
aF247.73477514972473
aF0.0
aF0.0
asS'Bacteria.Firmicutes.Clostridia.Oscillospirales'
p65
(lp66
F94905.68027782225
aF3728.2991549374215
aF11191.485321156353
aF25316.37335091204
aF223191.29791802153
aF238115.08406346192
aF73309.23453106922
aF57953.144266337855
aF222942.71752661606
aF74225.24565381707
aF87518.43178072685
asS'Bacteria.Campilobacterota.Campylobacteria'
p67
(lp68
F0.0
aF19.490734939926774
aF0.0
aF0.0
aF0.0
aF66.30357565711579
aF0.0
aF327.1345529580513
aF0.0
aF0.0
aF0.0
asS'Bacteria.Firmicutes.Clostridia.Clostridiales'
p69
(lp70
F0.0
aF25.059516351334423
aF0.0
aF0.0
aF35.635061336849326
aF7444.944352356144
aF1491.6960838740022
aF11827.172299252623
aF371.6021627245872
aF100.78105316200552
aF0.0
asS'Bacteria.Acidobacteriota'
p71
(lp72
F0.0
aF0.0
aF0.0
aF0.0
aF0.0
aF0.0
aF0.0
aF377.46294572082843
aF0.0
aF0.0
aF0.0
asS'Bacteria.Firmicutes.Clostridia.Peptostreptococcales_Tissierellales'
p73
(lp74
F3148.5481911473444
aF116248.31196313468
aF1730.7310504372147
aF13693.61008231345
aF3144.794162976953
aF22798.95808666824
aF2483.3349578129696
aF9814.036588741537
aF2917.0769773880093
aF4182.413706223229
aF24142.0186775378
asS'Bacteria.Verrucomicrobiota'
p75
(lp76
F30399.506232640982
aF3825.752829637055
aF152571.92676547516
aF3142.0492492909248
aF587.9785120580138
aF11764.148709448256
aF37597.521750369735
aF0.0
aF6701.225667800055
aF82615.26832955402
aF24575.70763581692
asS'Bacteria.Firmicutes.Bacilli.Staphylococcales'
p77
(lp78
F0.0
aF0.0
aF0.0
aF0.0
aF0.0
aF0.0
aF25.426637793306853
aF1358.8666045949822
aF0.0
aF0.0
aF0.0
asS'Bacteria.Verrucomicrobiota.Verrucomicrobiae.Verrucomicrobiales'
p79
(lp80
F30399.506232640982
aF3825.752829637055
aF152571.92676547516
aF3142.0492492909248
aF587.9785120580138
aF11764.148709448256
aF37597.521750369735
aF0.0
aF6701.225667800055
aF82615.26832955402
aF24575.70763581692
asS'Bacteria.Firmicutes.Clostridia.Christensenellales'
p81
(lp82
F27.344711337507952
aF89.10050258252238
aF280.54243959705474
aF312.2533415444397
aF1211.592085452877
aF1733.364906464598
aF682.2814474537339
aF167014.77138327586
aF1635.0495159881834
aF3136.8102796674216
aF2515.395958018908
asS'Bacteria.Bacteroidota.Bacteroidia.Bacteroidales'
p83
(lp84
F652714.353238981
aF747959.7377103956
aF784336.2365879134
aF869538.8191619468
aF494561.19876346336
aF367672.27089746617
aF716717.5905718026
aF52089.886509474316
aF506722.9024606258
aF602003.0234315947
aF367218.89727354195
asS'Bacteria.Proteobacteria.Alphaproteobacteria.Sphingomonadales'
p85
(lp86
F0.0
aF22.275125645630595
aF0.0
aF0.0
aF0.0
aF0.0
aF0.0
aF578.7765167719369
aF0.0
aF0.0
aF0.0
asS'Bacteria.Actinobacteriota.Coriobacteriia'
p87
(lp88
F132.81716935361007
aF320.2049311559398
aF86.32075064524761
aF372.9692690669697
aF579.0697467238016
aF2102.770542268529
aF203.41310234645482
aF39205.81796220338
aF780.364541721633
aF1058.201058201058
aF4250.151791135397
asS'Bacteria.Firmicutes.Bacilli.Lactobacillales'
p89
(lp90
F10230.828427561904
aF51669.938325745876
aF8260.895836750196
aF23666.201177888994
aF8579.141016846475
aF61842.29220932985
aF82899.31475211146
aF82916.02707667531
aF55282.01507466108
aF5719.324766943813
aF43224.332841819174
asS'Bacteria.Firmicutes.Clostridia.Clostridia_UCG_014'
p91
(lp92
F5750.202155544529
aF38.98146987985355
aF0.0
aF9690.695717792369
aF11536.851107804969
aF71001.65758939141
aF23532.353277705493
aF275044.66644857696
aF35741.93468472653
aF116036.7850844041
aF176627.05640847713
asS'Bacteria.Cyanobacteria'
p93
(lp94
F242.19601470364185
aF573.5844853749879
aF0.0
aF4790.052996331024
aF293.9892560290069
aF0.0
aF745.8480419370011
aF2541.5838345202446
aF501.6629196781926
aF188.96447467876035
aF0.0
asS'Bacteria.Patescibacteria.Saccharimonadia'
p95
(lp96
F0.0
aF41.76586058555737
aF0.0
aF1051.6866017295367
aF507.7996240501029
aF1288.1837556239636
aF1186.57643035432
aF6341.377488109918
aF1486.4086508983487
aF1234.5679012345677
aF9830.283054326768
asS'Bacteria.Firmicutes.Clostridia.Clostridia'
p97
(lp98
F0.0
aF0.0
aF0.0
aF0.0
aF178.17530668424664
aF113.66327255505561
aF0.0
aF0.0
aF0.0
aF0.0
aF0.0
asS'Bacteria.Deferribacterota.Deferribacteres'
p99
(lp100
F253.915176705431
aF258.9483356304557
aF0.0
aF136.61083692569238
aF677.0661654001372
aF0.0
aF0.0
aF0.0
aF0.0
aF125.97631645250691
aF0.0
asS'Bacteria.Firmicutes.Bacilli.Izemoplasmatales'
p101
(lp102
F0.0
aF0.0
aF0.0
aF0.0
aF0.0
aF104.19133317546765
aF0.0
aF0.0
aF117.67401819611926
aF0.0
aF0.0
asS'Bacteria.Campilobacterota'
p103
(lp104
F0.0
aF19.490734939926774
aF0.0
aF0.0
aF0.0
aF66.30357565711579
aF0.0
aF327.1345529580513
aF0.0
aF0.0
aF0.0
asS'Bacteria.Bacteroidota.Bacteroidia'
p105
(lp106
F652714.353238981
aF747959.7377103956
aF784336.2365879134
aF869538.8191619468
aF494561.19876346336
aF367672.27089746617
aF716717.5905718026
aF52089.886509474316
aF506722.9024606258
aF602003.0234315947
aF367218.89727354195
asS'Bacteria.Firmicutes.Clostridia.Peptococcales'
p107
(lp108
F1820.3764976112438
aF180.9853958707486
aF215.80187661311905
aF604.9908492423519
aF3866.4041550481516
aF4442.339569026757
aF7051.654214677101
aF226.47776743249705
aF891.8451905390091
aF579.4910556815317
aF433.6889582791221
asS'Bacteria.Desulfobacterota.Desulfovibrionia'
p109
(lp110
F0.0
aF0.0
aF0.0
aF0.0
aF0.0
aF0.0
aF0.0
aF0.0
aF1833.2373361079633
aF0.0
aF0.0
asS'Bacteria.Bacteroidota'
p111
(lp112
F652714.353238981
aF747959.7377103956
aF784336.2365879134
aF869538.8191619468
aF494561.19876346336
aF367672.27089746617
aF716717.5905718026
aF52089.886509474316
aF506722.9024606258
aF602003.0234315947
aF367218.89727354195
asS'Bacteria'
p113
(lp114
F1000000.0
aF1000000.0
aF1000000.0
aF1000000.0
aF1000000.0
aF1000000.0
aF1000000.0
aF1000000.0
aF998600.2985204041
aF1000000.0
aF1000000.0
asS'Bacteria.Desulfobacterota'
p115
(lp116
F0.0
aF0.0
aF0.0
aF0.0
aF0.0
aF0.0
aF0.0
aF0.0
aF1833.2373361079633
aF0.0
aF0.0
asS'Bacteria.Firmicutes.Bacilli.Bacillales'
p117
(lp118
F0.0
aF0.0
aF0.0
aF0.0
aF0.0
aF0.0
aF0.0
aF931.0752661113767
aF0.0
aF0.0
aF0.0
asS'Bacteria.Cyanobacteria.Cyanobacteriia'
p119
(lp120
F0.0
aF0.0
aF0.0
aF0.0
aF0.0
aF0.0
aF0.0
aF352.29874933943984
aF0.0
aF0.0
aF0.0
asS'Bacteria.Actinobacteriota'
p121
(lp122
F132.81716935361007
aF1116.5406729872336
aF94.95282570977237
aF459.7063083848696
aF579.0697467238016
aF2131.186360407293
aF3538.540426235204
aF42527.49188454667
aF780.364541721633
aF1058.201058201058
aF8847.25474889409
asS'Bacteria.Firmicutes.Clostridia.Eubacteriales'
p123
(lp124
F0.0
aF0.0
aF0.0
aF0.0
aF0.0
aF75.77551503670375
aF0.0
aF0.0
aF111.48064881737614
aF365.33131771227005
aF1185.4164859629338
asS'Bacteria.Chloroflexi.Chloroflexia.Chloroflexales'
p125
(lp126
F0.0
aF0.0
aF0.0
aF0.0
aF0.0
aF0.0
aF0.0
aF0.0
aF179.60771198355044
aF0.0
aF0.0
asS'Bacteria.Proteobacteria.Gammaproteobacteria.Enterobacterales'
p127
(lp128
F2515.7134430507317
aF1250.1914268610174
aF7000.612877329581
aF273.22167385138476
aF409.80320537376724
aF2349.040966137816
aF432.25284248621654
aF9864.364981504315
aF2025.2317868489997
aF4383.97581254724
aF10003.758637638417
asS'Bacteria.Firmicutes.Clostridia.Monoglobales'
p129
(lp130
F910.1882488056219
aF0.0
aF2956.4857095997304
aF284.06380376612225
aF5167.0838938431525
aF9595.074591522613
aF55.09104855216485
aF60192.757744281436
aF16660.163628818987
aF340.1360544217686
aF1040.853499869893
asS'Bacteria.Firmicutes.Bacilli'
p131
(lp132
F1832.0956596130327
aF4772.445669576355
aF4117.499805778311
aF2831.9643337294324
aF0.0
aF899.834241060857
aF2428.2439092608047
aF4353.405973980221
aF23664.864396177458
aF8654.572940287224
aF23448.116344291204
asS'Bacteria.Cyanobacteria.Vampirivibrionia'
p133
(lp134
F242.19601470364185
aF573.5844853749879
aF0.0
aF4790.052996331024
aF293.9892560290069
aF0.0
aF745.8480419370011
aF2189.285085180805
aF501.6629196781926
aF188.96447467876035
aF0.0
asS'Bacteria.Acidobacteriota.Blastocatellia'
p135
(lp136
F0.0
aF0.0
aF0.0
aF0.0
aF0.0
aF0.0
aF0.0
aF377.46294572082843
aF0.0
aF0.0
aF0.0
asS'Bacteria.Proteobacteria.Gammaproteobacteria.Xanthomonadales'
p137
(lp138
F0.0
aF0.0
aF0.0
aF0.0
aF0.0
aF0.0
aF0.0
aF0.0
aF0.0
aF0.0
aF202.388180530257
asS'Bacteria.Cyanobacteria.Vampirivibrionia.Gastranaerophilales'
p139
(lp140
F242.19601470364185
aF573.5844853749879
aF0.0
aF4790.052996331024
aF293.9892560290069
aF0.0
aF745.8480419370011
aF2189.285085180805
aF501.6629196781926
aF188.96447467876035
aF0.0
asS'Bacteria.Deferribacterota.Deferribacteres.Deferribacterales'
p141
(lp142
F253.915176705431
aF258.9483356304557
aF0.0
aF136.61083692569238
aF677.0661654001372
aF0.0
aF0.0
aF0.0
aF0.0
aF125.97631645250691
aF0.0
asS'Bacteria.Verrucomicrobiota.Verrucomicrobiae'
p143
(lp144
F30399.506232640982
aF3825.752829637055
aF152571.92676547516
aF3142.0492492909248
aF587.9785120580138
aF11764.148709448256
aF37597.521750369735
aF0.0
aF6701.225667800055
aF82615.26832955402
aF24575.70763581692
asS'Bacteria.Proteobacteria'
p145
(lp146
F3457.1527905277912
aF44154.86781105125
aF12136.697540721812
aF18932.52725711461
aF2672.6296002636996
aF5228.510537532558
aF5161.607472041292
aF41822.89438586779
aF7413.463146355513
aF9536.407155454772
aF16884.956775667153
asS'Bacteria.Deferribacterota'
p147
(lp148
F253.915176705431
aF258.9483356304557
aF0.0
aF136.61083692569238
aF677.0661654001372
aF0.0
aF0.0
aF0.0
aF0.0
aF125.97631645250691
aF0.0
asS'Bacteria.Actinobacteriota.Coriobacteriia.Coriobacteriales'
p149
(lp150
F132.81716935361007
aF320.2049311559398
aF86.32075064524761
aF372.9692690669697
aF579.0697467238016
aF2102.770542268529
aF203.41310234645482
aF39205.81796220338
aF780.364541721633
aF1058.201058201058
aF4250.151791135397
asS'Bacteria.Firmicutes.Clostridia.uncultured'
p151
(lp152
F0.0
aF142.00392599089506
aF0.0
aF0.0
aF0.0
aF0.0
aF0.0
aF0.0
aF0.0
aF390.52658100277137
aF0.0
asS'Bacteria.Firmicutes.Bacilli.Erysipelotrichales'
p153
(lp154
F664.0858467680503
aF7133.6089880131985
aF630.1414797103076
aF4421.420579229948
aF2547.9068855847268
aF12616.623253611175
aF2818.11902209151
aF66508.97103600996
aF5004.242458024441
aF6424.792139077852
aF103333.6224593055
assS'subclass_sl'
p155
(dp156
g10
(I0
I4
tp157
sg12
(I4
I11
tp158
ssS'norm'
p159
F1000000.0
sS'cls'
p160
(dp161
S'class'
p162
(S'NC'
p163
S'NC'
p164
S'NC'
p165
g3
S'STD-NC'
p166
S'STD-NC'
p167
S'STD-NC'
p168
S'STD-NC'
p169
S'STD-NC'
p170
S'STD-NC'
p171
g5
tp172
sS'subclass'
p173
(lp174
S'NC_subcl'
p175
aS'NC_subcl'
p176
aS'NC_subcl'
p177
ag10
aS'STD-NC_subcl'
p178
aS'STD-NC_subcl'
p179
aS'STD-NC_subcl'
p180
aS'STD-NC_subcl'
p181
aS'STD-NC_subcl'
p182
aS'STD-NC_subcl'
p183
ag12
asS'subject'
p184
(S'S210421121673'
p185
S'S210421121674'
p186
S'S210421121675'
p187
S'S210421121676'
p188
S'S210421121682'
p189
S'S210421121683'
p190
S'S210421121684'
p191
S'S210421121694'
p192
S'S210421121695'
p193
S'S210421121696'
p194
S'S210421121697'
p195
tp196
ss.