(dp0
S'class_sl'
p1
(dp2
S'NC'
p3
(I0
I4
tp4
sS'STD-NC'
p5
(I4
I11
tp6
ssS'class_hierarchy'
p7
(dp8
g3
(lp9
S'NC_subcl'
p10
asg5
(lp11
S'STD-NC_subcl'
p12
assS'feats'
p13
(dp14
S'Bacteria.Firmicutes.Clostridia.Oscillospirales.Ruminococcaceae.Ruminococcaceae'
p15
(lp16
F0.0
aF0.0
aF0.0
aF0.0
aF80.178888007911
aF0.0
aF0.0
aF0.0
aF0.0
aF163.769211388259
aF0.0
asS'Bacteria.Firmicutes.Bacilli.Acholeplasmatales'
p17
(lp18
F0.0
aF1481.2958554344348
aF0.0
aF0.0
aF365.25937870270565
aF104.19133317546765
aF29.664410758857997
aF0.0
aF371.60216272458723
aF0.0
aF0.0
asS'Bacteria.Campilobacterota.Campylobacteria.Campylobacterales.Helicobacteraceae.Helicobacter'
p19
(lp20
F0.0
aF19.490734939926778
aF0.0
aF0.0
aF0.0
aF66.30357565711579
aF0.0
aF0.0
aF0.0
aF0.0
aF0.0
asS'Bacteria.Firmicutes.Clostridia.Oscillospirales.UCG_010'
p21
(lp22
F0.0
aF0.0
aF0.0
aF4172.051591190987
aF489.98209338167834
aF1373.4312100402556
aF817.8901823513705
aF0.0
aF1294.414200157312
aF642.4792139077853
aF0.0
asS'Eukaryota'
p23
(lp24
F0.0
aF0.0
aF0.0
aF0.0
aF0.0
aF0.0
aF0.0
aF0.0
aF1399.701479595945
aF0.0
aF0.0
asS'Bacteria.Desulfobacterota.Desulfovibrionia.Desulfovibrionales.Desulfovibrionaceae.Desulfovibrio'
p25
(lp26
F0.0
aF0.0
aF0.0
aF0.0
aF0.0
aF0.0
aF0.0
aF0.0
aF1833.2373361079638
aF0.0
aF0.0
asS'Bacteria.Actinobacteriota.Actinobacteria.Bifidobacteriales'
p27
(lp28
F0.0
aF796.335741831294
aF0.0
aF86.73703931789994
aF0.0
aF0.0
aF3263.08518347438
aF1509.8517828833133
aF0.0
aF0.0
aF4597.102957758695
asS'Bacteria.Bacteroidota.Bacteroidia'
p29
(lp30
F652714.3532389809
aF747959.7377103956
aF784336.2365879135
aF869538.8191619469
aF494561.1987634634
aF367672.27089746617
aF716717.5905718025
aF52089.886509474316
aF506722.9024606259
aF602003.0234315948
aF367218.89727354195
asS'Bacteria.Firmicutes.Clostridia.Clostridiales.Clostridiaceae.Candidatus_Arthromitus'
p31
(lp32
F0.0
aF0.0
aF0.0
aF0.0
aF0.0
aF0.0
aF0.0
aF0.0
aF260.12151390721107
aF0.0
aF0.0
asS'Bacteria.Firmicutes.Clostridia.Lachnospirales.Lachnospiraceae.Lachnospiraceae_UCG_006'
p33
(lp34
F402.35789539475985
aF0.0
aF0.0
aF0.0
aF2628.0857735926384
aF4139.237508879942
aF80.5176863454717
aF679.433302297491
aF2446.3809046035326
aF0.0
aF1098.6786943071095
asS'Bacteria.Proteobacteria.Alphaproteobacteria.Sphingomonadales.Sphingomonadaceae'
p35
(lp36
F0.0
aF22.2751256456306
aF0.0
aF0.0
aF0.0
aF0.0
aF0.0
aF578.7765167719368
aF0.0
aF0.0
aF0.0
asS'Bacteria.Firmicutes.Clostridia.Peptostreptococcales_Tissierellales.Anaerovoracaceae.Anaerovorax'
p37
(lp38
F296.8854373786578
aF0.0
aF207.1698015485943
aF110.58972513032242
aF775.062584076473
aF1136.6327255505562
aF0.0
aF0.0
aF136.25412633234865
aF0.0
aF0.0
asS'Bacteria.Proteobacteria.Gammaproteobacteria.Xanthomonadales.Xanthomonadaceae.Stenotrophomonas'
p39
(lp40
F0.0
aF0.0
aF0.0
aF0.0
aF0.0
aF0.0
aF0.0
aF0.0
aF0.0
aF0.0
aF202.388180530257
asS'Bacteria.Bacteroidota.Bacteroidia.Bacteroidales.Prevotellaceae.Prevotellaceae_UCG_001'
p41
(lp42
F66533.58907149077
aF4597.029055117016
aF77913.10953240051
aF13624.220450859133
aF16810.84018565867
aF4196.06914515747
aF54438.43151546997
aF931.0752661113764
aF19341.892569814765
aF27954.144620811287
aF12808.280567843407
asS'Bacteria.Firmicutes.Clostridia.Lachnospirales.Lachnospiraceae.Lachnospiraceae_UCG_001'
p43
(lp44
F0.0
aF0.0
aF0.0
aF212.50574632885488
aF151.44901068160965
aF0.0
aF974.6877820767628
aF427.79133848360544
aF452.11596464824777
aF352.73368606701945
aF0.0
asS'Bacteria.Proteobacteria.Gammaproteobacteria'
p45
(lp46
F3457.1527905277912
aF43327.90377145722
aF12136.697540721818
aF6904.268329704836
aF2538.998120250515
aF5228.510537532558
aF4826.823407762751
aF41244.11786909585
aF7165.728371205791
aF9536.407155454774
aF16884.956775667153
asS'Bacteria.Proteobacteria.Alphaproteobacteria.Rhodospirillales'
p47
(lp48
F0.0
aF768.4918347742557
aF0.0
aF12028.258927409775
aF133.631480013185
aF0.0
aF334.78406427854026
aF0.0
aF0.0
aF0.0
aF0.0
asS'Bacteria.Actinobacteriota.Actinobacteria.Micrococcales.Micrococcaceae.Rothia'
p49
(lp50
F0.0
aF0.0
aF8.632075064524763
aF0.0
aF0.0
aF0.0
aF72.04214041436941
aF1811.822139459976
aF0.0
aF0.0
aF0.0
asS'Bacteria.Firmicutes.Clostridia.Lachnospirales.Lachnospiraceae.Tyzzerella'
p51
(lp52
F2089.9172236523937
aF0.0
aF0.0
aF0.0
aF0.0
aF0.0
aF0.0
aF0.0
aF0.0
aF0.0
aF0.0
asS'Bacteria.Proteobacteria.Alphaproteobacteria.Rhodospirillales.uncultured.uncultured'
p53
(lp54
F0.0
aF768.4918347742557
aF0.0
aF12028.258927409775
aF133.631480013185
aF0.0
aF334.78406427854026
aF0.0
aF0.0
aF0.0
aF0.0
asS'Bacteria.Firmicutes.Bacilli.Erysipelotrichales.Erysipelatoclostridiaceae.Erysipelotrichaceae_UCG_003'
p55
(lp56
F0.0
aF0.0
aF0.0
aF0.0
aF0.0
aF0.0
aF0.0
aF0.0
aF0.0
aF0.0
aF1243.24168040015
asS'Bacteria.Firmicutes.Clostridia.Eubacteriales'
p57
(lp58
F0.0
aF0.0
aF0.0
aF0.0
aF0.0
aF75.77551503670375
aF0.0
aF0.0
aF111.48064881737616
aF365.3313177122701
aF1185.4164859629338
asS'Bacteria.Firmicutes.Clostridia.Peptostreptococcales_Tissierellales.Peptostreptococcaceae.Romboutsia'
p59
(lp60
F2519.6198303846613
aF98614.76562391238
aF1277.547109549665
aF13058.261269309836
aF285.0804906947946
aF20421.50130239166
aF1364.5628949074678
aF9814.036588741536
aF1833.2373361079638
aF856.6389518770471
aF22291.612455546874
asS'Bacteria.Bacteroidota.Bacteroidia.Bacteroidales.Rikenellaceae'
p61
(lp62
F26383.740053361245
aF26649.40344429131
aF0.0
aF25817.279752972918
aF8516.77965950699
aF3665.640539900544
aF11751.34443347332
aF0.0
aF9766.9435102779
aF2658.100277147896
aF0.0
asS'Bacteria.Acidobacteriota'
p63
(lp64
F0.0
aF0.0
aF0.0
aF0.0
aF0.0
aF0.0
aF0.0
aF377.4629457208283
aF0.0
aF0.0
aF0.0
asS'Bacteria.Verrucomicrobiota.Verrucomicrobiae.Verrucomicrobiales.Akkermansiaceae.Akkermansia'
p65
(lp66
F30399.506232640982
aF3825.7528296370556
aF152571.9267654752
aF3142.0492492909257
aF587.978512058014
aF11764.148709448256
aF37597.521750369735
aF0.0
aF6701.225667800056
aF82615.26832955405
aF24575.70763581692
asS'Bacteria.Bacteroidota.Bacteroidia.Bacteroidales'
p67
(lp68
F652714.3532389809
aF747959.7377103956
aF784336.2365879135
aF869538.8191619469
aF494561.1987634634
aF367672.27089746617
aF716717.5905718025
aF52089.886509474316
aF506722.9024606259
aF602003.0234315948
aF367218.89727354195
asS'Bacteria.Bacteroidota.Bacteroidia.Bacteroidales.Muribaculaceae.Muribaculum'
p69
(lp70
F8875.312022688295
aF356.4020103300896
aF14484.621958272553
aF13483.272761967546
aF2245.008864221508
aF1202.936301207672
aF6538.883685845413
aF0.0
aF959.9722537051837
aF0.0
aF0.0
asS'Bacteria.Bacteroidota.Bacteroidia.Bacteroidales.Rikenellaceae.Alistipes'
p71
(lp72
F26383.740053361245
aF26649.40344429131
aF0.0
aF25817.279752972918
aF8516.77965950699
aF3665.640539900544
aF11751.34443347332
aF0.0
aF9766.9435102779
aF2658.100277147896
aF0.0
asS'Bacteria.Firmicutes.Clostridia.Lachnospirales.Lachnospiraceae.Lachnospiraceae_NK4A136_group'
p73
(lp74
F95585.39167392602
aF0.0
aF427.2877156939758
aF3751.376950499173
aF50379.06796497074
aF15297.18209803457
aF9933.339831251878
aF830.4184805858223
aF32224.100877600456
aF18102.796674225247
aF14138.26003989938
asS'Bacteria.Firmicutes.Clostridia.Lachnospirales.Lachnospiraceae.Roseburia'
p75
(lp76
F5113.461020113987
aF3697.6708571746794
aF7212.09871641044
aF182.1477825675899
aF0.0
aF4527.587023443049
aF961.9744631801094
aF528.4481240091596
aF2403.027318952331
aF188.9644746787604
aF0.0
asS'Bacteria.Firmicutes.Clostridia.Lachnospirales.Lachnospiraceae.Anaerostipes'
p77
(lp78
F0.0
aF506.7591084380962
aF0.0
aF0.0
aF0.0
aF0.0
aF0.0
aF0.0
aF0.0
aF0.0
aF0.0
asS'Bacteria.Firmicutes.Clostridia.Peptococcales.Peptococcaceae.Peptococcus'
p79
(lp80
F0.0
aF0.0
aF0.0
aF0.0
aF329.6243173658563
aF0.0
aF0.0
aF0.0
aF111.48064881737616
aF0.0
aF0.0
asS'Bacteria.Firmicutes.Bacilli.Erysipelotrichales.Erysipelotrichaceae.uncultured'
p81
(lp82
F50.7830353410862
aF0.0
aF0.0
aF192.98991248232736
aF124.72271467897266
aF1136.6327255505562
aF767.0369067647567
aF8027.378645662949
aF1331.574416429771
aF617.283950617284
aF346.9511666232977
asS'Bacteria.Acidobacteriota.Blastocatellia.Blastocatellales.Blastocatellaceae'
p83
(lp84
F0.0
aF0.0
aF0.0
aF0.0
aF0.0
aF0.0
aF0.0
aF377.4629457208283
aF0.0
aF0.0
aF0.0
asS'Bacteria.Firmicutes.Clostridia.Lachnospirales.Lachnospiraceae.Lachnospiraceae_NC2004_group'
p85
(lp86
F0.0
aF0.0
aF0.0
aF0.0
aF2868.622437616371
aF16083.353066540372
aF0.0
aF0.0
aF0.0
aF781.053162005543
aF0.0
asS'Bacteria.Cyanobacteria.Cyanobacteriia.Chloroplast.Chloroplast'
p87
(lp88
F0.0
aF0.0
aF0.0
aF0.0
aF0.0
aF0.0
aF0.0
aF352.2987493394398
aF0.0
aF0.0
aF0.0
asS'Bacteria.Actinobacteriota.Actinobacteria.Bifidobacteriales.Bifidobacteriaceae.Bifidobacterium'
p89
(lp90
F0.0
aF796.335741831294
aF0.0
aF86.73703931789994
aF0.0
aF0.0
aF3263.08518347438
aF1509.8517828833133
aF0.0
aF0.0
aF4597.102957758695
asS'Bacteria.Firmicutes.Clostridia.Oscillospirales.Ruminococcaceae.Anaerofilum'
p91
(lp92
F0.0
aF0.0
aF0.0
aF0.0
aF712.7012267369867
aF0.0
aF0.0
aF0.0
aF0.0
aF0.0
aF0.0
asS'Bacteria.Firmicutes.Bacilli.Lactobacillales.Lactobacillaceae.Lactobacillus'
p93
(lp94
F9812.844982831426
aF50188.642470311446
aF7272.5232418621135
aF23590.306268485838
aF8579.141016846477
aF61842.29220932985
aF82695.901649765
aF77858.0236040162
aF55282.01507466109
aF5215.419501133787
aF43224.332841819174
asS'Bacteria.Firmicutes.Bacilli.Staphylococcales.Staphylococcaceae.Staphylococcus'
p95
(lp96
F0.0
aF0.0
aF0.0
aF0.0
aF0.0
aF0.0
aF0.0
aF1358.866604594982
aF0.0
aF0.0
aF0.0
asS'Bacteria.Firmicutes.Bacilli.RF39.RF39.RF39'
p97
(lp98
F0.0
aF0.0
aF0.0
aF32.52638974421247
aF1033.4167787686306
aF1373.4312100402556
aF1279.8074355964452
aF19275.77442814363
aF1690.7898403968718
aF8012.09372637944
aF19891.8668864024
asS'Bacteria.Firmicutes.Clostridia.Lachnospirales.Lachnospiraceae.Lachnospiraceae_UCG_010'
p99
(lp100
F222.66407803399332
aF0.0
aF0.0
aF0.0
aF106.90518401054798
aF0.0
aF0.0
aF0.0
aF43.35358565120184
aF0.0
aF0.0
asS'Bacteria.Firmicutes.Bacilli.Erysipelotrichales.Erysipelotrichaceae.Allobaculum'
p101
(lp102
F0.0
aF904.926979353743
aF0.0
aF776.2965018952045
aF1167.0482587818155
aF975.6097560975608
aF0.0
aF20508.820050831673
aF501.66291967819274
aF0.0
aF0.0
asS'Bacteria.Firmicutes.Bacilli.Bacillales'
p103
(lp104
F0.0
aF0.0
aF0.0
aF0.0
aF0.0
aF0.0
aF0.0
aF931.0752661113764
aF0.0
aF0.0
aF0.0
asS'Bacteria.Proteobacteria.Alphaproteobacteria.Rhizobiales.Rhizobiaceae'
p105
(lp106
F0.0
aF36.19707917414973
aF0.0
aF0.0
aF0.0
aF0.0
aF0.0
aF0.0
aF247.73477514972478
aF0.0
aF0.0
asS'Bacteria.Desulfobacterota'
p107
(lp108
F0.0
aF0.0
aF0.0
aF0.0
aF0.0
aF0.0
aF0.0
aF0.0
aF1833.2373361079638
aF0.0
aF0.0
asS'Bacteria.Firmicutes.Bacilli.Lactobacillales.Aerococcaceae.Aerococcus'
p109
(lp110
F0.0
aF0.0
aF302.1226272583667
aF26.021111795369983
aF0.0
aF0.0
aF0.0
aF0.0
aF0.0
aF0.0
aF0.0
asS'Bacteria.Actinobacteriota.Coriobacteriia.Coriobacteriales.uncultured.uncultured'
p111
(lp112
F35.15748600536737
aF0.0
aF30.21226272583667
aF0.0
aF178.17530668424666
aF492.54084773857437
aF0.0
aF12003.32167392234
aF575.9833522231102
aF806.2484252960444
aF1127.5912915257175
asS'Bacteria.Firmicutes.Bacilli.Erysipelotrichales.Erysipelatoclostridiaceae.Candidatus_Stoquefichus'
p113
(lp114
F199.2257540304151
aF0.0
aF0.0
aF0.0
aF0.0
aF0.0
aF0.0
aF0.0
aF0.0
aF0.0
aF0.0
asS'Bacteria.Chloroflexi.Chloroflexia.Chloroflexales'
p115
(lp116
F0.0
aF0.0
aF0.0
aF0.0
aF0.0
aF0.0
aF0.0
aF0.0
aF179.6077119835505
aF0.0
aF0.0
asS'Bacteria.Firmicutes.Bacilli.Erysipelotrichales.Erysipelotrichaceae.Faecalibaculum'
p117
(lp118
F0.0
aF111.375628228153
aF0.0
aF86.73703931789994
aF0.0
aF179.9668482121714
aF88.99323227657399
aF855.5826769672109
aF0.0
aF188.9644746787604
aF1011.9409026512849
asS'Bacteria.Firmicutes.Clostridia.Monoglobales'
p119
(lp120
F910.1882488056219
aF0.0
aF2956.4857095997313
aF284.06380376612236
aF5167.083893843153
aF9595.074591522613
aF55.09104855216485
aF60192.75774428142
aF16660.16362881899
aF340.1360544217687
aF1040.853499869893
asS'Bacteria.Firmicutes.Bacilli.Staphylococcales'
p121
(lp122
F0.0
aF0.0
aF0.0
aF0.0
aF0.0
aF0.0
aF25.426637793306853
aF1358.866604594982
aF0.0
aF0.0
aF0.0
asS'Bacteria.Cyanobacteria.Vampirivibrionia'
p123
(lp124
F242.19601470364185
aF573.5844853749879
aF0.0
aF4790.052996331025
aF293.989256029007
aF0.0
aF745.8480419370011
aF2189.2850851808043
aF501.66291967819274
aF188.9644746787604
aF0.0
asS'Bacteria.Actinobacteriota.Coriobacteriia.Coriobacteriales.Eggerthellaceae.Gordonibacter'
p125
(lp126
F0.0
aF0.0
aF0.0
aF0.0
aF0.0
aF0.0
aF0.0
aF0.0
aF43.35358565120184
aF0.0
aF0.0
asS'Bacteria.Firmicutes.Clostridia.Oscillospirales.Butyricicoccaceae'
p127
(lp128
F0.0
aF0.0
aF0.0
aF0.0
aF0.0
aF142.07909069381952
aF0.0
aF0.0
aF0.0
aF0.0
aF0.0
asS'Bacteria.Bacteroidota.Bacteroidia.Bacteroidales.Muribaculaceae.Muribaculaceae'
p129
(lp130
F409381.5798211655
aF312403.0683985578
aF464699.1290236261
aF551402.5379257705
aF388912.1506650394
aF330921.1461046649
aF384344.8191106609
aF47107.37562595938
aF383072.28281401953
aF446875.7873519778
aF333188.77034724026
asS'Bacteria.Deferribacterota.Deferribacteres.Deferribacterales.Deferribacteraceae'
p131
(lp132
F253.915176705431
aF258.94833563045574
aF0.0
aF136.6108369256924
aF677.0661654001373
aF0.0
aF0.0
aF0.0
aF0.0
aF125.97631645250694
aF0.0
asS'Bacteria.Deferribacterota'
p133
(lp134
F253.915176705431
aF258.94833563045574
aF0.0
aF136.6108369256924
aF677.0661654001373
aF0.0
aF0.0
aF0.0
aF0.0
aF125.97631645250694
aF0.0
asS'Bacteria.Actinobacteriota.Coriobacteriia.Coriobacteriales'
p135
(lp136
F132.81716935361004
aF320.2049311559399
aF86.32075064524763
aF372.9692690669698
aF579.0697467238017
aF2102.770542268529
aF203.41310234645482
aF39205.817962203364
aF780.3645417216331
aF1058.2010582010582
aF4250.151791135397
asS'Bacteria.Deferribacterota.Deferribacteres.Deferribacterales'
p137
(lp138
F253.915176705431
aF258.94833563045574
aF0.0
aF136.6108369256924
aF677.0661654001373
aF0.0
aF0.0
aF0.0
aF0.0
aF125.97631645250694
aF0.0
asS'Bacteria.Proteobacteria.Alphaproteobacteria.Rhizobiales.Rhizobiaceae.Allorhizobium_Neorhizobium_Pararhizobium_Rhizobium'
p139
(lp140
F0.0
aF36.19707917414973
aF0.0
aF0.0
aF0.0
aF0.0
aF0.0
aF0.0
aF247.73477514972478
aF0.0
aF0.0
asS'Bacteria.Bacteroidota.Bacteroidia.Bacteroidales.Prevotellaceae.Prevotellaceae_NK3B31_group'
p141
(lp142
F30270.595450621306
aF568.0157039635803
aF139356.2198416878
aF190329.25380125077
aF68223.32492939803
aF26095.192990764852
aF217732.53719705215
aF4051.435617403557
aF86416.08294160276
aF117888.63693625598
aF20180.99285858848
asS'Bacteria.Patescibacteria'
p143
(lp144
F0.0
aF41.76586058555737
aF0.0
aF1051.686601729537
aF507.799624050103
aF1288.1837556239636
aF1186.57643035432
aF6341.377488109916
aF1486.408650898349
aF1234.567901234568
aF9830.283054326768
asS'Bacteria.Bacteroidota.Bacteroidia.Bacteroidales.Tannerellaceae.Parabacteroides'
p145
(lp146
F6691.6415030215885
aF81847.16479416394
aF22931.107408910033
aF8216.166049388072
aF320.715552031644
aF483.0689083589864
aF8636.58130379323
aF0.0
aF2464.9610127397623
aF2292.768959435626
aF838.465319339636
asS'Bacteria.Actinobacteriota.Actinobacteria.Micrococcales'
p147
(lp148
F0.0
aF0.0
aF8.632075064524763
aF0.0
aF0.0
aF28.415818138763903
aF72.04214041436941
aF1811.822139459976
aF0.0
aF0.0
aF0.0
asS'Bacteria.Firmicutes.Clostridia.Lachnospirales.Lachnospiraceae.Frisingicoccus'
p149
(lp150
F0.0
aF506.7591084380962
aF0.0
aF34.69481572715998
aF0.0
aF700.9235140895096
aF76.27991337992057
aF578.7765167719368
aF1040.4860556288443
aF0.0
aF0.0
asS'Bacteria.Desulfobacterota.Desulfovibrionia'
p151
(lp152
F0.0
aF0.0
aF0.0
aF0.0
aF0.0
aF0.0
aF0.0
aF0.0
aF1833.2373361079638
aF0.0
aF0.0
asS'Bacteria.Firmicutes.Clostridia.Clostridia_UCG_014.Clostridia_UCG_014'
p153
(lp154
F5750.202155544529
aF38.981469879853556
aF0.0
aF9690.69571779237
aF11536.85110780497
aF71001.65758939141
aF23532.353277705493
aF275044.6664485769
aF35741.93468472655
aF116036.78508440412
aF176627.05640847713
asS'Bacteria.Proteobacteria.Alphaproteobacteria.Sphingomonadales.Sphingomonadaceae.Sphingobium'
p155
(lp156
F0.0
aF0.0
aF0.0
aF0.0
aF0.0
aF0.0
aF0.0
aF578.7765167719368
aF0.0
aF0.0
aF0.0
asS'Bacteria.Firmicutes.Clostridia.Oscillospirales.Oscillospiraceae.Flavonifractor'
p157
(lp158
F0.0
aF261.73272633615954
aF0.0
aF0.0
aF0.0
aF0.0
aF0.0
aF0.0
aF0.0
aF0.0
aF0.0
asS'Bacteria.Proteobacteria.Gammaproteobacteria.Pasteurellales.Pasteurellaceae.Haemophilus'
p159
(lp160
F105.47245801610211
aF0.0
aF0.0
aF0.0
aF0.0
aF0.0
aF0.0
aF0.0
aF0.0
aF0.0
aF0.0
asS'Bacteria.Firmicutes.Clostridia.Oscillospirales.Oscillospiraceae.NK4A214_group'
p161
(lp162
F54.689422675015905
aF66.8253769368918
aF224.43395167764385
aF117.09500307916493
aF10895.420003741683
aF12616.623253611175
aF584.8126692460577
aF1912.4789249855303
aF2050.005264363973
aF1133.7868480725624
aF375.8637638419058
asS'Bacteria.Desulfobacterota.Desulfovibrionia.Desulfovibrionales'
p163
(lp164
F0.0
aF0.0
aF0.0
aF0.0
aF0.0
aF0.0
aF0.0
aF0.0
aF1833.2373361079638
aF0.0
aF0.0
asS'Bacteria.Actinobacteriota.Coriobacteriia.Coriobacteriales.Coriobacteriales_Incertae_Sedis.uncultured'
p165
(lp166
F0.0
aF0.0
aF0.0
aF0.0
aF0.0
aF0.0
aF0.0
aF1535.0159792647019
aF0.0
aF0.0
aF0.0
asS'Bacteria.Deferribacterota.Deferribacteres.Deferribacterales.Deferribacteraceae.Mucispirillum'
p167
(lp168
F253.915176705431
aF258.94833563045574
aF0.0
aF136.6108369256924
aF677.0661654001373
aF0.0
aF0.0
aF0.0
aF0.0
aF125.97631645250694
aF0.0
asS'Bacteria.Firmicutes.Bacilli.RF39.RF39'
p169
(lp170
F0.0
aF0.0
aF0.0
aF32.52638974421247
aF1033.4167787686306
aF1373.4312100402556
aF1279.8074355964452
aF19275.77442814363
aF1690.7898403968718
aF8012.09372637944
aF19891.8668864024
asS'Bacteria.Proteobacteria.Gammaproteobacteria.Pseudomonadales.Moraxellaceae.Acinetobacter'
p171
(lp172
F0.0
aF30.628297762742076
aF0.0
aF0.0
aF0.0
aF0.0
aF0.0
aF1157.5530335438737
aF49.54695502994496
aF0.0
aF0.0
asS'Bacteria.Firmicutes.Clostridia.Clostridia_vadinBB60_group'
p173
(lp174
F2382.8962736971216
aF247.81077280764043
aF38.844337790361436
aF2782.090536121641
aF739.4275227396236
aF947.1939379587968
aF402.5884317273585
aF0.0
aF12591.119946984763
aF0.0
aF0.0
asS'Bacteria.Firmicutes.Bacilli.Izemoplasmatales.Izemoplasmatales.Izemoplasmatales'
p175
(lp176
F0.0
aF0.0
aF0.0
aF0.0
aF0.0
aF104.19133317546765
aF0.0
aF0.0
aF117.67401819611929
aF0.0
aF0.0
asS'Bacteria.Firmicutes.Bacilli.Erysipelotrichales.Erysipelatoclostridiaceae.UCG_004'
p177
(lp178
F414.077057396549
aF97.45367469963388
aF0.0
aF381.6429729987597
aF329.6243173658563
aF729.3393322282735
aF0.0
aF251.64196381388555
aF1263.4473532635966
aF0.0
aF0.0
asS'Bacteria.Cyanobacteria.Vampirivibrionia.Gastranaerophilales.Gastranaerophilales'
p179
(lp180
F242.19601470364185
aF573.5844853749879
aF0.0
aF4790.052996331025
aF293.989256029007
aF0.0
aF745.8480419370011
aF2189.2850851808043
aF501.66291967819274
aF188.9644746787604
aF0.0
asS'Bacteria.Proteobacteria.Gammaproteobacteria.Burkholderiales.Alcaligenaceae.Achromobacter'
p181
(lp182
F0.0
aF0.0
aF0.0
aF0.0
aF0.0
aF47.35969689793984
aF0.0
aF956.2394624927651
aF0.0
aF0.0
aF0.0
asS'Bacteria.Firmicutes.Clostridia.Oscillospirales.Oscillospiraceae.Colidextribacter'
p183
(lp184
F4132.95779929763
aF47.334641996965026
aF500.66035374243626
aF438.0220485553947
aF3420.9658883375355
aF1335.5434525219036
aF673.8059015226316
aF931.0752661113764
aF1120.9998575525049
aF0.0
aF0.0
asS'Bacteria.Bacteroidota.Bacteroidia.Bacteroidales.Tannerellaceae'
p185
(lp186
F6691.6415030215885
aF81847.16479416394
aF22931.107408910033
aF8216.166049388072
aF320.715552031644
aF483.0689083589864
aF8636.58130379323
aF0.0
aF2464.9610127397623
aF2292.768959435626
aF838.465319339636
asS'Bacteria.Acidobacteriota.Blastocatellia.Blastocatellales'
p187
(lp188
F0.0
aF0.0
aF0.0
aF0.0
aF0.0
aF0.0
aF0.0
aF377.4629457208283
aF0.0
aF0.0
aF0.0
asS'Bacteria.Firmicutes.Clostridia.Clostridiales.Clostridiaceae.Clostridium_sensu_stricto_1'
p189
(lp190
F0.0
aF25.059516351334427
aF0.0
aF0.0
aF35.635061336849326
aF7444.944352356144
aF1491.6960838740022
aF11827.172299252621
aF111.48064881737616
aF100.78105316200555
aF0.0
asS'Bacteria.Campilobacterota.Campylobacteria.Campylobacterales'
p191
(lp192
F0.0
aF19.490734939926778
aF0.0
aF0.0
aF0.0
aF66.30357565711579
aF0.0
aF327.1345529580512
aF0.0
aF0.0
aF0.0
asS'Bacteria.Proteobacteria.Gammaproteobacteria.Xanthomonadales.Xanthomonadaceae'
p193
(lp194
F0.0
aF0.0
aF0.0
aF0.0
aF0.0
aF0.0
aF0.0
aF0.0
aF0.0
aF0.0
aF202.388180530257
asS'Bacteria.Firmicutes.Clostridia.Lachnospirales.Lachnospiraceae.GCA_900066575'
p195
(lp196
F718.7752694430661
aF0.0
aF168.32546375823287
aF223.34787624359234
aF1755.0267708398294
aF681.9796353303337
aF656.8548096604271
aF0.0
aF198.18782011977984
aF0.0
aF0.0
asS'Bacteria.Proteobacteria.Alphaproteobacteria.Rhizobiales'
p197
(lp198
F0.0
aF36.19707917414973
aF0.0
aF0.0
aF0.0
aF0.0
aF0.0
aF0.0
aF247.73477514972478
aF0.0
aF0.0
asS'Bacteria.Firmicutes.Clostridia.Lachnospirales.Defluviitaleaceae.Defluviitaleaceae_UCG_011'
p199
(lp200
F0.0
aF55.6878141140765
aF0.0
aF134.4424109427449
aF106.90518401054798
aF644.0918778119818
aF114.41987006988086
aF0.0
aF545.0165053293946
aF1662.8873771730914
aF0.0
asS'Bacteria.Firmicutes.Bacilli.RF39'
p201
(lp202
F0.0
aF0.0
aF0.0
aF32.52638974421247
aF1033.4167787686306
aF1373.4312100402556
aF1279.8074355964452
aF19275.77442814363
aF1690.7898403968718
aF8012.09372637944
aF19891.8668864024
asS'Bacteria.Firmicutes.Clostridia.Peptostreptococcales_Tissierellales'
p203
(lp204
F3148.5481911473444
aF116248.31196313469
aF1730.7310504372151
aF13693.610082313453
aF3144.794162976953
aF22798.95808666824
aF2483.3349578129696
aF9814.036588741536
aF2917.0769773880093
aF4182.41370622323
aF24142.018677537795
asS'Bacteria.Proteobacteria.Gammaproteobacteria.Enterobacterales.Erwiniaceae'
p205
(lp206
F0.0
aF0.0
aF0.0
aF0.0
aF0.0
aF0.0
aF0.0
aF0.0
aF0.0
aF138.57394809775764
aF0.0
asS'Bacteria.Firmicutes.Clostridia.Peptostreptococcales_Tissierellales.Anaerovoracaceae.Family_XIII_UCG_001'
p207
(lp208
F156.2554933571883
aF0.0
aF0.0
aF0.0
aF267.26296002637
aF208.3826663509353
aF0.0
aF0.0
aF148.6408650898349
aF0.0
aF0.0
asS'Bacteria.Firmicutes.Clostridia.Christensenellales.Christensenellaceae.Christensenellaceae_R_7_group'
p209
(lp210
F0.0
aF89.1005025825224
aF280.5424395970548
aF284.06380376612236
aF1211.5920854528772
aF1733.364906464598
aF682.2814474537339
aF167014.77138327583
aF1635.0495159881839
aF3136.8102796674225
aF2515.395958018908
asS'Bacteria.Cyanobacteria.Vampirivibrionia.Gastranaerophilales'
p211
(lp212
F242.19601470364185
aF573.5844853749879
aF0.0
aF4790.052996331025
aF293.989256029007
aF0.0
aF745.8480419370011
aF2189.2850851808043
aF501.66291967819274
aF188.9644746787604
aF0.0
asS'Bacteria.Actinobacteriota.Coriobacteriia.Coriobacteriales.Eggerthellaceae.Parvibacter'
p213
(lp214
F0.0
aF0.0
aF0.0
aF0.0
aF0.0
aF0.0
aF0.0
aF0.0
aF0.0
aF251.95263290501387
aF0.0
asS'Bacteria.Firmicutes.Bacilli.Bacillales.Bacillaceae.Anoxybacillus'
p215
(lp216
F0.0
aF0.0
aF0.0
aF0.0
aF0.0
aF0.0
aF0.0
aF931.0752661113764
aF0.0
aF0.0
aF0.0
asS'Bacteria.Firmicutes.Clostridia.Oscillospirales.Ruminococcaceae.Anaerotruncus'
p217
(lp218
F289.07266271079834
aF0.0
aF0.0
aF19.51583384652749
aF0.0
aF0.0
aF0.0
aF0.0
aF0.0
aF0.0
aF0.0
asS'Bacteria.Bacteroidota'
p219
(lp220
F652714.3532389809
aF747959.7377103956
aF784336.2365879135
aF869538.8191619469
aF494561.1987634634
aF367672.27089746617
aF716717.5905718025
aF52089.886509474316
aF506722.9024606259
aF602003.0234315948
aF367218.89727354195
asS'Bacteria.Actinobacteriota.Coriobacteriia'
p221
(lp222
F132.81716935361004
aF320.2049311559399
aF86.32075064524763
aF372.9692690669698
aF579.0697467238017
aF2102.770542268529
aF203.41310234645482
aF39205.817962203364
aF780.3645417216331
aF1058.2010582010582
aF4250.151791135397
asS'Bacteria.Firmicutes.Clostridia.Lachnospirales.Lachnospiraceae.Tuzzerella'
p223
(lp224
F0.0
aF0.0
aF0.0
aF23.852685812422482
aF0.0
aF0.0
aF0.0
aF0.0
aF0.0
aF0.0
aF0.0
asS'Bacteria.Firmicutes.Clostridia.Clostridia.Hungateiclostridiaceae'
p225
(lp226
F0.0
aF0.0
aF0.0
aF0.0
aF178.17530668424666
aF113.66327255505561
aF0.0
aF0.0
aF0.0
aF0.0
aF0.0
asS'Bacteria.Proteobacteria.Gammaproteobacteria.Pseudomonadales.Moraxellaceae'
p227
(lp228
F0.0
aF30.628297762742076
aF0.0
aF0.0
aF0.0
aF0.0
aF0.0
aF1157.5530335438737
aF49.54695502994496
aF0.0
aF0.0
asS'Bacteria.Firmicutes.Clostridia.Oscillospirales.Oscillospiraceae.uncultured'
p229
(lp230
F14824.739932263241
aF0.0
aF4471.414883423828
aF1485.3717983190365
aF13933.30898270809
aF2140.658299786881
aF1525.5982675984114
aF0.0
aF14337.650111790324
aF377.9289493575208
aF0.0
asS'Bacteria.Firmicutes.Clostridia.Oscillospirales.Ruminococcaceae.Paludicola'
p231
(lp232
F0.0
aF0.0
aF64.74056298393572
aF36.863241710107474
aF0.0
aF0.0
aF0.0
aF0.0
aF0.0
aF0.0
aF0.0
asS'Bacteria.Verrucomicrobiota'
p233
(lp234
F30399.506232640982
aF3825.7528296370556
aF152571.9267654752
aF3142.0492492909257
aF587.978512058014
aF11764.148709448256
aF37597.521750369735
aF0.0
aF6701.225667800056
aF82615.26832955405
aF24575.70763581692
asS'Bacteria.Cyanobacteria.Cyanobacteriia.Chloroplast.Chloroplast.Chloroplast'
p235
(lp236
F0.0
aF0.0
aF0.0
aF0.0
aF0.0
aF0.0
aF0.0
aF352.2987493394398
aF0.0
aF0.0
aF0.0
asS'Bacteria.Firmicutes.Clostridia.Lachnospirales.Lachnospiraceae._Eubacterium__ventriosum_group'
p237
(lp238
F82.03413401252386
aF0.0
aF0.0
aF0.0
aF873.0590027528086
aF0.0
aF385.637339865154
aF0.0
aF0.0
aF0.0
aF0.0
asS'Bacteria.Campilobacterota'
p239
(lp240
F0.0
aF19.490734939926778
aF0.0
aF0.0
aF0.0
aF66.30357565711579
aF0.0
aF327.1345529580512
aF0.0
aF0.0
aF0.0
asS'Bacteria.Firmicutes.Clostridia.Lachnospirales.Lachnospiraceae.Lachnoclostridium'
p241
(lp242
F246.10240203757158
aF5680.157039635803
aF0.0
aF346.94815727159977
aF819.6064107475346
aF0.0
aF0.0
aF377.4629457208283
aF0.0
aF0.0
aF636.0771388093791
asS'Bacteria.Campilobacterota.Campylobacteria.Campylobacterales.Campylobacteraceae'
p243
(lp244
F0.0
aF0.0
aF0.0
aF0.0
aF0.0
aF0.0
aF0.0
aF327.1345529580512
aF0.0
aF0.0
aF0.0
asS'Bacteria.Firmicutes.Clostridia.Lachnospirales.Defluviitaleaceae'
p245
(lp246
F0.0
aF55.6878141140765
aF0.0
aF134.4424109427449
aF106.90518401054798
aF644.0918778119818
aF114.41987006988086
aF0.0
aF545.0165053293946
aF1662.8873771730914
aF0.0
asS'Bacteria.Firmicutes.Clostridia.Lachnospirales.Lachnospiraceae.Acetatifactor'
p247
(lp248
F320.323761382236
aF0.0
aF0.0
aF229.85315419243486
aF614.7048080606509
aF123.13521193464359
aF0.0
aF0.0
aF92.90054068114681
aF0.0
aF0.0
asS'Bacteria.Firmicutes.Clostridia.Lachnospirales.Lachnospiraceae.Hungatella'
p249
(lp250
F0.0
aF3101.811246154061
aF0.0
aF0.0
aF0.0
aF0.0
aF0.0
aF0.0
aF0.0
aF0.0
aF0.0
asS'Bacteria.Firmicutes.Clostridia.Oscillospirales.UCG_010.UCG_010'
p251
(lp252
F0.0
aF0.0
aF0.0
aF4172.051591190987
aF489.98209338167834
aF1373.4312100402556
aF817.8901823513705
aF0.0
aF1294.414200157312
aF642.4792139077853
aF0.0
asS'Bacteria.Bacteroidota.Bacteroidia.Bacteroidales.Bacteroidaceae'
p253
(lp254
F104577.8953166322
aF321538.654303972
aF64952.04882301659
aF66666.08841973789
aF9532.378907607197
aF1108.2169074117924
aF33274.993325507574
aF0.0
aF4700.767358466029
aF4106.827916351725
aF202.388180530257
asS'Bacteria.Firmicutes.Bacilli.Staphylococcales.Staphylococcaceae.Jeotgalicoccus'
p255
(lp256
F0.0
aF0.0
aF0.0
aF0.0
aF0.0
aF0.0
aF25.426637793306853
aF0.0
aF0.0
aF0.0
aF0.0
asS'Bacteria.Cyanobacteria.Cyanobacteriia.Chloroplast'
p257
(lp258
F0.0
aF0.0
aF0.0
aF0.0
aF0.0
aF0.0
aF0.0
aF352.2987493394398
aF0.0
aF0.0
aF0.0
asS'Bacteria.Firmicutes.Clostridia.Oscillospirales.Ruminococcaceae.UBA1819'
p259
(lp260
F0.0
aF0.0
aF25.89622519357429
aF54.21064957368746
aF1567.9426988213704
aF331.5178782855789
aF0.0
aF780.0900878230452
aF167.22097322606425
aF0.0
aF0.0
asS'Bacteria.Cyanobacteria.Vampirivibrionia.Gastranaerophilales.Gastranaerophilales.Gastranaerophilales'
p261
(lp262
F242.19601470364185
aF573.5844853749879
aF0.0
aF4790.052996331025
aF293.989256029007
aF0.0
aF745.8480419370011
aF2189.2850851808043
aF501.66291967819274
aF188.9644746787604
aF0.0
asS'Bacteria.Proteobacteria.Gammaproteobacteria.Enterobacterales.Enterobacteriaceae'
p263
(lp264
F2515.7134430507317
aF1250.1914268610174
aF6784.811000716464
aF273.2216738513848
aF409.8032053737673
aF2349.040966137816
aF432.25284248621654
aF9864.364981504314
aF2025.2317868490002
aF4245.401864449484
aF10003.758637638417
asS'Bacteria.Firmicutes.Bacilli.Erysipelotrichales'
p265
(lp266
F664.0858467680503
aF7133.608988013199
aF630.1414797103077
aF4421.420579229949
aF2547.9068855847268
aF12616.623253611175
aF2818.11902209151
aF66508.97103600994
aF5004.242458024441
aF6424.792139077854
aF103333.6224593055
asS'Bacteria.Proteobacteria.Alphaproteobacteria'
p267
(lp268
F0.0
aF826.9640395940361
aF0.0
aF12028.258927409775
aF133.631480013185
aF0.0
aF334.78406427854026
aF578.7765167719368
aF247.73477514972478
aF0.0
aF0.0
asS'Bacteria.Acidobacteriota.Blastocatellia'
p269
(lp270
F0.0
aF0.0
aF0.0
aF0.0
aF0.0
aF0.0
aF0.0
aF377.4629457208283
aF0.0
aF0.0
aF0.0
asS'Bacteria.Proteobacteria.Gammaproteobacteria.Xanthomonadales'
p271
(lp272
F0.0
aF0.0
aF0.0
aF0.0
aF0.0
aF0.0
aF0.0
aF0.0
aF0.0
aF0.0
aF202.388180530257
asS'Bacteria.Firmicutes.Clostridia.Monoglobales.Monoglobaceae'
p273
(lp274
F910.1882488056219
aF0.0
aF2956.4857095997313
aF284.06380376612236
aF5167.083893843153
aF9595.074591522613
aF55.09104855216485
aF60192.75774428142
aF16660.16362881899
aF340.1360544217687
aF1040.853499869893
asS'Bacteria.Cyanobacteria.Cyanobacteriia'
p275
(lp276
F0.0
aF0.0
aF0.0
aF0.0
aF0.0
aF0.0
aF0.0
aF352.2987493394398
aF0.0
aF0.0
aF0.0
asS'Bacteria.Firmicutes.Bacilli.Bacillales.Bacillaceae'
p277
(lp278
F0.0
aF0.0
aF0.0
aF0.0
aF0.0
aF0.0
aF0.0
aF931.0752661113764
aF0.0
aF0.0
aF0.0
asS'Bacteria.Firmicutes.Clostridia.Peptococcales.Peptococcaceae'
p279
(lp280
F1820.3764976112438
aF180.98539587074862
aF215.80187661311908
aF604.990849242352
aF3866.4041550481525
aF4442.339569026757
aF7051.654214677101
aF226.477767432497
aF891.8451905390093
aF579.4910556815319
aF433.6889582791221
asS'Bacteria.Firmicutes.Bacilli.Lactobacillales.Lactobacillaceae'
p281
(lp282
F9812.844982831426
aF50188.642470311446
aF7272.5232418621135
aF23590.306268485838
aF8579.141016846477
aF61842.29220932985
aF82695.901649765
aF77858.0236040162
aF55282.01507466109
aF5215.419501133787
aF43224.332841819174
asS'Bacteria.Firmicutes.Bacilli.Izemoplasmatales'
p283
(lp284
F0.0
aF0.0
aF0.0
aF0.0
aF0.0
aF104.19133317546765
aF0.0
aF0.0
aF117.67401819611929
aF0.0
aF0.0
asS'Bacteria.Chloroflexi'
p285
(lp286
F0.0
aF0.0
aF0.0
aF0.0
aF0.0
aF0.0
aF0.0
aF0.0
aF179.6077119835505
aF0.0
aF0.0
asS'Bacteria.Firmicutes.Clostridia.Clostridia_UCG_014.Clostridia_UCG_014.Clostridia_UCG_014'
p287
(lp288
F5750.202155544529
aF38.981469879853556
aF0.0
aF9690.69571779237
aF11536.85110780497
aF71001.65758939141
aF23532.353277705493
aF275044.6664485769
aF35741.93468472655
aF116036.78508440412
aF176627.05640847713
asS'Bacteria.Proteobacteria.Gammaproteobacteria.Burkholderiales.Oxalobacteraceae.Herminiimonas'
p289
(lp290
F0.0
aF0.0
aF0.0
aF0.0
aF0.0
aF0.0
aF0.0
aF654.2691059161024
aF0.0
aF0.0
aF433.6889582791221
asS'Bacteria.Chloroflexi.Chloroflexia'
p291
(lp292
F0.0
aF0.0
aF0.0
aF0.0
aF0.0
aF0.0
aF0.0
aF0.0
aF179.6077119835505
aF0.0
aF0.0
asS'Bacteria.Acidobacteriota.Blastocatellia.Blastocatellales.Blastocatellaceae.Blastocatella'
p293
(lp294
F0.0
aF0.0
aF0.0
aF0.0
aF0.0
aF0.0
aF0.0
aF377.4629457208283
aF0.0
aF0.0
aF0.0
asS'Bacteria.Actinobacteriota.Actinobacteria.Bifidobacteriales.Bifidobacteriaceae'
p295
(lp296
F0.0
aF796.335741831294
aF0.0
aF86.73703931789994
aF0.0
aF0.0
aF3263.08518347438
aF1509.8517828833133
aF0.0
aF0.0
aF4597.102957758695
asS'Bacteria.Firmicutes.Clostridia.Lachnospirales.Lachnospiraceae._Eubacterium__xylanophilum_group'
p297
(lp298
F11965.264403826695
aF0.0
aF7932.876984298257
aF353.45343522044226
aF10833.058646402196
aF9538.242955245085
aF2169.739758362185
aF956.2394624927651
aF14498.677715637647
aF25976.316452506926
aF37065.94963425563
asS'Bacteria.Proteobacteria.Alphaproteobacteria.Sphingomonadales.Sphingomonadaceae.Sphingomonas'
p299
(lp300
F0.0
aF22.2751256456306
aF0.0
aF0.0
aF0.0
aF0.0
aF0.0
aF0.0
aF0.0
aF0.0
aF0.0
asS'Bacteria.Proteobacteria.Gammaproteobacteria.Pasteurellales.Pasteurellaceae.Rodentibacter'
p301
(lp302
F0.0
aF52.903423408372674
aF0.0
aF52.042223590739965
aF356.3506133684933
aF824.0587260241533
aF0.0
aF1786.6579430785873
aF222.96129763475233
aF0.0
aF0.0
asS'Bacteria.Firmicutes.Clostridia.Eubacteriales.Anaerofustaceae'
p303
(lp304
F0.0
aF0.0
aF0.0
aF0.0
aF0.0
aF75.77551503670375
aF0.0
aF0.0
aF111.48064881737616
aF365.3313177122701
aF1185.4164859629338
asS'Bacteria.Firmicutes.Clostridia.Oscillospirales.Ruminococcaceae.Candidatus_Soleaferrea'
p305
(lp306
F0.0
aF0.0
aF0.0
aF26.021111795369983
aF0.0
aF0.0
aF0.0
aF0.0
aF0.0
aF0.0
aF0.0
asS'Bacteria.Actinobacteriota.Coriobacteriia.Coriobacteriales.Atopobiaceae.Coriobacteriaceae_UCG_002'
p307
(lp308
F0.0
aF89.1005025825224
aF0.0
aF91.07389128379495
aF0.0
aF634.619938432394
aF0.0
aF0.0
aF0.0
aF0.0
aF0.0
asS'Bacteria.Proteobacteria.Gammaproteobacteria.Pseudomonadales.Pseudomonadaceae'
p309
(lp310
F101.5660706821724
aF175.41661445934096
aF21.580187661311907
aF0.0
aF0.0
aF0.0
aF80.5176863454717
aF6819.497219356298
aF123.86738757486239
aF302.34315948601665
aF2023.8818053025698
asS'Bacteria.Firmicutes.Bacilli.Izemoplasmatales.Izemoplasmatales'
p311
(lp312
F0.0
aF0.0
aF0.0
aF0.0
aF0.0
aF104.19133317546765
aF0.0
aF0.0
aF117.67401819611929
aF0.0
aF0.0
asS'Bacteria.Campilobacterota.Campylobacteria.Campylobacterales.Campylobacteraceae.Campylobacter'
p313
(lp314
F0.0
aF0.0
aF0.0
aF0.0
aF0.0
aF0.0
aF0.0
aF327.1345529580512
aF0.0
aF0.0
aF0.0
asS'Bacteria.Proteobacteria.Gammaproteobacteria.Enterobacterales.Erwiniaceae.uncultured'
p315
(lp316
F0.0
aF0.0
aF0.0
aF0.0
aF0.0
aF0.0
aF0.0
aF0.0
aF0.0
aF138.57394809775764
aF0.0
asS'Bacteria.Firmicutes.Clostridia.Peptococcales'
p317
(lp318
F1820.3764976112438
aF180.98539587074862
aF215.80187661311908
aF604.990849242352
aF3866.4041550481525
aF4442.339569026757
aF7051.654214677101
aF226.477767432497
aF891.8451905390093
aF579.4910556815319
aF433.6889582791221
asS'Bacteria.Proteobacteria.Gammaproteobacteria.Pseudomonadales.Pseudomonadaceae.Pseudomonas'
p319
(lp320
F101.5660706821724
aF175.41661445934096
aF21.580187661311907
aF0.0
aF0.0
aF0.0
aF80.5176863454717
aF6819.497219356298
aF123.86738757486239
aF302.34315948601665
aF2023.8818053025698
asS'Bacteria.Firmicutes.Clostridia'
p321
(lp322
F0.0
aF0.0
aF0.0
aF0.0
aF0.0
aF596.732180914042
aF0.0
aF0.0
aF0.0
aF0.0
aF0.0
asS'Bacteria.Firmicutes.Clostridia.Clostridia.Hungateiclostridiaceae.Ruminiclostridium'
p323
(lp324
F0.0
aF0.0
aF0.0
aF0.0
aF178.17530668424666
aF113.66327255505561
aF0.0
aF0.0
aF0.0
aF0.0
aF0.0
asS'Bacteria.Firmicutes.Clostridia.Lachnospirales.Lachnospiraceae.Marvinbryantia'
p325
(lp326
F0.0
aF258.94833563045574
aF2127.8065034053543
aF39.03166769305498
aF819.6064107475346
aF85.24745441629172
aF0.0
aF34676.26261355343
aF1802.270489214248
aF0.0
aF607.164541590771
asS'Bacteria.Campilobacterota.Campylobacteria'
p327
(lp328
F0.0
aF19.490734939926778
aF0.0
aF0.0
aF0.0
aF66.30357565711579
aF0.0
aF327.1345529580512
aF0.0
aF0.0
aF0.0
asS'Bacteria.Patescibacteria.Saccharimonadia.Saccharimonadales.Saccharimonadaceae'
p329
(lp330
F0.0
aF41.76586058555737
aF0.0
aF1051.686601729537
aF507.799624050103
aF1288.1837556239636
aF1186.57643035432
aF6341.377488109916
aF1486.408650898349
aF1234.567901234568
aF9830.283054326768
asS'Bacteria.Firmicutes.Bacilli.Erysipelotrichales.Erysipelotrichaceae'
p331
(lp332
F0.0
aF0.0
aF0.0
aF0.0
aF481.07332804746596
aF0.0
aF0.0
aF0.0
aF0.0
aF0.0
aF0.0
asS'Bacteria.Actinobacteriota'
p333
(lp334
F132.81716935361004
aF1116.540672987234
aF94.9528257097724
aF459.70630838486966
aF579.0697467238017
aF2131.1863604072933
aF3538.540426235204
aF42527.49188454666
aF780.3645417216331
aF1058.2010582010582
aF8847.254748894093
asS'Bacteria.Proteobacteria.Gammaproteobacteria.Pasteurellales.Pasteurellaceae'
p335
(lp336
F105.47245801610211
aF52.903423408372674
aF0.0
aF52.042223590739965
aF356.3506133684933
aF824.0587260241533
aF0.0
aF1786.6579430785873
aF222.96129763475233
aF0.0
aF0.0
asS'Bacteria.Actinobacteriota.Coriobacteriia.Coriobacteriales.Eggerthellaceae.Enterorhabdus'
p337
(lp338
F97.65968334824268
aF52.903423408372674
aF56.10848791941096
aF143.1161148745349
aF0.0
aF151.5510300734075
aF0.0
aF17187.146128488384
aF161.02760384732113
aF0.0
aF2341.9203747072593
asS'Bacteria.Firmicutes.Clostridia.Lachnospirales.Lachnospiraceae._Bacteroides__pectinophilus_group'
p339
(lp340
F0.0
aF0.0
aF0.0
aF0.0
aF0.0
aF0.0
aF707.7080852470408
aF0.0
aF898.0385599177524
aF0.0
aF925.2031109954605
asS'Bacteria.Proteobacteria.Gammaproteobacteria.Burkholderiales'
p341
(lp342
F734.400818778785
aF41818.76400896575
aF5114.504475730922
aF6579.004432262711
aF1772.8443015082541
aF2055.410845370589
aF4314.052878931063
aF21616.04469161277
aF4744.120944117231
aF4850.088183421516
aF4654.92815219591
asS'Bacteria.Firmicutes.Clostridia.Peptostreptococcales_Tissierellales.Anaerovoracaceae'
p343
(lp344
F0.0
aF0.0
aF0.0
aF0.0
aF0.0
aF0.0
aF0.0
aF0.0
aF49.54695502994496
aF0.0
aF0.0
asS'Bacteria.Firmicutes'
p345
(lp346
F312800.05937708734
aF202049.31155939808
aF50860.18628017989
aF101948.54758827663
aF500120.268332012
aF611849.3961638642
aF235052.31530725968
aF853972.1683988019
aF472981.4260852335
aF303237.59133282944
aF572642.9005117527
asS'Bacteria.Firmicutes.Clostridia.Oscillospirales.Ruminococcaceae.Ruminococcus'
p347
(lp348
F1652.4018422522663
aF0.0
aF1519.2452113563584
aF5609.718017885179
aF2405.36664023733
aF28813.6395927066
aF31240.862302043024
aF20408.163265306117
aF24147.947207719426
aF6890.904509952129
aF4712.753346633127
asS'Bacteria.Firmicutes.Clostridia.Monoglobales.Monoglobaceae.Monoglobus'
p349
(lp350
F910.1882488056219
aF0.0
aF2956.4857095997313
aF284.06380376612236
aF5167.083893843153
aF9595.074591522613
aF55.09104855216485
aF60192.75774428142
aF16660.16362881899
aF340.1360544217687
aF1040.853499869893
asS'Bacteria.Proteobacteria'
p351
(lp352
F3457.1527905277912
aF44154.867811051256
aF12136.697540721818
aF18932.52725711461
aF2672.6296002637
aF5228.510537532558
aF5161.607472041292
aF41822.89438586778
aF7413.463146355516
aF9536.407155454774
aF16884.956775667153
asS'Bacteria.Firmicutes.Clostridia.Oscillospirales'
p353
(lp354
F0.0
aF0.0
aF0.0
aF0.0
aF641.431104063288
aF0.0
aF0.0
aF0.0
aF210.5745588772661
aF0.0
aF0.0
asS'Bacteria.Actinobacteriota.Coriobacteriia.Coriobacteriales.Atopobiaceae'
p355
(lp356
F0.0
aF89.1005025825224
aF0.0
aF91.07389128379495
aF0.0
aF634.619938432394
aF0.0
aF0.0
aF0.0
aF0.0
aF0.0
asS'Bacteria.Campilobacterota.Campylobacteria.Campylobacterales.Helicobacteraceae'
p357
(lp358
F0.0
aF19.490734939926778
aF0.0
aF0.0
aF0.0
aF66.30357565711579
aF0.0
aF0.0
aF0.0
aF0.0
aF0.0
asS'Bacteria.Proteobacteria.Gammaproteobacteria.Burkholderiales.Comamonadaceae'
p359
(lp360
F0.0
aF0.0
aF0.0
aF4.336851965894997
aF0.0
aF0.0
aF4.237772965551143
aF327.1345529580512
aF0.0
aF12.597631645250694
aF549.3393471535547
asS'Bacteria.Firmicutes.Bacilli.Erysipelotrichales.Erysipelatoclostridiaceae'
p361
(lp362
F613.3028114269641
aF1241.838254743906
aF224.43395167764385
aF578.9697374469821
aF775.0625840764731
aF729.3393322282735
aF0.0
aF6643.347844686578
aF2043.8118949852296
aF0.0
aF1243.24168040015
asS'Bacteria.Chloroflexi.Chloroflexia.Chloroflexales.Chloroflexaceae'
p363
(lp364
F0.0
aF0.0
aF0.0
aF0.0
aF0.0
aF0.0
aF0.0
aF0.0
aF179.6077119835505
aF0.0
aF0.0
asS'Bacteria.Firmicutes.Clostridia.Lachnospirales.Lachnospiraceae.ASF356'
p365
(lp366
F0.0
aF0.0
aF0.0
aF0.0
aF142.5402453473973
aF0.0
aF33.90218372440914
aF0.0
aF0.0
aF0.0
aF0.0
asS'Bacteria.Firmicutes.Bacilli.Acholeplasmatales.Acholeplasmataceae.Anaeroplasma'
p367
(lp368
F0.0
aF1481.2958554344348
aF0.0
aF0.0
aF365.25937870270565
aF104.19133317546765
aF29.664410758857997
aF0.0
aF371.60216272458723
aF0.0
aF0.0
asS'Bacteria.Actinobacteriota.Coriobacteriia.Coriobacteriales.Eggerthellaceae'
p369
(lp370
F97.65968334824268
aF231.10442857341747
aF56.10848791941096
aF281.8953777831748
aF400.894440039555
aF975.6097560975608
aF203.41310234645482
aF25667.480309016326
aF204.38118949852296
aF251.95263290501387
aF3122.560499609679
asS'Bacteria.Firmicutes.Bacilli.Lactobacillales.Enterococcaceae'
p371
(lp372
F0.0
aF0.0
aF155.37735116144574
aF0.0
aF0.0
aF0.0
aF0.0
aF0.0
aF0.0
aF0.0
aF0.0
asS'Bacteria.Firmicutes.Clostridia.Lachnospirales.Lachnospiraceae._Eubacterium__ruminantium_group'
p373
(lp374
F0.0
aF0.0
aF0.0
aF0.0
aF2040.1072615346243
aF58006.15676059672
aF3644.4847503739825
aF0.0
aF0.0
aF0.0
aF0.0
asS'Bacteria.Firmicutes.Clostridia.Christensenellales'
p375
(lp376
F27.344711337507952
aF89.1005025825224
aF280.5424395970548
aF312.2533415444398
aF1211.5920854528772
aF1733.364906464598
aF682.2814474537339
aF167014.77138327583
aF1635.0495159881839
aF3136.8102796674225
aF2515.395958018908
asS'Bacteria.Proteobacteria.Gammaproteobacteria.Burkholderiales.Sutterellaceae.Parasutterella'
p377
(lp378
F625.0219734287532
aF41392.752230993065
aF4980.707312230788
aF6481.425263030073
aF1665.939117497706
aF1629.1735732891307
aF4068.2620469290973
aF578.7765167719368
aF4180.524330651607
aF1725.875535399345
aF0.0
asS'Bacteria.Firmicutes.Clostridia.uncultured.uncultured.uncultured'
p379
(lp380
F0.0
aF142.00392599089508
aF0.0
aF0.0
aF0.0
aF0.0
aF0.0
aF0.0
aF0.0
aF390.5265810027715
aF0.0
asS'Bacteria.Firmicutes.Bacilli.Erysipelotrichales.Erysipelotrichaceae.Dubosiella'
p381
(lp382
F0.0
aF309.0673683331246
aF0.0
aF1769.4356020851587
aF0.0
aF0.0
aF177.98646455314798
aF23402.702634691355
aF0.0
aF0.0
aF318.03856940468955
asS'Bacteria.Proteobacteria.Gammaproteobacteria.Burkholderiales.Comamonadaceae.Comamonas'
p383
(lp384
F0.0
aF0.0
aF0.0
aF0.0
aF0.0
aF0.0
aF0.0
aF0.0
aF0.0
aF214.15973796926178
aF0.0
asS'Bacteria.Firmicutes.Clostridia.Clostridia_UCG_014'
p385
(lp386
F5750.202155544529
aF38.981469879853556
aF0.0
aF9690.69571779237
aF11536.85110780497
aF71001.65758939141
aF23532.353277705493
aF275044.6664485769
aF35741.93468472655
aF116036.78508440412
aF176627.05640847713
asS'Bacteria.Firmicutes.Clostridia.Oscillospirales.Ruminococcaceae._Eubacterium__siraeum_group'
p387
(lp388
F0.0
aF0.0
aF0.0
aF726.422704287412
aF46637.386524601556
aF615.676059673218
aF529.7216206938928
aF0.0
aF66405.30647888374
aF3300.5794910556815
aF4915.141527163384
asS'Bacteria.Firmicutes.Bacilli.Erysipelotrichales.Erysipelatoclostridiaceae.Erysipelatoclostridiaceae'
p389
(lp390
F0.0
aF19.490734939926778
aF0.0
aF0.0
aF0.0
aF0.0
aF0.0
aF0.0
aF0.0
aF0.0
aF0.0
asS'Bacteria.Firmicutes.Clostridia.Oscillospirales.Ruminococcaceae.Fournierella'
p391
(lp392
F941.4393474770595
aF0.0
aF0.0
aF0.0
aF1175.957024116028
aF0.0
aF186.46201048425027
aF0.0
aF154.83423446857802
aF0.0
aF0.0
asS'Bacteria.Firmicutes.Clostridia.Clostridia'
p393
(lp394
F0.0
aF0.0
aF0.0
aF0.0
aF178.17530668424666
aF113.66327255505561
aF0.0
aF0.0
aF0.0
aF0.0
aF0.0
asS'Bacteria.Firmicutes.Bacilli.Erysipelotrichales.Erysipelotrichaceae.Turicibacter'
p395
(lp396
F0.0
aF977.3211377020426
aF0.0
aF1016.9917860023768
aF0.0
aF9595.074591522613
aF1601.878180978332
aF7071.139183170184
aF1127.1932269312479
aF5618.543713781809
aF100413.45014022608
asS'Bacteria.Firmicutes.Clostridia.Clostridia_vadinBB60_group.Clostridia_vadinBB60_group'
p397
(lp398
F2382.8962736971216
aF247.81077280764043
aF38.844337790361436
aF2782.090536121641
aF739.4275227396236
aF947.1939379587968
aF402.5884317273585
aF0.0
aF12591.119946984763
aF0.0
aF0.0
asS'Bacteria.Firmicutes.Bacilli.Lactobacillales.Streptococcaceae.Streptococcus'
p399
(lp400
F417.9834447304787
aF1408.9016970861353
aF530.872616468273
aF49.87379760779247
aF0.0
aF0.0
aF203.41310234645482
aF5058.003472659099
aF0.0
aF503.90526581002774
aF0.0
asS'Bacteria.Firmicutes.Bacilli.Lactobacillales.Streptococcaceae'
p401
(lp402
F417.9834447304787
aF1481.2958554344348
aF530.872616468273
aF49.87379760779247
aF0.0
aF0.0
aF203.41310234645482
aF5058.003472659099
aF0.0
aF503.90526581002774
aF0.0
asS'Bacteria.Firmicutes.Clostridia.Lachnospirales.Lachnospiraceae.A2'
p403
(lp404
F0.0
aF0.0
aF0.0
aF0.0
aF570.1609813895892
aF530.4286052569263
aF72.04214041436941
aF0.0
aF0.0
aF403.1242126480222
aF0.0
asS'Bacteria.Proteobacteria.Gammaproteobacteria.Burkholderiales.Alcaligenaceae'
p405
(lp406
F0.0
aF0.0
aF0.0
aF0.0
aF0.0
aF47.35969689793984
aF0.0
aF956.2394624927651
aF0.0
aF0.0
aF0.0
asS'Bacteria.Firmicutes.Clostridia.Lachnospirales.Lachnospiraceae._Eubacterium__hallii_group'
p407
(lp408
F0.0
aF66.8253769368918
aF850.2593938556892
aF0.0
aF0.0
aF0.0
aF0.0
aF0.0
aF260.12151390721107
aF0.0
aF0.0
asS'Bacteria.Firmicutes.Bacilli.Lactobacillales.Enterococcaceae.Enterococcus'
p409
(lp410
F0.0
aF0.0
aF155.37735116144574
aF0.0
aF0.0
aF0.0
aF0.0
aF0.0
aF0.0
aF0.0
aF0.0
asS'Bacteria.Firmicutes.Clostridia.Lachnospirales'
p411
(lp412
F191127.81308717877
aF16291.470019073078
aF21437.758422747254
aF18312.35742599163
aF238523.283058201
aF178044.04451811506
aF36563.50514677526
aF96555.02151538788
aF92987.24785244922
aF75069.28697404888
aF89282.10021106193
asS'Bacteria.Bacteroidota.Bacteroidia.Bacteroidales.Prevotellaceae'
p413
(lp414
F96804.18452211209
aF5165.044759080595
aF217269.3293740883
aF203953.4742521099
aF85034.16511505672
aF30291.262135922323
aF272170.9687125222
aF4982.510883514934
aF105757.97551141752
aF146069.53892668177
aF32989.273426431886
asS'Bacteria.Firmicutes.Clostridia.Oscillospirales.Ruminococcaceae.Incertae_Sedis'
p415
(lp416
F4359.528264665554
aF0.0
aF712.146192823293
aF192.98991248232736
aF8017.8888007911
aF6810.3244139237495
aF220.3641942086594
aF15375.323989028408
aF9698.816447111727
aF2632.905013857395
aF9396.594096047646
asS'Bacteria.Firmicutes.Clostridia.Clostridia_vadinBB60_group.Clostridia_vadinBB60_group.Clostridia_vadinBB60_group'
p417
(lp418
F2382.8962736971216
aF247.81077280764043
aF38.844337790361436
aF2782.090536121641
aF739.4275227396236
aF947.1939379587968
aF402.5884317273585
aF0.0
aF12591.119946984763
aF0.0
aF0.0
asS'Bacteria.Proteobacteria.Alphaproteobacteria.Rhodospirillales.uncultured'
p419
(lp420
F0.0
aF768.4918347742557
aF0.0
aF12028.258927409775
aF133.631480013185
aF0.0
aF334.78406427854026
aF0.0
aF0.0
aF0.0
aF0.0
asS'Bacteria.Proteobacteria.Gammaproteobacteria.Pasteurellales'
p421
(lp422
F105.47245801610211
aF52.903423408372674
aF0.0
aF52.042223590739965
aF356.3506133684933
aF824.0587260241533
aF0.0
aF1786.6579430785873
aF222.96129763475233
aF0.0
aF0.0
asS'Bacteria.Proteobacteria.Gammaproteobacteria.Burkholderiales.Burkholderiaceae'
p423
(lp424
F109.37884535003181
aF426.01177797268525
aF133.79716350013382
aF93.24231726674245
aF106.90518401054798
aF378.87757518351873
aF241.5530590364151
aF12607.262387075667
aF247.73477514972478
aF982.6152683295539
aF1966.0566108653534
asS'Bacteria.Firmicutes.Bacilli'
p425
(lp426
F1832.0956596130327
aF4772.445669576356
aF4117.499805778312
aF2831.964333729433
aF0.0
aF899.834241060857
aF2428.2439092608047
aF4353.40597398022
aF23664.864396177465
aF8654.572940287226
aF23448.116344291204
asS'Bacteria.Firmicutes.Clostridia.Oscillospirales.Ruminococcaceae.Negativibacillus'
p427
(lp428
F0.0
aF0.0
aF0.0
aF0.0
aF0.0
aF151.5510300734075
aF0.0
aF0.0
aF501.66291967819274
aF0.0
aF0.0
asS'Bacteria.Proteobacteria.Gammaproteobacteria.Enterobacterales.Morganellaceae.Proteus'
p429
(lp430
F0.0
aF0.0
aF215.80187661311908
aF0.0
aF0.0
aF0.0
aF0.0
aF0.0
aF0.0
aF0.0
aF0.0
asS'Bacteria.Verrucomicrobiota.Verrucomicrobiae'
p431
(lp432
F30399.506232640982
aF3825.7528296370556
aF152571.9267654752
aF3142.0492492909257
aF587.978512058014
aF11764.148709448256
aF37597.521750369735
aF0.0
aF6701.225667800056
aF82615.26832955405
aF24575.70763581692
asS'Bacteria.Firmicutes.Clostridia.Peptostreptococcales_Tissierellales.Anaerovoracaceae._Eubacterium__nodatum_group'
p433
(lp434
F85.94052134645356
aF0.0
aF0.0
aF238.52685812422484
aF988.8729520975688
aF644.0918778119818
aF775.5124526958591
aF0.0
aF402.56900961830286
aF1499.1181657848324
aF1850.406221990921
asS'Bacteria.Chloroflexi.Chloroflexia.Chloroflexales.Chloroflexaceae.FFCH7168'
p435
(lp436
F0.0
aF0.0
aF0.0
aF0.0
aF0.0
aF0.0
aF0.0
aF0.0
aF179.6077119835505
aF0.0
aF0.0
asS'Bacteria.Firmicutes.Clostridia.Oscillospirales.Oscillospiraceae.Papillibacter'
p437
(lp438
F0.0
aF0.0
aF0.0
aF277.5585258172798
aF8703.863731525447
aF1562.8699976320147
aF741.61026897145
aF0.0
aF526.4363971931652
aF0.0
aF0.0
asS'Bacteria.Firmicutes.Bacilli.Lactobacillales.Aerococcaceae'
p439
(lp440
F0.0
aF0.0
aF302.1226272583667
aF26.021111795369983
aF0.0
aF0.0
aF0.0
aF0.0
aF0.0
aF0.0
aF0.0
asS'Bacteria.Proteobacteria.Gammaproteobacteria.Enterobacterales'
p441
(lp442
F2515.7134430507317
aF1250.1914268610174
aF7000.612877329583
aF273.2216738513848
aF409.8032053737673
aF2349.040966137816
aF432.25284248621654
aF9864.364981504314
aF2025.2317868490002
aF4383.975812547242
aF10003.758637638417
asS'Bacteria.Proteobacteria.Alphaproteobacteria.Sphingomonadales'
p443
(lp444
F0.0
aF22.2751256456306
aF0.0
aF0.0
aF0.0
aF0.0
aF0.0
aF578.7765167719368
aF0.0
aF0.0
aF0.0
asS'Bacteria.Firmicutes.Clostridia.Lachnospirales.Lachnospiraceae.Lachnospiraceae_NK4B4_group'
p445
(lp446
F0.0
aF0.0
aF0.0
aF0.0
aF0.0
aF0.0
aF0.0
aF0.0
aF0.0
aF314.9407911312673
aF0.0
asS'Bacteria.Proteobacteria.Gammaproteobacteria.Enterobacterales.Enterobacteriaceae.Escherichia_Shigella'
p447
(lp448
F2515.7134430507317
aF1250.1914268610174
aF6784.811000716464
aF273.2216738513848
aF409.8032053737673
aF2349.040966137816
aF432.25284248621654
aF9864.364981504314
aF2025.2317868490002
aF4245.401864449484
aF10003.758637638417
asS'Bacteria.Verrucomicrobiota.Verrucomicrobiae.Verrucomicrobiales.Akkermansiaceae'
p449
(lp450
F30399.506232640982
aF3825.7528296370556
aF152571.9267654752
aF3142.0492492909257
aF587.978512058014
aF11764.148709448256
aF37597.521750369735
aF0.0
aF6701.225667800056
aF82615.26832955405
aF24575.70763581692
asS'Bacteria.Firmicutes.Clostridia.Oscillospirales._Eubacterium__coprostanoligenes_group._Eubacterium__coprostanoligenes_group'
p451
(lp452
F21258.55987124547
aF498.40593632098467
aF0.0
aF7934.270671604897
aF4133.667115074522
aF86838.7402320625
aF21527.8866649998
aF2919.046780241072
aF13278.583948025249
aF22511.967750062988
aF57911.93222887211
asS'Bacteria.Actinobacteriota.Coriobacteriia.Coriobacteriales.uncultured'
p453
(lp454
F35.15748600536737
aF0.0
aF30.21226272583667
aF0.0
aF178.17530668424666
aF492.54084773857437
aF0.0
aF12003.32167392234
aF575.9833522231102
aF806.2484252960444
aF1127.5912915257175
asS'Bacteria.Firmicutes.Clostridia.Lachnospirales.Lachnospiraceae.uncultured'
p455
(lp456
F304.6982120465172
aF0.0
aF0.0
aF0.0
aF0.0
aF0.0
aF0.0
aF0.0
aF0.0
aF0.0
aF0.0
asS'Bacteria.Desulfobacterota.Desulfovibrionia.Desulfovibrionales.Desulfovibrionaceae'
p457
(lp458
F0.0
aF0.0
aF0.0
aF0.0
aF0.0
aF0.0
aF0.0
aF0.0
aF1833.2373361079638
aF0.0
aF0.0
asS'Bacteria.Proteobacteria.Gammaproteobacteria.Pseudomonadales'
p459
(lp460
F101.5660706821724
aF206.04491222208304
aF21.580187661311907
aF0.0
aF0.0
aF0.0
aF80.5176863454717
aF7977.050252900171
aF173.41434260480736
aF302.34315948601665
aF2023.8818053025698
asS'Bacteria.Firmicutes.Clostridia.Oscillospirales.Butyricicoccaceae.UCG_009'
p461
(lp462
F210.94491603220422
aF0.0
aF0.0
aF0.0
aF1202.683320118665
aF1022.9694529955005
aF0.0
aF0.0
aF520.2430278144221
aF1385.739480977576
aF578.2519443721628
asS'Bacteria.Firmicutes.Clostridia.Oscillospirales.Butyricicoccaceae.Butyricicoccus'
p463
(lp464
F1382.8611162111165
aF0.0
aF0.0
aF80.23176136905744
aF427.62073604219194
aF104.19133317546765
aF305.1196535196823
aF0.0
aF117.67401819611929
aF0.0
aF0.0
asS'Bacteria.Firmicutes.Clostridia.Peptostreptococcales_Tissierellales.Anaerovoracaceae.Family_XIII_AD3011_group'
p465
(lp466
F89.84690868038327
aF0.0
aF246.01413933895577
aF286.2322297490698
aF712.7012267369867
aF388.3495145631067
aF343.2596102096426
aF0.0
aF346.8286852096147
aF1826.6565885613506
aF0.0
asS'Bacteria.Bacteroidota.Bacteroidia.Bacteroidales.Bacteroidaceae.Bacteroides'
p467
(lp468
F104577.8953166322
aF321538.654303972
aF64952.04882301659
aF66666.08841973789
aF9532.378907607197
aF1108.2169074117924
aF33274.993325507574
aF0.0
aF4700.767358466029
aF4106.827916351725
aF202.388180530257
asS'Bacteria.Firmicutes.Bacilli.Erysipelotrichales.Erysipelotrichaceae._Clostridium__innocuum_group'
p469
(lp470
F0.0
aF3589.07961965223
aF0.0
aF0.0
aF0.0
aF0.0
aF0.0
aF0.0
aF0.0
aF0.0
aF0.0
asS'Bacteria.Firmicutes.Clostridia.Christensenellales.Christensenellaceae'
p471
(lp472
F27.344711337507952
aF89.1005025825224
aF280.5424395970548
aF312.2533415444398
aF1211.5920854528772
aF1733.364906464598
aF682.2814474537339
aF167014.77138327583
aF1635.0495159881839
aF3136.8102796674225
aF2515.395958018908
asS'Bacteria.Actinobacteriota.Actinobacteria.Micrococcales.Intrasporangiaceae'
p473
(lp474
F0.0
aF0.0
aF0.0
aF0.0
aF0.0
aF28.415818138763903
aF0.0
aF0.0
aF0.0
aF0.0
aF0.0
asS'Bacteria.Firmicutes.Clostridia.Clostridiales'
p475
(lp476
F0.0
aF25.059516351334427
aF0.0
aF0.0
aF35.635061336849326
aF7444.944352356144
aF1491.6960838740022
aF11827.172299252621
aF371.6021627245872
aF100.78105316200555
aF0.0
asS'Bacteria.Firmicutes.Clostridia.Eubacteriales.Anaerofustaceae.Anaerofustis'
p477
(lp478
F0.0
aF0.0
aF0.0
aF0.0
aF0.0
aF75.77551503670375
aF0.0
aF0.0
aF111.48064881737616
aF365.3313177122701
aF1185.4164859629338
asS'Bacteria.Firmicutes.Bacilli.Lactobacillales'
p479
(lp480
F10230.828427561904
aF51669.938325745876
aF8260.895836750198
aF23666.201177888997
aF8579.141016846477
aF61842.29220932985
aF82899.31475211146
aF82916.0270766753
aF55282.01507466109
aF5719.324766943814
aF43224.332841819174
asS'Bacteria.Firmicutes.Bacilli.Acholeplasmatales.Acholeplasmataceae'
p481
(lp482
F0.0
aF1481.2958554344348
aF0.0
aF0.0
aF365.25937870270565
aF104.19133317546765
aF29.664410758857997
aF0.0
aF371.60216272458723
aF0.0
aF0.0
asS'Bacteria.Actinobacteriota.Actinobacteria'
p483
(lp484
F0.0
aF796.335741831294
aF8.632075064524763
aF86.73703931789994
aF0.0
aF28.415818138763903
aF3335.127323888749
aF3321.673922343289
aF0.0
aF0.0
aF4597.102957758695
asS'Bacteria.Firmicutes.Clostridia.Peptostreptococcales_Tissierellales.Anaerovoracaceae._Eubacterium__brachy_group'
p485
(lp486
F0.0
aF0.0
aF0.0
aF0.0
aF115.81394934476033
aF0.0
aF0.0
aF0.0
aF0.0
aF0.0
aF0.0
asS'Bacteria.Proteobacteria.Gammaproteobacteria.Burkholderiales.Oxalobacteraceae'
p487
(lp488
F0.0
aF0.0
aF0.0
aF0.0
aF0.0
aF0.0
aF0.0
aF654.2691059161024
aF0.0
aF0.0
aF433.6889582791221
asS'Bacteria.Firmicutes.Clostridia.uncultured.uncultured'
p489
(lp490
F0.0
aF142.00392599089508
aF0.0
aF0.0
aF0.0
aF0.0
aF0.0
aF0.0
aF0.0
aF390.5265810027715
aF0.0
asS'Bacteria.Firmicutes.Clostridia.Oscillospirales.Ruminococcaceae'
p491
(lp492
F3429.808079190283
aF0.0
aF280.5424395970548
aF438.0220485553947
aF36873.379718304845
aF60857.2105138527
aF4822.5856347972
aF352.2987493394398
aF10918.910214724121
aF9586.797682035778
aF1243.24168040015
asS'Bacteria.Firmicutes.Clostridia.Oscillospirales._Clostridium__methylpentosum_group._Clostridium__methylpentosum_group'
p493
(lp494
F70.31497201073473
aF0.0
aF0.0
aF0.0
aF0.0
aF0.0
aF0.0
aF0.0
aF0.0
aF0.0
aF0.0
asS'Bacteria.Firmicutes.Clostridia.Lachnospirales.Lachnospiraceae.Dorea'
p495
(lp496
F46.87664800715649
aF0.0
aF0.0
aF0.0
aF0.0
aF0.0
aF0.0
aF0.0
aF0.0
aF0.0
aF0.0
asS'Bacteria.Firmicutes.Clostridia.Oscillospirales.Ruminococcaceae.uncultured'
p497
(lp498
F1742.2487509326495
aF94.66928399393005
aF116.5330133710843
aF234.19000615832985
aF1425.4024534739733
aF502.01278711816235
aF0.0
aF880.7468733485994
aF2979.010671175441
aF390.5265810027715
aF433.6889582791221
asS'Bacteria.Firmicutes.Clostridia.Oscillospirales.Oscillospiraceae.Oscillibacter'
p499
(lp500
F7597.923364493281
aF142.00392599089508
aF220.11791414538146
aF342.6113053057048
aF14236.207004071308
aF2964.717025811034
aF508.53275586613717
aF704.5974986788796
aF6143.822423713175
aF466.11237087427565
aF0.0
asS'Bacteria.Firmicutes.Clostridia.Lachnospirales.Lachnospiraceae.Coprococcus'
p501
(lp502
F0.0
aF0.0
aF0.0
aF0.0
aF0.0
aF0.0
aF0.0
aF7373.109539746846
aF359.215423967101
aF0.0
aF0.0
asS'Bacteria.Patescibacteria.Saccharimonadia.Saccharimonadales.Saccharimonadaceae.Candidatus_Saccharimonas'
p503
(lp504
F0.0
aF41.76586058555737
aF0.0
aF1051.686601729537
aF507.799624050103
aF1288.1837556239636
aF1186.57643035432
aF6341.377488109916
aF1486.408650898349
aF1234.567901234568
aF9830.283054326768
asS'Bacteria.Firmicutes.Clostridia.Peptostreptococcales_Tissierellales.Peptostreptococcaceae.Clostridioides'
p505
(lp506
F0.0
aF17633.546339222325
aF0.0
aF0.0
aF0.0
aF0.0
aF0.0
aF0.0
aF0.0
aF0.0
aF0.0
asS'Bacteria.Firmicutes.Clostridia.Lachnospirales.Lachnospiraceae.Lachnospiraceae_FCS020_group'
p507
(lp508
F0.0
aF0.0
aF0.0
aF0.0
aF0.0
aF407.29339332228267
aF0.0
aF0.0
aF253.92814452846793
aF743.2602670697909
aF0.0
asS'Bacteria.Firmicutes.Clostridia.Lachnospirales.Lachnospiraceae'
p509
(lp510
F74029.94636530188
aF498.40593632098467
aF2675.943270002677
aF12368.701806732532
aF163814.37696549637
aF67279.18541321334
aF16345.090328130758
aF46302.121341754944
aF34689.06189034022
aF26077.097505668935
aF34116.86471795761
asS'Bacteria.Firmicutes.Bacilli.Erysipelotrichales.Erysipelatoclostridiaceae.Erysipelatoclostridium'
p511
(lp512
F0.0
aF1124.8938451043452
aF224.43395167764385
aF197.32676444822238
aF445.43826671061663
aF0.0
aF0.0
aF6391.705880872692
aF780.3645417216331
aF0.0
aF0.0
asS'Bacteria.Proteobacteria.Gammaproteobacteria.Burkholderiales.Burkholderiaceae.Burkholderia_Caballeronia_Paraburkholderia'
p513
(lp514
F109.37884535003181
aF426.01177797268525
aF133.79716350013382
aF93.24231726674245
aF106.90518401054798
aF378.87757518351873
aF241.5530590364151
aF12607.262387075667
aF247.73477514972478
aF982.6152683295539
aF1966.0566108653534
asS'Bacteria.Patescibacteria.Saccharimonadia'
p515
(lp516
F0.0
aF41.76586058555737
aF0.0
aF1051.686601729537
aF507.799624050103
aF1288.1837556239636
aF1186.57643035432
aF6341.377488109916
aF1486.408650898349
aF1234.567901234568
aF9830.283054326768
asS'Bacteria.Firmicutes.Bacilli.Lactobacillales.Streptococcaceae.Lactococcus'
p517
(lp518
F0.0
aF72.39415834829946
aF0.0
aF0.0
aF0.0
aF0.0
aF0.0
aF0.0
aF0.0
aF0.0
aF0.0
asS'Bacteria.Firmicutes.Clostridia.Peptostreptococcales_Tissierellales.Peptostreptococcaceae'
p519
(lp520
F2519.6198303846613
aF116248.31196313469
aF1277.547109549665
aF13058.261269309836
aF285.0804906947946
aF20421.50130239166
aF1364.5628949074678
aF9814.036588741536
aF1833.2373361079638
aF856.6389518770471
aF22291.612455546874
asS'Bacteria.Firmicutes.Bacilli.Erysipelotrichales.Erysipelotrichaceae.Holdemania'
p521
(lp522
F0.0
aF0.0
aF405.70752803266384
aF0.0
aF0.0
aF0.0
aF182.2242375186991
aF0.0
aF0.0
aF0.0
aF0.0
asS'Bacteria.Firmicutes.Clostridia.Oscillospirales._Eubacterium__coprostanoligenes_group'
p523
(lp524
F21258.55987124547
aF498.40593632098467
aF0.0
aF7934.270671604897
aF4133.667115074522
aF86838.7402320625
aF21527.8866649998
aF2919.046780241072
aF13278.583948025249
aF22511.967750062988
aF57911.93222887211
asS'Bacteria.Firmicutes.Clostridia.Peptococcales.Peptococcaceae.uncultured'
p525
(lp526
F1820.3764976112438
aF180.98539587074862
aF215.80187661311908
aF604.990849242352
aF3536.779837682296
aF4442.339569026757
aF7051.654214677101
aF226.477767432497
aF780.3645417216331
aF579.4910556815319
aF433.6889582791221
asS'Bacteria.Verrucomicrobiota.Verrucomicrobiae.Verrucomicrobiales'
p527
(lp528
F30399.506232640982
aF3825.7528296370556
aF152571.9267654752
aF3142.0492492909257
aF587.978512058014
aF11764.148709448256
aF37597.521750369735
aF0.0
aF6701.225667800056
aF82615.26832955405
aF24575.70763581692
asS'Bacteria.Proteobacteria.Gammaproteobacteria.Burkholderiales.Sutterellaceae'
p529
(lp530
F625.0219734287532
aF41392.752230993065
aF4980.707312230788
aF6481.425263030073
aF1665.939117497706
aF1629.1735732891307
aF4068.2620469290973
aF578.7765167719368
aF4180.524330651607
aF1725.875535399345
aF0.0
asS'Bacteria.Deferribacterota.Deferribacteres'
p531
(lp532
F253.915176705431
aF258.94833563045574
aF0.0
aF136.6108369256924
aF677.0661654001373
aF0.0
aF0.0
aF0.0
aF0.0
aF125.97631645250694
aF0.0
asS'Bacteria.Firmicutes.Clostridia.Clostridiales.Clostridiaceae'
p533
(lp534
F0.0
aF25.059516351334427
aF0.0
aF0.0
aF35.635061336849326
aF7444.944352356144
aF1491.6960838740022
aF11827.172299252621
aF371.6021627245872
aF100.78105316200555
aF0.0
asS'Bacteria.Actinobacteriota.Coriobacteriia.Coriobacteriales.Coriobacteriales_Incertae_Sedis'
p535
(lp536
F0.0
aF0.0
aF0.0
aF0.0
aF0.0
aF0.0
aF0.0
aF1535.0159792647019
aF0.0
aF0.0
aF0.0
asS'Bacteria.Proteobacteria.Gammaproteobacteria.Enterobacterales.Morganellaceae'
p537
(lp538
F0.0
aF0.0
aF215.80187661311908
aF0.0
aF0.0
aF0.0
aF0.0
aF0.0
aF0.0
aF0.0
aF0.0
asS'Bacteria.Bacteroidota.Bacteroidia.Bacteroidales.Muribaculaceae'
p539
(lp540
F418256.8918438538
aF312759.4704088879
aF479183.75098189863
aF564885.8106877381
aF391157.1595292609
aF332124.0824058725
aF390883.70279650635
aF47107.37562595938
aF384032.25506772473
aF446875.7873519778
aF333188.77034724026
asS'Bacteria.Firmicutes.Clostridia.Lachnospirales.Lachnospiraceae.Blautia'
p541
(lp542
F0.0
aF1918.4451962299354
aF43.160375322623814
aF412.00093676002473
aF0.0
aF0.0
aF406.82620469290964
aF3824.9578499710606
aF780.3645417216331
aF466.11237087427565
aF693.9023332465954
asS'Bacteria.Patescibacteria.Saccharimonadia.Saccharimonadales'
p543
(lp544
F0.0
aF41.76586058555737
aF0.0
aF1051.686601729537
aF507.799624050103
aF1288.1837556239636
aF1186.57643035432
aF6341.377488109916
aF1486.408650898349
aF1234.567901234568
aF9830.283054326768
asS'Bacteria.Cyanobacteria'
p545
(lp546
F242.19601470364185
aF573.5844853749879
aF0.0
aF4790.052996331025
aF293.989256029007
aF0.0
aF745.8480419370011
aF2541.583834520244
aF501.66291967819274
aF188.9644746787604
aF0.0
asS'Bacteria.Bacteroidota.Bacteroidia.Bacteroidales.Prevotellaceae.Prevotella'
p547
(lp548
F0.0
aF0.0
aF0.0
aF0.0
aF0.0
aF0.0
aF0.0
aF0.0
aF0.0
aF226.75736961451247
aF0.0
asS'Bacteria.Firmicutes.Clostridia.Oscillospirales.Ruminococcaceae.Subdoligranulum'
p549
(lp550
F0.0
aF0.0
aF0.0
aF0.0
aF0.0
aF0.0
aF0.0
aF3472.6591006316207
aF656.4971541467708
aF0.0
aF0.0
asS'Bacteria.Firmicutes.Bacilli.Staphylococcales.Staphylococcaceae'
p551
(lp552
F0.0
aF0.0
aF0.0
aF0.0
aF0.0
aF0.0
aF25.426637793306853
aF1358.866604594982
aF0.0
aF0.0
aF0.0
asS'Bacteria.Firmicutes.Clostridia.uncultured'
p553
(lp554
F0.0
aF142.00392599089508
aF0.0
aF0.0
aF0.0
aF0.0
aF0.0
aF0.0
aF0.0
aF390.5265810027715
aF0.0
asS'Bacteria.Proteobacteria.Gammaproteobacteria.Burkholderiales.Comamonadaceae.Delftia'
p555
(lp556
F0.0
aF0.0
aF0.0
aF0.0
aF0.0
aF0.0
aF0.0
aF6492.362666398248
aF315.86183831589915
aF1914.8400100781053
aF1705.8432358978803
asS'Bacteria.Firmicutes.Clostridia.Oscillospirales.Ruminococcaceae.Harryflintia'
p557
(lp558
F1156.2906508431934
aF44.5502512912612
aF0.0
aF0.0
aF1202.683320118665
aF0.0
aF0.0
aF0.0
aF0.0
aF0.0
aF0.0
asS'Bacteria.Actinobacteriota.Actinobacteria.Micrococcales.Micrococcaceae'
p559
(lp560
F0.0
aF0.0
aF8.632075064524763
aF0.0
aF0.0
aF0.0
aF72.04214041436941
aF1811.822139459976
aF0.0
aF0.0
aF0.0
asS'Bacteria.Actinobacteriota.Coriobacteriia.Coriobacteriales.Eggerthellaceae.Adlercreutzia'
p561
(lp562
F0.0
aF178.2010051650448
aF0.0
aF138.7792629086399
aF400.894440039555
aF824.0587260241533
aF203.41310234645482
aF8480.334180527941
aF0.0
aF0.0
aF780.6401249024198
asS'Bacteria.Firmicutes.Clostridia.Oscillospirales._Clostridium__methylpentosum_group'
p563
(lp564
F70.31497201073473
aF0.0
aF0.0
aF0.0
aF0.0
aF0.0
aF0.0
aF0.0
aF0.0
aF0.0
aF0.0
asS'Bacteria.Firmicutes.Clostridia.Oscillospirales.Oscillospiraceae'
p565
(lp566
F28415.061467004693
aF520.6810619666153
aF3055.754572841766
aF2406.952841071723
aF63305.68646491284
aF27714.894624674398
aF8623.867984896577
aF7977.050252900172
aF21998.848033295566
aF19299.571680524063
aF6274.0335964379665
asS'Bacteria.Firmicutes.Clostridia.Oscillospirales.Oscillospiraceae.UCG_003'
p567
(lp568
F3000.1054724580154
aF0.0
aF0.0
aF0.0
aF0.0
aF0.0
aF0.0
aF0.0
aF0.0
aF0.0
aF0.0
asS'Bacteria.Firmicutes.Clostridia.Christensenellales.Christensenellaceae.uncultured'
p569
(lp570
F27.344711337507952
aF0.0
aF0.0
aF28.18953777831748
aF0.0
aF0.0
aF0.0
aF0.0
aF0.0
aF0.0
aF0.0
asS'Bacteria.Firmicutes.Clostridia.Oscillospirales.Oscillospiraceae.UCG_005'
p571
(lp572
F386.73234605904105
aF2052.095950103719
aF0.0
aF659.2014988160396
aF1701.5741788345556
aF2216.4338148235847
aF1000.1144198700696
aF2239.6134779435815
aF45713.25938450297
aF5442.176870748299
aF1676.930638679272
asS'Bacteria'
p573
(lp574
F1000000.0
aF1000000.0
aF1000000.0
aF1000000.0
aF1000000.0
aF1000000.0
aF1000000.0
aF1000000.0
aF998600.2985204041
aF1000000.0
aF1000000.0
asS'Bacteria.Firmicutes.Clostridia.Oscillospirales.Oscillospiraceae.UCG_007'
p575
(lp576
F0.0
aF0.0
aF0.0
aF65.05277948842495
aF0.0
aF0.0
aF0.0
aF0.0
aF0.0
aF0.0
aF0.0
assS'subclass_sl'
p577
(dp578
g10
(I0
I4
tp579
sg12
(I4
I11
tp580
ssS'norm'
p581
F1000000.0
sS'cls'
p582
(dp583
S'class'
p584
(S'NC'
p585
S'NC'
p586
S'NC'
p587
g3
S'STD-NC'
p588
S'STD-NC'
p589
S'STD-NC'
p590
S'STD-NC'
p591
S'STD-NC'
p592
S'STD-NC'
p593
g5
tp594
sS'subclass'
p595
(lp596
S'NC_subcl'
p597
aS'NC_subcl'
p598
aS'NC_subcl'
p599
ag10
aS'STD-NC_subcl'
p600
aS'STD-NC_subcl'
p601
aS'STD-NC_subcl'
p602
aS'STD-NC_subcl'
p603
aS'STD-NC_subcl'
p604
aS'STD-NC_subcl'
p605
ag12
asS'subject'
p606
(S'S210421121673'
p607
S'S210421121674'
p608
S'S210421121675'
p609
S'S210421121676'
p610
S'S210421121682'
p611
S'S210421121683'
p612
S'S210421121684'
p613
S'S210421121694'
p614
S'S210421121695'
p615
S'S210421121696'
p616
S'S210421121697'
p617
tp618
ss.