(dp0
S'class_sl'
p1
(dp2
S'NC'
p3
(I0
I4
tp4
sS'STD-NC'
p5
(I4
I11
tp6
ssS'class_hierarchy'
p7
(dp8
g3
(lp9
S'NC_subcl'
p10
asg5
(lp11
S'STD-NC_subcl'
p12
assS'feats'
p13
(dp14
S'Bacteria.Firmicutes.Clostridia.Lachnospirales.Lachnospiraceae._Eubacterium__ventriosum_group.uncultured_Clostridiales'
p15
(lp16
F0.0
aF0.0
aF0.0
aF0.0
aF873.0590027528083
aF0.0
aF385.637339865154
aF0.0
aF0.0
aF0.0
aF0.0
asS'Bacteria.Firmicutes.Bacilli.Acholeplasmatales'
p17
(lp18
F0.0
aF1481.2958554344345
aF0.0
aF0.0
aF365.2593787027055
aF104.19133317546765
aF29.664410758857997
aF0.0
aF371.602162724587
aF0.0
aF0.0
asS'Bacteria.Firmicutes.Bacilli.Lactobacillales.Streptococcaceae'
p19
(lp20
F417.9834447304788
aF1481.2958554344345
aF530.8726164682728
aF49.87379760779247
aF0.0
aF0.0
aF203.41310234645482
aF5058.003472659099
aF0.0
aF503.90526581002786
aF0.0
asS'Bacteria.Cyanobacteria.Vampirivibrionia.Gastranaerophilales.Gastranaerophilales'
p21
(lp22
F242.1960147036419
aF573.5844853749878
aF0.0
aF4790.052996331025
aF293.98925602900687
aF0.0
aF745.848041937001
aF2189.2850851808043
aF501.6629196781924
aF188.96447467876044
aF0.0
asS'Bacteria.Firmicutes.Clostridia.Oscillospirales.Ruminococcaceae.uncultured.uncultured_bacterium'
p23
(lp24
F1742.24875093265
aF94.66928399393002
aF116.53301337108428
aF234.19000615832985
aF739.4275227396233
aF331.5178782855789
aF0.0
aF553.6123203905481
aF737.0109560704309
aF0.0
aF0.0
asS'Bacteria.Firmicutes.Clostridia.Clostridiales.Clostridiaceae.Candidatus_Arthromitus'
p25
(lp26
F0.0
aF0.0
aF0.0
aF0.0
aF0.0
aF0.0
aF0.0
aF0.0
aF260.1215139072109
aF0.0
aF0.0
asS'Bacteria.Firmicutes.Clostridia.Lachnospirales.Lachnospiraceae.Lachnospiraceae_UCG_006'
p27
(lp28
F402.35789539475996
aF0.0
aF0.0
aF0.0
aF2628.0857735926375
aF4139.237508879942
aF80.5176863454717
aF679.433302297491
aF2446.380904603531
aF0.0
aF1098.6786943071097
asS'Bacteria.Firmicutes.Clostridia.Lachnospirales.Lachnospiraceae.Lachnospiraceae_UCG_001'
p29
(lp30
F0.0
aF0.0
aF0.0
aF212.50574632885488
aF0.0
aF0.0
aF0.0
aF0.0
aF452.1159646482475
aF0.0
aF0.0
asS'Bacteria.Actinobacteriota.Actinobacteria.Bifidobacteriales.Bifidobacteriaceae.Bifidobacterium.Bifidobacterium_animalis'
p31
(lp32
F0.0
aF796.3357418312938
aF0.0
aF86.73703931789994
aF0.0
aF0.0
aF974.6877820767628
aF1509.8517828833133
aF0.0
aF0.0
aF4597.102957758696
asS'Bacteria.Cyanobacteria.Vampirivibrionia.Gastranaerophilales'
p33
(lp34
F242.1960147036419
aF573.5844853749878
aF0.0
aF4790.052996331025
aF293.98925602900687
aF0.0
aF745.848041937001
aF2189.2850851808043
aF501.6629196781924
aF188.96447467876044
aF0.0
asS'Bacteria.Verrucomicrobiota.Verrucomicrobiae.Verrucomicrobiales.Akkermansiaceae.Akkermansia'
p35
(lp36
F30399.50623264099
aF3825.7528296370547
aF152571.92676547516
aF3142.0492492909257
aF587.9785120580137
aF11764.148709448256
aF37597.521750369735
aF0.0
aF6701.225667800051
aF82615.26832955406
aF24575.707635816925
asS'Bacteria.Firmicutes.Clostridia.Oscillospirales.Oscillospiraceae.UCG_005.uncultured_rumen'
p37
(lp38
F0.0
aF0.0
aF0.0
aF0.0
aF0.0
aF0.0
aF0.0
aF0.0
aF483.08281154196305
aF0.0
aF0.0
asS'Bacteria.Firmicutes.Clostridia.Oscillospirales.Ruminococcaceae.Negativibacillus.uncultured_bacterium'
p39
(lp40
F0.0
aF0.0
aF0.0
aF0.0
aF0.0
aF151.5510300734075
aF0.0
aF0.0
aF309.6684689371558
aF0.0
aF0.0
asS'Bacteria.Firmicutes.Clostridia.Oscillospirales.Ruminococcaceae.Anaerofilum'
p41
(lp42
F0.0
aF0.0
aF0.0
aF0.0
aF712.7012267369864
aF0.0
aF0.0
aF0.0
aF0.0
aF0.0
aF0.0
asS'Bacteria.Firmicutes.Bacilli.Lactobacillales.Lactobacillaceae.Lactobacillus'
p43
(lp44
F8336.230570605998
aF29731.723955505437
aF5226.721451569743
aF15879.383473124533
aF4276.207360421919
aF50011.83992422447
aF73249.9057095515
aF64093.208183396644
aF45750.4196007754
aF3854.875283446713
aF29548.674357417527
asS'Bacteria.Actinobacteriota.Actinobacteria.Bifidobacteriales'
p45
(lp46
F0.0
aF796.3357418312938
aF0.0
aF86.73703931789994
aF0.0
aF0.0
aF3263.08518347438
aF1509.8517828833133
aF0.0
aF0.0
aF4597.102957758696
asS'Bacteria.Firmicutes.Clostridia.Oscillospirales.Oscillospiraceae.UCG_003.uncultured_bacterium'
p47
(lp48
F3000.1054724580163
aF0.0
aF0.0
aF0.0
aF0.0
aF0.0
aF0.0
aF0.0
aF0.0
aF0.0
aF0.0
asS'Bacteria.Desulfobacterota.Desulfovibrionia'
p49
(lp50
F0.0
aF0.0
aF0.0
aF0.0
aF0.0
aF0.0
aF0.0
aF0.0
aF1833.2373361079624
aF0.0
aF0.0
asS'Bacteria.Firmicutes.Bacilli.Erysipelotrichales.Erysipelotrichaceae.Faecalibaculum'
p51
(lp52
F0.0
aF111.37562822815298
aF0.0
aF86.73703931789994
aF0.0
aF179.9668482121714
aF88.99323227657399
aF855.5826769672109
aF0.0
aF188.96447467876044
aF1011.9409026512851
asS'Bacteria.Cyanobacteria.Vampirivibrionia'
p53
(lp54
F242.1960147036419
aF573.5844853749878
aF0.0
aF4790.052996331025
aF293.98925602900687
aF0.0
aF745.848041937001
aF2189.2850851808043
aF501.6629196781924
aF188.96447467876044
aF0.0
asS'Bacteria.Bacteroidota.Bacteroidia.Bacteroidales.Muribaculaceae.Muribaculaceae'
p55
(lp56
F25071.19390916087
aF66076.37583705745
aF104620.7497820401
aF66024.23432878543
aF61684.29117408617
aF51271.60786170967
aF45369.59736919053
aF1811.822139459976
aF43681.8342282752
aF28269.085411942564
aF48370.77514673143
asS'Bacteria.Firmicutes.Clostridia.Lachnospirales.Lachnospiraceae.Frisingicoccus'
p57
(lp58
F0.0
aF506.759108438096
aF0.0
aF34.69481572715998
aF0.0
aF700.9235140895096
aF76.27991337992057
aF578.7765167719368
aF1040.4860556288436
aF0.0
aF0.0
asS'Bacteria.Proteobacteria.Gammaproteobacteria.Pasteurellales'
p59
(lp60
F105.47245801610214
aF52.90342340837267
aF0.0
aF52.042223590739965
aF356.3506133684932
aF824.0587260241533
aF0.0
aF1786.6579430785873
aF222.96129763475216
aF0.0
aF0.0
asS'Bacteria.Firmicutes.Clostridia.Oscillospirales.Oscillospiraceae.UCG_007'
p61
(lp62
F0.0
aF0.0
aF0.0
aF65.05277948842495
aF0.0
aF0.0
aF0.0
aF0.0
aF0.0
aF0.0
aF0.0
asS'Bacteria.Proteobacteria.Gammaproteobacteria.Pseudomonadales.Moraxellaceae.Acinetobacter'
p63
(lp64
F0.0
aF0.0
aF0.0
aF0.0
aF0.0
aF0.0
aF0.0
aF1157.5530335438737
aF49.54695502994493
aF0.0
aF0.0
asS'Bacteria.Firmicutes.Clostridia.Clostridia_vadinBB60_group'
p65
(lp66
F2382.896273697122
aF247.81077280764038
aF38.84433779036143
aF2782.090536121641
aF739.4275227396233
aF947.1939379587968
aF402.58843172735857
aF0.0
aF12591.119946984754
aF0.0
aF0.0
asS'Bacteria.Firmicutes.Bacilli.Erysipelotrichales.Erysipelatoclostridiaceae.UCG_004'
p67
(lp68
F414.0770573965491
aF97.45367469963385
aF0.0
aF381.6429729987597
aF329.6243173658562
aF729.3393322282735
aF0.0
aF251.64196381388555
aF1263.4473532635957
aF0.0
aF0.0
asS'Bacteria.Firmicutes.Clostridia.Oscillospirales.Oscillospiraceae.Colidextribacter'
p69
(lp70
F3804.821263247536
aF47.33464199696501
aF500.6603537424362
aF438.0220485553947
aF2788.443549608459
aF1335.5434525219036
aF673.8059015226316
aF931.0752661113764
aF1120.9998575525042
aF0.0
aF0.0
asS'Bacteria.Bacteroidota.Bacteroidia.Bacteroidales.Tannerellaceae'
p71
(lp72
F6691.64150302159
aF81847.16479416391
aF22931.10740891003
aF8216.166049388072
aF320.7155520316439
aF483.0689083589864
aF8636.58130379323
aF0.0
aF2464.9610127397605
aF2292.7689594356266
aF838.4653193396363
asS'Bacteria.Firmicutes.Clostridia.Peptostreptococcales_Tissierellales.Anaerovoracaceae.Family_XIII_UCG_001.uncultured_bacterium'
p73
(lp74
F156.25549335718833
aF0.0
aF0.0
aF0.0
aF267.2629600263699
aF208.3826663509353
aF0.0
aF0.0
aF148.6408650898348
aF0.0
aF0.0
asS'Bacteria.Bacteroidota.Bacteroidia.Bacteroidales.Muribaculaceae'
p75
(lp76
F418256.8918438539
aF312759.4704088878
aF479183.7509818986
aF564885.8106877381
aF391157.1595292608
aF332124.0824058725
aF390883.70279650635
aF47107.37562595938
aF384032.25506772444
aF446875.7873519779
aF333188.7703472403
asS'Bacteria.Proteobacteria.Alphaproteobacteria.Rhizobiales'
p77
(lp78
F0.0
aF36.19707917414972
aF0.0
aF0.0
aF0.0
aF0.0
aF0.0
aF0.0
aF247.7347751497246
aF0.0
aF0.0
asS'Bacteria.Bacteroidota.Bacteroidia.Bacteroidales.Muribaculaceae.Muribaculaceae.uncultured_Bacteroidales'
p79
(lp80
F8269.821985929193
aF2079.9398571607567
aF3858.5375538425687
aF16662.18525296858
aF979.9641867633563
aF1108.2169074117924
aF11560.644650023516
aF0.0
aF464.5027034057337
aF2204.5855379188715
aF1387.804666493191
asS'Bacteria.Firmicutes.Clostridia.Lachnospirales.Defluviitaleaceae.Defluviitaleaceae_UCG_011'
p81
(lp82
F0.0
aF55.68781411407649
aF0.0
aF134.4424109427449
aF0.0
aF0.0
aF0.0
aF0.0
aF545.0165053293942
aF1662.8873771730919
aF0.0
asS'Bacteria.Verrucomicrobiota'
p83
(lp84
F30399.50623264099
aF3825.7528296370547
aF152571.92676547516
aF3142.0492492909257
aF587.9785120580137
aF11764.148709448256
aF37597.521750369735
aF0.0
aF6701.225667800051
aF82615.26832955406
aF24575.707635816925
asS'Bacteria.Firmicutes.Clostridia.Lachnospirales.Lachnospiraceae.Tuzzerella'
p85
(lp86
F0.0
aF0.0
aF0.0
aF23.852685812422482
aF0.0
aF0.0
aF0.0
aF0.0
aF0.0
aF0.0
aF0.0
asS'Bacteria.Firmicutes.Clostridia.Oscillospirales.Ruminococcaceae.Candidatus_Soleaferrea'
p87
(lp88
F0.0
aF0.0
aF0.0
aF26.021111795369983
aF0.0
aF0.0
aF0.0
aF0.0
aF0.0
aF0.0
aF0.0
asS'Bacteria.Firmicutes.Clostridia.Oscillospirales.Oscillospiraceae.UCG_007.uncultured_bacterium'
p89
(lp90
F0.0
aF0.0
aF0.0
aF65.05277948842495
aF0.0
aF0.0
aF0.0
aF0.0
aF0.0
aF0.0
aF0.0
asS'Bacteria.Firmicutes.Bacilli.Bacillales.Bacillaceae.Anoxybacillus'
p91
(lp92
F0.0
aF0.0
aF0.0
aF0.0
aF0.0
aF0.0
aF0.0
aF931.0752661113764
aF0.0
aF0.0
aF0.0
asS'Bacteria.Bacteroidota.Bacteroidia.Bacteroidales.Muribaculaceae.Muribaculaceae.uncultured_Barnesiella'
p93
(lp94
F0.0
aF0.0
aF0.0
aF0.0
aF0.0
aF0.0
aF0.0
aF377.4629457208283
aF0.0
aF0.0
aF0.0
asS'Bacteria.Bacteroidota.Bacteroidia.Bacteroidales'
p95
(lp96
F652714.3532389811
aF747959.7377103956
aF784336.2365879135
aF869538.8191619468
aF494561.19876346324
aF367672.2708974661
aF716717.5905718025
aF52089.886509474316
aF506722.90246062545
aF602003.023431595
aF367218.89727354207
asS'Bacteria.Cyanobacteria'
p97
(lp98
F242.1960147036419
aF573.5844853749878
aF0.0
aF4790.052996331025
aF293.98925602900687
aF0.0
aF745.848041937001
aF2541.583834520244
aF501.6629196781924
aF188.96447467876044
aF0.0
asS'Bacteria.Cyanobacteria.Cyanobacteriia.Chloroplast.Chloroplast.Chloroplast'
p99
(lp100
F0.0
aF0.0
aF0.0
aF0.0
aF0.0
aF0.0
aF0.0
aF352.2987493394398
aF0.0
aF0.0
aF0.0
asS'Bacteria.Firmicutes.Bacilli.RF39.RF39.RF39.unidentified'
p101
(lp102
F0.0
aF0.0
aF0.0
aF0.0
aF0.0
aF0.0
aF0.0
aF780.0900878230452
aF105.28727943863298
aF982.6152683295542
aF925.2031109954607
asS'Bacteria.Firmicutes.Clostridia.Peptococcales'
p103
(lp104
F1820.376497611244
aF180.9853958707486
aF215.80187661311905
aF604.990849242352
aF3866.4041550481506
aF4442.339569026758
aF7051.654214677101
aF226.477767432497
aF891.8451905390086
aF579.491055681532
aF433.68895827912223
asS'Bacteria.Firmicutes.Clostridia.Lachnospirales.Lachnospiraceae.Hungatella'
p105
(lp106
F0.0
aF3101.81124615406
aF0.0
aF0.0
aF0.0
aF0.0
aF0.0
aF0.0
aF0.0
aF0.0
aF0.0
asS'Bacteria.Firmicutes.Bacilli.Staphylococcales.Staphylococcaceae.Jeotgalicoccus'
p107
(lp108
F0.0
aF0.0
aF0.0
aF0.0
aF0.0
aF0.0
aF25.426637793306853
aF0.0
aF0.0
aF0.0
aF0.0
asS'Bacteria.Firmicutes.Clostridia.Oscillospirales.Ruminococcaceae.UBA1819'
p109
(lp110
F0.0
aF0.0
aF0.0
aF54.21064957368746
aF0.0
aF0.0
aF0.0
aF0.0
aF0.0
aF0.0
aF0.0
asS'Bacteria.Proteobacteria.Gammaproteobacteria.Burkholderiales.Oxalobacteraceae'
p111
(lp112
F0.0
aF0.0
aF0.0
aF0.0
aF0.0
aF0.0
aF0.0
aF654.2691059161024
aF0.0
aF0.0
aF433.68895827912223
asS'Bacteria.Firmicutes.Clostridia.Oscillospirales.Ruminococcaceae.Anaerofilum.uncultured_bacterium'
p113
(lp114
F0.0
aF0.0
aF0.0
aF0.0
aF712.7012267369864
aF0.0
aF0.0
aF0.0
aF0.0
aF0.0
aF0.0
asS'Bacteria.Firmicutes.Clostridia.Clostridia_UCG_014.Clostridia_UCG_014.Clostridia_UCG_014.uncultured_bacterium'
p115
(lp116
F3797.0084885796764
aF0.0
aF0.0
aF0.0
aF1015.5992481002056
aF2926.829268292682
aF0.0
aF0.0
aF11414.379765023563
aF705.467372134039
aF0.0
asS'Bacteria.Firmicutes.Clostridia.Oscillospirales.UCG_010'
p117
(lp118
F0.0
aF0.0
aF0.0
aF4172.051591190987
aF489.98209338167806
aF1373.4312100402553
aF817.8901823513705
aF0.0
aF1294.4142001573111
aF642.4792139077855
aF0.0
asS'Bacteria.Firmicutes.Clostridia.Oscillospirales.UCG_010.UCG_010.unidentified'
p119
(lp120
F0.0
aF0.0
aF0.0
aF0.0
aF0.0
aF473.5969689793984
aF0.0
aF0.0
aF0.0
aF125.97631645250696
aF0.0
asS'Bacteria.Firmicutes.Bacilli.Lactobacillales.Streptococcaceae.Streptococcus.Streptococcus_agalactiae'
p121
(lp122
F0.0
aF0.0
aF43.16037532262381
aF0.0
aF0.0
aF0.0
aF0.0
aF0.0
aF0.0
aF0.0
aF0.0
asS'Bacteria.Proteobacteria.Alphaproteobacteria.Sphingomonadales.Sphingomonadaceae.Sphingomonas'
p123
(lp124
F0.0
aF22.275125645630595
aF0.0
aF0.0
aF0.0
aF0.0
aF0.0
aF0.0
aF0.0
aF0.0
aF0.0
asS'Bacteria.Firmicutes.Clostridia.Eubacteriales.Anaerofustaceae'
p125
(lp126
F0.0
aF0.0
aF0.0
aF0.0
aF0.0
aF75.77551503670375
aF0.0
aF0.0
aF111.48064881737608
aF365.3313177122702
aF1185.416485962934
asS'Bacteria.Proteobacteria.Gammaproteobacteria.Pseudomonadales.Pseudomonadaceae'
p127
(lp128
F101.56607068217242
aF175.41661445934093
aF21.580187661311903
aF0.0
aF0.0
aF0.0
aF80.5176863454717
aF6819.497219356298
aF123.8673875748623
aF302.3431594860167
aF2023.8818053025702
asS'Bacteria.Firmicutes.Bacilli.Izemoplasmatales.Izemoplasmatales'
p129
(lp130
F0.0
aF0.0
aF0.0
aF0.0
aF0.0
aF104.19133317546765
aF0.0
aF0.0
aF117.6740181961192
aF0.0
aF0.0
asS'Bacteria.Proteobacteria.Gammaproteobacteria.Pseudomonadales.Pseudomonadaceae.Pseudomonas'
p131
(lp132
F101.56607068217242
aF175.41661445934093
aF21.580187661311903
aF0.0
aF0.0
aF0.0
aF80.5176863454717
aF6819.497219356298
aF123.8673875748623
aF302.3431594860167
aF2023.8818053025702
asS'Bacteria.Firmicutes.Clostridia.uncultured.uncultured.uncultured.uncultured_bacterium'
p133
(lp134
F0.0
aF142.00392599089506
aF0.0
aF0.0
aF0.0
aF0.0
aF0.0
aF0.0
aF0.0
aF390.5265810027716
aF0.0
asS'Bacteria.Firmicutes.Clostridia.Clostridia.Hungateiclostridiaceae.Ruminiclostridium'
p135
(lp136
F0.0
aF0.0
aF0.0
aF0.0
aF178.1753066842466
aF113.66327255505561
aF0.0
aF0.0
aF0.0
aF0.0
aF0.0
asS'Bacteria.Actinobacteriota.Actinobacteria.Micrococcales.Micrococcaceae'
p137
(lp138
F0.0
aF0.0
aF8.632075064524761
aF0.0
aF0.0
aF0.0
aF72.04214041436941
aF1811.822139459976
aF0.0
aF0.0
aF0.0
asS'Bacteria.Actinobacteriota'
p139
(lp140
F132.81716935361007
aF1116.5406729872336
aF94.95282570977238
aF459.70630838486966
aF579.0697467238015
aF2131.1863604072933
aF3538.5404262352044
aF42527.49188454666
aF780.3645417216325
aF1058.2010582010585
aF8847.254748894095
asS'Bacteria.Proteobacteria.Gammaproteobacteria.Burkholderiales'
p141
(lp142
F734.4008187787852
aF41818.764008965736
aF5114.504475730922
aF6579.004432262711
aF1772.8443015082535
aF2055.410845370589
aF4314.052878931063
aF21616.04469161277
aF4744.120944117228
aF4850.088183421518
aF4654.928152195911
asS'Bacteria.Firmicutes.Clostridia.Oscillospirales.Ruminococcaceae.Ruminococcus'
p143
(lp144
F121.09800735182095
aF0.0
aF0.0
aF5609.718017885179
aF2405.366640237329
aF28813.6395927066
aF31130.680204938693
aF12405.948816024558
aF23355.195927240293
aF428.3194759385236
aF578.2519443721629
asS'Bacteria.Bacteroidota.Bacteroidia.Bacteroidales.Bacteroidaceae.Bacteroides.uncultured_bacterium'
p145
(lp146
F74.22135934466446
aF0.0
aF0.0
aF0.0
aF0.0
aF0.0
aF0.0
aF0.0
aF0.0
aF0.0
aF0.0
asS'Bacteria.Firmicutes.Clostridia.Lachnospirales.Lachnospiraceae.ASF356'
p147
(lp148
F0.0
aF0.0
aF0.0
aF0.0
aF142.54024534739725
aF0.0
aF0.0
aF0.0
aF0.0
aF0.0
aF0.0
asS'Bacteria.Firmicutes.Clostridia.Christensenellales'
p149
(lp150
F27.34471133750796
aF89.10050258252238
aF280.54243959705474
aF312.25334154443976
aF1211.5920854528767
aF1733.364906464598
aF682.2814474537339
aF167014.77138327586
aF1635.0495159881827
aF3136.810279667423
aF2515.395958018909
asS'Bacteria.Firmicutes.Clostridia.Lachnospirales.Lachnospiraceae.Dorea'
p151
(lp152
F46.876648007156504
aF0.0
aF0.0
aF0.0
aF0.0
aF0.0
aF0.0
aF0.0
aF0.0
aF0.0
aF0.0
asS'Bacteria.Bacteroidota.Bacteroidia.Bacteroidales.Prevotellaceae.Prevotella'
p153
(lp154
F0.0
aF0.0
aF0.0
aF0.0
aF0.0
aF0.0
aF0.0
aF0.0
aF0.0
aF226.75736961451253
aF0.0
asS'Bacteria.Firmicutes.Bacilli.Lactobacillales.Streptococcaceae.Streptococcus'
p155
(lp156
F417.9834447304788
aF1408.901697086135
aF487.71224114564905
aF49.87379760779247
aF0.0
aF0.0
aF203.41310234645482
aF5058.003472659099
aF0.0
aF503.90526581002786
aF0.0
asS'Bacteria.Bacteroidota.Bacteroidia.Bacteroidales.Prevotellaceae'
p157
(lp158
F96804.1845221121
aF5165.044759080594
aF217269.32937408827
aF203953.4742521099
aF85034.16511505669
aF30291.262135922323
aF272170.9687125222
aF4982.510883514934
aF105757.97551141745
aF146069.5389266818
aF32989.27342643189
asS'Bacteria.Firmicutes.Clostridia.Oscillospirales.Ruminococcaceae.Incertae_Sedis'
p159
(lp160
F1546.9293842361647
aF0.0
aF608.5612920489957
aF0.0
aF668.1574000659248
aF0.0
aF0.0
aF0.0
aF0.0
aF0.0
aF1301.0668748373666
asS'Bacteria.Firmicutes.Clostridia.Lachnospirales.Lachnospiraceae.Lachnospiraceae_UCG_001.unidentified'
p161
(lp162
F0.0
aF0.0
aF0.0
aF0.0
aF0.0
aF0.0
aF974.6877820767628
aF0.0
aF0.0
aF0.0
aF0.0
asS'Bacteria.Proteobacteria.Gammaproteobacteria.Burkholderiales.Burkholderiaceae'
p163
(lp164
F109.37884535003184
aF426.01177797268514
aF133.79716350013382
aF93.24231726674245
aF106.90518401054796
aF378.87757518351873
aF241.5530590364151
aF12607.262387075667
aF247.7347751497246
aF982.6152683295542
aF1966.0566108653538
asS'Bacteria.Proteobacteria.Gammaproteobacteria.Enterobacterales.Morganellaceae.Proteus'
p165
(lp166
F0.0
aF0.0
aF215.80187661311908
aF0.0
aF0.0
aF0.0
aF0.0
aF0.0
aF0.0
aF0.0
aF0.0
asS'Bacteria.Firmicutes.Clostridia.Oscillospirales.Ruminococcaceae.Anaerotruncus.uncultured_bacterium'
p167
(lp168
F289.07266271079845
aF0.0
aF0.0
aF19.51583384652749
aF0.0
aF0.0
aF0.0
aF0.0
aF0.0
aF0.0
aF0.0
asS'Bacteria.Firmicutes.Clostridia.Oscillospirales.Ruminococcaceae.uncultured._Clostridium__leptum'
p169
(lp170
F0.0
aF0.0
aF0.0
aF0.0
aF320.7155520316439
aF0.0
aF0.0
aF0.0
aF1356.3478939447425
aF0.0
aF0.0
asS'Bacteria.Firmicutes.Clostridia.Lachnospirales.Lachnospiraceae.Lachnospiraceae_NK4B4_group'
p171
(lp172
F0.0
aF0.0
aF0.0
aF0.0
aF0.0
aF0.0
aF0.0
aF0.0
aF0.0
aF314.94079113126736
aF0.0
asS'Bacteria.Desulfobacterota.Desulfovibrionia.Desulfovibrionales.Desulfovibrionaceae'
p173
(lp174
F0.0
aF0.0
aF0.0
aF0.0
aF0.0
aF0.0
aF0.0
aF0.0
aF1833.2373361079624
aF0.0
aF0.0
asS'Bacteria.Proteobacteria.Gammaproteobacteria.Pseudomonadales'
p175
(lp176
F101.56607068217242
aF206.04491222208298
aF21.580187661311903
aF0.0
aF0.0
aF0.0
aF80.5176863454717
aF7977.050252900171
aF173.41434260480725
aF302.3431594860167
aF2023.8818053025702
asS'Bacteria.Firmicutes.Clostridia.Oscillospirales.Butyricicoccaceae.UCG_009'
p177
(lp178
F210.94491603220428
aF0.0
aF0.0
aF0.0
aF1202.6833201186646
aF1022.9694529955005
aF0.0
aF0.0
aF520.2430278144218
aF1385.7394809775765
aF578.2519443721629
asS'Bacteria.Firmicutes.Bacilli.Lactobacillales.Lactobacillaceae.Lactobacillus.Lactobacillus_intestinalis'
p179
(lp180
F1476.6144122254298
aF19075.860724776903
aF2045.8017902923687
aF6945.4684233808375
aF0.0
aF1212.40824058726
aF2076.5087531200597
aF12204.635244973448
aF1288.2208307785681
aF1360.5442176870752
aF13675.658484401654
asS'Bacteria.Firmicutes.Clostridia.Monoglobales.Monoglobaceae.Monoglobus.uncultured_rumen'
p181
(lp182
F0.0
aF0.0
aF0.0
aF0.0
aF0.0
aF0.0
aF0.0
aF12984.725332796495
aF9246.700482463471
aF0.0
aF0.0
asS'Bacteria.Deferribacterota.Deferribacteres'
p183
(lp184
F253.91517670543107
aF258.9483356304557
aF0.0
aF136.6108369256924
aF677.066165400137
aF0.0
aF0.0
aF0.0
aF0.0
aF125.97631645250696
aF0.0
asS'Bacteria.Firmicutes.Clostridia.Oscillospirales.Oscillospiraceae.Colidextribacter.uncultured_bacterium'
p185
(lp186
F328.1365360500955
aF0.0
aF0.0
aF0.0
aF632.5223387290754
aF0.0
aF0.0
aF0.0
aF0.0
aF0.0
aF0.0
asS'Bacteria.Deferribacterota.Deferribacteres.Deferribacterales.Deferribacteraceae.Mucispirillum.Mucispirillum_schaedleri'
p187
(lp188
F253.91517670543107
aF258.9483356304557
aF0.0
aF136.6108369256924
aF677.066165400137
aF0.0
aF0.0
aF0.0
aF0.0
aF0.0
aF0.0
asS'Bacteria.Firmicutes.Clostridia.Lachnospirales.Lachnospiraceae.Lachnospiraceae_NK4A136_group.uncultured_bacterium'
p189
(lp190
F167.97465535897746
aF0.0
aF0.0
aF0.0
aF7011.198318025104
aF966.1378167179728
aF131.37096193208544
aF0.0
aF11321.479224342416
aF0.0
aF0.0
asS'Bacteria.Verrucomicrobiota.Verrucomicrobiae.Verrucomicrobiales'
p191
(lp192
F30399.50623264099
aF3825.7528296370547
aF152571.92676547516
aF3142.0492492909257
aF587.9785120580137
aF11764.148709448256
aF37597.521750369735
aF0.0
aF6701.225667800051
aF82615.26832955406
aF24575.707635816925
asS'Bacteria.Cyanobacteria.Vampirivibrionia.Gastranaerophilales.Gastranaerophilales.Gastranaerophilales.Acinetobacter_sp_'
p193
(lp194
F0.0
aF437.14934079550045
aF0.0
aF0.0
aF0.0
aF0.0
aF216.12642124310827
aF0.0
aF0.0
aF0.0
aF0.0
asS'Bacteria.Firmicutes.Clostridia.Lachnospirales.Lachnospiraceae.Lachnospiraceae_UCG_001.uncultured_bacterium'
p195
(lp196
F0.0
aF0.0
aF0.0
aF0.0
aF151.4490106816096
aF0.0
aF0.0
aF427.79133848360544
aF0.0
aF352.7336860670195
aF0.0
asS'Bacteria.Firmicutes.Clostridia.Lachnospirales.Lachnospiraceae.Blautia'
p197
(lp198
F0.0
aF1918.445196229935
aF43.16037532262381
aF0.0
aF0.0
aF0.0
aF406.82620469290964
aF3824.9578499710606
aF780.3645417216326
aF466.11237087427577
aF693.9023332465955
asS'Bacteria.Firmicutes.Clostridia.Oscillospirales.Oscillospiraceae.NK4A214_group.unidentified'
p199
(lp200
F54.68942267501592
aF66.82537693689179
aF224.43395167764382
aF99.74759521558494
aF2387.5491095689044
aF1193.464361828084
aF584.8126692460577
aF0.0
aF668.8838929042565
aF579.491055681532
aF375.8637638419059
asS'Bacteria.Actinobacteriota.Coriobacteriia.Coriobacteriales.uncultured'
p201
(lp202
F35.157486005367375
aF0.0
aF30.212262725836666
aF0.0
aF178.1753066842466
aF492.54084773857437
aF0.0
aF12003.32167392234
aF575.9833522231098
aF806.2484252960445
aF1127.5912915257177
asS'Bacteria.Firmicutes.Clostridia.Oscillospirales.Oscillospiraceae.UCG_003'
p203
(lp204
F3000.1054724580163
aF0.0
aF0.0
aF0.0
aF0.0
aF0.0
aF0.0
aF0.0
aF0.0
aF0.0
aF0.0
asS'Bacteria.Firmicutes.Clostridia.Oscillospirales.Oscillospiraceae.UCG_005'
p205
(lp206
F183.6002046946963
aF150.3570981080065
aF0.0
aF659.2014988160396
aF1478.8550454792467
aF2216.4338148235847
aF1000.1144198700696
aF0.0
aF5394.424728885254
aF5442.176870748301
aF1676.9306386792725
asS'Bacteria.Firmicutes.Clostridia.Christensenellales.Christensenellaceae.uncultured.uncultured_bacterium'
p207
(lp208
F27.34471133750796
aF0.0
aF0.0
aF28.18953777831748
aF0.0
aF0.0
aF0.0
aF0.0
aF0.0
aF0.0
aF0.0
asS'Bacteria.Firmicutes.Clostridia.Oscillospirales.UCG_010.UCG_010.metagenome'
p209
(lp210
F0.0
aF0.0
aF0.0
aF223.34787624359234
aF0.0
aF0.0
aF76.27991337992057
aF0.0
aF92.90054068114675
aF0.0
aF0.0
asS'Bacteria.Firmicutes.Clostridia.Peptostreptococcales_Tissierellales.Anaerovoracaceae'
p211
(lp212
F0.0
aF0.0
aF0.0
aF0.0
aF0.0
aF0.0
aF0.0
aF0.0
aF49.54695502994493
aF0.0
aF0.0
asS'Bacteria.Firmicutes.Bacilli.RF39'
p213
(lp214
F0.0
aF0.0
aF0.0
aF32.52638974421247
aF1033.4167787686301
aF1373.4312100402553
aF1279.8074355964452
aF19275.774428143628
aF1690.7898403968704
aF8012.093726379442
aF19891.866886402404
asS'Bacteria.Bacteroidota.Bacteroidia.Bacteroidales.Rikenellaceae.Alistipes.Alistipes_finegoldii'
p215
(lp216
F390.63873339297083
aF506.759108438096
aF0.0
aF2656.321829110686
aF0.0
aF0.0
aF360.2107020718471
aF0.0
aF0.0
aF0.0
aF0.0
asS'Bacteria.Firmicutes.Clostridia.Lachnospirales.Lachnospiraceae.Tyzzerella'
p217
(lp218
F2089.917223652394
aF0.0
aF0.0
aF0.0
aF0.0
aF0.0
aF0.0
aF0.0
aF0.0
aF0.0
aF0.0
asS'Bacteria.Proteobacteria.Alphaproteobacteria.Rhodospirillales.uncultured.uncultured'
p219
(lp220
F0.0
aF768.4918347742555
aF0.0
aF12028.258927409775
aF133.63148001318496
aF0.0
aF334.78406427854026
aF0.0
aF0.0
aF0.0
aF0.0
asS'Bacteria.Firmicutes.Clostridia.Peptostreptococcales_Tissierellales.Peptostreptococcaceae.Romboutsia'
p221
(lp222
F2519.619830384662
aF98614.76562391235
aF1277.5471095496648
aF13058.261269309836
aF285.0804906947945
aF20421.50130239166
aF1364.5628949074678
aF9814.036588741536
aF1833.2373361079624
aF856.6389518770472
aF22291.61245554688
asS'Bacteria.Firmicutes.Bacilli.Lactobacillales.Aerococcaceae'
p223
(lp224
F0.0
aF0.0
aF302.1226272583667
aF26.021111795369983
aF0.0
aF0.0
aF0.0
aF0.0
aF0.0
aF0.0
aF0.0
asS'Bacteria.Firmicutes.Clostridia.Lachnospirales.Lachnospiraceae.Roseburia'
p225
(lp226
F5070.490759440761
aF3697.6708571746785
aF7212.098716410439
aF182.1477825675899
aF0.0
aF1420.7909069381953
aF0.0
aF528.4481240091596
aF997.1324699776416
aF0.0
aF0.0
asS'Bacteria.Firmicutes.Clostridia.Peptococcales.Peptococcaceae.Peptococcus'
p227
(lp228
F0.0
aF0.0
aF0.0
aF0.0
aF329.6243173658562
aF0.0
aF0.0
aF0.0
aF111.48064881737608
aF0.0
aF0.0
asS'Bacteria.Firmicutes.Clostridia.Lachnospirales.Lachnospiraceae.Roseburia.uncultured_bacterium'
p229
(lp230
F42.9702606732268
aF0.0
aF0.0
aF0.0
aF0.0
aF3106.7961165048537
aF961.9744631801094
aF0.0
aF1405.8948489746872
aF188.96447467876044
aF0.0
asS'Bacteria.Acidobacteriota.Blastocatellia.Blastocatellales.Blastocatellaceae'
p231
(lp232
F0.0
aF0.0
aF0.0
aF0.0
aF0.0
aF0.0
aF0.0
aF377.4629457208283
aF0.0
aF0.0
aF0.0
asS'Bacteria.Firmicutes.Clostridia.Peptostreptococcales_Tissierellales.Anaerovoracaceae.Family_XIII_AD3011_group.uncultured_bacterium'
p233
(lp234
F89.8469086803833
aF0.0
aF185.58961388728238
aF56.37907555663496
aF712.7012267369864
aF388.3495145631067
aF343.2596102096426
aF0.0
aF247.7347751497246
aF327.5384227765181
aF0.0
asS'Bacteria.Firmicutes.Clostridia.Oscillospirales.Butyricicoccaceae.UCG_009.uncultured_organism'
p235
(lp236
F0.0
aF0.0
aF0.0
aF0.0
aF0.0
aF0.0
aF0.0
aF0.0
aF43.35358565120181
aF0.0
aF0.0
asS'Bacteria.Proteobacteria'
p237
(lp238
F3457.1527905277917
aF44154.86781105125
aF12136.697540721816
aF18932.52725711461
aF2672.629600263699
aF5228.510537532558
aF5161.607472041292
aF41822.89438586778
aF7413.463146355511
aF9536.407155454777
aF16884.956775667157
asS'Bacteria.Bacteroidota.Bacteroidia'
p239
(lp240
F652714.3532389811
aF747959.7377103956
aF784336.2365879135
aF869538.8191619468
aF494561.19876346324
aF367672.2708974661
aF716717.5905718025
aF52089.886509474316
aF506722.90246062545
aF602003.023431595
aF367218.89727354207
asS'Bacteria.Firmicutes.Clostridia.Clostridia_vadinBB60_group.Clostridia_vadinBB60_group.Clostridia_vadinBB60_group.unidentified'
p241
(lp242
F882.843537468114
aF0.0
aF0.0
aF201.66361641411737
aF596.8872773922261
aF577.7883021548661
aF241.5530590364151
aF0.0
aF10887.943367830398
aF0.0
aF0.0
asS'Bacteria.Proteobacteria.Gammaproteobacteria.Xanthomonadales.Xanthomonadaceae.Stenotrophomonas'
p243
(lp244
F0.0
aF0.0
aF0.0
aF0.0
aF0.0
aF0.0
aF0.0
aF0.0
aF0.0
aF0.0
aF202.38818053025705
asS'Bacteria.Proteobacteria.Alphaproteobacteria.Rhizobiales.Rhizobiaceae'
p245
(lp246
F0.0
aF36.19707917414972
aF0.0
aF0.0
aF0.0
aF0.0
aF0.0
aF0.0
aF247.7347751497246
aF0.0
aF0.0
asS'Bacteria.Firmicutes.Bacilli.Erysipelotrichales.Erysipelotrichaceae.Dubosiella.uncultured_bacterium'
p247
(lp248
F0.0
aF309.06736833312453
aF0.0
aF1769.4356020851587
aF0.0
aF0.0
aF177.98646455314798
aF23402.702634691355
aF0.0
aF0.0
aF318.0385694046896
asS'Bacteria.Firmicutes.Clostridia.Oscillospirales.Ruminococcaceae.Harryflintia.uncultured_bacterium'
p249
(lp250
F1156.2906508431938
aF44.55025129126119
aF0.0
aF0.0
aF1202.6833201186646
aF0.0
aF0.0
aF0.0
aF0.0
aF0.0
aF0.0
asS'Bacteria.Actinobacteriota.Coriobacteriia.Coriobacteriales'
p251
(lp252
F132.81716935361007
aF320.20493115593985
aF86.32075064524761
aF372.9692690669698
aF579.0697467238015
aF2102.770542268529
aF203.41310234645482
aF39205.817962203364
aF780.3645417216325
aF1058.2010582010585
aF4250.151791135398
asS'Bacteria.Proteobacteria.Alphaproteobacteria.Rhizobiales.Rhizobiaceae.Allorhizobium_Neorhizobium_Pararhizobium_Rhizobium'
p253
(lp254
F0.0
aF36.19707917414972
aF0.0
aF0.0
aF0.0
aF0.0
aF0.0
aF0.0
aF247.7347751497246
aF0.0
aF0.0
asS'Bacteria.Bacteroidota.Bacteroidia.Bacteroidales.Bacteroidaceae.Bacteroides.Bacteroides_caecimuris'
p255
(lp256
F14633.326952900687
aF106383.21569282602
aF0.0
aF13019.229601616782
aF4204.93723774822
aF672.5076959507458
aF1233.1919329753825
aF0.0
aF3387.7730501724845
aF0.0
aF0.0
asS'Bacteria.Firmicutes.Bacilli.Acholeplasmatales.Acholeplasmataceae.Anaeroplasma.uncultured_bacterium'
p257
(lp258
F0.0
aF1481.2958554344345
aF0.0
aF0.0
aF365.2593787027055
aF104.19133317546765
aF29.664410758857997
aF0.0
aF371.602162724587
aF0.0
aF0.0
asS'Bacteria.Firmicutes.Bacilli.Erysipelotrichales.Erysipelotrichaceae.uncultured.uncultured_Allobaculum'
p259
(lp260
F50.78303534108621
aF0.0
aF0.0
aF82.40018735200495
aF124.72271467897262
aF388.3495145631067
aF567.861577383853
aF6844.661415737687
aF0.0
aF0.0
aF0.0
asS'Bacteria.Firmicutes.Clostridia.Oscillospirales.Oscillospiraceae.UCG_005.uncultured_Clostridiales'
p261
(lp262
F46.876648007156504
aF0.0
aF0.0
aF0.0
aF222.71913335530823
aF0.0
aF0.0
aF0.0
aF303.4750995584127
aF0.0
aF0.0
asS'Bacteria.Firmicutes.Clostridia.Lachnospirales.Lachnospiraceae.Tyzzerella._Clostridium__colinum'
p263
(lp264
F2089.917223652394
aF0.0
aF0.0
aF0.0
aF0.0
aF0.0
aF0.0
aF0.0
aF0.0
aF0.0
aF0.0
asS'Bacteria.Firmicutes.Clostridia.Clostridia_UCG_014.Clostridia_UCG_014'
p265
(lp266
F5750.202155544531
aF38.98146987985354
aF0.0
aF9690.69571779237
aF11536.851107804967
aF71001.65758939141
aF23532.35327770549
aF275044.66644857696
aF35741.934684726526
aF116036.78508440415
aF176627.05640847716
asS'Bacteria.Firmicutes.Clostridia.Lachnospirales.Lachnospiraceae.Coprococcus'
p267
(lp268
F0.0
aF0.0
aF0.0
aF0.0
aF0.0
aF0.0
aF0.0
aF7373.109539746846
aF359.2154239671007
aF0.0
aF0.0
asS'Bacteria.Firmicutes.Clostridia.Oscillospirales.Oscillospiraceae.Flavonifractor'
p269
(lp270
F0.0
aF261.7327263361595
aF0.0
aF0.0
aF0.0
aF0.0
aF0.0
aF0.0
aF0.0
aF0.0
aF0.0
asS'Bacteria.Proteobacteria.Gammaproteobacteria.Pasteurellales.Pasteurellaceae.Haemophilus'
p271
(lp272
F105.47245801610214
aF0.0
aF0.0
aF0.0
aF0.0
aF0.0
aF0.0
aF0.0
aF0.0
aF0.0
aF0.0
asS'Bacteria.Deferribacterota.Deferribacteres.Deferribacterales.Deferribacteraceae.Mucispirillum'
p273
(lp274
F0.0
aF0.0
aF0.0
aF0.0
aF0.0
aF0.0
aF0.0
aF0.0
aF0.0
aF125.97631645250696
aF0.0
asS'Bacteria.Firmicutes.Bacilli.RF39.RF39'
p275
(lp276
F0.0
aF0.0
aF0.0
aF32.52638974421247
aF1033.4167787686301
aF1373.4312100402553
aF1279.8074355964452
aF19275.774428143628
aF1690.7898403968704
aF8012.093726379442
aF19891.866886402404
asS'Bacteria.Proteobacteria.Gammaproteobacteria.Burkholderiales.Alcaligenaceae.Achromobacter'
p277
(lp278
F0.0
aF0.0
aF0.0
aF0.0
aF0.0
aF47.35969689793984
aF0.0
aF956.2394624927651
aF0.0
aF0.0
aF0.0
asS'Bacteria.Proteobacteria.Gammaproteobacteria.Xanthomonadales.Xanthomonadaceae'
p279
(lp280
F0.0
aF0.0
aF0.0
aF0.0
aF0.0
aF0.0
aF0.0
aF0.0
aF0.0
aF0.0
aF202.38818053025705
asS'Bacteria.Firmicutes.Bacilli.Erysipelotrichales.Erysipelotrichaceae.Turicibacter.uncultured_bacterium'
p281
(lp282
F0.0
aF977.3211377020424
aF0.0
aF1016.9917860023768
aF0.0
aF9595.074591522613
aF1601.878180978332
aF7071.139183170184
aF1127.193226931247
aF5618.54371378181
aF100413.4501402261
asS'Bacteria.Firmicutes.Clostridia.Christensenellales.Christensenellaceae.Christensenellaceae_R_7_group.bacterium_YE57'
p283
(lp284
F0.0
aF0.0
aF0.0
aF0.0
aF730.518757405411
aF85.24745441629172
aF0.0
aF0.0
aF179.60771198355036
aF0.0
aF0.0
asS'Bacteria.Firmicutes.Clostridia.Peptostreptococcales_Tissierellales.Anaerovoracaceae.Family_XIII_UCG_001'
p285
(lp286
F156.25549335718833
aF0.0
aF0.0
aF0.0
aF267.2629600263699
aF208.3826663509353
aF0.0
aF0.0
aF148.6408650898348
aF0.0
aF0.0
asS'Bacteria.Firmicutes.Clostridia.Oscillospirales.Butyricicoccaceae'
p287
(lp288
F0.0
aF0.0
aF0.0
aF0.0
aF0.0
aF142.07909069381952
aF0.0
aF0.0
aF0.0
aF0.0
aF0.0
asS'Bacteria.Firmicutes.Clostridia.Oscillospirales._Eubacterium__coprostanoligenes_group._Eubacterium__coprostanoligenes_group.uncultured_Clostridium'
p289
(lp290
F0.0
aF0.0
aF0.0
aF3369.733977500413
aF329.6243173658562
aF615.676059673218
aF1271.3318896653427
aF0.0
aF495.4695502994492
aF214.1597379692618
aF549.3393471535549
asS'Bacteria.Firmicutes.Clostridia.Oscillospirales.Butyricicoccaceae.Butyricicoccus.uncultured_bacterium'
p291
(lp292
F1382.861116211117
aF0.0
aF0.0
aF52.042223590739965
aF347.44184803428084
aF0.0
aF0.0
aF0.0
aF117.6740181961192
aF0.0
aF0.0
asS'Bacteria.Firmicutes.Clostridia.Lachnospirales.Lachnospiraceae.Lachnospiraceae_NK4A136_group.Trichinella_pseudospiralis'
p293
(lp294
F0.0
aF0.0
aF0.0
aF435.8536225724472
aF0.0
aF0.0
aF6284.617307912345
aF830.4184805858223
aF2180.066021317577
aF12030.738221214415
aF13444.357706652789
asS'Bacteria.Firmicutes.Clostridia.Oscillospirales.Oscillospiraceae.uncultured'
p295
(lp296
F5570.508338183764
aF0.0
aF4104.551693181525
aF1086.381417456697
aF13416.600593323768
aF1667.0613308074824
aF673.8059015226316
aF0.0
aF12033.716702897875
aF0.0
aF0.0
asS'Bacteria.Firmicutes.Clostridia.Oscillospirales.Ruminococcaceae.Paludicola'
p297
(lp298
F0.0
aF0.0
aF64.74056298393572
aF36.863241710107474
aF0.0
aF0.0
aF0.0
aF0.0
aF0.0
aF0.0
aF0.0
asS'Bacteria.Proteobacteria.Gammaproteobacteria.Xanthomonadales'
p299
(lp300
F0.0
aF0.0
aF0.0
aF0.0
aF0.0
aF0.0
aF0.0
aF0.0
aF0.0
aF0.0
aF202.38818053025705
asS'Bacteria.Firmicutes.Clostridia.Clostridia_vadinBB60_group.Clostridia_vadinBB60_group.Clostridia_vadinBB60_group.uncultured_bacterium'
p301
(lp302
F410.17067006261937
aF0.0
aF0.0
aF1411.6453148988217
aF0.0
aF246.27042386928719
aF139.8465078631877
aF0.0
aF1399.7014795959442
aF0.0
aF0.0
asS'Bacteria.Patescibacteria'
p303
(lp304
F0.0
aF41.76586058555736
aF0.0
aF1051.686601729537
aF507.7996240501028
aF1288.1837556239636
aF1186.57643035432
aF6341.377488109916
aF1486.408650898348
aF1234.5679012345681
aF9830.28305432677
asS'Bacteria.Firmicutes.Clostridia.Oscillospirales.Oscillospiraceae.Papillibacter.uncultured_bacterium'
p305
(lp306
F0.0
aF0.0
aF0.0
aF277.5585258172798
aF8703.863731525445
aF1562.8699976320147
aF741.61026897145
aF0.0
aF526.4363971931649
aF0.0
aF0.0
asS'Bacteria.Firmicutes.Clostridia.Oscillospirales.UCG_010.UCG_010'
p307
(lp308
F0.0
aF0.0
aF0.0
aF667.8752027478296
aF169.26654135003426
aF577.7883021548661
aF741.61026897145
aF0.0
aF656.4971541467703
aF214.1597379692618
aF0.0
asS'Bacteria.Bacteroidota.Bacteroidia.Bacteroidales.Bacteroidaceae'
p309
(lp310
F104577.89531663223
aF321538.6543039719
aF64952.048823016565
aF66666.08841973789
aF9532.378907607193
aF1108.2169074117924
aF33274.993325507574
aF0.0
aF4700.767358466024
aF4106.827916351726
aF202.38818053025705
asS'Bacteria.Bacteroidota.Bacteroidia.Bacteroidales.Bacteroidaceae.Bacteroides.Bacteroides_fragilis'
p311
(lp312
F22086.713986038572
aF209163.4298124713
aF4113.183768246049
aF17399.45008717073
aF757.245053408048
aF0.0
aF2123.1242557411224
aF0.0
aF774.1711723428895
aF0.0
aF202.38818053025705
asS'Bacteria.Firmicutes.Bacilli.Erysipelotrichales'
p313
(lp314
F664.0858467680505
aF7133.608988013198
aF630.1414797103076
aF4421.420579229949
aF2547.906885584726
aF12616.623253611173
aF2818.11902209151
aF66508.97103600994
aF5004.242458024438
aF6424.792139077856
aF103333.62245930552
asS'Bacteria.Proteobacteria.Alphaproteobacteria'
p315
(lp316
F0.0
aF826.9640395940359
aF0.0
aF12028.258927409775
aF133.63148001318496
aF0.0
aF334.78406427854026
aF578.7765167719368
aF247.7347751497246
aF0.0
aF0.0
asS'Bacteria.Acidobacteriota.Blastocatellia'
p317
(lp318
F0.0
aF0.0
aF0.0
aF0.0
aF0.0
aF0.0
aF0.0
aF377.4629457208283
aF0.0
aF0.0
aF0.0
asS'Bacteria.Actinobacteriota.Coriobacteriia.Coriobacteriales.Eggerthellaceae.Enterorhabdus.mouse_gut'
p319
(lp320
F0.0
aF0.0
aF0.0
aF0.0
aF0.0
aF0.0
aF0.0
aF1207.8814263066506
aF0.0
aF0.0
aF404.7763610605141
asS'Bacteria.Firmicutes.Clostridia.Oscillospirales.Ruminococcaceae.Candidatus_Soleaferrea.Ruminococcaceae_bacterium'
p321
(lp322
F0.0
aF0.0
aF0.0
aF26.021111795369983
aF0.0
aF0.0
aF0.0
aF0.0
aF0.0
aF0.0
aF0.0
asS'Bacteria.Actinobacteriota.Coriobacteriia.Coriobacteriales.Eggerthellaceae.Enterorhabdus'
p323
(lp324
F97.65968334824271
aF52.90342340837267
aF56.108487919410955
aF143.1161148745349
aF0.0
aF151.5510300734075
aF0.0
aF17187.146128488384
aF161.02760384732102
aF0.0
aF2341.9203747072597
asS'Bacteria.Firmicutes.Clostridia.Oscillospirales.Ruminococcaceae.Ruminococcus.uncultured_Ruminococcus'
p325
(lp326
F468.766480071565
aF0.0
aF1519.2452113563581
aF0.0
aF0.0
aF0.0
aF0.0
aF8002.2144492815605
aF792.7512804791189
aF6349.206349206351
aF4134.501402260966
asS'Bacteria.Firmicutes.Bacilli.Bacillales.Bacillaceae'
p327
(lp328
F0.0
aF0.0
aF0.0
aF0.0
aF0.0
aF0.0
aF0.0
aF931.0752661113764
aF0.0
aF0.0
aF0.0
asS'Bacteria.Firmicutes.Clostridia.Oscillospirales.UCG_010.UCG_010.uncultured_rumen'
p329
(lp330
F0.0
aF0.0
aF0.0
aF62.884353505477456
aF320.7155520316439
aF179.9668482121714
aF0.0
aF0.0
aF0.0
aF0.0
aF0.0
asS'Bacteria.Proteobacteria.Gammaproteobacteria.Burkholderiales.Oxalobacteraceae.Herminiimonas'
p331
(lp332
F0.0
aF0.0
aF0.0
aF0.0
aF0.0
aF0.0
aF0.0
aF654.2691059161024
aF0.0
aF0.0
aF433.68895827912223
asS'Bacteria.Firmicutes.Clostridia.Lachnospirales.Lachnospiraceae.ASF356.uncultured_bacterium'
p333
(lp334
F0.0
aF0.0
aF0.0
aF0.0
aF0.0
aF0.0
aF33.90218372440914
aF0.0
aF0.0
aF0.0
aF0.0
asS'Bacteria.Proteobacteria.Gammaproteobacteria.Pasteurellales.Pasteurellaceae.Rodentibacter'
p335
(lp336
F0.0
aF52.90342340837267
aF0.0
aF52.042223590739965
aF356.3506133684932
aF824.0587260241533
aF0.0
aF0.0
aF222.96129763475216
aF0.0
aF0.0
asS'Bacteria.Chloroflexi.Chloroflexia.Chloroflexales.Chloroflexaceae'
p337
(lp338
F0.0
aF0.0
aF0.0
aF0.0
aF0.0
aF0.0
aF0.0
aF0.0
aF179.60771198355036
aF0.0
aF0.0
asS'Bacteria.Proteobacteria.Gammaproteobacteria.Pseudomonadales.Moraxellaceae.Acinetobacter.Acinetobacter_ursingii'
p339
(lp340
F0.0
aF30.62829776274207
aF0.0
aF0.0
aF0.0
aF0.0
aF0.0
aF0.0
aF0.0
aF0.0
aF0.0
asS'Bacteria.Firmicutes.Clostridia.Lachnospirales.Lachnospiraceae.Marvinbryantia'
p341
(lp342
F0.0
aF258.9483356304557
aF2127.806503405354
aF39.03166769305498
aF819.6064107475343
aF85.24745441629172
aF0.0
aF34676.26261355343
aF1802.2704892142467
aF0.0
aF607.1645415907711
asS'Bacteria.Campilobacterota.Campylobacteria'
p343
(lp344
F0.0
aF19.49073493992677
aF0.0
aF0.0
aF0.0
aF66.30357565711579
aF0.0
aF327.1345529580512
aF0.0
aF0.0
aF0.0
asS'Bacteria.Patescibacteria.Saccharimonadia.Saccharimonadales.Saccharimonadaceae'
p345
(lp346
F0.0
aF41.76586058555736
aF0.0
aF1051.686601729537
aF507.7996240501028
aF1288.1837556239636
aF1186.57643035432
aF6341.377488109916
aF1486.408650898348
aF1234.5679012345681
aF9830.28305432677
asS'Bacteria.Firmicutes.Clostridia.Oscillospirales.UCG_010.UCG_010.uncultured_bacterium'
p347
(lp348
F0.0
aF0.0
aF0.0
aF752.4438160827821
aF0.0
aF142.07909069381952
aF0.0
aF0.0
aF167.22097322606413
aF0.0
aF0.0
asS'Bacteria.Firmicutes'
p349
(lp350
F312800.0593770875
aF202049.31155939805
aF50860.186280179885
aF101948.54758827668
aF500120.2683320118
aF611849.3961638644
aF235052.31530725968
aF853972.1683988019
aF472981.4260852331
aF303237.59133282956
aF572642.9005117529
asS'Bacteria.Firmicutes.Clostridia.Oscillospirales'
p351
(lp352
F0.0
aF0.0
aF0.0
aF0.0
aF641.4311040632878
aF0.0
aF0.0
aF0.0
aF210.57455887726596
aF0.0
aF0.0
asS'Bacteria.Actinobacteriota.Coriobacteriia.Coriobacteriales.Atopobiaceae'
p353
(lp354
F0.0
aF89.10050258252238
aF0.0
aF91.07389128379495
aF0.0
aF634.619938432394
aF0.0
aF0.0
aF0.0
aF0.0
aF0.0
asS'Bacteria.Firmicutes.Bacilli.Erysipelotrichales.Erysipelatoclostridiaceae'
p355
(lp356
F613.3028114269642
aF1241.8382547439057
aF224.43395167764382
aF578.9697374469821
aF775.0625840764727
aF729.3393322282735
aF0.0
aF6643.347844686578
aF2043.8118949852283
aF0.0
aF1243.2416804001502
asS'Bacteria.Firmicutes.Bacilli.Acholeplasmatales.Acholeplasmataceae.Anaeroplasma'
p357
(lp358
F0.0
aF1481.2958554344345
aF0.0
aF0.0
aF365.2593787027055
aF104.19133317546765
aF29.664410758857997
aF0.0
aF371.602162724587
aF0.0
aF0.0
asS'Bacteria.Firmicutes.Clostridia.Lachnospirales.Lachnospiraceae.Lachnospiraceae_UCG_010.uncultured_bacterium'
p359
(lp360
F222.66407803399338
aF0.0
aF0.0
aF0.0
aF106.90518401054796
aF0.0
aF0.0
aF0.0
aF43.35358565120181
aF0.0
aF0.0
asS'Bacteria.Firmicutes.Clostridia.Lachnospirales.Lachnospiraceae.uncultured'
p361
(lp362
F304.69821204651726
aF0.0
aF0.0
aF0.0
aF0.0
aF0.0
aF0.0
aF0.0
aF0.0
aF0.0
aF0.0
asS'Bacteria.Proteobacteria.Gammaproteobacteria.Burkholderiales.Sutterellaceae.Parasutterella'
p363
(lp364
F625.0219734287533
aF41392.75223099306
aF4980.7073122307875
aF6481.425263030073
aF1665.9391174977056
aF1629.1735732891307
aF4068.2620469290973
aF578.7765167719368
aF4180.524330651604
aF1725.8755353993452
aF0.0
asS'Bacteria.Firmicutes.Bacilli.Erysipelotrichales.Erysipelotrichaceae.Dubosiella'
p365
(lp366
F0.0
aF309.06736833312453
aF0.0
aF1769.4356020851587
aF0.0
aF0.0
aF177.98646455314798
aF23402.702634691355
aF0.0
aF0.0
aF318.0385694046896
asS'Bacteria.Firmicutes.Clostridia.Clostridia'
p367
(lp368
F0.0
aF0.0
aF0.0
aF0.0
aF178.1753066842466
aF113.66327255505561
aF0.0
aF0.0
aF0.0
aF0.0
aF0.0
asS'Bacteria.Firmicutes.Clostridia.Lachnospirales.Lachnospiraceae.A2'
p369
(lp370
F0.0
aF0.0
aF0.0
aF0.0
aF0.0
aF530.4286052569263
aF0.0
aF0.0
aF0.0
aF0.0
aF0.0
asS'Bacteria.Firmicutes.Clostridia.Lachnospirales.Lachnospiraceae._Eubacterium__hallii_group'
p371
(lp372
F0.0
aF66.82537693689179
aF850.259393855689
aF0.0
aF0.0
aF0.0
aF0.0
aF0.0
aF260.1215139072109
aF0.0
aF0.0
asS'Bacteria.Firmicutes.Clostridia.Oscillospirales.Ruminococcaceae.Negativibacillus'
p373
(lp374
F0.0
aF0.0
aF0.0
aF0.0
aF0.0
aF0.0
aF0.0
aF0.0
aF191.9944507410366
aF0.0
aF0.0
asS'Bacteria.Verrucomicrobiota.Verrucomicrobiae'
p375
(lp376
F30399.50623264099
aF3825.7528296370547
aF152571.92676547516
aF3142.0492492909257
aF587.9785120580137
aF11764.148709448256
aF37597.521750369735
aF0.0
aF6701.225667800051
aF82615.26832955406
aF24575.707635816925
asS'Bacteria.Cyanobacteria.Cyanobacteriia.Chloroplast'
p377
(lp378
F0.0
aF0.0
aF0.0
aF0.0
aF0.0
aF0.0
aF0.0
aF352.2987493394398
aF0.0
aF0.0
aF0.0
asS'Bacteria.Actinobacteriota.Actinobacteria.Bifidobacteriales.Bifidobacteriaceae'
p379
(lp380
F0.0
aF796.3357418312938
aF0.0
aF86.73703931789994
aF0.0
aF0.0
aF3263.08518347438
aF1509.8517828833133
aF0.0
aF0.0
aF4597.102957758696
asS'Bacteria.Firmicutes.Clostridia.Monoglobales.Monoglobaceae.Monoglobus.uncultured_bacterium'
p381
(lp382
F0.0
aF0.0
aF0.0
aF0.0
aF0.0
aF0.0
aF0.0
aF1031.7320516369307
aF4106.203898106686
aF340.1360544217688
aF0.0
asS'Bacteria.Campilobacterota.Campylobacteria.Campylobacterales.Helicobacteraceae'
p383
(lp384
F0.0
aF19.49073493992677
aF0.0
aF0.0
aF0.0
aF66.30357565711579
aF0.0
aF0.0
aF0.0
aF0.0
aF0.0
asS'Bacteria.Firmicutes.Clostridia.Oscillospirales._Eubacterium__coprostanoligenes_group._Eubacterium__coprostanoligenes_group'
p385
(lp386
F0.0
aF0.0
aF0.0
aF0.0
aF2387.5491095689044
aF83911.91096376981
aF13548.160170867004
aF0.0
aF12522.992883818582
aF21730.914588057447
aF57362.59288171856
asS'Bacteria.Bacteroidota.Bacteroidia.Bacteroidales.Prevotellaceae.Prevotellaceae_UCG_001.uncultured_bacterium'
p387
(lp388
F66533.58907149079
aF4597.029055117014
aF77913.1095324005
aF13624.220450859133
aF16810.840185658664
aF4196.06914515747
aF54438.43151546997
aF931.0752661113764
aF19341.892569814754
aF27954.144620811294
aF12808.280567843409
asS'Bacteria.Firmicutes.Clostridia.Oscillospirales.Ruminococcaceae.Subdoligranulum'
p389
(lp390
F0.0
aF0.0
aF0.0
aF0.0
aF0.0
aF0.0
aF0.0
aF3472.6591006316207
aF656.4971541467703
aF0.0
aF0.0
asS'Bacteria.Proteobacteria.Gammaproteobacteria.Enterobacterales.Enterobacteriaceae.Escherichia_Shigella'
p391
(lp392
F2515.713443050732
aF1250.1914268610171
aF6784.811000716463
aF273.2216738513848
aF409.8032053737671
aF2349.040966137816
aF432.25284248621654
aF9864.364981504314
aF2025.2317868489988
aF4245.4018644494845
aF10003.758637638419
asS'Bacteria.Bacteroidota.Bacteroidia.Bacteroidales.Bacteroidaceae.Bacteroides'
p393
(lp394
F67783.63301834831
aF5992.00879867463
aF60838.86505477052
aF36247.40873095039
aF4570.196616450925
aF435.70921146104655
aF29918.677136791066
aF0.0
aF538.8231359506511
aF4106.827916351726
aF0.0
asS'Bacteria.Firmicutes.Bacilli.Erysipelotrichales.Erysipelotrichaceae._Clostridium__innocuum_group'
p395
(lp396
F0.0
aF3589.0796196522297
aF0.0
aF0.0
aF0.0
aF0.0
aF0.0
aF0.0
aF0.0
aF0.0
aF0.0
asS'Bacteria.Firmicutes.Clostridia.Lachnospirales.Lachnospiraceae.Lachnospiraceae_UCG_006.uncultured_bacterium'
p397
(lp398
F402.35789539475996
aF0.0
aF0.0
aF0.0
aF2628.0857735926375
aF4139.237508879942
aF80.5176863454717
aF679.433302297491
aF2446.380904603531
aF0.0
aF1098.6786943071097
asS'Bacteria.Actinobacteriota.Actinobacteria.Micrococcales.Intrasporangiaceae'
p399
(lp400
F0.0
aF0.0
aF0.0
aF0.0
aF0.0
aF28.415818138763903
aF0.0
aF0.0
aF0.0
aF0.0
aF0.0
asS'Bacteria.Actinobacteriota.Actinobacteria'
p401
(lp402
F0.0
aF796.3357418312938
aF8.632075064524761
aF86.73703931789994
aF0.0
aF28.415818138763903
aF3335.1273238887493
aF3321.673922343289
aF0.0
aF0.0
aF4597.102957758696
asS'Bacteria.Deferribacterota.Deferribacteres.Deferribacterales.Deferribacteraceae'
p403
(lp404
F253.91517670543107
aF258.9483356304557
aF0.0
aF136.6108369256924
aF677.066165400137
aF0.0
aF0.0
aF0.0
aF0.0
aF125.97631645250696
aF0.0
asS'Bacteria.Firmicutes.Clostridia.uncultured.uncultured'
p405
(lp406
F0.0
aF142.00392599089506
aF0.0
aF0.0
aF0.0
aF0.0
aF0.0
aF0.0
aF0.0
aF390.5265810027716
aF0.0
asS'Bacteria.Bacteroidota.Bacteroidia.Bacteroidales.Muribaculaceae.Muribaculaceae.uncultured_bacterium'
p407
(lp408
F376040.5639260755
aF244246.75270433945
aF356219.8416877434
aF468716.11834401655
aF326247.8953041897
aF278541.32133554335
aF327414.5770914468
aF44918.09054077857
aF338925.9458823383
aF416402.1164021165
aF283430.1905340157
asS'Bacteria.Firmicutes.Clostridia.Clostridia.Hungateiclostridiaceae.Ruminiclostridium.uncultured_organism'
p409
(lp410
F0.0
aF0.0
aF0.0
aF0.0
aF178.1753066842466
aF113.66327255505561
aF0.0
aF0.0
aF0.0
aF0.0
aF0.0
asS'Bacteria.Firmicutes.Clostridia.Oscillospirales.Oscillospiraceae.Oscillibacter'
p411
(lp412
F394.5451207269005
aF0.0
aF0.0
aF342.6113053057048
aF178.1753066842466
aF0.0
aF88.99323227657399
aF704.5974986788796
aF86.70717130240362
aF0.0
aF0.0
asS'Bacteria.Actinobacteriota.Coriobacteriia.Coriobacteriales.Coriobacteriales_Incertae_Sedis.uncultured'
p413
(lp414
F0.0
aF0.0
aF0.0
aF0.0
aF0.0
aF0.0
aF0.0
aF1535.0159792647019
aF0.0
aF0.0
aF0.0
asS'Bacteria.Firmicutes.Clostridia.Clostridia_UCG_014.Clostridia_UCG_014.Clostridia_UCG_014.unidentified_rumen'
p415
(lp416
F0.0
aF0.0
aF0.0
aF0.0
aF0.0
aF0.0
aF216.12642124310827
aF0.0
aF2353.480363922384
aF0.0
aF0.0
asS'Bacteria.Firmicutes.Clostridia.Lachnospirales.Lachnospiraceae.Lachnospiraceae_FCS020_group'
p417
(lp418
F0.0
aF0.0
aF0.0
aF0.0
aF0.0
aF0.0
aF0.0
aF0.0
aF253.92814452846775
aF743.2602670697911
aF0.0
asS'Bacteria.Firmicutes.Clostridia.Lachnospirales.Lachnospiraceae'
p419
(lp420
F74029.9463653019
aF498.40593632098455
aF2675.9432700026764
aF12368.701806732532
aF163814.3769654963
aF67279.18541321334
aF16345.090328130758
aF46302.121341754944
aF34689.0618903402
aF26077.09750566894
aF34116.864717957615
asS'Bacteria.Firmicutes.Clostridia.Peptostreptococcales_Tissierellales.Peptostreptococcaceae'
p421
(lp422
F2519.619830384662
aF116248.31196313466
aF1277.5471095496648
aF13058.261269309836
aF285.0804906947945
aF20421.50130239166
aF1364.5628949074678
aF9814.036588741536
aF1833.2373361079624
aF856.6389518770472
aF22291.61245554688
asS'Bacteria.Firmicutes.Bacilli.Erysipelotrichales.Erysipelotrichaceae.Holdemania'
p423
(lp424
F0.0
aF0.0
aF405.7075280326638
aF0.0
aF0.0
aF0.0
aF182.2242375186991
aF0.0
aF0.0
aF0.0
aF0.0
asS'Bacteria.Proteobacteria.Gammaproteobacteria.Burkholderiales.Sutterellaceae'
p425
(lp426
F625.0219734287533
aF41392.75223099306
aF4980.7073122307875
aF6481.425263030073
aF1665.9391174977056
aF1629.1735732891307
aF4068.2620469290973
aF578.7765167719368
aF4180.524330651604
aF1725.8755353993452
aF0.0
asS'Bacteria.Firmicutes.Clostridia.Clostridiales.Clostridiaceae'
p427
(lp428
F0.0
aF25.05951635133442
aF0.0
aF0.0
aF35.63506133684931
aF7444.944352356144
aF1491.6960838740022
aF11827.172299252621
aF371.60216272458695
aF100.78105316200556
aF0.0
asS'Bacteria.Firmicutes.Clostridia.Oscillospirales.Oscillospiraceae.Oscillibacter.uncultured_bacterium'
p429
(lp430
F7203.378243766383
aF142.00392599089506
aF220.11791414538143
aF0.0
aF14058.031697387056
aF2964.717025811034
aF419.53952358956315
aF0.0
aF6057.115252410768
aF466.11237087427577
aF0.0
asS'Bacteria.Firmicutes.Clostridia.Oscillospirales.Ruminococcaceae.UBA1819.uncultured_organism'
p431
(lp432
F0.0
aF0.0
aF0.0
aF0.0
aF0.0
aF0.0
aF0.0
aF780.0900878230452
aF0.0
aF0.0
aF0.0
asS'Bacteria.Firmicutes.Clostridia.Eubacteriales.Anaerofustaceae.Anaerofustis'
p433
(lp434
F0.0
aF0.0
aF0.0
aF0.0
aF0.0
aF75.77551503670375
aF0.0
aF0.0
aF111.48064881737608
aF365.3313177122702
aF1185.416485962934
asS'Bacteria.Firmicutes.Bacilli.RF39.RF39.RF39.uncultured_bacterium'
p435
(lp436
F0.0
aF0.0
aF0.0
aF32.52638974421247
aF561.2522160553767
aF473.5969689793984
aF589.0504422116088
aF2189.2850851808043
aF154.8342344685779
aF1373.1418493323258
aF5580.131263191372
asS'Bacteria.Firmicutes.Clostridia.Clostridia_UCG_014.Clostridia_UCG_014.Clostridia_UCG_014.uncultured_Clostridiales'
p437
(lp438
F0.0
aF0.0
aF0.0
aF0.0
aF0.0
aF568.3163627752781
aF0.0
aF2793.225798334129
aF291.08836080092647
aF1058.2010582010585
aF1503.4550553676236
asS'Bacteria.Firmicutes.Clostridia.Oscillospirales.Oscillospiraceae.UCG_005.uncultured_bacterium'
p439
(lp440
F156.25549335718833
aF1901.7388519957121
aF0.0
aF0.0
aF0.0
aF0.0
aF0.0
aF2239.6134779435815
aF38070.64157113393
aF0.0
aF0.0
asS'Bacteria.Actinobacteriota.Coriobacteriia.Coriobacteriales.Eggerthellaceae.Adlercreutzia.uncultured_bacterium'
p441
(lp442
F0.0
aF178.20100516504476
aF0.0
aF138.7792629086399
aF0.0
aF0.0
aF0.0
aF8480.334180527941
aF0.0
aF0.0
aF0.0
asS'Bacteria.Firmicutes.Clostridia.Christensenellales.Christensenellaceae.uncultured'
p443
(lp444
F27.34471133750796
aF0.0
aF0.0
aF28.18953777831748
aF0.0
aF0.0
aF0.0
aF0.0
aF0.0
aF0.0
aF0.0
asS'Bacteria.Campilobacterota.Campylobacteria.Campylobacterales.Helicobacteraceae.Helicobacter'
p445
(lp446
F0.0
aF19.49073493992677
aF0.0
aF0.0
aF0.0
aF66.30357565711579
aF0.0
aF0.0
aF0.0
aF0.0
aF0.0
asS'Bacteria.Bacteroidota.Bacteroidia.Bacteroidales.Rikenellaceae.Alistipes.uncultured_bacterium'
p447
(lp448
F24567.269943083935
aF25683.219869412078
aF0.0
aF21430.553989470125
aF8196.064107475344
aF3438.3139947904324
aF9412.093756489088
aF0.0
aF8540.656373286758
aF2658.100277147897
aF0.0
asS'Eukaryota'
p449
(lp450
F0.0
aF0.0
aF0.0
aF0.0
aF0.0
aF0.0
aF0.0
aF0.0
aF1399.7014795959442
aF0.0
aF0.0
asS'Bacteria.Desulfobacterota.Desulfovibrionia.Desulfovibrionales.Desulfovibrionaceae.Desulfovibrio'
p451
(lp452
F0.0
aF0.0
aF0.0
aF0.0
aF0.0
aF0.0
aF0.0
aF0.0
aF1833.2373361079624
aF0.0
aF0.0
asS'Bacteria.Cyanobacteria.Vampirivibrionia.Gastranaerophilales.Gastranaerophilales.Gastranaerophilales.uncultured_bacterium'
p453
(lp454
F242.1960147036419
aF0.0
aF0.0
aF2998.9331344163907
aF0.0
aF0.0
aF0.0
aF2189.2850851808043
aF291.08836080092647
aF188.96447467876044
aF0.0
asS'Bacteria.Bacteroidota.Bacteroidia.Bacteroidales.Rikenellaceae.Alistipes.Alistipes_timonensis'
p455
(lp456
F851.5924387966764
aF0.0
aF0.0
aF691.727888560252
aF0.0
aF0.0
aF135.60873489763657
aF0.0
aF173.41434260480725
aF0.0
aF0.0
asS'Bacteria.Firmicutes.Clostridia.Peptostreptococcales_Tissierellales.Anaerovoracaceae._Eubacterium__nodatum_group.uncultured_bacterium'
p457
(lp458
F0.0
aF0.0
aF0.0
aF0.0
aF374.16814403691785
aF0.0
aF275.45524276082426
aF0.0
aF0.0
aF0.0
aF0.0
asS'Bacteria.Bacteroidota.Bacteroidia.Bacteroidales.Prevotellaceae.Prevotellaceae_UCG_001'
p459
(lp460
F66533.58907149079
aF4597.029055117014
aF77913.1095324005
aF13624.220450859133
aF16810.840185658664
aF4196.06914515747
aF54438.43151546997
aF931.0752661113764
aF19341.892569814754
aF27954.144620811294
aF12808.280567843409
asS'Bacteria.Proteobacteria.Gammaproteobacteria'
p461
(lp462
F3457.1527905277917
aF43327.90377145721
aF12136.697540721816
aF6904.268329704836
aF2538.998120250514
aF5228.510537532558
aF4826.823407762751
aF41244.11786909585
aF7165.728371205785
aF9536.407155454777
aF16884.956775667157
asS'Bacteria.Bacteroidota'
p463
(lp464
F652714.3532389811
aF747959.7377103956
aF784336.2365879135
aF869538.8191619468
aF494561.19876346324
aF367672.2708974661
aF716717.5905718025
aF52089.886509474316
aF506722.90246062545
aF602003.023431595
aF367218.89727354207
asS'Bacteria.Bacteroidota.Bacteroidia.Bacteroidales.Rikenellaceae'
p465
(lp466
F26383.740053361253
aF26649.403444291303
aF0.0
aF25817.279752972918
aF8516.779659506987
aF3665.640539900544
aF11751.344433473318
aF0.0
aF9766.943510277893
aF2658.100277147897
aF0.0
asS'Bacteria.Acidobacteriota'
p467
(lp468
F0.0
aF0.0
aF0.0
aF0.0
aF0.0
aF0.0
aF0.0
aF377.4629457208283
aF0.0
aF0.0
aF0.0
asS'Bacteria.Firmicutes.Clostridia.Oscillospirales.Butyricicoccaceae.UCG_009.uncultured_bacterium'
p469
(lp470
F210.94491603220428
aF0.0
aF0.0
aF0.0
aF1202.6833201186646
aF1022.9694529955005
aF0.0
aF0.0
aF476.88944216322
aF1385.7394809775765
aF578.2519443721629
asS'Bacteria.Firmicutes.Clostridia.Clostridia_vadinBB60_group.Clostridia_vadinBB60_group.Clostridia_vadinBB60_group'
p471
(lp472
F1089.8820661663888
aF208.82930292778684
aF0.0
aF598.4855712935097
aF142.54024534739725
aF123.13521193464359
aF0.0
aF0.0
aF303.4750995584127
aF0.0
aF0.0
asS'Bacteria.Bacteroidota.Bacteroidia.Bacteroidales.Rikenellaceae.Alistipes'
p473
(lp474
F574.2389380876672
aF459.424466441131
aF0.0
aF1038.676045831852
aF320.7155520316439
aF227.32654511011123
aF1843.431240014747
aF0.0
aF1052.8727943863298
aF0.0
aF0.0
asS'Bacteria.Firmicutes.Clostridia.Lachnospirales.Lachnospiraceae.Lachnospiraceae_NK4A136_group'
p475
(lp476
F95417.41701856705
aF0.0
aF427.28771569397577
aF3315.5233279267254
aF43367.86964694562
aF14331.044281316596
aF3517.3515614074486
aF0.0
aF18722.555631940442
aF6072.058453010835
aF693.9023332465955
asS'Bacteria.Firmicutes.Clostridia.Eubacteriales.Anaerofustaceae.Anaerofustis.uncultured_bacterium'
p477
(lp478
F0.0
aF0.0
aF0.0
aF0.0
aF0.0
aF75.77551503670375
aF0.0
aF0.0
aF111.48064881737608
aF365.3313177122702
aF1185.416485962934
asS'Bacteria.Firmicutes.Clostridia.Lachnospirales.Lachnospiraceae.Anaerostipes'
p479
(lp480
F0.0
aF506.759108438096
aF0.0
aF0.0
aF0.0
aF0.0
aF0.0
aF0.0
aF0.0
aF0.0
aF0.0
asS'Bacteria.Firmicutes.Clostridia.Christensenellales.Christensenellaceae'
p481
(lp482
F27.34471133750796
aF89.10050258252238
aF280.54243959705474
aF312.25334154443976
aF1211.5920854528767
aF1733.364906464598
aF682.2814474537339
aF167014.77138327586
aF1635.0495159881827
aF3136.810279667423
aF2515.395958018909
asS'Bacteria.Actinobacteriota.Actinobacteria.Bifidobacteriales.Bifidobacteriaceae.Bifidobacterium'
p483
(lp484
F0.0
aF0.0
aF0.0
aF0.0
aF0.0
aF0.0
aF2288.397401397617
aF0.0
aF0.0
aF0.0
aF0.0
asS'Bacteria.Firmicutes.Bacilli.Erysipelotrichales.Erysipelotrichaceae.Allobaculum'
p485
(lp486
F0.0
aF0.0
aF0.0
aF0.0
aF1167.048258781815
aF369.40563580393075
aF0.0
aF16331.563451521171
aF501.6629196781924
aF0.0
aF0.0
asS'Bacteria.Desulfobacterota'
p487
(lp488
F0.0
aF0.0
aF0.0
aF0.0
aF0.0
aF0.0
aF0.0
aF0.0
aF1833.2373361079624
aF0.0
aF0.0
asS'Bacteria.Actinobacteriota.Coriobacteriia.Coriobacteriales.uncultured.uncultured'
p489
(lp490
F35.157486005367375
aF0.0
aF30.212262725836666
aF0.0
aF178.1753066842466
aF492.54084773857437
aF0.0
aF12003.32167392234
aF575.9833522231098
aF806.2484252960445
aF1127.5912915257177
asS'Bacteria.Firmicutes.Bacilli.Erysipelotrichales.Erysipelatoclostridiaceae.Candidatus_Stoquefichus'
p491
(lp492
F199.22575403041512
aF0.0
aF0.0
aF0.0
aF0.0
aF0.0
aF0.0
aF0.0
aF0.0
aF0.0
aF0.0
asS'Bacteria.Actinobacteriota.Coriobacteriia.Coriobacteriales.Eggerthellaceae.Gordonibacter'
p493
(lp494
F0.0
aF0.0
aF0.0
aF0.0
aF0.0
aF0.0
aF0.0
aF0.0
aF43.35358565120181
aF0.0
aF0.0
asS'Bacteria.Firmicutes.Bacilli.Staphylococcales.Staphylococcaceae'
p495
(lp496
F0.0
aF0.0
aF0.0
aF0.0
aF0.0
aF0.0
aF25.426637793306853
aF1358.866604594982
aF0.0
aF0.0
aF0.0
asS'Bacteria.Firmicutes.Clostridia.Oscillospirales.Ruminococcaceae.Incertae_Sedis.uncultured_Clostridiales'
p497
(lp498
F0.0
aF0.0
aF0.0
aF0.0
aF1273.953442792363
aF322.0459389059909
aF105.94432413877857
aF0.0
aF191.9944507410366
aF655.0768455530362
aF578.2519443721629
asS'Bacteria.Bacteroidota.Bacteroidia.Bacteroidales.Prevotellaceae.Prevotellaceae_NK3B31_group'
p499
(lp500
F30270.595450621313
aF568.0157039635802
aF139356.21984168777
aF190329.25380125077
aF68223.32492939802
aF26095.192990764852
aF217732.53719705215
aF4051.435617403557
aF86416.0829416027
aF117888.636936256
aF20180.992858588488
asS'Bacteria.Bacteroidota.Bacteroidia.Bacteroidales.Tannerellaceae.Parabacteroides'
p501
(lp502
F6691.64150302159
aF81847.16479416391
aF22931.10740891003
aF8216.166049388072
aF320.7155520316439
aF483.0689083589864
aF8636.58130379323
aF0.0
aF2464.9610127397605
aF2292.7689594356266
aF838.4653193396363
asS'Bacteria.Actinobacteriota.Coriobacteriia.Coriobacteriales.Eggerthellaceae.Enterorhabdus.uncultured_bacterium'
p503
(lp504
F97.65968334824271
aF52.90342340837267
aF56.108487919410955
aF143.1161148745349
aF0.0
aF151.5510300734075
aF0.0
aF15979.264702181732
aF161.02760384732102
aF0.0
aF1937.1440136467459
asS'Bacteria.Actinobacteriota.Coriobacteriia.Coriobacteriales.Eggerthellaceae.Parvibacter.uncultured_bacterium'
p505
(lp506
F0.0
aF0.0
aF0.0
aF0.0
aF0.0
aF0.0
aF0.0
aF0.0
aF0.0
aF251.95263290501393
aF0.0
asS'Bacteria.Firmicutes.Bacilli.Erysipelotrichales.Erysipelatoclostridiaceae.Erysipelatoclostridiaceae'
p507
(lp508
F0.0
aF19.49073493992677
aF0.0
aF0.0
aF0.0
aF0.0
aF0.0
aF0.0
aF0.0
aF0.0
aF0.0
asS'Bacteria.Proteobacteria.Gammaproteobacteria.Burkholderiales.Oxalobacteraceae.Herminiimonas.uncultured_bacterium'
p509
(lp510
F0.0
aF0.0
aF0.0
aF0.0
aF0.0
aF0.0
aF0.0
aF654.2691059161024
aF0.0
aF0.0
aF433.68895827912223
asS'Bacteria.Firmicutes.Bacilli.Izemoplasmatales.Izemoplasmatales.Izemoplasmatales.gut_metagenome'
p511
(lp512
F0.0
aF0.0
aF0.0
aF0.0
aF0.0
aF104.19133317546765
aF0.0
aF0.0
aF117.6740181961192
aF0.0
aF0.0
asS'Bacteria.Firmicutes.Clostridia.Lachnospirales.Lachnospiraceae._Eubacterium__xylanophilum_group.uncultured_bacterium'
p513
(lp514
F11965.264403826697
aF0.0
aF7932.8769842982565
aF153.9582447892724
aF10833.058646402193
aF9538.242955245085
aF1779.8646455314797
aF0.0
aF9612.109275809316
aF25976.316452506933
aF37065.949634255645
asS'Bacteria.Firmicutes.Bacilli.Izemoplasmatales.Izemoplasmatales.Izemoplasmatales'
p515
(lp516
F0.0
aF0.0
aF0.0
aF0.0
aF0.0
aF104.19133317546765
aF0.0
aF0.0
aF117.6740181961192
aF0.0
aF0.0
asS'Bacteria.Acidobacteriota.Blastocatellia.Blastocatellales'
p517
(lp518
F0.0
aF0.0
aF0.0
aF0.0
aF0.0
aF0.0
aF0.0
aF377.4629457208283
aF0.0
aF0.0
aF0.0
asS'Bacteria.Firmicutes.Bacilli.Erysipelotrichales.Erysipelotrichaceae.Allobaculum.uncultured_bacterium'
p519
(lp520
F0.0
aF904.9269793537429
aF0.0
aF776.2965018952045
aF0.0
aF606.20412029363
aF0.0
aF0.0
aF0.0
aF0.0
aF0.0
asS'Bacteria.Campilobacterota.Campylobacteria.Campylobacterales'
p521
(lp522
F0.0
aF19.49073493992677
aF0.0
aF0.0
aF0.0
aF66.30357565711579
aF0.0
aF327.1345529580512
aF0.0
aF0.0
aF0.0
asS'Bacteria.Firmicutes.Clostridia.Peptostreptococcales_Tissierellales.Anaerovoracaceae.Anaerovorax'
p523
(lp524
F296.88543737865785
aF0.0
aF207.16980154859428
aF110.58972513032242
aF0.0
aF1136.6327255505562
aF0.0
aF0.0
aF136.25412633234856
aF0.0
aF0.0
asS'Bacteria.Firmicutes.Clostridia.Oscillospirales.Ruminococcaceae._Eubacterium__siraeum_group.uncultured_bacterium'
p525
(lp526
F0.0
aF0.0
aF0.0
aF726.422704287412
aF46637.38652460154
aF615.676059673218
aF529.7216206938928
aF0.0
aF66405.3064788837
aF3300.5794910556824
aF4915.141527163385
asS'Bacteria.Firmicutes.Bacilli.Staphylococcales'
p527
(lp528
F0.0
aF0.0
aF0.0
aF0.0
aF0.0
aF0.0
aF25.426637793306853
aF1358.866604594982
aF0.0
aF0.0
aF0.0
asS'Bacteria.Firmicutes.Clostridia.Christensenellales.Christensenellaceae.Christensenellaceae_R_7_group'
p529
(lp530
F0.0
aF89.10050258252238
aF280.54243959705474
aF173.47407863579988
aF178.1753066842466
aF1070.3291498934404
aF682.2814474537339
aF166008.2035280203
aF1145.7733350674764
aF1801.4613252708496
aF1937.1440136467459
asS'Bacteria.Firmicutes.Clostridia.Clostridia.Hungateiclostridiaceae'
p531
(lp532
F0.0
aF0.0
aF0.0
aF0.0
aF178.1753066842466
aF113.66327255505561
aF0.0
aF0.0
aF0.0
aF0.0
aF0.0
asS'Bacteria.Deferribacterota.Deferribacteres.Deferribacterales'
p533
(lp534
F253.91517670543107
aF258.9483356304557
aF0.0
aF136.6108369256924
aF677.066165400137
aF0.0
aF0.0
aF0.0
aF0.0
aF125.97631645250696
aF0.0
asS'Bacteria.Proteobacteria.Gammaproteobacteria.Pseudomonadales.Moraxellaceae'
p535
(lp536
F0.0
aF30.62829776274207
aF0.0
aF0.0
aF0.0
aF0.0
aF0.0
aF1157.5530335438737
aF49.54695502994493
aF0.0
aF0.0
asS'Bacteria.Proteobacteria.Alphaproteobacteria.Sphingomonadales.Sphingomonadaceae'
p537
(lp538
F0.0
aF22.275125645630595
aF0.0
aF0.0
aF0.0
aF0.0
aF0.0
aF578.7765167719368
aF0.0
aF0.0
aF0.0
asS'Bacteria.Campilobacterota.Campylobacteria.Campylobacterales.Campylobacteraceae'
p539
(lp540
F0.0
aF0.0
aF0.0
aF0.0
aF0.0
aF0.0
aF0.0
aF327.1345529580512
aF0.0
aF0.0
aF0.0
asS'Bacteria.Firmicutes.Clostridia.Lachnospirales.Defluviitaleaceae'
p541
(lp542
F0.0
aF55.68781411407649
aF0.0
aF134.4424109427449
aF106.90518401054796
aF644.0918778119818
aF114.41987006988086
aF0.0
aF545.0165053293942
aF1662.8873771730919
aF0.0
asS'Bacteria.Firmicutes.Clostridia.Lachnospirales.Lachnospiraceae.Acetatifactor'
p543
(lp544
F320.32376138223606
aF0.0
aF0.0
aF229.85315419243486
aF0.0
aF0.0
aF0.0
aF0.0
aF0.0
aF0.0
aF0.0
asS'Bacteria.Firmicutes.Clostridia.Lachnospirales.Lachnospiraceae.Lachnospiraceae_NK4B4_group.uncultured_bacterium'
p545
(lp546
F0.0
aF0.0
aF0.0
aF0.0
aF0.0
aF0.0
aF0.0
aF0.0
aF0.0
aF314.94079113126736
aF0.0
asS'Bacteria.Actinobacteriota.Coriobacteriia.Coriobacteriales.uncultured.uncultured.uncultured_bacterium'
p547
(lp548
F35.157486005367375
aF0.0
aF30.212262725836666
aF0.0
aF178.1753066842466
aF492.54084773857437
aF0.0
aF12003.32167392234
aF575.9833522231098
aF806.2484252960445
aF1127.5912915257177
asS'Bacteria.Firmicutes.Clostridia.Oscillospirales._Eubacterium__coprostanoligenes_group._Eubacterium__coprostanoligenes_group.uncultured_bacterium'
p549
(lp550
F21258.559871245474
aF0.0
aF0.0
aF711.2437224067795
aF1158.139493447603
aF2311.1532086194643
aF6708.3946044674585
aF1711.1653539344218
aF260.1215139072109
aF566.8934240362813
aF0.0
asS'Bacteria.Firmicutes.Bacilli.Acholeplasmatales.Acholeplasmataceae'
p551
(lp552
F0.0
aF1481.2958554344345
aF0.0
aF0.0
aF365.2593787027055
aF104.19133317546765
aF29.664410758857997
aF0.0
aF371.602162724587
aF0.0
aF0.0
asS'Bacteria.Firmicutes.Clostridia.Peptococcales.Peptococcaceae'
p553
(lp554
F1820.376497611244
aF180.9853958707486
aF215.80187661311905
aF604.990849242352
aF3866.4041550481506
aF4442.339569026758
aF7051.654214677101
aF226.477767432497
aF891.8451905390086
aF579.491055681532
aF433.68895827912223
asS'Bacteria.Firmicutes.Bacilli.Izemoplasmatales'
p555
(lp556
F0.0
aF0.0
aF0.0
aF0.0
aF0.0
aF104.19133317546765
aF0.0
aF0.0
aF117.6740181961192
aF0.0
aF0.0
asS'Bacteria.Firmicutes.Clostridia.Clostridia_UCG_014.Clostridia_UCG_014.Clostridia_UCG_014'
p557
(lp558
F1953.1936669648542
aF38.98146987985354
aF0.0
aF9669.011457962895
aF9095.849406230787
aF62789.48614728865
aF19260.678128429943
aF266589.49646443035
aF15737.35159138626
aF107168.05240614766
aF159973.40041055888
asS'Bacteria.Chloroflexi.Chloroflexia'
p559
(lp560
F0.0
aF0.0
aF0.0
aF0.0
aF0.0
aF0.0
aF0.0
aF0.0
aF179.60771198355036
aF0.0
aF0.0
asS'Bacteria.Acidobacteriota.Blastocatellia.Blastocatellales.Blastocatellaceae.Blastocatella'
p561
(lp562
F0.0
aF0.0
aF0.0
aF0.0
aF0.0
aF0.0
aF0.0
aF377.4629457208283
aF0.0
aF0.0
aF0.0
asS'Bacteria.Actinobacteriota.Coriobacteriia.Coriobacteriales.Atopobiaceae.Coriobacteriaceae_UCG_002'
p563
(lp564
F0.0
aF89.10050258252238
aF0.0
aF91.07389128379495
aF0.0
aF634.619938432394
aF0.0
aF0.0
aF0.0
aF0.0
aF0.0
asS'Bacteria.Firmicutes.Clostridia.Oscillospirales.Oscillospiraceae.uncultured.uncultured_bacterium'
p565
(lp566
F308.6045993804469
aF0.0
aF0.0
aF0.0
aF516.7083893843151
aF179.9668482121714
aF237.31528607086398
aF0.0
aF0.0
aF377.9289493575209
aF0.0
asS'Bacteria.Firmicutes.Clostridia.Oscillospirales.Ruminococcaceae.Paludicola.uncultured_bacterium'
p567
(lp568
F0.0
aF0.0
aF64.74056298393572
aF36.863241710107474
aF0.0
aF0.0
aF0.0
aF0.0
aF0.0
aF0.0
aF0.0
asS'Bacteria.Campilobacterota.Campylobacteria.Campylobacterales.Campylobacteraceae.Campylobacter'
p569
(lp570
F0.0
aF0.0
aF0.0
aF0.0
aF0.0
aF0.0
aF0.0
aF327.1345529580512
aF0.0
aF0.0
aF0.0
asS'Bacteria.Proteobacteria.Alphaproteobacteria.Rhodospirillales.uncultured.uncultured.gut_metagenome'
p571
(lp572
F0.0
aF0.0
aF0.0
aF12028.258927409775
aF0.0
aF0.0
aF0.0
aF0.0
aF0.0
aF0.0
aF0.0
asS'Bacteria.Proteobacteria.Gammaproteobacteria.Pasteurellales.Pasteurellaceae'
p573
(lp574
F105.47245801610214
aF52.90342340837267
aF0.0
aF52.042223590739965
aF356.3506133684932
aF824.0587260241533
aF0.0
aF1786.6579430785873
aF222.96129763475216
aF0.0
aF0.0
asS'Bacteria.Firmicutes.Clostridia.Lachnospirales.Lachnospiraceae._Bacteroides__pectinophilus_group'
p575
(lp576
F0.0
aF0.0
aF0.0
aF0.0
aF0.0
aF0.0
aF707.7080852470408
aF0.0
aF898.0385599177519
aF0.0
aF925.2031109954607
asS'Bacteria.Firmicutes.Clostridia.Monoglobales.Monoglobaceae.Monoglobus'
p577
(lp578
F910.188248805622
aF0.0
aF612.8773295812581
aF130.1055589768499
aF5167.083893843152
aF9595.074591522613
aF55.09104855216485
aF46176.300359848
aF3307.259248248824
aF0.0
aF1040.8534998698933
asS'Bacteria.Firmicutes.Clostridia.Oscillospirales.Ruminococcaceae.Subdoligranulum.uncultured_bacterium'
p579
(lp580
F0.0
aF0.0
aF0.0
aF0.0
aF0.0
aF0.0
aF0.0
aF3472.6591006316207
aF656.4971541467703
aF0.0
aF0.0
asS'Bacteria.Firmicutes.Bacilli.RF39.RF39.RF39.uncultured_Paenibacillaceae'
p581
(lp582
F0.0
aF0.0
aF0.0
aF0.0
aF0.0
aF0.0
aF0.0
aF0.0
aF458.3093340269906
aF0.0
aF0.0
asS'Bacteria.Firmicutes.Clostridia.Oscillospirales.Ruminococcaceae.UBA1819.uncultured_bacterium'
p583
(lp584
F0.0
aF0.0
aF25.896225193574285
aF0.0
aF1567.94269882137
aF331.5178782855789
aF0.0
aF0.0
aF167.22097322606413
aF0.0
aF0.0
asS'Bacteria.Firmicutes.Clostridia.Lachnospirales.Lachnospiraceae.Acetatifactor.uncultured_bacterium'
p585
(lp586
F0.0
aF0.0
aF0.0
aF0.0
aF614.7048080606506
aF123.13521193464359
aF0.0
aF0.0
aF92.90054068114675
aF0.0
aF0.0
asS'Bacteria.Actinobacteriota.Coriobacteriia.Coriobacteriales.Eggerthellaceae'
p587
(lp588
F97.65968334824271
aF231.1044285734174
aF56.108487919410955
aF281.8953777831748
aF400.8944400395548
aF975.6097560975608
aF203.41310234645482
aF25667.480309016326
aF204.38118949852282
aF251.95263290501393
aF3122.56049960968
asS'Bacteria.Firmicutes.Bacilli.Lactobacillales.Enterococcaceae'
p589
(lp590
F0.0
aF0.0
aF155.37735116144572
aF0.0
aF0.0
aF0.0
aF0.0
aF0.0
aF0.0
aF0.0
aF0.0
asS'Bacteria.Actinobacteriota.Coriobacteriia.Coriobacteriales.Coriobacteriales_Incertae_Sedis.uncultured.gut_metagenome'
p591
(lp592
F0.0
aF0.0
aF0.0
aF0.0
aF0.0
aF0.0
aF0.0
aF1535.0159792647019
aF0.0
aF0.0
aF0.0
asS'Bacteria.Proteobacteria.Gammaproteobacteria.Burkholderiales.Comamonadaceae.Comamonas'
p593
(lp594
F0.0
aF0.0
aF0.0
aF0.0
aF0.0
aF0.0
aF0.0
aF0.0
aF0.0
aF214.1597379692618
aF0.0
asS'Bacteria.Firmicutes.Clostridia.Oscillospirales._Clostridium__methylpentosum_group._Clostridium__methylpentosum_group.uncultured_organism'
p595
(lp596
F70.31497201073475
aF0.0
aF0.0
aF0.0
aF0.0
aF0.0
aF0.0
aF0.0
aF0.0
aF0.0
aF0.0
asS'Bacteria.Proteobacteria.Gammaproteobacteria.Burkholderiales.Alcaligenaceae'
p597
(lp598
F0.0
aF0.0
aF0.0
aF0.0
aF0.0
aF47.35969689793984
aF0.0
aF956.2394624927651
aF0.0
aF0.0
aF0.0
asS'Bacteria.Firmicutes.Clostridia.Christensenellales.Christensenellaceae.Christensenellaceae_R_7_group.uncultured_prokaryote'
p599
(lp600
F0.0
aF0.0
aF0.0
aF110.58972513032242
aF302.8980213632192
aF577.7883021548661
aF0.0
aF1006.5678552555422
aF309.6684689371558
aF1335.3489543965736
aF578.2519443721629
asS'Bacteria.Firmicutes.Bacilli'
p601
(lp602
F1832.0956596130331
aF4772.445669576355
aF4117.499805778312
aF2831.964333729433
aF0.0
aF899.834241060857
aF2428.2439092608047
aF4353.40597398022
aF23664.864396177447
aF8654.572940287228
aF23448.116344291207
asS'Bacteria.Firmicutes.Clostridia.Peptostreptococcales_Tissierellales.Anaerovoracaceae._Eubacterium__nodatum_group'
p603
(lp604
F85.9405213464536
aF0.0
aF0.0
aF238.52685812422484
aF614.7048080606506
aF644.0918778119818
aF500.0572099350348
aF0.0
aF402.5690096183026
aF1499.1181657848329
aF1850.4062219909215
asS'Bacteria.Proteobacteria.Alphaproteobacteria.Sphingomonadales'
p605
(lp606
F0.0
aF22.275125645630595
aF0.0
aF0.0
aF0.0
aF0.0
aF0.0
aF578.7765167719368
aF0.0
aF0.0
aF0.0
asS'Bacteria.Actinobacteriota.Coriobacteriia.Coriobacteriales.Eggerthellaceae.Gordonibacter.uncultured_bacterium'
p607
(lp608
F0.0
aF0.0
aF0.0
aF0.0
aF0.0
aF0.0
aF0.0
aF0.0
aF43.35358565120181
aF0.0
aF0.0
asS'Bacteria.Actinobacteriota.Coriobacteriia.Coriobacteriales.Atopobiaceae.Coriobacteriaceae_UCG_002.uncultured_bacterium'
p609
(lp610
F0.0
aF89.10050258252238
aF0.0
aF91.07389128379495
aF0.0
aF634.619938432394
aF0.0
aF0.0
aF0.0
aF0.0
aF0.0
asS'Bacteria.Campilobacterota.Campylobacteria.Campylobacterales.Campylobacteraceae.Campylobacter.Campylobacter_showae'
p611
(lp612
F0.0
aF0.0
aF0.0
aF0.0
aF0.0
aF0.0
aF0.0
aF327.1345529580512
aF0.0
aF0.0
aF0.0
asS'Bacteria.Bacteroidota.Bacteroidia.Bacteroidales.Muribaculaceae.Muribaculum.uncultured_bacterium'
p613
(lp614
F8875.312022688297
aF356.4020103300895
aF14484.621958272552
aF13483.272761967546
aF2245.008864221507
aF1202.936301207672
aF6538.883685845413
aF0.0
aF959.972253705183
aF0.0
aF0.0
asS'Bacteria.Firmicutes.Bacilli.Erysipelotrichales.Erysipelotrichaceae.Faecalibaculum.uncultured_bacterium'
p615
(lp616
F0.0
aF111.37562822815298
aF0.0
aF86.73703931789994
aF0.0
aF179.9668482121714
aF88.99323227657399
aF855.5826769672109
aF0.0
aF188.96447467876044
aF1011.9409026512851
asS'Bacteria.Firmicutes.Clostridia.Clostridiales'
p617
(lp618
F0.0
aF25.05951635133442
aF0.0
aF0.0
aF35.63506133684931
aF7444.944352356144
aF1491.6960838740022
aF11827.172299252621
aF371.60216272458695
aF100.78105316200556
aF0.0
asS'Bacteria.Firmicutes.Clostridia.Oscillospirales._Clostridium__methylpentosum_group._Clostridium__methylpentosum_group'
p619
(lp620
F70.31497201073475
aF0.0
aF0.0
aF0.0
aF0.0
aF0.0
aF0.0
aF0.0
aF0.0
aF0.0
aF0.0
asS'Bacteria.Firmicutes.Clostridia.Oscillospirales.Oscillospiraceae.UCG_005.uncultured_prokaryote'
p621
(lp622
F0.0
aF0.0
aF0.0
aF0.0
aF0.0
aF0.0
aF0.0
aF0.0
aF1461.6351733833753
aF0.0
aF0.0
asS'Bacteria.Firmicutes.Bacilli.Erysipelotrichales.Erysipelotrichaceae.uncultured'
p623
(lp624
F0.0
aF0.0
aF0.0
aF0.0
aF0.0
aF606.20412029363
aF0.0
aF0.0
aF904.231929296495
aF0.0
aF0.0
asS'Bacteria.Firmicutes.Clostridia.Lachnospirales.Lachnospiraceae.Lachnospiraceae_NC2004_group.uncultured_Clostridiaceae'
p625
(lp626
F0.0
aF0.0
aF0.0
aF0.0
aF2868.62243761637
aF16083.353066540372
aF0.0
aF0.0
aF0.0
aF781.0531620055432
aF0.0
asS'Bacteria.Proteobacteria.Gammaproteobacteria.Burkholderiales.Burkholderiaceae.Burkholderia_Caballeronia_Paraburkholderia'
p627
(lp628
F109.37884535003184
aF426.01177797268514
aF133.79716350013382
aF93.24231726674245
aF106.90518401054796
aF378.87757518351873
aF241.5530590364151
aF12607.262387075667
aF247.7347751497246
aF982.6152683295542
aF1966.0566108653538
asS'Bacteria.Chloroflexi.Chloroflexia.Chloroflexales.Chloroflexaceae.FFCH7168.uncultured_bacterium'
p629
(lp630
F0.0
aF0.0
aF0.0
aF0.0
aF0.0
aF0.0
aF0.0
aF0.0
aF179.60771198355036
aF0.0
aF0.0
asS'Bacteria.Firmicutes.Clostridia.Oscillospirales.Ruminococcaceae.Incertae_Sedis.uncultured_bacterium'
p631
(lp632
F2812.5988804293897
aF0.0
aF103.58490077429714
aF192.98991248232736
aF6075.777957932809
aF6488.278475017758
aF114.41987006988086
aF15375.323989028408
aF9506.821996370683
aF1977.8281683043592
aF7517.275276838119
asS'Bacteria.Firmicutes.Bacilli.Lactobacillales.Streptococcaceae.Lactococcus'
p633
(lp634
F0.0
aF72.39415834829944
aF0.0
aF0.0
aF0.0
aF0.0
aF0.0
aF0.0
aF0.0
aF0.0
aF0.0
asS'Bacteria.Firmicutes.Bacilli.Erysipelotrichales.Erysipelotrichaceae.uncultured.uncultured_bacterium'
p635
(lp636
F0.0
aF0.0
aF0.0
aF110.58972513032242
aF0.0
aF142.07909069381952
aF0.0
aF1182.7172299252622
aF427.34248713327503
aF617.2839506172841
aF346.95116662329775
asS'Bacteria.Firmicutes.Clostridia.Lachnospirales'
p637
(lp638
F191127.81308717883
aF16291.470019073075
aF21437.75842274725
aF18312.357425991628
aF238523.28305820093
aF178044.0445181151
aF36563.50514677526
aF96555.02151538788
aF92987.24785244915
aF75069.2869740489
aF89282.10021106194
asS'Bacteria.Firmicutes.Clostridia.Peptococcales.Peptococcaceae.uncultured'
p639
(lp640
F1320.3589188682415
aF0.0
aF64.74056298393572
aF41.200093676002474
aF1443.2199841423974
aF0.0
aF0.0
aF0.0
aF0.0
aF0.0
aF0.0
asS'Bacteria.Firmicutes.Clostridia.Oscillospirales.Oscillospiraceae.uncultured.Clostridium_sp_'
p641
(lp642
F8945.626994699032
aF0.0
aF366.86319024230244
aF398.99038086233975
aF0.0
aF293.630120767227
aF614.4770800049156
aF0.0
aF2303.9334088924393
aF0.0
aF0.0
asS'Bacteria.Firmicutes.Clostridia.Peptococcales.Peptococcaceae.uncultured.unidentified'
p643
(lp644
F97.65968334824271
aF125.2975817566721
aF107.90093830655954
aF435.8536225724472
aF1861.9319548503768
aF4196.06914515747
aF7051.654214677101
aF226.477767432497
aF588.370090980596
aF579.491055681532
aF433.68895827912223
asS'Bacteria.Firmicutes.Clostridia.Oscillospirales.Ruminococcaceae.Harryflintia'
p645
(lp646
F1156.2906508431938
aF44.55025129126119
aF0.0
aF0.0
aF1202.6833201186646
aF0.0
aF0.0
aF0.0
aF0.0
aF0.0
aF0.0
asS'Bacteria.Actinobacteriota.Coriobacteriia.Coriobacteriales.Eggerthellaceae.Adlercreutzia'
p647
(lp648
F0.0
aF0.0
aF0.0
aF0.0
aF400.8944400395548
aF824.0587260241533
aF203.41310234645482
aF0.0
aF0.0
aF0.0
aF780.64012490242
asS'Bacteria.Firmicutes.Clostridia.Oscillospirales.Ruminococcaceae.Ruminococcaceae'
p649
(lp650
F0.0
aF0.0
aF0.0
aF0.0
aF80.17888800791097
aF0.0
aF0.0
aF0.0
aF0.0
aF163.76921138825904
aF0.0
asS'Bacteria.Firmicutes.Clostridia.Peptostreptococcales_Tissierellales.Anaerovoracaceae._Eubacterium__brachy_group.uncultured_bacterium'
p651
(lp652
F0.0
aF0.0
aF0.0
aF0.0
aF115.81394934476029
aF0.0
aF0.0
aF0.0
aF0.0
aF0.0
aF0.0
asS'Bacteria.Firmicutes.Clostridia.Peptococcales.Peptococcaceae.uncultured.uncultured_bacterium'
p653
(lp654
F402.35789539475996
aF55.68781411407649
aF43.16037532262381
aF127.93713299390241
aF231.62789868952058
aF246.27042386928719
aF0.0
aF0.0
aF191.9944507410366
aF0.0
aF0.0
asS'Bacteria.Firmicutes.Clostridia.Lachnospirales.Lachnospiraceae._Eubacterium__hallii_group.Clostridium_sp_'
p655
(lp656
F0.0
aF66.82537693689179
aF850.259393855689
aF0.0
aF0.0
aF0.0
aF0.0
aF0.0
aF260.1215139072109
aF0.0
aF0.0
asS'Bacteria.Proteobacteria.Alphaproteobacteria.Rhodospirillales'
p657
(lp658
F0.0
aF768.4918347742555
aF0.0
aF12028.258927409775
aF133.63148001318496
aF0.0
aF334.78406427854026
aF0.0
aF0.0
aF0.0
aF0.0
asS'Bacteria.Actinobacteriota.Actinobacteria.Micrococcales.Micrococcaceae.Rothia'
p659
(lp660
F0.0
aF0.0
aF8.632075064524761
aF0.0
aF0.0
aF0.0
aF72.04214041436941
aF1811.822139459976
aF0.0
aF0.0
aF0.0
asS'Bacteria.Proteobacteria.Gammaproteobacteria.Pasteurellales.Pasteurellaceae.Rodentibacter.Pasteurellaceae_bacterium'
p661
(lp662
F0.0
aF0.0
aF0.0
aF0.0
aF0.0
aF0.0
aF0.0
aF1786.6579430785873
aF0.0
aF0.0
aF0.0
asS'Bacteria.Firmicutes.Bacilli.Erysipelotrichales.Erysipelatoclostridiaceae.Erysipelotrichaceae_UCG_003'
p663
(lp664
F0.0
aF0.0
aF0.0
aF0.0
aF0.0
aF0.0
aF0.0
aF0.0
aF0.0
aF0.0
aF1243.2416804001502
asS'Bacteria.Firmicutes.Clostridia.Lachnospirales.Lachnospiraceae._Eubacterium__ruminantium_group.uncultured_bacterium'
p665
(lp666
F0.0
aF0.0
aF0.0
aF0.0
aF2040.1072615346236
aF58006.15676059672
aF3644.4847503739825
aF0.0
aF0.0
aF0.0
aF0.0
asS'Bacteria.Firmicutes.Bacilli.RF39.RF39.RF39.uncultured_Lachnospiraceae'
p667
(lp668
F0.0
aF0.0
aF0.0
aF0.0
aF0.0
aF0.0
aF97.46877820767628
aF2088.62829965525
aF0.0
aF3552.532123960696
aF722.8149304652037
asS'Bacteria.Firmicutes.Clostridia.Lachnospirales.Defluviitaleaceae.Defluviitaleaceae_UCG_011.uncultured_bacterium'
p669
(lp670
F0.0
aF0.0
aF0.0
aF0.0
aF106.90518401054796
aF644.0918778119818
aF114.41987006988086
aF0.0
aF0.0
aF0.0
aF0.0
asS'Bacteria.Firmicutes.Clostridia.Oscillospirales.Ruminococcaceae'
p671
(lp672
F3429.808079190284
aF0.0
aF280.54243959705474
aF438.0220485553947
aF36873.37971830483
aF60857.2105138527
aF4822.5856347972
aF352.2987493394398
aF10918.910214724114
aF9586.79768203578
aF1243.2416804001502
asS'Bacteria.Firmicutes.Bacilli.Erysipelotrichales.Erysipelatoclostridiaceae.UCG_004.uncultured_bacterium'
p673
(lp674
F414.0770573965491
aF97.45367469963385
aF0.0
aF381.6429729987597
aF329.6243173658562
aF729.3393322282735
aF0.0
aF251.64196381388555
aF1263.4473532635957
aF0.0
aF0.0
asS'Bacteria.Firmicutes.Clostridia.Lachnospirales.Lachnospiraceae.Lachnospiraceae_NC2004_group'
p675
(lp676
F0.0
aF0.0
aF0.0
aF0.0
aF2868.62243761637
aF16083.353066540372
aF0.0
aF0.0
aF0.0
aF781.0531620055432
aF0.0
asS'Bacteria.Cyanobacteria.Cyanobacteriia.Chloroplast.Chloroplast'
p677
(lp678
F0.0
aF0.0
aF0.0
aF0.0
aF0.0
aF0.0
aF0.0
aF352.2987493394398
aF0.0
aF0.0
aF0.0
asS'Bacteria.Firmicutes.Bacilli.Erysipelotrichales.Erysipelatoclostridiaceae.Erysipelotrichaceae_UCG_003.uncultured_bacterium'
p679
(lp680
F0.0
aF0.0
aF0.0
aF0.0
aF0.0
aF0.0
aF0.0
aF0.0
aF0.0
aF0.0
aF1243.2416804001502
asS'Bacteria.Firmicutes.Bacilli.Staphylococcales.Staphylococcaceae.Staphylococcus'
p681
(lp682
F0.0
aF0.0
aF0.0
aF0.0
aF0.0
aF0.0
aF0.0
aF1358.866604594982
aF0.0
aF0.0
aF0.0
asS'Bacteria.Firmicutes.Bacilli.RF39.RF39.RF39'
p683
(lp684
F0.0
aF0.0
aF0.0
aF0.0
aF472.1645627132535
aF899.834241060857
aF593.28821517716
aF14217.770955484533
aF972.3589924626692
aF1045.6034265558078
aF7343.799693526469
asS'Bacteria.Firmicutes.Clostridia.Lachnospirales.Lachnospiraceae.Lachnospiraceae_UCG_010'
p685
(lp686
F222.66407803399338
aF0.0
aF0.0
aF0.0
aF106.90518401054796
aF0.0
aF0.0
aF0.0
aF43.35358565120181
aF0.0
aF0.0
asS'Bacteria.Firmicutes.Bacilli.Bacillales'
p687
(lp688
F0.0
aF0.0
aF0.0
aF0.0
aF0.0
aF0.0
aF0.0
aF931.0752661113764
aF0.0
aF0.0
aF0.0
asS'Bacteria.Firmicutes.Bacilli.Lactobacillales.Aerococcaceae.Aerococcus'
p689
(lp690
F0.0
aF0.0
aF302.1226272583667
aF26.021111795369983
aF0.0
aF0.0
aF0.0
aF0.0
aF0.0
aF0.0
aF0.0
asS'Bacteria.Chloroflexi.Chloroflexia.Chloroflexales'
p691
(lp692
F0.0
aF0.0
aF0.0
aF0.0
aF0.0
aF0.0
aF0.0
aF0.0
aF179.60771198355036
aF0.0
aF0.0
asS'Bacteria.Firmicutes.Clostridia.Monoglobales'
p693
(lp694
F910.188248805622
aF0.0
aF2956.485709599731
aF284.0638037661223
aF5167.083893843152
aF9595.074591522613
aF55.09104855216485
aF60192.75774428143
aF16660.16362881898
aF340.1360544217688
aF1040.8534998698933
asS'Bacteria.Firmicutes.Clostridia.Lachnospirales.Lachnospiraceae._Bacteroides__pectinophilus_group.uncultured_bacterium'
p695
(lp696
F0.0
aF0.0
aF0.0
aF0.0
aF0.0
aF0.0
aF707.7080852470408
aF0.0
aF898.0385599177519
aF0.0
aF925.2031109954607
asS'Bacteria.Firmicutes.Clostridia.Monoglobales.Monoglobaceae.Monoglobus.unidentified'
p697
(lp698
F0.0
aF0.0
aF2343.608380018473
aF153.9582447892724
aF0.0
aF0.0
aF0.0
aF0.0
aF0.0
aF0.0
aF0.0
asS'Bacteria.Actinobacteriota.Actinobacteria.Micrococcales'
p699
(lp700
F0.0
aF0.0
aF8.632075064524761
aF0.0
aF0.0
aF28.415818138763903
aF72.04214041436941
aF1811.822139459976
aF0.0
aF0.0
aF0.0
asS'Bacteria.Firmicutes.Clostridia.Oscillospirales.Oscillospiraceae.NK4A214_group'
p701
(lp702
F0.0
aF0.0
aF0.0
aF17.34740786357999
aF8507.870894172775
aF11423.15889178309
aF0.0
aF1912.4789249855303
aF1381.121371459715
aF554.2957923910307
aF0.0
asS'Bacteria.Desulfobacterota.Desulfovibrionia.Desulfovibrionales'
p703
(lp704
F0.0
aF0.0
aF0.0
aF0.0
aF0.0
aF0.0
aF0.0
aF0.0
aF1833.2373361079624
aF0.0
aF0.0
asS'Bacteria.Firmicutes.Clostridia.Clostridiales.Clostridiaceae.Clostridium_sensu_stricto_1'
p705
(lp706
F0.0
aF25.05951635133442
aF0.0
aF0.0
aF35.63506133684931
aF7444.944352356144
aF1491.6960838740022
aF11827.172299252621
aF111.48064881737608
aF100.78105316200556
aF0.0
asS'Bacteria.Bacteroidota.Bacteroidia.Bacteroidales.Prevotellaceae.Prevotellaceae_NK3B31_group.uncultured_bacterium'
p707
(lp708
F30270.595450621313
aF568.0157039635802
aF139356.21984168777
aF190329.25380125077
aF68223.32492939802
aF26095.192990764852
aF217732.53719705215
aF4051.435617403557
aF86416.0829416027
aF117888.636936256
aF20180.992858588488
asS'Bacteria.Firmicutes.Clostridia.Peptostreptococcales_Tissierellales'
p709
(lp710
F3148.548191147345
aF116248.31196313466
aF1730.7310504372151
aF13693.610082313453
aF3144.794162976952
aF22798.95808666824
aF2483.3349578129696
aF9814.036588741536
aF2917.076977388008
aF4182.413706223231
aF24142.018677537802
asS'Bacteria.Proteobacteria.Gammaproteobacteria.Enterobacterales.Erwiniaceae'
p711
(lp712
F0.0
aF0.0
aF0.0
aF0.0
aF0.0
aF0.0
aF0.0
aF0.0
aF0.0
aF138.57394809775766
aF0.0
asS'Bacteria.Proteobacteria.Gammaproteobacteria.Enterobacterales.Erwiniaceae.uncultured.Pantoea_sp_'
p713
(lp714
F0.0
aF0.0
aF0.0
aF0.0
aF0.0
aF0.0
aF0.0
aF0.0
aF0.0
aF138.57394809775766
aF0.0
asS'Bacteria.Actinobacteriota.Coriobacteriia.Coriobacteriales.Eggerthellaceae.Parvibacter'
p715
(lp716
F0.0
aF0.0
aF0.0
aF0.0
aF0.0
aF0.0
aF0.0
aF0.0
aF0.0
aF251.95263290501393
aF0.0
asS'Bacteria.Actinobacteriota.Coriobacteriia'
p717
(lp718
F132.81716935361007
aF320.20493115593985
aF86.32075064524761
aF372.9692690669698
aF579.0697467238015
aF2102.770542268529
aF203.41310234645482
aF39205.817962203364
aF780.3645417216325
aF1058.2010582010585
aF4250.151791135398
asS'Bacteria.Firmicutes.Bacilli.Lactobacillales'
p719
(lp720
F10230.828427561906
aF51669.93832574587
aF8260.895836750196
aF23666.201177888997
aF8579.141016846474
aF61842.292209329855
aF82899.31475211144
aF82916.02707667528
aF55282.01507466106
aF5719.324766943816
aF43224.33284181918
asS'Bacteria.Firmicutes.Bacilli.Erysipelotrichales.Erysipelatoclostridiaceae.Erysipelatoclostridium'
p721
(lp722
F0.0
aF1124.893845104345
aF224.43395167764382
aF0.0
aF0.0
aF0.0
aF0.0
aF0.0
aF154.8342344685779
aF0.0
aF0.0
asS'Bacteria.Proteobacteria.Alphaproteobacteria.Rhodospirillales.uncultured.uncultured.Azospirillum_sp_'
p723
(lp724
F0.0
aF768.4918347742555
aF0.0
aF0.0
aF133.63148001318496
aF0.0
aF334.78406427854026
aF0.0
aF0.0
aF0.0
aF0.0
asS'Bacteria.Firmicutes.Clostridia.Lachnospirales.Lachnospiraceae._Eubacterium__ventriosum_group'
p725
(lp726
F82.03413401252388
aF0.0
aF0.0
aF0.0
aF0.0
aF0.0
aF0.0
aF0.0
aF0.0
aF0.0
aF0.0
asS'Bacteria.Firmicutes.Clostridia.Lachnospirales.Lachnospiraceae.Lachnoclostridium'
p727
(lp728
F246.10240203757164
aF5565.997020701945
aF0.0
aF346.94815727159977
aF819.6064107475343
aF0.0
aF0.0
aF377.4629457208283
aF0.0
aF0.0
aF636.0771388093792
asS'Bacteria.Deferribacterota'
p729
(lp730
F253.91517670543107
aF258.9483356304557
aF0.0
aF136.6108369256924
aF677.066165400137
aF0.0
aF0.0
aF0.0
aF0.0
aF125.97631645250696
aF0.0
asS'Bacteria.Firmicutes.Clostridia.Oscillospirales._Eubacterium__coprostanoligenes_group._Eubacterium__coprostanoligenes_group.Clostridiales_bacterium'
p731
(lp732
F0.0
aF498.40593632098455
aF0.0
aF3853.292971697705
aF258.35419469215753
aF0.0
aF0.0
aF1207.8814263066506
aF0.0
aF0.0
aF0.0
asS'Bacteria.Cyanobacteria.Vampirivibrionia.Gastranaerophilales.Gastranaerophilales.Gastranaerophilales'
p733
(lp734
F0.0
aF136.4351445794874
aF0.0
aF1791.119861914634
aF115.81394934476029
aF0.0
aF529.7216206938928
aF0.0
aF210.57455887726596
aF0.0
aF0.0
asS'Bacteria.Proteobacteria.Gammaproteobacteria.Enterobacterales.Enterobacteriaceae'
p735
(lp736
F2515.713443050732
aF1250.1914268610171
aF6784.811000716463
aF273.2216738513848
aF409.8032053737671
aF2349.040966137816
aF432.25284248621654
aF9864.364981504314
aF2025.2317868489988
aF4245.4018644494845
aF10003.758637638419
asS'Bacteria.Cyanobacteria.Vampirivibrionia.Gastranaerophilales.Gastranaerophilales.Gastranaerophilales.uncultured_rumen'
p737
(lp738
F0.0
aF0.0
aF0.0
aF0.0
aF178.1753066842466
aF0.0
aF0.0
aF0.0
aF0.0
aF0.0
aF0.0
asS'Bacteria.Firmicutes.Clostridia.Monoglobales.Monoglobaceae'
p739
(lp740
F910.188248805622
aF0.0
aF2956.485709599731
aF284.0638037661223
aF5167.083893843152
aF9595.074591522613
aF55.09104855216485
aF60192.75774428143
aF16660.16362881898
aF340.1360544217688
aF1040.8534998698933
asS'Bacteria.Firmicutes.Clostridia.Oscillospirales.UCG_010.UCG_010.uncultured_organism'
p741
(lp742
F0.0
aF0.0
aF0.0
aF2465.500342611306
aF0.0
aF0.0
aF0.0
aF0.0
aF377.7955321033301
aF302.3431594860167
aF0.0
asS'Bacteria.Cyanobacteria.Cyanobacteriia'
p743
(lp744
F0.0
aF0.0
aF0.0
aF0.0
aF0.0
aF0.0
aF0.0
aF352.2987493394398
aF0.0
aF0.0
aF0.0
asS'Bacteria.Firmicutes.Bacilli.Lactobacillales.Lactobacillaceae'
p745
(lp746
F9812.844982831428
aF50188.64247031143
aF7272.523241862113
aF23590.306268485838
aF8579.141016846474
aF61842.292209329855
aF82695.90164976499
aF77858.02360401618
aF55282.01507466106
aF5215.419501133788
aF43224.33284181918
asS'Bacteria.Chloroflexi'
p747
(lp748
F0.0
aF0.0
aF0.0
aF0.0
aF0.0
aF0.0
aF0.0
aF0.0
aF179.60771198355036
aF0.0
aF0.0
asS'Bacteria.Firmicutes.Bacilli.RF39.RF39.RF39.human_gut'
p749
(lp750
F0.0
aF0.0
aF0.0
aF0.0
aF0.0
aF0.0
aF0.0
aF0.0
aF0.0
aF1058.2010582010585
aF5319.917888223899
asS'Bacteria.Firmicutes.Clostridia.Lachnospirales.Lachnospiraceae._Eubacterium__xylanophilum_group'
p751
(lp752
F0.0
aF0.0
aF0.0
aF199.49519043116987
aF0.0
aF0.0
aF389.8751128307051
aF956.2394624927651
aF4886.568439828318
aF0.0
aF0.0
asS'Bacteria.Firmicutes.Clostridia.Lachnospirales.Lachnospiraceae.GCA_900066575.uncultured_bacterium'
p753
(lp754
F718.7752694430663
aF0.0
aF168.32546375823284
aF223.34787624359234
aF1755.026770839829
aF681.9796353303337
aF656.8548096604271
aF0.0
aF198.18782011977973
aF0.0
aF0.0
asS'Bacteria.Firmicutes.Clostridia.Peptostreptococcales_Tissierellales.Anaerovoracaceae.Anaerovorax.uncultured_bacterium'
p755
(lp756
F0.0
aF0.0
aF0.0
aF0.0
aF775.0625840764726
aF0.0
aF0.0
aF0.0
aF0.0
aF0.0
aF0.0
asS'Bacteria.Firmicutes.Clostridia'
p757
(lp758
F0.0
aF0.0
aF0.0
aF0.0
aF0.0
aF596.732180914042
aF0.0
aF0.0
aF0.0
aF0.0
aF0.0
asS'Bacteria.Firmicutes.Clostridia.Lachnospirales.Lachnospiraceae.GCA_900066575'
p759
(lp760
F718.7752694430663
aF0.0
aF168.32546375823284
aF223.34787624359234
aF1755.026770839829
aF681.9796353303337
aF656.8548096604271
aF0.0
aF198.18782011977973
aF0.0
aF0.0
asS'Bacteria.Firmicutes.Bacilli.Erysipelotrichales.Erysipelotrichaceae'
p761
(lp762
F0.0
aF0.0
aF0.0
aF0.0
aF481.0733280474658
aF0.0
aF0.0
aF0.0
aF0.0
aF0.0
aF0.0
asS'Bacteria.Firmicutes.Clostridia.Lachnospirales.Lachnospiraceae.Lachnospiraceae_FCS020_group.uncultured_prokaryote'
p763
(lp764
F0.0
aF0.0
aF0.0
aF0.0
aF0.0
aF407.29339332228267
aF0.0
aF0.0
aF0.0
aF0.0
aF0.0
asS'Bacteria.Bacteroidota.Bacteroidia.Bacteroidales.Muribaculaceae.Muribaculum'
p765
(lp766
F8875.312022688297
aF356.4020103300895
aF14484.621958272552
aF13483.272761967546
aF2245.008864221507
aF1202.936301207672
aF6538.883685845413
aF0.0
aF959.972253705183
aF0.0
aF0.0
asS'Bacteria.Proteobacteria.Gammaproteobacteria.Burkholderiales.Comamonadaceae'
p767
(lp768
F0.0
aF0.0
aF0.0
aF4.336851965894997
aF0.0
aF0.0
aF4.237772965551143
aF327.1345529580512
aF0.0
aF12.597631645250695
aF549.3393471535549
asS'Bacteria.Firmicutes.Clostridia.Clostridia_vadinBB60_group.Clostridia_vadinBB60_group.Clostridia_vadinBB60_group.gut_metagenome'
p769
(lp770
F0.0
aF0.0
aF0.0
aF0.0
aF0.0
aF0.0
aF21.188864827755715
aF0.0
aF0.0
aF0.0
aF0.0
asS'Bacteria.Firmicutes.Clostridia.Oscillospirales._Eubacterium__coprostanoligenes_group'
p771
(lp772
F21258.559871245474
aF498.40593632098455
aF0.0
aF7934.270671604897
aF4133.667115074521
aF86838.7402320625
aF21527.8866649998
aF2919.046780241072
aF13278.583948025242
aF22511.96775006299
aF57911.932228872116
asS'Bacteria.Firmicutes.Bacilli.Erysipelotrichales.Erysipelatoclostridiaceae.Erysipelatoclostridiaceae.uncultured_bacterium'
p773
(lp774
F0.0
aF19.49073493992677
aF0.0
aF0.0
aF0.0
aF0.0
aF0.0
aF0.0
aF0.0
aF0.0
aF0.0
asS'Bacteria.Firmicutes.Clostridia.uncultured.uncultured.uncultured'
p775
(lp776
F0.0
aF142.00392599089506
aF0.0
aF0.0
aF0.0
aF0.0
aF0.0
aF0.0
aF0.0
aF390.5265810027716
aF0.0
asS'Bacteria.Firmicutes.Clostridia.Lachnospirales.Lachnospiraceae.A2.uncultured_bacterium'
p777
(lp778
F0.0
aF0.0
aF0.0
aF0.0
aF570.160981389589
aF0.0
aF72.04214041436941
aF0.0
aF0.0
aF403.12421264802225
aF0.0
asS'Bacteria.Firmicutes.Clostridia.Clostridia_UCG_014'
p779
(lp780
F5750.202155544531
aF38.98146987985354
aF0.0
aF9690.69571779237
aF11536.851107804967
aF71001.65758939141
aF23532.35327770549
aF275044.66644857696
aF35741.934684726526
aF116036.78508440415
aF176627.05640847716
asS'Bacteria.Firmicutes.Clostridia.Oscillospirales.Ruminococcaceae._Eubacterium__siraeum_group'
p781
(lp782
F0.0
aF0.0
aF0.0
aF726.422704287412
aF46637.38652460154
aF615.676059673218
aF529.7216206938928
aF0.0
aF66405.3064788837
aF3300.5794910556824
aF4915.141527163385
asS'Bacteria.Firmicutes.Clostridia.Oscillospirales.Ruminococcaceae.Fournierella'
p783
(lp784
F941.4393474770598
aF0.0
aF0.0
aF0.0
aF1175.9570241160275
aF0.0
aF186.46201048425027
aF0.0
aF154.8342344685779
aF0.0
aF0.0
asS'Bacteria.Firmicutes.Bacilli.Erysipelotrichales.Erysipelatoclostridiaceae.Erysipelatoclostridium.uncultured_bacterium'
p785
(lp786
F0.0
aF0.0
aF0.0
aF197.32676444822238
aF445.43826671061646
aF0.0
aF0.0
aF6391.705880872692
aF625.5303072530547
aF0.0
aF0.0
asS'Bacteria.Proteobacteria.Gammaproteobacteria.Enterobacterales.Morganellaceae'
p787
(lp788
F0.0
aF0.0
aF215.80187661311908
aF0.0
aF0.0
aF0.0
aF0.0
aF0.0
aF0.0
aF0.0
aF0.0
asS'Bacteria.Firmicutes.Clostridia.Peptococcales.Peptococcaceae.Peptococcus.uncultured_bacterium'
p789
(lp790
F0.0
aF0.0
aF0.0
aF0.0
aF329.6243173658562
aF0.0
aF0.0
aF0.0
aF111.48064881737608
aF0.0
aF0.0
asS'Bacteria.Bacteroidota.Bacteroidia.Bacteroidales.Tannerellaceae.Parabacteroides.Parabacteroides_goldsteinii'
p791
(lp792
F6691.64150302159
aF81847.16479416391
aF22931.10740891003
aF8216.166049388072
aF320.7155520316439
aF483.0689083589864
aF8636.58130379323
aF0.0
aF2464.9610127397605
aF2292.7689594356266
aF838.4653193396363
asS'Bacteria.Firmicutes.Bacilli.Lactobacillales.Enterococcaceae.Enterococcus'
p793
(lp794
F0.0
aF0.0
aF155.37735116144572
aF0.0
aF0.0
aF0.0
aF0.0
aF0.0
aF0.0
aF0.0
aF0.0
asS'Bacteria.Firmicutes.Clostridia.Eubacteriales'
p795
(lp796
F0.0
aF0.0
aF0.0
aF0.0
aF0.0
aF75.77551503670375
aF0.0
aF0.0
aF111.48064881737608
aF365.3313177122702
aF1185.416485962934
asS'Bacteria.Proteobacteria.Alphaproteobacteria.Rhodospirillales.uncultured'
p797
(lp798
F0.0
aF768.4918347742555
aF0.0
aF12028.258927409775
aF133.63148001318496
aF0.0
aF334.78406427854026
aF0.0
aF0.0
aF0.0
aF0.0
asS'Bacteria.Campilobacterota'
p799
(lp800
F0.0
aF19.49073493992677
aF0.0
aF0.0
aF0.0
aF66.30357565711579
aF0.0
aF327.1345529580512
aF0.0
aF0.0
aF0.0
asS'Bacteria.Firmicutes.Clostridia.Lachnospirales.Lachnospiraceae.Blautia.Lachnospiraceae_bacterium'
p801
(lp802
F0.0
aF0.0
aF0.0
aF412.00093676002473
aF0.0
aF0.0
aF0.0
aF0.0
aF0.0
aF0.0
aF0.0
asS'Bacteria.Chloroflexi.Chloroflexia.Chloroflexales.Chloroflexaceae.FFCH7168'
p803
(lp804
F0.0
aF0.0
aF0.0
aF0.0
aF0.0
aF0.0
aF0.0
aF0.0
aF179.60771198355036
aF0.0
aF0.0
asS'Bacteria.Firmicutes.Clostridia.Oscillospirales.Oscillospiraceae.Papillibacter'
p805
(lp806
F0.0
aF0.0
aF0.0
aF277.5585258172798
aF8703.863731525445
aF1562.8699976320147
aF741.61026897145
aF0.0
aF526.4363971931649
aF0.0
aF0.0
asS'Bacteria.Proteobacteria.Gammaproteobacteria.Enterobacterales'
p807
(lp808
F2515.713443050732
aF1250.1914268610171
aF7000.612877329582
aF273.2216738513848
aF409.8032053737671
aF2349.040966137816
aF432.25284248621654
aF9864.364981504314
aF2025.2317868489988
aF4383.975812547243
aF10003.758637638419
asS'Bacteria.Firmicutes.Bacilli.Erysipelotrichales.Erysipelotrichaceae.uncultured.unidentified'
p809
(lp810
F0.0
aF0.0
aF0.0
aF0.0
aF0.0
aF0.0
aF199.1753293809037
aF0.0
aF0.0
aF0.0
aF0.0
asS'Bacteria.Verrucomicrobiota.Verrucomicrobiae.Verrucomicrobiales.Akkermansiaceae'
p811
(lp812
F30399.50623264099
aF3825.7528296370547
aF152571.92676547516
aF3142.0492492909257
aF587.9785120580137
aF11764.148709448256
aF37597.521750369735
aF0.0
aF6701.225667800051
aF82615.26832955406
aF24575.707635816925
asS'Bacteria.Firmicutes.Clostridia.Clostridia_vadinBB60_group.Clostridia_vadinBB60_group'
p813
(lp814
F2382.896273697122
aF247.81077280764038
aF38.84433779036143
aF2782.090536121641
aF739.4275227396233
aF947.1939379587968
aF402.58843172735857
aF0.0
aF12591.119946984754
aF0.0
aF0.0
asS'Bacteria.Firmicutes.Clostridia.Lachnospirales.Lachnospiraceae._Eubacterium__ruminantium_group'
p815
(lp816
F0.0
aF0.0
aF0.0
aF0.0
aF2040.1072615346236
aF58006.15676059672
aF3644.4847503739825
aF0.0
aF0.0
aF0.0
aF0.0
asS'Bacteria.Firmicutes.Clostridia.Oscillospirales.Butyricicoccaceae.Butyricicoccus'
p817
(lp818
F0.0
aF0.0
aF0.0
aF28.18953777831748
aF80.17888800791097
aF104.19133317546765
aF305.1196535196823
aF0.0
aF0.0
aF0.0
aF0.0
asS'Bacteria.Firmicutes.Clostridia.Peptostreptococcales_Tissierellales.Anaerovoracaceae.Family_XIII_AD3011_group'
p819
(lp820
F0.0
aF0.0
aF60.42452545167333
aF229.85315419243486
aF0.0
aF0.0
aF0.0
aF0.0
aF99.09391005988986
aF1499.1181657848329
aF0.0
asS'Bacteria.Firmicutes.Clostridia.Lachnospirales.Lachnospiraceae.Lachnoclostridium._Clostridium__aldenense'
p821
(lp822
F0.0
aF114.16001893385679
aF0.0
aF0.0
aF0.0
aF0.0
aF0.0
aF0.0
aF0.0
aF0.0
aF0.0
asS'Bacteria.Firmicutes.Clostridia.Oscillospirales.Ruminococcaceae.Ruminococcaceae.uncultured_bacterium'
p823
(lp824
F0.0
aF0.0
aF0.0
aF0.0
aF80.17888800791097
aF0.0
aF0.0
aF0.0
aF0.0
aF163.76921138825904
aF0.0
asS'Bacteria.Firmicutes.Clostridia.Clostridia_UCG_014.Clostridia_UCG_014.Clostridia_UCG_014.unidentified'
p825
(lp826
F0.0
aF0.0
aF0.0
aF21.684259829474986
aF1425.4024534739729
aF4717.025811034809
aF4055.5487280324433
aF5661.944185812425
aF5945.634603593392
aF7105.064247921392
aF15150.20094255067
asS'Bacteria.Firmicutes.Clostridia.Peptostreptococcales_Tissierellales.Anaerovoracaceae._Eubacterium__brachy_group'
p827
(lp828
F0.0
aF0.0
aF0.0
aF0.0
aF115.81394934476029
aF0.0
aF0.0
aF0.0
aF0.0
aF0.0
aF0.0
asS'Bacteria.Firmicutes.Clostridia.Oscillospirales.Ruminococcaceae.Ruminococcus.unidentified'
p829
(lp830
F1062.5373548288808
aF0.0
aF0.0
aF0.0
aF0.0
aF0.0
aF110.1820971043297
aF0.0
aF0.0
aF113.37868480725626
aF0.0
asS'Bacteria.Firmicutes.Bacilli.Erysipelotrichales.Erysipelotrichaceae.Allobaculum.uncultured_Allobaculum'
p831
(lp832
F0.0
aF0.0
aF0.0
aF0.0
aF0.0
aF0.0
aF0.0
aF4177.2565993105
aF0.0
aF0.0
aF0.0
asS'Bacteria.Patescibacteria.Saccharimonadia.Saccharimonadales.Saccharimonadaceae.Candidatus_Saccharimonas.uncultured_bacterium'
p833
(lp834
F0.0
aF41.76586058555736
aF0.0
aF1051.686601729537
aF507.7996240501028
aF1288.1837556239636
aF1186.57643035432
aF6341.377488109916
aF1486.408650898348
aF1234.5679012345681
aF9830.28305432677
asS'Bacteria.Firmicutes.Clostridia.Oscillospirales.Ruminococcaceae.uncultured'
p835
(lp836
F0.0
aF0.0
aF0.0
aF0.0
aF365.2593787027055
aF170.49490883258343
aF0.0
aF327.1345529580512
aF885.6518211602656
aF390.5265810027716
aF433.68895827912223
asS'Bacteria.Proteobacteria.Alphaproteobacteria.Sphingomonadales.Sphingomonadaceae.Sphingobium'
p837
(lp838
F0.0
aF0.0
aF0.0
aF0.0
aF0.0
aF0.0
aF0.0
aF578.7765167719368
aF0.0
aF0.0
aF0.0
asS'Bacteria.Patescibacteria.Saccharimonadia.Saccharimonadales.Saccharimonadaceae.Candidatus_Saccharimonas'
p839
(lp840
F0.0
aF41.76586058555736
aF0.0
aF1051.686601729537
aF507.7996240501028
aF1288.1837556239636
aF1186.57643035432
aF6341.377488109916
aF1486.408650898348
aF1234.5679012345681
aF9830.28305432677
asS'Bacteria.Firmicutes.Clostridia.Peptostreptococcales_Tissierellales.Peptostreptococcaceae.Clostridioides'
p841
(lp842
F0.0
aF17633.54633922232
aF0.0
aF0.0
aF0.0
aF0.0
aF0.0
aF0.0
aF0.0
aF0.0
aF0.0
asS'Bacteria.Firmicutes.Bacilli.Lactobacillales.Lactobacillaceae.Lactobacillus.Lactobacillus_faecis'
p843
(lp844
F0.0
aF1381.0577900290969
aF0.0
aF765.4543719804669
aF4302.933656424555
aF10618.044044518112
aF7369.487187093438
aF1560.1801756460904
aF8243.374643107089
aF0.0
aF0.0
asS'Bacteria.Firmicutes.Clostridia.Oscillospirales.Ruminococcaceae.Anaerotruncus'
p845
(lp846
F289.07266271079845
aF0.0
aF0.0
aF19.51583384652749
aF0.0
aF0.0
aF0.0
aF0.0
aF0.0
aF0.0
aF0.0
asS'Bacteria.Firmicutes.Bacilli.Erysipelotrichales.Erysipelotrichaceae.Turicibacter'
p847
(lp848
F0.0
aF977.3211377020424
aF0.0
aF1016.9917860023768
aF0.0
aF9595.074591522613
aF1601.878180978332
aF7071.139183170184
aF1127.193226931247
aF5618.54371378181
aF100413.4501402261
asS'Bacteria.Firmicutes.Clostridia.Lachnospirales.Lachnospiraceae.Tuzzerella.uncultured_bacterium'
p849
(lp850
F0.0
aF0.0
aF0.0
aF23.852685812422482
aF0.0
aF0.0
aF0.0
aF0.0
aF0.0
aF0.0
aF0.0
asS'Bacteria.Patescibacteria.Saccharimonadia'
p851
(lp852
F0.0
aF41.76586058555736
aF0.0
aF1051.686601729537
aF507.7996240501028
aF1288.1837556239636
aF1186.57643035432
aF6341.377488109916
aF1486.408650898348
aF1234.5679012345681
aF9830.28305432677
asS'Bacteria.Proteobacteria.Gammaproteobacteria.Enterobacterales.Erwiniaceae.uncultured'
p853
(lp854
F0.0
aF0.0
aF0.0
aF0.0
aF0.0
aF0.0
aF0.0
aF0.0
aF0.0
aF138.57394809775766
aF0.0
asS'Bacteria.Campilobacterota.Campylobacteria.Campylobacterales.Helicobacteraceae.Helicobacter.Helicobacter_rodentium'
p855
(lp856
F0.0
aF19.49073493992677
aF0.0
aF0.0
aF0.0
aF66.30357565711579
aF0.0
aF0.0
aF0.0
aF0.0
aF0.0
asS'Bacteria.Firmicutes.Clostridia.Oscillospirales.Oscillospiraceae'
p857
(lp858
F28415.0614670047
aF520.6810619666152
aF3055.754572841766
aF2406.952841071723
aF63305.68646491282
aF27714.894624674398
aF8623.867984896577
aF7977.050252900172
aF21998.84803329555
aF19299.571680524066
aF6274.033596437967
asS'Bacteria.Patescibacteria.Saccharimonadia.Saccharimonadales'
p859
(lp860
F0.0
aF41.76586058555736
aF0.0
aF1051.686601729537
aF507.7996240501028
aF1288.1837556239636
aF1186.57643035432
aF6341.377488109916
aF1486.408650898348
aF1234.5679012345681
aF9830.28305432677
asS'Bacteria.Actinobacteriota.Coriobacteriia.Coriobacteriales.Coriobacteriales_Incertae_Sedis'
p861
(lp862
F0.0
aF0.0
aF0.0
aF0.0
aF0.0
aF0.0
aF0.0
aF1535.0159792647019
aF0.0
aF0.0
aF0.0
asS'Bacteria.Firmicutes.Clostridia.uncultured'
p863
(lp864
F0.0
aF142.00392599089506
aF0.0
aF0.0
aF0.0
aF0.0
aF0.0
aF0.0
aF0.0
aF390.5265810027716
aF0.0
asS'Bacteria.Proteobacteria.Gammaproteobacteria.Burkholderiales.Comamonadaceae.Delftia'
p865
(lp866
F0.0
aF0.0
aF0.0
aF0.0
aF0.0
aF0.0
aF0.0
aF6492.362666398248
aF315.8618383158989
aF1914.8400100781057
aF1705.8432358978807
asS'Bacteria.Firmicutes.Clostridia.Clostridia_vadinBB60_group.Clostridia_vadinBB60_group.Clostridia_vadinBB60_group.uncultured_Clostridia'
p867
(lp868
F0.0
aF38.98146987985354
aF38.84433779036143
aF570.2960335151921
aF0.0
aF0.0
aF0.0
aF0.0
aF0.0
aF0.0
aF0.0
asS'Bacteria.Firmicutes.Clostridia.Oscillospirales._Clostridium__methylpentosum_group'
p869
(lp870
F70.31497201073475
aF0.0
aF0.0
aF0.0
aF0.0
aF0.0
aF0.0
aF0.0
aF0.0
aF0.0
aF0.0
asS'Bacteria'
p871
(lp872
F1000000.0
aF1000000.0
aF1000000.0
aF1000000.0
aF1000000.0
aF1000000.0
aF1000000.0
aF1000000.0
aF998600.2985204041
aF1000000.0
aF1000000.0
assS'subclass_sl'
p873
(dp874
g10
(I0
I4
tp875
sg12
(I4
I11
tp876
ssS'norm'
p877
F1000000.0
sS'cls'
p878
(dp879
S'class'
p880
(S'NC'
p881
S'NC'
p882
S'NC'
p883
g3
S'STD-NC'
p884
S'STD-NC'
p885
S'STD-NC'
p886
S'STD-NC'
p887
S'STD-NC'
p888
S'STD-NC'
p889
g5
tp890
sS'subclass'
p891
(lp892
S'NC_subcl'
p893
aS'NC_subcl'
p894
aS'NC_subcl'
p895
ag10
aS'STD-NC_subcl'
p896
aS'STD-NC_subcl'
p897
aS'STD-NC_subcl'
p898
aS'STD-NC_subcl'
p899
aS'STD-NC_subcl'
p900
aS'STD-NC_subcl'
p901
ag12
asS'subject'
p902
(S'S210421121673'
p903
S'S210421121674'
p904
S'S210421121675'
p905
S'S210421121676'
p906
S'S210421121682'
p907
S'S210421121683'
p908
S'S210421121684'
p909
S'S210421121694'
p910
S'S210421121695'
p911
S'S210421121696'
p912
S'S210421121697'
p913
tp914
ss.