(dp0
S'class_sl'
p1
(dp2
S'NC'
p3
(I0
I4
tp4
sS'STD-NC'
p5
(I4
I11
tp6
ssS'class_hierarchy'
p7
(dp8
g3
(lp9
S'NC_subcl'
p10
asg5
(lp11
S'STD-NC_subcl'
p12
assS'feats'
p13
(dp14
S'Bacteria.Chloroflexi'
p15
(lp16
F0.0
aF0.0
aF0.0
aF0.0
aF0.0
aF0.0
aF0.0
aF0.0
aF89.86674930275797
aF0.0
aF0.0
asS'Bacteria.Desulfobacterota'
p17
(lp18
F0.0
aF0.0
aF0.0
aF0.0
aF0.0
aF0.0
aF0.0
aF0.0
aF917.260613572978
aF0.0
aF0.0
asS'Bacteria.Actinobacteriota'
p19
(lp20
F66.40858467680503
aF558.2703364936167
aF47.476412854886185
aF229.8531541924348
aF289.53487336190085
aF1065.5931802036466
aF1769.2702131176027
aF21263.745942273334
aF390.4555314533622
aF529.1005291005292
aF4423.627374447046
asS'Eukaryota'
p21
(lp22
F0.0
aF0.0
aF0.0
aF0.0
aF0.0
aF0.0
aF0.0
aF0.0
aF700.3408738766656
aF0.0
aF0.0
asS'Bacteria'
p23
(lp24
F500000.0
aF500000.0
aF500000.0
aF500000.0
aF500000.00000000006
aF500000.00000000006
aF500000.00000000006
aF500000.00000000006
aF499649.8295630616
aF500000.00000000006
aF500000.0
asS'Bacteria.Cyanobacteria'
p25
(lp26
F121.09800735182093
aF286.7922426874939
aF0.0
aF2395.026498165512
aF146.9946280145035
aF0.0
aF372.9240209685007
aF1270.7919172601225
aF251.0071273628757
aF94.4822373393802
aF0.0
asS'Bacteria.Firmicutes'
p27
(lp28
F156400.0296885437
aF101024.65577969901
aF25430.093140089946
aF50974.27379413831
aF250060.13416600594
aF305924.6980819323
aF117526.15765362988
aF426986.08419940114
aF236656.33715525252
aF151618.79566641472
aF286321.45025587647
asS'Bacteria.Bacteroidota'
p29
(lp30
F326357.1766194905
aF373979.86885519774
aF392168.1182939567
aF434769.4095809734
aF247280.5993817317
aF183836.13544873314
aF358358.7952859014
aF26044.94325473716
aF253538.8906104741
aF301001.5117157975
aF183609.44863677103
asS'Bacteria.Campilobacterota'
p31
(lp32
F0.0
aF9.745367469963385
aF0.0
aF0.0
aF0.0
aF33.1517878285579
aF0.0
aF163.56727647902565
aF0.0
aF0.0
aF0.0
asS'Bacteria.Proteobacteria'
p33
(lp34
F1728.5763952638956
aF22077.433905525624
aF6068.348770360907
aF9466.263628557303
aF1336.31480013185
aF2614.25526876628
aF2580.8037360206467
aF20911.447192933898
aF3709.3275488069407
aF4768.203577727388
aF8442.478387833578
asS'Bacteria.Acidobacteriota'
p35
(lp36
F0.0
aF0.0
aF0.0
aF0.0
aF0.0
aF0.0
aF0.0
aF188.73147286041424
aF0.0
aF0.0
aF0.0
asS'Bacteria.Deferribacterota'
p37
(lp38
F126.9575883527155
aF129.47416781522784
aF0.0
aF68.30541846284619
aF338.53308270006863
aF0.0
aF0.0
aF0.0
aF0.0
aF62.988158226253475
aF0.0
asS'Bacteria.Verrucomicrobiota'
p39
(lp40
F15199.753116320491
aF1912.8764148185273
aF76285.96338273758
aF1571.0246246454624
aF293.989256029007
aF5882.07435472413
aF18798.760875184875
aF0.0
aF3352.959405020142
aF41307.634164777024
aF12287.853817908463
asS'Bacteria.Patescibacteria'
p41
(lp42
F0.0
aF20.88293029277868
aF0.0
aF525.8433008647684
aF253.8998120250515
aF644.091877811982
aF593.2882151771602
aF3170.688744054959
aF743.7248218159281
aF617.2839506172841
aF4915.141527163385
assS'subclass_sl'
p43
(dp44
g10
(I0
I4
tp45
sg12
(I4
I11
tp46
ssS'norm'
p47
F1000000.0
sS'cls'
p48
(dp49
S'class'
p50
(S'NC'
p51
S'NC'
p52
S'NC'
p53
g3
S'STD-NC'
p54
S'STD-NC'
p55
S'STD-NC'
p56
S'STD-NC'
p57
S'STD-NC'
p58
S'STD-NC'
p59
g5
tp60
sS'subclass'
p61
(lp62
S'NC_subcl'
p63
aS'NC_subcl'
p64
aS'NC_subcl'
p65
ag10
aS'STD-NC_subcl'
p66
aS'STD-NC_subcl'
p67
aS'STD-NC_subcl'
p68
aS'STD-NC_subcl'
p69
aS'STD-NC_subcl'
p70
aS'STD-NC_subcl'
p71
ag12
asS'subject'
p72
(S'S210421121673'
p73
S'S210421121674'
p74
S'S210421121675'
p75
S'S210421121676'
p76
S'S210421121682'
p77
S'S210421121683'
p78
S'S210421121684'
p79
S'S210421121694'
p80
S'S210421121695'
p81
S'S210421121696'
p82
S'S210421121697'
p83
tp84
ss.