(dp0
S'class_sl'
p1
(dp2
S'NR'
p3
(I0
I5
tp4
sS'STD-NR'
p5
(I5
I12
tp6
ssS'class_hierarchy'
p7
(dp8
g3
(lp9
S'NR_subcl'
p10
asg5
(lp11
S'STD-NR_subcl'
p12
assS'feats'
p13
(dp14
S'Bacteria.Elusimicrobiota'
p15
(lp16
F0.0
aF0.0
aF0.0
aF0.0
aF0.0
aF0.0
aF0.0
aF0.0
aF0.0
aF0.0
aF91.94633677435533
aF190.91388742328732
asS'Bacteria.Campilobacterota'
p17
(lp18
F0.0
aF0.0
aF0.0
aF38.37845543164797
aF0.0
aF0.0
aF0.0
aF193.60251253038481
aF0.0
aF0.0
aF639.4449784761985
aF458.19332981588957
asS'Bacteria.Firmicutes.Clostridia'
p19
(lp20
F27585.384854431755
aF78115.04673866348
aF115153.89087577738
aF285278.0244964198
aF63586.945484331736
aF357162.1560769127
aF232588.60475549573
aF492223.63241336285
aF606757.1834543733
aF393554.1099940864
aF185652.1920842563
aF348317.18086140347
asS'Archaea'
p21
(lp22
F0.0
aF0.0
aF0.0
aF0.0
aF0.0
aF0.0
aF0.0
aF0.0
aF0.0
aF0.0
aF83.58757888577757
aF461.6644914054039
asS'Bacteria.Campilobacterota.Campylobacteria'
p23
(lp24
F0.0
aF0.0
aF0.0
aF38.37845543164797
aF0.0
aF0.0
aF0.0
aF193.60251253038481
aF0.0
aF0.0
aF639.4449784761985
aF458.19332981588957
asS'Bacteria.Proteobacteria.Alphaproteobacteria'
p25
(lp26
F38.3130345200441
aF0.0
aF74.87535455682598
aF126.10063927541475
aF0.0
aF264.55622101139284
aF0.0
aF0.0
aF1894.537417113988
aF0.0
aF1776.2360513227734
aF277.69292716114524
asS'Bacteria.Proteobacteria.Gammaproteobacteria'
p27
(lp28
F14018.313630500581
aF2636.9198405996776
aF4593.823223692324
aF4068.116275754685
aF3026.015610720354
aF5223.578151033458
aF2476.4468371467024
aF4216.232495106158
aF56394.06378275971
aF11235.955056179777
aF8133.0714255861585
aF5592.041320707562
asS'Bacteria.Deferribacterota.Deferribacteres'
p29
(lp30
F0.0
aF0.0
aF0.0
aF87.72218384376679
aF0.0
aF67.54626919439816
aF0.0
aF0.0
aF0.0
aF0.0
aF0.0
aF0.0
asS'Bacteria.Actinobacteriota'
p31
(lp32
F55.34104986228593
aF992.5484793268448
aF105.70638290375433
aF9177.9334846541
aF2355.8242338494033
aF3698.1582383932996
aF1561.2382234185734
aF5442.38174113193
aF26144.616356173035
aF0.0
aF593.4718100890208
aF4137.624614701064
asS'Bacteria.Firmicutes'
p33
(lp34
F43204.33192710306
aF205487.1635334726
aF137488.76869681646
aF386191.431735693
aF109031.33652407612
aF422220.47102265054
aF290085.2400179453
aF786908.1678748897
aF889232.7123460688
aF792726.1975162626
aF215948.51005140637
aF443510.316292244
asS'Bacteria.Actinobacteriota.Actinobacteria'
p35
(lp36
F0.0
aF0.0
aF0.0
aF6129.5875960832045
aF372.32854270608385
aF2915.7472868915206
aF1345.8950201884254
aF0.0
aF2652.352383959583
aF0.0
aF121.20198938437748
aF2110.4662464247035
asS'Bacteria.Patescibacteria'
p37
(lp38
F0.0
aF0.0
aF0.0
aF948.4961128107284
aF0.0
aF332.10249020579096
aF0.0
aF2151.139028115387
aF15787.811809283234
aF2956.8302779420465
aF0.0
aF22791.646996750995
asS'Bacteria.Verrucomicrobiota'
p39
(lp40
F135836.73538889858
aF0.0
aF0.0
aF268.64918802153585
aF40.617659204300054
aF7908.542351510785
aF466.57694033198743
aF16692.838858175404
aF0.0
aF0.0
aF0.0
aF0.0
asS'Bacteria.Actinobacteriota.Coriobacteriia'
p41
(lp42
F55.34104986228593
aF992.5484793268448
aF105.70638290375433
aF3048.345888570896
aF1983.4956911433192
aF782.4109515017788
aF215.34320323014805
aF5442.38174113193
aF23492.26397221345
aF0.0
aF472.2698207046433
aF2027.15836827636
asS'Bacteria.Cyanobacteria'
p43
(lp44
F0.0
aF814.7786024324846
aF0.0
aF164.47909470706273
aF440.0246413799173
aF4401.76520916828
aF6406.460296096904
aF0.0
aF1073.57120303126
aF0.0
aF0.0
aF111.07717086445808
asS'Bacteria.Patescibacteria.Saccharimonadia'
p45
(lp46
F0.0
aF0.0
aF0.0
aF948.4961128107284
aF0.0
aF332.10249020579096
aF0.0
aF2151.139028115387
aF15787.811809283234
aF2956.8302779420465
aF0.0
aF22791.646996750995
asS'Bacteria.Proteobacteria'
p47
(lp48
F14056.626665020627
aF2636.9198405996776
aF4668.69857824915
aF4194.216915030099
aF3026.015610720354
aF5488.134372044851
aF2476.4468371467024
aF4216.232495106158
aF58288.6011998737
aF11235.955056179777
aF9909.30747690893
aF5869.734247868707
asS'Bacteria.Bacteroidota.Bacteroidia'
p49
(lp50
F806846.9649691154
aF790068.5895441684
aF857736.8263420307
aF598928.692829808
aF885106.1813307699
aF555883.280046832
aF699004.0376850606
aF184395.63749005098
aF9472.68708556994
aF193081.01714961565
aF769009.905128098
aF519063.6194496127
asS'Bacteria.Bacteroidota'
p51
(lp52
F806846.9649691154
aF790068.5895441684
aF857736.8263420307
aF598928.692829808
aF885106.1813307699
aF555883.280046832
aF699004.0376850606
aF184395.63749005098
aF9472.68708556994
aF193081.01714961565
aF769009.905128098
aF519063.6194496127
asS'Bacteria.Firmicutes.Negativicutes'
p53
(lp54
F0.0
aF0.0
aF0.0
aF0.0
aF0.0
aF0.0
aF0.0
aF0.0
aF0.0
aF0.0
aF7619.007815438626
aF1197.5507483824385
asS'Bacteria.Desulfobacterota'
p55
(lp56
F0.0
aF0.0
aF0.0
aF0.0
aF0.0
aF0.0
aF0.0
aF0.0
aF0.0
aF0.0
aF3723.8266393613912
aF3405.209519313543
asS'Bacteria.Desulfobacterota.Desulfovibrionia'
p57
(lp58
F0.0
aF0.0
aF0.0
aF0.0
aF0.0
aF0.0
aF0.0
aF0.0
aF0.0
aF0.0
aF3723.8266393613912
aF3405.209519313543
asS'Bacteria.Elusimicrobiota.Elusimicrobia'
p59
(lp60
F0.0
aF0.0
aF0.0
aF0.0
aF0.0
aF0.0
aF0.0
aF0.0
aF0.0
aF0.0
aF91.94633677435533
aF190.91388742328732
asS'Archaea.Euryarchaeota.Methanobacteria'
p61
(lp62
F0.0
aF0.0
aF0.0
aF0.0
aF0.0
aF0.0
aF0.0
aF0.0
aF0.0
aF0.0
aF83.58757888577757
aF461.6644914054039
asS'Bacteria.Firmicutes.Bacilli'
p63
(lp64
F15618.947072671313
aF127372.11679480913
aF22334.877821039096
aF100913.40723927322
aF45444.39103974438
aF65058.314945737824
aF57496.635262449534
aF294684.5354615269
aF282475.52889169566
aF399172.08752217627
aF22677.310151711456
aF93995.58468245814
asS'Bacteria.Cyanobacteria.Vampirivibrionia'
p65
(lp66
F0.0
aF814.7786024324846
aF0.0
aF164.47909470706273
aF440.0246413799173
aF4401.76520916828
aF6406.460296096904
aF0.0
aF1073.57120303126
aF0.0
aF0.0
aF111.07717086445808
asS'Archaea.Euryarchaeota'
p67
(lp68
F0.0
aF0.0
aF0.0
aF0.0
aF0.0
aF0.0
aF0.0
aF0.0
aF0.0
aF0.0
aF83.58757888577757
aF461.6644914054039
asS'Bacteria.Verrucomicrobiota.Verrucomicrobiae'
p69
(lp70
F135836.73538889858
aF0.0
aF0.0
aF268.64918802153585
aF40.617659204300054
aF7908.542351510785
aF466.57694033198743
aF16692.838858175404
aF0.0
aF0.0
aF0.0
aF0.0
asS'Bacteria.Deferribacterota'
p71
(lp72
F0.0
aF0.0
aF0.0
aF87.72218384376679
aF0.0
aF67.54626919439816
aF0.0
aF0.0
aF0.0
aF0.0
aF0.0
aF0.0
asS'Bacteria'
p73
(lp74
F1000000.0
aF1000000.0
aF1000000.0
aF1000000.0
aF1000000.0
aF1000000.0
aF1000000.0
aF1000000.0
aF1000000.0
aF1000000.0
aF999916.4124211143
aF999538.3355085946
assS'subclass_sl'
p75
(dp76
g12
(I5
I12
tp77
sg10
(I0
I5
tp78
ssS'norm'
p79
F1000000.0
sS'cls'
p80
(dp81
S'class'
p82
(S'NR'
p83
S'NR'
p84
S'NR'
p85
S'NR'
p86
g3
S'STD-NR'
p87
S'STD-NR'
p88
S'STD-NR'
p89
S'STD-NR'
p90
S'STD-NR'
p91
S'STD-NR'
p92
g5
tp93
sS'subclass'
p94
(lp95
S'NR_subcl'
p96
aS'NR_subcl'
p97
aS'NR_subcl'
p98
aS'NR_subcl'
p99
ag10
aS'STD-NR_subcl'
p100
aS'STD-NR_subcl'
p101
aS'STD-NR_subcl'
p102
aS'STD-NR_subcl'
p103
aS'STD-NR_subcl'
p104
aS'STD-NR_subcl'
p105
ag12
asS'subject'
p106
(S'S210421121677'
p107
S'S210421121678'
p108
S'S210421121679'
p109
S'S210421121680'
p110
S'S210421121681'
p111
S'S210421121685'
p112
S'S210421121686'
p113
S'S210421121687'
p114
S'S210421121703'
p115
S'S210421121704'
p116
S'S210421121705'
p117
S'S210421121706'
p118
tp119
ss.