(dp0
S'class_sl'
p1
(dp2
S'NR'
p3
(I0
I5
tp4
sS'STD-NR'
p5
(I5
I12
tp6
ssS'class_hierarchy'
p7
(dp8
g3
(lp9
S'NR_subcl'
p10
asg5
(lp11
S'STD-NR_subcl'
p12
assS'feats'
p13
(dp14
S'Bacteria.Elusimicrobiota.Elusimicrobia.Elusimicrobiales'
p15
(lp16
F0.0
aF0.0
aF0.0
aF0.0
aF0.0
aF0.0
aF0.0
aF0.0
aF0.0
aF0.0
aF91.94633677435533
aF190.91388742328732
asS'Bacteria.Firmicutes.Bacilli.Acholeplasmatales'
p17
(lp18
F0.0
aF0.0
aF0.0
aF0.0
aF0.0
aF0.0
aF215.34320323014808
aF0.0
aF1705.083675402589
aF0.0
aF0.0
aF0.0
asS'Bacteria.Actinobacteriota.Actinobacteria.Micrococcales'
p19
(lp20
F0.0
aF0.0
aF0.0
aF0.0
aF0.0
aF90.06169225919754
aF0.0
aF0.0
aF1768.234922639722
aF0.0
aF121.20198938437748
aF128.43297881202966
asS'Bacteria.Firmicutes'
p21
(lp22
F43204.33192710306
aF205487.16353347257
aF137488.76869681646
aF386191.43173569307
aF109031.3365240761
aF422220.47102265054
aF290085.24001794524
aF786908.1678748898
aF889232.7123460688
aF792726.1975162624
aF215948.5100514064
aF443510.316292244
asS'Bacteria.Actinobacteriota.Actinobacteria.Bifidobacteriales'
p23
(lp24
F0.0
aF0.0
aF0.0
aF6129.5875960832045
aF0.0
aF2825.685594632323
aF1345.8950201884254
aF0.0
aF884.117461319861
aF0.0
aF0.0
aF1982.033267612674
asS'Bacteria.Desulfobacterota.Desulfovibrionia.Desulfovibrionales'
p25
(lp26
F0.0
aF0.0
aF0.0
aF0.0
aF0.0
aF0.0
aF0.0
aF0.0
aF0.0
aF0.0
aF3723.8266393613912
aF3405.209519313543
asS'Bacteria.Proteobacteria.Gammaproteobacteria.Pseudomonadales'
p27
(lp28
F0.0
aF0.0
aF290.6925529853244
aF164.47909470706273
aF148.93141708243354
aF33.77313459719908
aF0.0
aF0.0
aF8083.359646353017
aF0.0
aF0.0
aF572.741662269862
asS'Bacteria.Firmicutes.Clostridia.Peptococcales'
p29
(lp30
F225.6212032847041
aF0.0
aF1131.9391835943693
aF619.537923396603
aF318.1716637670171
aF6850.317467465214
aF2799.461641991925
aF516.2733667476929
aF1326.1761919797916
aF0.0
aF0.0
aF236.03898808697343
asS'Bacteria.Firmicutes.Clostridia'
p31
(lp32
F27585.384854431744
aF78115.04673866347
aF115153.89087577739
aF285278.0244964199
aF63586.945484331736
aF357162.1560769127
aF232588.60475549576
aF492223.63241336285
aF606757.1834543733
aF393554.10999408626
aF185652.1920842563
aF348317.18086140347
asS'Bacteria.Firmicutes.Clostridia.Clostridia_vadinBB60_group'
p33
(lp34
F0.0
aF474.05300505162734
aF114.51524814573386
aF350.88873537506714
aF264.0147848279504
aF816.1840860989779
aF0.0
aF731.3872695592316
aF315.75623618566465
aF0.0
aF3753.0822919714133
aF173.55807947571574
asS'Bacteria.Firmicutes.Bacilli.RF39'
p35
(lp36
F0.0
aF0.0
aF726.7313824633111
aF0.0
aF0.0
aF4925.248795424865
aF861.3728129205923
aF24673.56465248349
aF11872.43448058099
aF0.0
aF41.79378944288879
aF6123.129043903252
asS'Bacteria.Proteobacteria.Gammaproteobacteria.Pasteurellales'
p37
(lp38
F0.0
aF0.0
aF0.0
aF0.0
aF0.0
aF0.0
aF0.0
aF1204.637855744617
aF0.0
aF0.0
aF1391.7331884481966
aF666.4630251867485
asS'Bacteria.Proteobacteria.Alphaproteobacteria'
p39
(lp40
F38.31303452004409
aF0.0
aF74.87535455682598
aF126.10063927541475
aF0.0
aF264.55622101139284
aF0.0
aF0.0
aF1894.537417113988
aF0.0
aF1776.2360513227734
aF277.69292716114524
asS'Bacteria.Proteobacteria.Gammaproteobacteria'
p41
(lp42
F14018.313630500577
aF2636.9198405996767
aF4593.823223692325
aF4068.116275754685
aF3026.0156107203543
aF5223.578151033458
aF2476.446837146703
aF4216.232495106158
aF56394.06378275971
aF11235.955056179773
aF8133.071425586157
aF5592.041320707562
asS'Bacteria.Deferribacterota.Deferribacteres'
p43
(lp44
F0.0
aF0.0
aF0.0
aF87.72218384376679
aF0.0
aF67.54626919439816
aF0.0
aF0.0
aF0.0
aF0.0
aF0.0
aF0.0
asS'Bacteria.Patescibacteria.Saccharimonadia.Saccharimonadales'
p45
(lp46
F0.0
aF0.0
aF0.0
aF948.4961128107284
aF0.0
aF332.10249020579096
aF0.0
aF2151.139028115387
aF15787.811809283234
aF2956.8302779420455
aF0.0
aF22791.646996750995
asS'Bacteria.Proteobacteria.Alphaproteobacteria.Rhodospirillales'
p47
(lp48
F0.0
aF0.0
aF0.0
aF0.0
aF0.0
aF174.49452875219527
aF0.0
aF0.0
aF0.0
aF0.0
aF1776.2360513227734
aF0.0
asS'Archaea'
p49
(lp50
F0.0
aF0.0
aF0.0
aF0.0
aF0.0
aF0.0
aF0.0
aF0.0
aF0.0
aF0.0
aF83.58757888577757
aF461.6644914054039
asS'Bacteria.Proteobacteria.Gammaproteobacteria.Burkholderiales'
p51
(lp52
F5729.927162664372
aF903.6635408796647
aF3673.2968059054633
aF794.9822910841366
aF1435.1572918852687
aF3405.4577385509074
aF2225.2131000448635
aF430.2278056230774
aF20397.852857593938
aF0.0
aF5566.932753792787
aF2662.38093915748
asS'Bacteria.Campilobacterota.Campylobacteria.Campylobacterales'
p53
(lp54
F0.0
aF0.0
aF0.0
aF38.37845543164797
aF0.0
aF0.0
aF0.0
aF193.60251253038481
aF0.0
aF0.0
aF639.4449784761985
aF458.19332981588957
asS'Archaea.Euryarchaeota.Methanobacteria.Methanobacteriales'
p55
(lp56
F0.0
aF0.0
aF0.0
aF0.0
aF0.0
aF0.0
aF0.0
aF0.0
aF0.0
aF0.0
aF83.58757888577757
aF461.6644914054039
asS'Bacteria.Patescibacteria'
p57
(lp58
F0.0
aF0.0
aF0.0
aF948.4961128107284
aF0.0
aF332.10249020579096
aF0.0
aF2151.139028115387
aF15787.811809283234
aF2956.8302779420455
aF0.0
aF22791.646996750995
asS'Bacteria.Proteobacteria.Alphaproteobacteria.Rhizobiales'
p59
(lp60
F38.31303452004409
aF0.0
aF74.87535455682598
aF0.0
aF0.0
aF0.0
aF0.0
aF0.0
aF1894.537417113988
aF0.0
aF0.0
aF211.7408569603732
asS'Bacteria.Firmicutes.Clostridia.Oscillospirales'
p61
(lp62
F7986.139195511414
aF57715.953365035624
aF30566.762389668966
aF80134.21494128097
aF37733.80540079475
aF132722.7901112262
aF95558.54643337821
aF202013.46613031602
aF63593.30596779286
aF144589.00059136603
aF67225.31031888661
aF106363.33342589764
asS'Bacteria.Campilobacterota.Campylobacteria'
p63
(lp64
F0.0
aF0.0
aF0.0
aF38.37845543164797
aF0.0
aF0.0
aF0.0
aF193.60251253038481
aF0.0
aF0.0
aF639.4449784761985
aF458.19332981588957
asS'Bacteria.Firmicutes.Clostridia.Clostridiales'
p65
(lp66
F0.0
aF0.0
aF0.0
aF290.57973398247753
aF0.0
aF821.8129418651777
aF0.0
aF0.0
aF48500.157878118094
aF3252.51330573625
aF1028.127220295064
aF20521.50731720863
asS'Bacteria.Firmicutes.Negativicutes.Veillonellales_Selenomonadales'
p67
(lp68
F0.0
aF0.0
aF0.0
aF0.0
aF0.0
aF0.0
aF0.0
aF0.0
aF0.0
aF0.0
aF7619.007815438626
aF1197.5507483824385
asS'Bacteria.Firmicutes.Clostridia.Peptostreptococcales_Tissierellales'
p69
(lp70
F1362.2412273793457
aF1748.0704561278758
aF3761.3854583252587
aF53581.8064190708
aF4569.486660483756
aF11606.700589904085
aF2440.5563032750115
aF3635.4249575150043
aF54499.526365645725
aF0.0
aF5057.048522589544
aF8587.653772458416
asS'Bacteria.Actinobacteriota.Actinobacteria.Corynebacteriales'
p71
(lp72
F0.0
aF0.0
aF0.0
aF0.0
aF372.32854270608385
aF0.0
aF0.0
aF0.0
aF0.0
aF0.0
aF0.0
aF0.0
asS'Bacteria.Elusimicrobiota.Elusimicrobia'
p73
(lp74
F0.0
aF0.0
aF0.0
aF0.0
aF0.0
aF0.0
aF0.0
aF0.0
aF0.0
aF0.0
aF91.94633677435533
aF190.91388742328732
asS'Bacteria.Firmicutes.Bacilli.Staphylococcales'
p75
(lp76
F0.0
aF414.79637942017393
aF273.07482250136536
aF466.0241016700111
aF1638.245587906769
aF0.0
aF0.0
aF0.0
aF0.0
aF0.0
aF0.0
aF76.36555496931493
asS'Bacteria.Verrucomicrobiota.Verrucomicrobiae.Verrucomicrobiales'
p77
(lp78
F135836.73538889855
aF0.0
aF0.0
aF268.64918802153585
aF40.617659204300054
aF7908.542351510785
aF466.5769403319875
aF16692.838858175404
aF0.0
aF0.0
aF0.0
aF0.0
asS'Bacteria.Firmicutes.Clostridia.Christensenellales'
p79
(lp80
F144.7381304090555
aF0.0
aF0.0
aF263.16655153130034
aF74.46570854121677
aF4002.1164497680907
aF1938.0888290713326
aF1333.70619743154
aF177581.3072308178
aF0.0
aF0.0
aF2888.0064424759103
asS'Bacteria.Bacteroidota.Bacteroidia.Bacteroidales'
p81
(lp82
F806846.9649691152
aF790068.5895441683
aF857736.8263420307
aF598928.692829808
aF885106.1813307699
aF555883.280046832
aF699004.0376850606
aF184395.63749005098
aF9472.68708556994
aF193081.01714961557
aF769009.905128098
aF519063.6194496127
asS'Bacteria.Actinobacteriota.Actinobacteria'
p83
(lp84
F0.0
aF0.0
aF0.0
aF6129.5875960832045
aF372.32854270608385
aF2915.7472868915206
aF1345.8950201884254
aF0.0
aF2652.352383959583
aF0.0
aF121.20198938437748
aF2110.4662464247035
asS'Bacteria.Proteobacteria.Alphaproteobacteria.Sphingomonadales'
p85
(lp86
F0.0
aF0.0
aF0.0
aF0.0
aF0.0
aF0.0
aF0.0
aF0.0
aF0.0
aF0.0
aF0.0
aF65.95207020077198
asS'Bacteria.Actinobacteriota.Coriobacteriia'
p87
(lp88
F55.341049862285914
aF992.5484793268447
aF105.70638290375433
aF3048.345888570896
aF1983.4956911433192
aF782.4109515017788
aF215.34320323014808
aF5442.38174113193
aF23492.26397221345
aF0.0
aF472.2698207046433
aF2027.15836827636
asS'Bacteria.Firmicutes.Bacilli.Lactobacillales'
p89
(lp90
F9118.502215770493
aF124350.02888760499
aF18665.98544775462
aF89136.70405824753
aF39947.46782742911
aF42925.65407304003
aF50695.37909376403
aF265966.8294361864
aF135143.66908746448
aF388231.81549379055
aF10114.097045179087
aF15887.506595207022
asS'Bacteria.Firmicutes.Clostridia.Clostridia_UCG_014'
p91
(lp92
F0.0
aF488.86716145949066
aF0.0
aF394.74982729695057
aF1570.5494892329355
aF70585.85130814608
aF52364.28891879767
aF71267.23600146278
aF166277.233975371
aF80425.78356002363
aF8.358757888577758
aF175609.53597511872
asS'Bacteria.Cyanobacteria'
p93
(lp94
F0.0
aF814.7786024324845
aF0.0
aF164.47909470706273
aF440.0246413799173
aF4401.76520916828
aF6406.460296096905
aF0.0
aF1073.57120303126
aF0.0
aF0.0
aF111.07717086445808
asS'Bacteria.Proteobacteria.Alphaproteobacteria.Caulobacterales'
p95
(lp96
F0.0
aF0.0
aF0.0
aF49.34372841211882
aF0.0
aF0.0
aF0.0
aF0.0
aF0.0
aF0.0
aF0.0
aF0.0
asS'Bacteria.Firmicutes.Clostridia.Clostridia'
p97
(lp98
F0.0
aF0.0
aF0.0
aF0.0
aF0.0
aF112.57711532399694
aF0.0
aF0.0
aF0.0
aF0.0
aF0.0
aF76.36555496931493
asS'Bacteria.Proteobacteria'
p99
(lp100
F14056.626665020622
aF2636.9198405996767
aF4668.69857824915
aF4194.2169150301
aF3026.0156107203543
aF5488.134372044851
aF2476.446837146703
aF4216.232495106158
aF58288.601199873694
aF11235.955056179773
aF9909.30747690893
aF5869.734247868707
asS'Bacteria.Firmicutes.Bacilli.Izemoplasmatales'
p101
(lp102
F0.0
aF0.0
aF0.0
aF0.0
aF0.0
aF236.4119421803936
aF0.0
aF0.0
aF0.0
aF0.0
aF0.0
aF0.0
asS'Bacteria.Campilobacterota'
p103
(lp104
F0.0
aF0.0
aF0.0
aF38.37845543164797
aF0.0
aF0.0
aF0.0
aF193.60251253038481
aF0.0
aF0.0
aF639.4449784761985
aF458.19332981588957
asS'Bacteria.Bacteroidota.Bacteroidia'
p105
(lp106
F806846.9649691152
aF790068.5895441683
aF857736.8263420307
aF598928.692829808
aF885106.1813307699
aF555883.280046832
aF699004.0376850606
aF184395.63749005098
aF9472.68708556994
aF193081.01714961557
aF769009.905128098
aF519063.6194496127
asS'Bacteria.Firmicutes.Clostridia.Lachnospirales'
p107
(lp108
F15882.881310476056
aF17154.793120305763
aF79187.29409277497
aF139845.60895643497
aF18379.490789945772
aF129474.94033412887
aF77487.6626289816
aF210639.53363305872
aF59425.32365014209
aF142223.53636901238
aF108488.31863585071
aF31476.49329371581
asS'Bacteria.Desulfobacterota.Desulfovibrionia'
p109
(lp110
F0.0
aF0.0
aF0.0
aF0.0
aF0.0
aF0.0
aF0.0
aF0.0
aF0.0
aF0.0
aF3723.8266393613912
aF3405.209519313543
asS'Bacteria.Bacteroidota'
p111
(lp112
F806846.9649691152
aF790068.5895441683
aF857736.8263420307
aF598928.692829808
aF885106.1813307699
aF555883.280046832
aF699004.0376850606
aF184395.63749005098
aF9472.68708556994
aF193081.01714961557
aF769009.905128098
aF519063.6194496127
asS'Bacteria'
p113
(lp114
F1000000.0
aF1000000.0
aF1000000.0
aF1000000.0
aF1000000.0
aF1000000.0
aF1000000.0
aF1000000.0
aF1000000.0
aF1000000.0
aF999916.4124211143
aF999538.3355085946
asS'Bacteria.Desulfobacterota'
p115
(lp116
F0.0
aF0.0
aF0.0
aF0.0
aF0.0
aF0.0
aF0.0
aF0.0
aF0.0
aF0.0
aF3723.8266393613912
aF3405.209519313543
asS'Bacteria.Firmicutes.Bacilli.Bacillales'
p117
(lp118
F0.0
aF0.0
aF0.0
aF0.0
aF0.0
aF0.0
aF0.0
aF0.0
aF0.0
aF0.0
aF0.0
aF79.83671655882925
asS'Bacteria.Elusimicrobiota'
p119
(lp120
F0.0
aF0.0
aF0.0
aF0.0
aF0.0
aF0.0
aF0.0
aF0.0
aF0.0
aF0.0
aF91.94633677435533
aF190.91388742328732
asS'Bacteria.Firmicutes.Negativicutes'
p121
(lp122
F0.0
aF0.0
aF0.0
aF0.0
aF0.0
aF0.0
aF0.0
aF0.0
aF0.0
aF0.0
aF7619.007815438626
aF1197.5507483824385
asS'Bacteria.Patescibacteria.Saccharimonadia'
p123
(lp124
F0.0
aF0.0
aF0.0
aF948.4961128107284
aF0.0
aF332.10249020579096
aF0.0
aF2151.139028115387
aF15787.811809283234
aF2956.8302779420455
aF0.0
aF22791.646996750995
asS'Bacteria.Actinobacteriota'
p125
(lp126
F55.341049862285914
aF992.5484793268447
aF105.70638290375433
aF9177.9334846541
aF2355.8242338494033
aF3698.1582383932996
aF1561.2382234185734
aF5442.38174113193
aF26144.616356173035
aF0.0
aF593.4718100890208
aF4137.624614701064
asS'Bacteria.Firmicutes.Clostridia.Eubacteriales'
p127
(lp128
F0.0
aF0.0
aF0.0
aF0.0
aF0.0
aF0.0
aF0.0
aF0.0
aF0.0
aF0.0
aF91.94633677435533
aF0.0
asS'Bacteria.Verrucomicrobiota'
p129
(lp130
F135836.73538889855
aF0.0
aF0.0
aF268.64918802153585
aF40.617659204300054
aF7908.542351510785
aF466.5769403319875
aF16692.838858175404
aF0.0
aF0.0
aF0.0
aF0.0
asS'Archaea.Euryarchaeota.Methanobacteria'
p131
(lp132
F0.0
aF0.0
aF0.0
aF0.0
aF0.0
aF0.0
aF0.0
aF0.0
aF0.0
aF0.0
aF83.58757888577757
aF461.6644914054039
asS'Bacteria.Proteobacteria.Gammaproteobacteria.Enterobacterales'
p133
(lp134
F8288.386467836206
aF1733.2562997200123
aF629.8338648015363
aF3108.6548899634854
aF1441.926901752652
aF1784.3472778853513
aF251.2337371018394
aF2581.3668337384643
aF27912.851278812755
aF11235.955056179773
aF1174.405483345175
aF1690.4556940934715
asS'Bacteria.Firmicutes.Clostridia.Monoglobales'
p135
(lp136
F1983.7637873711722
aF533.3096306830807
aF391.994503268089
aF8503.569196355144
aF676.9609867383342
aF168.86567298599542
aF0.0
aF2086.6048572719255
aF35238.39595832018
aF23063.27616794795
aF0.0
aF2270.139679542362
asS'Bacteria.Firmicutes.Bacilli'
p137
(lp138
F5819.324243211142
aF1318.4599202998386
aF1435.8450344426633
aF6178.931324495324
aF2288.1281351755697
aF6844.6886116990145
aF3947.9587258860474
aF3377.2882741411577
aF27976.00252604989
aF10940.272028385569
aF1721.9041250470182
aF1756.4077642942434
asS'Bacteria.Cyanobacteria.Vampirivibrionia'
p139
(lp140
F0.0
aF814.7786024324845
aF0.0
aF164.47909470706273
aF440.0246413799173
aF4401.76520916828
aF6406.460296096905
aF0.0
aF1073.57120303126
aF0.0
aF0.0
aF111.07717086445808
asS'Archaea.Euryarchaeota'
p141
(lp142
F0.0
aF0.0
aF0.0
aF0.0
aF0.0
aF0.0
aF0.0
aF0.0
aF0.0
aF0.0
aF83.58757888577757
aF461.6644914054039
asS'Bacteria.Cyanobacteria.Vampirivibrionia.Gastranaerophilales'
p143
(lp144
F0.0
aF814.7786024324845
aF0.0
aF164.47909470706273
aF440.0246413799173
aF4401.76520916828
aF6406.460296096905
aF0.0
aF1073.57120303126
aF0.0
aF0.0
aF111.07717086445808
asS'Bacteria.Deferribacterota.Deferribacteres.Deferribacterales'
p145
(lp146
F0.0
aF0.0
aF0.0
aF87.72218384376679
aF0.0
aF67.54626919439816
aF0.0
aF0.0
aF0.0
aF0.0
aF0.0
aF0.0
asS'Bacteria.Verrucomicrobiota.Verrucomicrobiae'
p147
(lp148
F135836.73538889855
aF0.0
aF0.0
aF268.64918802153585
aF40.617659204300054
aF7908.542351510785
aF466.5769403319875
aF16692.838858175404
aF0.0
aF0.0
aF0.0
aF0.0
asS'Bacteria.Proteobacteria.Alphaproteobacteria.Rickettsiales'
p149
(lp150
F0.0
aF0.0
aF0.0
aF76.75691086329594
aF0.0
aF90.06169225919754
aF0.0
aF0.0
aF0.0
aF0.0
aF0.0
aF0.0
asS'Bacteria.Deferribacterota'
p151
(lp152
F0.0
aF0.0
aF0.0
aF87.72218384376679
aF0.0
aF67.54626919439816
aF0.0
aF0.0
aF0.0
aF0.0
aF0.0
aF0.0
asS'Bacteria.Actinobacteriota.Coriobacteriia.Coriobacteriales'
p153
(lp154
F55.341049862285914
aF992.5484793268447
aF105.70638290375433
aF3048.345888570896
aF1983.4956911433192
aF782.4109515017788
aF215.34320323014808
aF5442.38174113193
aF23492.26397221345
aF0.0
aF472.2698207046433
aF2027.15836827636
asS'Bacteria.Firmicutes.Clostridia.uncultured'
p155
(lp156
F0.0
aF0.0
aF0.0
aF1293.9022116955603
aF0.0
aF0.0
aF0.0
aF0.0
aF0.0
aF0.0
aF0.0
aF114.54833245397239
asS'Bacteria.Firmicutes.Bacilli.Erysipelotrichales'
p157
(lp158
F681.1206136896728
aF1288.8316074841118
aF1233.241133877134
aF5131.747754860357
aF1570.5494892329355
aF10126.311523393526
aF1776.5814266487214
aF666.85309871577
aF105778.33912219766
aF0.0
aF10799.515192042463
aF70072.33900752547
assS'subclass_sl'
p159
(dp160
g12
(I5
I12
tp161
sg10
(I0
I5
tp162
ssS'norm'
p163
F1000000.0
sS'cls'
p164
(dp165
S'class'
p166
(S'NR'
p167
S'NR'
p168
S'NR'
p169
S'NR'
p170
g3
S'STD-NR'
p171
S'STD-NR'
p172
S'STD-NR'
p173
S'STD-NR'
p174
S'STD-NR'
p175
S'STD-NR'
p176
g5
tp177
sS'subclass'
p178
(lp179
S'NR_subcl'
p180
aS'NR_subcl'
p181
aS'NR_subcl'
p182
aS'NR_subcl'
p183
ag10
aS'STD-NR_subcl'
p184
aS'STD-NR_subcl'
p185
aS'STD-NR_subcl'
p186
aS'STD-NR_subcl'
p187
aS'STD-NR_subcl'
p188
aS'STD-NR_subcl'
p189
ag12
asS'subject'
p190
(S'S210421121677'
p191
S'S210421121678'
p192
S'S210421121679'
p193
S'S210421121680'
p194
S'S210421121681'
p195
S'S210421121685'
p196
S'S210421121686'
p197
S'S210421121687'
p198
S'S210421121703'
p199
S'S210421121704'
p200
S'S210421121705'
p201
S'S210421121706'
p202
tp203
ss.