(dp0
S'class_sl'
p1
(dp2
S'NR'
p3
(I0
I5
tp4
sS'STD-NR'
p5
(I5
I12
tp6
ssS'class_hierarchy'
p7
(dp8
g3
(lp9
S'NR_subcl'
p10
asg5
(lp11
S'STD-NR_subcl'
p12
assS'feats'
p13
(dp14
S'Bacteria.Firmicutes.Bacilli.Acholeplasmatales'
p15
(lp16
F0.0
aF0.0
aF0.0
aF0.0
aF0.0
aF0.0
aF215.3432032301481
aF0.0
aF1705.083675402589
aF0.0
aF0.0
aF0.0
asS'Bacteria.Firmicutes.Bacilli.Lactobacillales.Streptococcaceae'
p17
(lp18
F408.6723682138037
aF2133.238522732323
aF361.16347492116074
aF1875.0616796605145
aF2294.8977450429543
aF180.1233845183951
aF0.0
aF0.0
aF4357.436059362172
aF0.0
aF894.3870940778202
aF787.9536808197494
asS'Bacteria.Cyanobacteria.Vampirivibrionia.Gastranaerophilales.Gastranaerophilales'
p19
(lp20
F0.0
aF814.7786024324845
aF0.0
aF164.4790947070627
aF440.02464137991745
aF4401.76520916828
aF6406.460296096906
aF0.0
aF1073.57120303126
aF0.0
aF0.0
aF111.07717086445807
asS'Bacteria.Firmicutes.Clostridia.Oscillospirales.Ruminococcaceae.uncultured.uncultured_bacterium'
p21
(lp22
F0.0
aF0.0
aF0.0
aF575.6768314747195
aF182.77946641935034
aF540.3701535551853
aF0.0
aF0.0
aF0.0
aF0.0
aF397.0409997074435
aF0.0
asS'Bacteria.Firmicutes.Clostridia.Lachnospirales.Lachnospiraceae.Lachnospiraceae_UCG_006'
p23
(lp24
F0.0
aF0.0
aF0.0
aF910.1176573790802
aF419.71581177776744
aF1198.9462782005676
aF2279.0489008524005
aF1183.1264654634629
aF0.0
aF0.0
aF0.0
aF298.51989669823104
asS'Bacteria.Firmicutes.Clostridia.Lachnospirales.Lachnospiraceae.Lachnospiraceae_UCG_001'
p25
(lp26
F0.0
aF0.0
aF0.0
aF0.0
aF0.0
aF0.0
aF0.0
aF3872.050250607697
aF0.0
aF0.0
aF0.0
aF0.0
asS'Bacteria.Actinobacteriota.Actinobacteria.Bifidobacteriales.Bifidobacteriaceae.Bifidobacterium.Bifidobacterium_animalis'
p27
(lp28
F0.0
aF0.0
aF0.0
aF6129.587596083203
aF0.0
aF2516.098527491332
aF1345.8950201884256
aF0.0
aF884.117461319861
aF0.0
aF0.0
aF1982.0332676126736
asS'Bacteria.Bacteroidota.Bacteroidia.Bacteroidales.Prevotellaceae.Prevotellaceae_Ga6A1_group.uncultured_bacterium'
p29
(lp30
F0.0
aF0.0
aF0.0
aF0.0
aF0.0
aF0.0
aF0.0
aF0.0
aF0.0
aF0.0
aF20441.34241651691
aF0.0
asS'Archaea.Euryarchaeota.Methanobacteria.Methanobacteriales'
p31
(lp32
F0.0
aF0.0
aF0.0
aF0.0
aF0.0
aF0.0
aF0.0
aF0.0
aF0.0
aF0.0
aF83.58757888577757
aF461.6644914054038
asS'Bacteria.Bacteroidota.Bacteroidia.Bacteroidales.Marinifilaceae.Odoribacter'
p33
(lp34
F0.0
aF0.0
aF0.0
aF0.0
aF0.0
aF0.0
aF0.0
aF0.0
aF0.0
aF0.0
aF37.614410498599916
aF86.77903973785786
asS'Bacteria.Verrucomicrobiota.Verrucomicrobiae.Verrucomicrobiales.Akkermansiaceae.Akkermansia'
p35
(lp36
F135836.73538889855
aF0.0
aF0.0
aF268.64918802153574
aF40.61765920430007
aF7908.542351510786
aF466.57694033198754
aF16692.838858175404
aF0.0
aF0.0
aF0.0
aF0.0
asS'Bacteria.Firmicutes.Clostridia.Oscillospirales.Oscillospiraceae.UCG_005.uncultured_rumen'
p37
(lp38
F0.0
aF0.0
aF0.0
aF0.0
aF0.0
aF236.41194218039362
aF0.0
aF0.0
aF0.0
aF0.0
aF0.0
aF0.0
asS'Bacteria.Firmicutes.Bacilli.Bacillales.Bacillaceae.Bacillus'
p39
(lp40
F0.0
aF0.0
aF0.0
aF0.0
aF0.0
aF0.0
aF0.0
aF0.0
aF0.0
aF0.0
aF0.0
aF79.83671655882924
asS'Bacteria.Firmicutes.Clostridia.Christensenellales.Christensenellaceae.Christensenellaceae_R_7_group.uncultured_prokaryote'
p41
(lp42
F0.0
aF0.0
aF0.0
aF0.0
aF0.0
aF365.8756248029901
aF538.3580080753702
aF1333.70619743154
aF0.0
aF0.0
aF0.0
aF1332.9260503734965
asS'Bacteria.Firmicutes.Negativicutes.Veillonellales_Selenomonadales.Veillonellaceae'
p43
(lp44
F0.0
aF0.0
aF0.0
aF0.0
aF0.0
aF0.0
aF0.0
aF0.0
aF0.0
aF0.0
aF522.4223680361099
aF152.73110993862983
asS'Bacteria.Firmicutes.Clostridia.Clostridia.Hungateiclostridiaceae'
p45
(lp46
F0.0
aF0.0
aF0.0
aF0.0
aF0.0
aF112.57711532399695
aF0.0
aF0.0
aF0.0
aF0.0
aF0.0
aF76.36555496931491
asS'Bacteria.Firmicutes.Clostridia.Oscillospirales.Ruminococcaceae.Anaerofilum'
p47
(lp48
F0.0
aF0.0
aF0.0
aF0.0
aF0.0
aF84.43283649299772
aF0.0
aF0.0
aF0.0
aF0.0
aF0.0
aF65.95207020077197
asS'Bacteria.Firmicutes.Bacilli.Lactobacillales.Lactobacillaceae.Lactobacillus'
p49
(lp50
F6198.197584576023
aF14888.227189902671
aF6540.582442169802
aF17763.74222836277
aF6404.050934544644
aF32512.27090557032
aF28443.248093315393
aF265966.8294361864
aF112788.12756551942
aF363394.4411590775
aF8517.574288460735
aF6178.667629335479
asS'Bacteria.Actinobacteriota.Actinobacteria.Bifidobacteriales'
p51
(lp52
F0.0
aF0.0
aF0.0
aF6129.587596083203
aF0.0
aF2825.6855946323235
aF1345.8950201884256
aF0.0
aF884.117461319861
aF0.0
aF0.0
aF1982.0332676126736
asS'Bacteria.Firmicutes.Clostridia.Oscillospirales.Oscillospiraceae.UCG_003.uncultured_bacterium'
p53
(lp54
F0.0
aF814.7786024324845
aF0.0
aF0.0
aF0.0
aF0.0
aF0.0
aF0.0
aF0.0
aF0.0
aF0.0
aF0.0
asS'Bacteria.Desulfobacterota.Desulfovibrionia'
p55
(lp56
F0.0
aF0.0
aF0.0
aF0.0
aF0.0
aF0.0
aF0.0
aF0.0
aF0.0
aF0.0
aF3723.8266393613912
aF3405.2095193135424
asS'Bacteria.Firmicutes.Bacilli.Erysipelotrichales.Erysipelotrichaceae.Faecalibaculum'
p57
(lp58
F0.0
aF0.0
aF0.0
aF487.9546476309527
aF0.0
aF0.0
aF0.0
aF0.0
aF1452.4786864540577
aF0.0
aF0.0
aF118.01949404348669
asS'Bacteria.Bacteroidota.Bacteroidia.Bacteroidales.Marinifilaceae'
p59
(lp60
F0.0
aF0.0
aF0.0
aF0.0
aF0.0
aF0.0
aF0.0
aF0.0
aF0.0
aF0.0
aF388.68224181886575
aF86.77903973785786
asS'Bacteria.Cyanobacteria.Vampirivibrionia'
p61
(lp62
F0.0
aF814.7786024324845
aF0.0
aF164.4790947070627
aF440.02464137991745
aF4401.76520916828
aF6406.460296096906
aF0.0
aF1073.57120303126
aF0.0
aF0.0
aF111.07717086445807
asS'Bacteria.Firmicutes.Clostridia.Oscillospirales.Ruminococcaceae.Incertae_Sedis'
p63
(lp64
F310.7612799959132
aF0.0
aF0.0
aF0.0
aF324.94127363440055
aF315.21592290719144
aF0.0
aF0.0
aF0.0
aF0.0
aF631.0862205876207
aF152.73110993862983
asS'Bacteria.Bacteroidota.Bacteroidia.Bacteroidales.Muribaculaceae.Muribaculaceae'
p65
(lp66
F104454.10311314688
aF175755.15162289081
aF43348.42585578128
aF34474.81825060034
aF80774.98493761808
aF108636.91628765706
aF92023.32884701662
aF7206.315744186547
aF0.0
aF5913.660555884093
aF117762.36051322774
aF68388.82563661103
asS'Bacteria.Firmicutes.Clostridia.Lachnospirales.Lachnospiraceae.Frisingicoccus'
p67
(lp68
F0.0
aF666.6370383538509
aF110.11081552474414
aF0.0
aF162.47063681720027
aF422.1641824649886
aF0.0
aF0.0
aF0.0
aF0.0
aF2081.330714255862
aF0.0
asS'Bacteria.Proteobacteria.Gammaproteobacteria.Pasteurellales'
p69
(lp70
F0.0
aF0.0
aF0.0
aF0.0
aF0.0
aF0.0
aF0.0
aF1204.637855744617
aF0.0
aF0.0
aF1391.7331884481966
aF666.4630251867483
asS'Bacteria.Firmicutes.Clostridia.Oscillospirales.Oscillospiraceae.UCG_007'
p71
(lp72
F0.0
aF0.0
aF0.0
aF0.0
aF0.0
aF129.4636826225965
aF0.0
aF0.0
aF0.0
aF0.0
aF0.0
aF256.86595762405926
asS'Bacteria.Proteobacteria.Gammaproteobacteria.Pseudomonadales.Moraxellaceae.Acinetobacter'
p73
(lp74
F0.0
aF0.0
aF0.0
aF0.0
aF0.0
aF33.77313459719908
aF0.0
aF0.0
aF2083.9911588253867
aF0.0
aF0.0
aF0.0
asS'Bacteria.Firmicutes.Clostridia.Clostridia_vadinBB60_group'
p75
(lp76
F0.0
aF474.05300505162734
aF114.5152481457339
aF350.8887353750671
aF264.01478482795045
aF816.1840860989778
aF0.0
aF731.3872695592316
aF315.75623618566465
aF0.0
aF3753.0822919714133
aF173.55807947571572
asS'Bacteria.Firmicutes.Bacilli.Erysipelotrichales.Erysipelatoclostridiaceae.UCG_004'
p77
(lp78
F0.0
aF0.0
aF26.426595725938594
aF76.75691086329593
aF0.0
aF219.52537488179405
aF215.3432032301481
aF494.76197646653907
aF0.0
aF0.0
aF0.0
aF20.826969537085883
asS'Bacteria.Firmicutes.Clostridia.Oscillospirales.Oscillospiraceae.Colidextribacter'
p79
(lp80
F587.4665293073427
aF770.3361332088944
aF1752.9641831539268
aF904.6350208888448
aF1008.6718702401184
aF1598.5950376007565
aF0.0
aF0.0
aF0.0
aF0.0
aF0.0
aF142.31762517008687
asS'Bacteria.Bacteroidota.Bacteroidia.Bacteroidales.Tannerellaceae'
p81
(lp82
F25197.205702682335
aF2029.5394278772794
aF27545.32161166999
aF1655.756220051098
aF2321.976184512487
aF945.6477687215745
aF2781.5163750560796
aF0.0
aF0.0
aF0.0
aF27475.237179755088
aF492.90494571103267
asS'Bacteria.Firmicutes.Clostridia.Peptostreptococcales_Tissierellales.Anaerovoracaceae.Family_XIII_UCG_001.uncultured_bacterium'
p83
(lp84
F0.0
aF0.0
aF0.0
aF148.03118523635644
aF0.0
aF84.43283649299772
aF0.0
aF1269.1720265880783
aF0.0
aF0.0
aF0.0
aF62.480908611257654
asS'Bacteria.Bacteroidota.Bacteroidia.Bacteroidales.Muribaculaceae'
p85
(lp86
F497724.6314498928
aF437387.96794216556
aF396883.4234773878
aF528262.9911071635
aF497112.7613915612
aF534746.9266447517
aF568452.2207267834
aF166455.13799556866
aF8841.174613198611
aF146658.7817859255
aF397914.48990679986
aF491165.89375468594
asS'Bacteria.Proteobacteria.Alphaproteobacteria.Rhizobiales'
p87
(lp88
F38.31303452004409
aF0.0
aF74.87535455682601
aF0.0
aF0.0
aF0.0
aF0.0
aF0.0
aF1894.537417113988
aF0.0
aF0.0
aF211.74085696037318
asS'Bacteria.Bacteroidota.Bacteroidia.Bacteroidales.Muribaculaceae.Muribaculaceae.uncultured_Bacteroidales'
p89
(lp90
F3699.336333102035
aF2296.19424321882
aF1118.7258857314005
aF17522.506222792414
aF7622.5807106736465
aF7362.543342189401
aF2709.735307312697
aF2495.321272613849
aF0.0
aF0.0
aF0.0
aF0.0
asS'Bacteria.Firmicutes.Clostridia.Lachnospirales.Defluviitaleaceae.Defluviitaleaceae_UCG_011'
p91
(lp92
F0.0
aF0.0
aF0.0
aF0.0
aF385.8677624408507
aF281.44278830999235
aF0.0
aF215.1139028115387
aF0.0
aF0.0
aF0.0
aF45.12510066368609
asS'Bacteria.Actinobacteriota.Actinobacteria.Corynebacteriales'
p93
(lp94
F0.0
aF0.0
aF0.0
aF0.0
aF372.32854270608397
aF0.0
aF0.0
aF0.0
aF0.0
aF0.0
aF0.0
aF0.0
asS'Bacteria.Verrucomicrobiota'
p95
(lp96
F135836.73538889855
aF0.0
aF0.0
aF268.64918802153574
aF40.61765920430007
aF7908.542351510786
aF466.57694033198754
aF16692.838858175404
aF0.0
aF0.0
aF0.0
aF0.0
asS'Bacteria.Firmicutes.Clostridia.Lachnospirales.Lachnospiraceae.Tuzzerella'
p97
(lp98
F0.0
aF0.0
aF0.0
aF0.0
aF0.0
aF422.1641824649886
aF0.0
aF0.0
aF0.0
aF0.0
aF0.0
aF138.8464635805726
asS'Bacteria.Firmicutes.Clostridia.Oscillospirales.Ruminococcaceae.Candidatus_Soleaferrea'
p99
(lp100
F0.0
aF0.0
aF0.0
aF0.0
aF0.0
aF0.0
aF0.0
aF0.0
aF0.0
aF0.0
aF417.9378944288879
aF104.13484768542942
asS'Bacteria.Firmicutes.Clostridia.Oscillospirales.Oscillospiraceae.UCG_007.uncultured_bacterium'
p101
(lp102
F0.0
aF0.0
aF0.0
aF0.0
aF0.0
aF129.4636826225965
aF0.0
aF0.0
aF0.0
aF0.0
aF0.0
aF256.86595762405926
asS'Bacteria.Bacteroidota.Bacteroidia.Bacteroidales.Muribaculaceae.Muribaculaceae.uncultured_Barnesiella'
p103
(lp104
F0.0
aF0.0
aF0.0
aF0.0
aF0.0
aF0.0
aF0.0
aF0.0
aF0.0
aF3843.87936132466
aF1132.611693902286
aF6567.437727361083
asS'Bacteria.Bacteroidota.Bacteroidia.Bacteroidales'
p105
(lp106
F806846.9649691151
aF790068.5895441682
aF857736.826342031
aF598928.6928298078
aF885106.1813307703
aF555883.2800468322
aF699004.0376850608
aF184395.63749005098
aF9472.687085569938
aF193081.01714961563
aF769009.905128098
aF519063.6194496125
asS'Bacteria.Firmicutes.Clostridia.Oscillospirales.Oscillospiraceae.Intestinimonas.Intestinimonas_butyriciproducens'
p107
(lp108
F0.0
aF0.0
aF0.0
aF0.0
aF0.0
aF0.0
aF0.0
aF0.0
aF0.0
aF0.0
aF62.690684164333184
aF0.0
asS'Bacteria.Cyanobacteria'
p109
(lp110
F0.0
aF814.7786024324845
aF0.0
aF164.4790947070627
aF440.02464137991745
aF4401.76520916828
aF6406.460296096906
aF0.0
aF1073.57120303126
aF0.0
aF0.0
aF111.07717086445807
asS'Bacteria.Firmicutes.Bacilli.Izemoplasmatales'
p111
(lp112
F0.0
aF0.0
aF0.0
aF0.0
aF0.0
aF236.41194218039362
aF0.0
aF0.0
aF0.0
aF0.0
aF0.0
aF0.0
asS'Bacteria.Firmicutes.Clostridia.Peptococcales'
p113
(lp114
F225.6212032847041
aF0.0
aF1131.93918359437
aF619.5379233966029
aF318.1716637670172
aF6850.317467465214
aF2799.4616419919253
aF516.2733667476929
aF1326.1761919797916
aF0.0
aF0.0
aF236.03898808697338
asS'Bacteria.Firmicutes.Clostridia.Lachnospirales.Lachnospiraceae.Hungatella'
p115
(lp116
F0.0
aF0.0
aF0.0
aF0.0
aF0.0
aF0.0
aF0.0
aF0.0
aF0.0
aF0.0
aF14397.96046307519
aF0.0
asS'Bacteria.Firmicutes.Bacilli.Staphylococcales.Staphylococcaceae.Jeotgalicoccus'
p117
(lp118
F0.0
aF0.0
aF176.17730483959065
aF213.8228231191815
aF582.1864485949676
aF0.0
aF0.0
aF0.0
aF0.0
aF0.0
aF0.0
aF0.0
asS'Bacteria.Firmicutes.Clostridia.Oscillospirales.Ruminococcaceae.UBA1819'
p119
(lp120
F0.0
aF0.0
aF0.0
aF0.0
aF0.0
aF0.0
aF0.0
aF774.4100501215393
aF0.0
aF0.0
aF0.0
aF0.0
asS'Bacteria.Firmicutes.Clostridia.Oscillospirales.Ruminococcaceae.Anaerofilum.uncultured_bacterium'
p121
(lp122
F0.0
aF0.0
aF0.0
aF0.0
aF0.0
aF84.43283649299772
aF0.0
aF0.0
aF0.0
aF0.0
aF0.0
aF65.95207020077197
asS'Bacteria.Firmicutes.Clostridia.Clostridia_UCG_014.Clostridia_UCG_014.Clostridia_UCG_014.uncultured_bacterium'
p123
(lp124
F0.0
aF0.0
aF0.0
aF82.23954735353135
aF0.0
aF13982.077723240422
aF7842.081650964559
aF4754.017252135006
aF14840.54310072624
aF0.0
aF0.0
aF7782.344283691093
asS'Bacteria.Firmicutes.Clostridia.Oscillospirales.UCG_010'
p125
(lp126
F0.0
aF399.98222301231056
aF0.0
aF422.1630097481276
aF284.3236144301005
aF4283.559238078083
aF933.1538806639751
aF0.0
aF0.0
aF0.0
aF121.2019893843775
aF2231.956902057704
asS'Bacteria.Firmicutes.Negativicutes.Veillonellales_Selenomonadales.Selenomonadaceae'
p127
(lp128
F0.0
aF0.0
aF0.0
aF0.0
aF0.0
aF0.0
aF0.0
aF0.0
aF0.0
aF0.0
aF7096.585447402516
aF1044.8196384438086
asS'Bacteria.Firmicutes.Clostridia.Oscillospirales.UCG_010.UCG_010.unidentified'
p129
(lp130
F0.0
aF399.98222301231056
aF0.0
aF131.58327576565014
aF169.24024668458364
aF2054.5323546629443
aF628.0843427545987
aF0.0
aF0.0
aF0.0
aF0.0
aF267.27944239260216
asS'Bacteria.Proteobacteria.Alphaproteobacteria.Rickettsiales.Mitochondria'
p131
(lp132
F0.0
aF0.0
aF0.0
aF76.75691086329593
aF0.0
aF90.06169225919756
aF0.0
aF0.0
aF0.0
aF0.0
aF0.0
aF0.0
asS'Bacteria.Proteobacteria.Alphaproteobacteria.Sphingomonadales.Sphingomonadaceae.Sphingomonas'
p133
(lp134
F0.0
aF0.0
aF0.0
aF0.0
aF0.0
aF0.0
aF0.0
aF0.0
aF0.0
aF0.0
aF0.0
aF65.95207020077197
asS'Bacteria.Elusimicrobiota'
p135
(lp136
F0.0
aF0.0
aF0.0
aF0.0
aF0.0
aF0.0
aF0.0
aF0.0
aF0.0
aF0.0
aF91.94633677435534
aF190.9138874232873
asS'Bacteria.Proteobacteria.Gammaproteobacteria.Pseudomonadales.Pseudomonadaceae'
p137
(lp138
F0.0
aF0.0
aF290.69255298532454
aF82.23954735353135
aF148.9314170824336
aF0.0
aF0.0
aF0.0
aF5999.368487527629
aF0.0
aF0.0
aF572.7416622698619
asS'Bacteria.Firmicutes.Bacilli.Izemoplasmatales.Izemoplasmatales'
p139
(lp140
F0.0
aF0.0
aF0.0
aF0.0
aF0.0
aF236.41194218039362
aF0.0
aF0.0
aF0.0
aF0.0
aF0.0
aF0.0
asS'Bacteria.Proteobacteria.Gammaproteobacteria.Pseudomonadales.Pseudomonadaceae.Pseudomonas'
p141
(lp142
F0.0
aF0.0
aF290.69255298532454
aF82.23954735353135
aF148.9314170824336
aF0.0
aF0.0
aF0.0
aF5999.368487527629
aF0.0
aF0.0
aF572.7416622698619
asS'Bacteria.Firmicutes.Clostridia.uncultured.uncultured.uncultured.uncultured_bacterium'
p143
(lp144
F0.0
aF0.0
aF0.0
aF1293.9022116955598
aF0.0
aF0.0
aF0.0
aF0.0
aF0.0
aF0.0
aF0.0
aF114.54833245397236
asS'Bacteria.Actinobacteriota.Actinobacteria.Micrococcales.Micrococcaceae'
p145
(lp146
F0.0
aF0.0
aF0.0
aF0.0
aF0.0
aF90.06169225919756
aF0.0
aF0.0
aF1768.234922639722
aF0.0
aF121.2019893843775
aF128.43297881202963
asS'Bacteria.Actinobacteriota'
p147
(lp148
F55.341049862285914
aF992.5484793268447
aF105.70638290375437
aF9177.933484654097
aF2355.824233849404
aF3698.1582383933
aF1561.2382234185736
aF5442.381741131929
aF26144.61635617303
aF0.0
aF593.4718100890208
aF4137.6246147010625
asS'Bacteria.Proteobacteria.Gammaproteobacteria.Burkholderiales'
p149
(lp150
F5729.927162664372
aF903.6635408796647
aF3673.2968059054647
aF794.9822910841364
aF1435.1572918852692
aF3405.4577385509083
aF2225.213100044864
aF430.2278056230774
aF20397.852857593938
aF0.0
aF5566.932753792787
aF2662.3809391574787
asS'Bacteria.Firmicutes.Clostridia.Oscillospirales.Ruminococcaceae.Ruminococcus'
p151
(lp152
F0.0
aF22339.74786305794
aF924.9308504078508
aF3196.3770738072517
aF25697.439056587176
aF7109.2448327104075
aF5796.321220278153
aF0.0
aF4610.041048310704
aF0.0
aF0.0
aF39362.972425092325
asS'Bacteria.Firmicutes.Clostridia.Lachnospirales.Lachnospiraceae.ASF356'
p153
(lp154
F0.0
aF0.0
aF0.0
aF0.0
aF0.0
aF151.9791056873959
aF0.0
aF0.0
aF0.0
aF0.0
aF0.0
aF0.0
asS'Bacteria.Firmicutes.Clostridia.Christensenellales'
p155
(lp156
F144.7381304090555
aF0.0
aF0.0
aF263.1665515313003
aF74.4657085412168
aF4002.116449768091
aF1938.0888290713328
aF1333.70619743154
aF177581.3072308178
aF0.0
aF0.0
aF2888.0064424759094
asS'Bacteria.Bacteroidota.Bacteroidia.Bacteroidales.Prevotellaceae.Prevotellaceae_Ga6A1_group'
p157
(lp158
F0.0
aF0.0
aF0.0
aF0.0
aF0.0
aF0.0
aF0.0
aF0.0
aF0.0
aF0.0
aF20441.34241651691
aF0.0
asS'Bacteria.Patescibacteria.Saccharimonadia.Saccharimonadales.Saccharimonadaceae.Candidatus_Saccharimonas.uncultured_bacterium'
p159
(lp160
F0.0
aF0.0
aF0.0
aF948.4961128107282
aF0.0
aF332.102490205791
aF0.0
aF2151.139028115387
aF15787.811809283234
aF2956.8302779420465
aF0.0
aF22791.646996750987
asS'Bacteria.Bacteroidota.Bacteroidia.Bacteroidales.Prevotellaceae.Prevotella'
p161
(lp162
F0.0
aF0.0
aF0.0
aF0.0
aF0.0
aF0.0
aF0.0
aF0.0
aF0.0
aF0.0
aF130388.26430392446
aF781.0113576407208
asS'Bacteria.Firmicutes.Bacilli.Lactobacillales.Streptococcaceae.Streptococcus'
p163
(lp164
F408.6723682138037
aF1970.2828022458261
aF268.6703898803757
aF1875.0616796605145
aF2294.8977450429543
aF180.1233845183951
aF0.0
aF0.0
aF4357.436059362172
aF0.0
aF221.5070840473106
aF0.0
asS'Bacteria.Bacteroidota.Bacteroidia.Bacteroidales.Prevotellaceae'
p165
(lp166
F0.0
aF0.0
aF0.0
aF0.0
aF0.0
aF0.0
aF0.0
aF0.0
aF0.0
aF0.0
aF4350.733481004723
aF1197.5507483824383
asS'Bacteria.Firmicutes.Clostridia.Lachnospirales.Lachnospiraceae.Anaerostipes.Anaerostipes_sp_'
p167
(lp168
F0.0
aF0.0
aF57.25762407286695
aF0.0
aF0.0
aF0.0
aF0.0
aF0.0
aF0.0
aF0.0
aF0.0
aF0.0
asS'Bacteria.Firmicutes.Clostridia.Lachnospirales.Lachnospiraceae.Lachnospiraceae_UCG_001.unidentified'
p169
(lp170
F0.0
aF0.0
aF0.0
aF0.0
aF0.0
aF0.0
aF0.0
aF5549.938692537699
aF0.0
aF0.0
aF0.0
aF0.0
asS'Bacteria.Proteobacteria.Gammaproteobacteria.Burkholderiales.Burkholderiaceae'
p171
(lp172
F0.0
aF0.0
aF110.11081552474414
aF537.2983760430715
aF135.3921973476669
aF78.80398072679786
aF0.0
aF0.0
aF5809.914745816231
aF0.0
aF171.35453671584403
aF267.27944239260216
asS'Bacteria.Proteobacteria.Gammaproteobacteria.Enterobacterales.Morganellaceae.Proteus'
p173
(lp174
F119.19610739569274
aF0.0
aF0.0
aF0.0
aF0.0
aF0.0
aF0.0
aF0.0
aF0.0
aF0.0
aF238.2245998244661
aF0.0
asS'Bacteria.Firmicutes.Clostridia.Lachnospirales.Lachnospiraceae.Eisenbergiella'
p175
(lp176
F0.0
aF0.0
aF0.0
aF0.0
aF0.0
aF0.0
aF0.0
aF0.0
aF0.0
aF0.0
aF1918.3349354285956
aF0.0
asS'Bacteria.Firmicutes.Clostridia.Oscillospirales.Ruminococcaceae.uncultured._Clostridium__leptum'
p177
(lp178
F0.0
aF0.0
aF0.0
aF1595.447218658508
aF0.0
aF78.80398072679786
aF0.0
aF0.0
aF0.0
aF0.0
aF0.0
aF0.0
asS'Bacteria.Desulfobacterota.Desulfovibrionia.Desulfovibrionales.Desulfovibrionaceae'
p179
(lp180
F0.0
aF0.0
aF0.0
aF0.0
aF0.0
aF0.0
aF0.0
aF0.0
aF0.0
aF0.0
aF3723.8266393613912
aF3405.2095193135424
asS'Bacteria.Proteobacteria.Gammaproteobacteria.Pseudomonadales'
p181
(lp182
F0.0
aF0.0
aF290.69255298532454
aF164.4790947070627
aF148.9314170824336
aF33.77313459719908
aF0.0
aF0.0
aF8083.359646353017
aF0.0
aF0.0
aF572.7416622698619
asS'Bacteria.Firmicutes.Clostridia.Oscillospirales.Butyricicoccaceae.UCG_008'
p183
(lp184
F0.0
aF0.0
aF0.0
aF0.0
aF0.0
aF0.0
aF0.0
aF1936.0251253038484
aF0.0
aF0.0
aF0.0
aF0.0
asS'Bacteria.Firmicutes.Clostridia.Oscillospirales.Butyricicoccaceae.UCG_009'
p185
(lp186
F0.0
aF0.0
aF237.83936153344735
aF158.99645821682728
aF88.00492827598349
aF529.1124420227856
aF0.0
aF1527.3087099619247
aF0.0
aF0.0
aF0.0
aF135.37530199105828
asS'Bacteria.Proteobacteria.Alphaproteobacteria.Rhizobiales.Beijerinckiaceae'
p187
(lp188
F0.0
aF0.0
aF0.0
aF0.0
aF0.0
aF0.0
aF0.0
aF0.0
aF884.117461319861
aF0.0
aF0.0
aF0.0
asS'Bacteria.Firmicutes.Bacilli.Lactobacillales.Lactobacillaceae.Lactobacillus.Lactobacillus_intestinalis'
p189
(lp190
F2264.726040518162
aF2014.7252714694162
aF4910.942372403589
aF22149.85142055111
aF2870.3145837705383
aF3101.499527176116
aF0.0
aF0.0
aF17998.105462582884
aF0.0
aF405.39975759602123
aF329.76035100385985
asS'Bacteria.Firmicutes.Clostridia.Monoglobales.Monoglobaceae.Monoglobus.uncultured_rumen'
p191
(lp192
F0.0
aF0.0
aF0.0
aF0.0
aF0.0
aF0.0
aF0.0
aF0.0
aF5873.065993053363
aF0.0
aF0.0
aF0.0
asS'Bacteria.Actinobacteriota.Actinobacteria.Corynebacteriales.Corynebacteriaceae.Corynebacterium'
p193
(lp194
F0.0
aF0.0
aF0.0
aF0.0
aF372.32854270608397
aF0.0
aF0.0
aF0.0
aF0.0
aF0.0
aF0.0
aF0.0
asS'Bacteria.Deferribacterota.Deferribacteres'
p195
(lp196
F0.0
aF0.0
aF0.0
aF87.72218384376677
aF0.0
aF67.54626919439816
aF0.0
aF0.0
aF0.0
aF0.0
aF0.0
aF0.0
asS'Bacteria.Deferribacterota.Deferribacteres.Deferribacterales.Deferribacteraceae.Mucispirillum.Mucispirillum_schaedleri'
p197
(lp198
F0.0
aF0.0
aF0.0
aF87.72218384376677
aF0.0
aF67.54626919439816
aF0.0
aF0.0
aF0.0
aF0.0
aF0.0
aF0.0
asS'Bacteria.Firmicutes.Clostridia.Lachnospirales.Lachnospiraceae.Lachnoclostridium.Extibacter_muris'
p199
(lp200
F0.0
aF0.0
aF0.0
aF0.0
aF0.0
aF0.0
aF0.0
aF0.0
aF0.0
aF0.0
aF1203.6611359551973
aF0.0
asS'Bacteria.Firmicutes.Clostridia.Lachnospirales.Lachnospiraceae.Lachnospiraceae_NK4A136_group.uncultured_bacterium'
p201
(lp202
F0.0
aF0.0
aF0.0
aF263.1665515313003
aF0.0
aF816.1840860989779
aF0.0
aF2817.9921268311573
aF0.0
aF0.0
aF0.0
aF0.0
asS'Bacteria.Verrucomicrobiota.Verrucomicrobiae.Verrucomicrobiales'
p203
(lp204
F135836.73538889855
aF0.0
aF0.0
aF268.64918802153574
aF40.61765920430007
aF7908.542351510786
aF466.57694033198754
aF16692.838858175404
aF0.0
aF0.0
aF0.0
aF0.0
asS'Bacteria.Firmicutes.Negativicutes.Veillonellales_Selenomonadales.Selenomonadaceae.Quinella'
p205
(lp206
F0.0
aF0.0
aF0.0
aF0.0
aF0.0
aF0.0
aF0.0
aF0.0
aF0.0
aF0.0
aF7096.585447402516
aF1044.8196384438086
asS'Bacteria.Cyanobacteria.Vampirivibrionia.Gastranaerophilales.Gastranaerophilales.Gastranaerophilales.Acinetobacter_sp_'
p207
(lp208
F0.0
aF0.0
aF0.0
aF0.0
aF0.0
aF0.0
aF1866.3077613279502
aF0.0
aF0.0
aF0.0
aF0.0
aF0.0
asS'Bacteria.Firmicutes.Clostridia.Oscillospirales.Butyricicoccaceae.Butyricicoccus.bacterium_NLAE_zl_H60'
p209
(lp210
F0.0
aF0.0
aF0.0
aF0.0
aF0.0
aF0.0
aF0.0
aF0.0
aF0.0
aF0.0
aF2904.668366280771
aF0.0
asS'Bacteria.Firmicutes.Clostridia.Lachnospirales.Lachnospiraceae.Blautia'
p211
(lp212
F63.85505753340682
aF0.0
aF709.1136519793523
aF98.68745682423761
aF0.0
aF0.0
aF0.0
aF0.0
aF0.0
aF0.0
aF22656.413256990014
aF79.83671655882924
asS'Bacteria.Firmicutes.Clostridia.Oscillospirales.Oscillospiraceae.NK4A214_group.unidentified'
p213
(lp214
F170.2801534224182
aF0.0
aF268.6703898803757
aF109.65272980470846
aF88.00492827598349
aF2369.7482775701355
aF394.7958725886048
aF1914.5137350226944
aF0.0
aF0.0
aF0.0
aF256.86595762405926
asS'Bacteria.Deferribacterota.Deferribacteres.Deferribacterales.Deferribacteraceae'
p215
(lp216
F0.0
aF0.0
aF0.0
aF87.72218384376677
aF0.0
aF67.54626919439816
aF0.0
aF0.0
aF0.0
aF0.0
aF0.0
aF0.0
asS'Bacteria.Firmicutes.Clostridia.Oscillospirales.Oscillospiraceae.UCG_003'
p217
(lp218
F0.0
aF814.7786024324845
aF0.0
aF0.0
aF0.0
aF0.0
aF0.0
aF0.0
aF0.0
aF0.0
aF0.0
aF0.0
asS'Bacteria.Firmicutes.Clostridia.Oscillospirales.Oscillospiraceae.UCG_005'
p219
(lp220
F0.0
aF385.1680666044472
aF409.6122337520482
aF603.0900139258965
aF128.62258748028356
aF416.5353266987887
aF0.0
aF301.1594639361542
aF0.0
aF0.0
aF0.0
aF520.6742384271471
asS'Bacteria.Firmicutes.Clostridia.Christensenellales.Christensenellaceae.uncultured.uncultured_bacterium'
p221
(lp222
F0.0
aF0.0
aF0.0
aF115.13536629494388
aF0.0
aF0.0
aF0.0
aF0.0
aF0.0
aF0.0
aF0.0
aF298.51989669823104
asS'Bacteria.Firmicutes.Clostridia.Peptostreptococcales_Tissierellales.Anaerovoracaceae'
p223
(lp224
F0.0
aF0.0
aF0.0
aF0.0
aF0.0
aF118.20597109019681
aF0.0
aF1032.5467334953858
aF1894.537417113988
aF0.0
aF0.0
aF0.0
asS'Bacteria.Firmicutes.Bacilli.RF39'
p225
(lp226
F0.0
aF0.0
aF726.7313824633113
aF0.0
aF0.0
aF4925.248795424866
aF861.3728129205924
aF24673.56465248349
aF11872.43448058099
aF0.0
aF41.79378944288879
aF6123.129043903251
asS'Bacteria.Bacteroidota.Bacteroidia.Bacteroidales.Rikenellaceae.Rikenella.uncultured_bacterium'
p227
(lp228
F0.0
aF0.0
aF0.0
aF0.0
aF0.0
aF0.0
aF0.0
aF0.0
aF0.0
aF0.0
aF430.4760312617546
aF0.0
asS'Bacteria.Bacteroidota.Bacteroidia.Bacteroidales.Rikenellaceae.Alistipes.Alistipes_finegoldii'
p229
(lp230
F0.0
aF2103.6102099165964
aF237.83936153344735
aF0.0
aF1428.3876820178857
aF377.1333363353898
aF0.0
aF0.0
aF0.0
aF0.0
aF0.0
aF0.0
asS'Bacteria.Firmicutes.Clostridia.Lachnospirales.Lachnospiraceae.Tyzzerella'
p231
(lp232
F0.0
aF0.0
aF0.0
aF0.0
aF0.0
aF0.0
aF0.0
aF150.5797319680771
aF0.0
aF0.0
aF0.0
aF0.0
asS'Bacteria.Proteobacteria.Alphaproteobacteria.Rhodospirillales.uncultured.uncultured'
p233
(lp234
F0.0
aF0.0
aF0.0
aF0.0
aF0.0
aF174.4945287521953
aF0.0
aF0.0
aF0.0
aF0.0
aF1776.2360513227738
aF0.0
asS'Bacteria.Firmicutes.Clostridia.Peptostreptococcales_Tissierellales.Peptostreptococcaceae.Romboutsia'
p235
(lp236
F1111.0780010812787
aF1748.0704561278758
aF3149.1693240076825
aF53148.67813634219
aF4427.324853268708
aF10351.465754041521
aF1920.1435621354872
aF0.0
aF50899.905273129145
aF0.0
aF5057.048522589544
aF7539.362972425091
asS'Bacteria.Firmicutes.Bacilli.Lactobacillales.Aerococcaceae'
p237
(lp238
F246.90622246250638
aF0.0
aF83.68421979880554
aF0.0
aF148.9314170824336
aF0.0
aF0.0
aF0.0
aF0.0
aF0.0
aF0.0
aF0.0
asS'Bacteria.Firmicutes.Clostridia.Lachnospirales.Lachnospiraceae.Roseburia'
p239
(lp240
F4929.610441579007
aF0.0
aF6628.6710945895975
aF1271.9716657346182
aF0.0
aF2138.965191155942
aF0.0
aF2688.9237851442335
aF0.0
aF0.0
aF0.0
aF3842.575879592346
asS'Bacteria.Firmicutes.Clostridia.Peptococcales.Peptococcaceae.Peptococcus'
p241
(lp242
F0.0
aF0.0
aF0.0
aF0.0
aF0.0
aF123.83482685639665
aF0.0
aF0.0
aF0.0
aF0.0
aF0.0
aF27.769292716114517
asS'Bacteria.Firmicutes.Clostridia.Lachnospirales.Lachnospiraceae.Roseburia.uncultured_bacterium'
p243
(lp244
F0.0
aF0.0
aF0.0
aF0.0
aF0.0
aF2516.098527491332
aF0.0
aF623.8303181534623
aF0.0
aF0.0
aF0.0
aF680.3476715448056
asS'Bacteria.Firmicutes.Clostridia.Peptostreptococcales_Tissierellales.Anaerovoracaceae.Family_XIII_AD3011_group.uncultured_bacterium'
p245
(lp246
F85.1400767112091
aF0.0
aF145.34627649266227
aF0.0
aF0.0
aF382.7621921015897
aF0.0
aF0.0
aF0.0
aF0.0
aF0.0
aF225.62550331843042
asS'Bacteria.Firmicutes.Clostridia.Oscillospirales.Butyricicoccaceae.UCG_009.uncultured_organism'
p247
(lp248
F0.0
aF0.0
aF0.0
aF0.0
aF0.0
aF123.83482685639665
aF0.0
aF0.0
aF0.0
aF0.0
aF0.0
aF0.0
asS'Bacteria.Proteobacteria'
p249
(lp250
F14056.626665020622
aF2636.9198405996767
aF4668.698578249152
aF4194.216915030099
aF3026.015610720355
aF5488.134372044851
aF2476.446837146703
aF4216.232495106158
aF58288.601199873694
aF11235.955056179775
aF9909.307476908933
aF5869.734247868706
asS'Bacteria.Bacteroidota.Bacteroidia'
p251
(lp252
F806846.9649691151
aF790068.5895441682
aF857736.826342031
aF598928.6928298078
aF885106.1813307703
aF555883.2800468322
aF699004.0376850608
aF184395.63749005098
aF9472.687085569938
aF193081.01714961563
aF769009.905128098
aF519063.6194496125
asS'Bacteria.Firmicutes.Clostridia.Clostridia_vadinBB60_group.Clostridia_vadinBB60_group.Clostridia_vadinBB60_group.unidentified'
p253
(lp254
F0.0
aF0.0
aF0.0
aF131.58327576565014
aF162.47063681720027
aF202.6388075831945
aF0.0
aF0.0
aF0.0
aF0.0
aF96.12571571864423
aF0.0
asS'Bacteria.Proteobacteria.Alphaproteobacteria.Rhizobiales.Rhizobiaceae'
p255
(lp256
F38.31303452004409
aF0.0
aF74.87535455682601
aF0.0
aF0.0
aF0.0
aF0.0
aF0.0
aF1010.4199557941271
aF0.0
aF0.0
aF211.74085696037318
asS'Bacteria.Firmicutes.Bacilli.Erysipelotrichales.Erysipelotrichaceae.Dubosiella.uncultured_bacterium'
p257
(lp258
F0.0
aF0.0
aF559.3629428657002
aF3404.7172604361976
aF0.0
aF0.0
aF0.0
aF0.0
aF24881.591411430378
aF0.0
aF75.22882099719983
aF56031.490377940056
asS'Bacteria.Firmicutes.Clostridia.Oscillospirales.Ruminococcaceae.Harryflintia.uncultured_bacterium'
p259
(lp260
F0.0
aF0.0
aF189.3906027025599
aF1052.6662061252011
aF0.0
aF0.0
aF0.0
aF0.0
aF0.0
aF0.0
aF0.0
aF0.0
asS'Bacteria.Actinobacteriota.Coriobacteriia.Coriobacteriales'
p261
(lp262
F55.341049862285914
aF992.5484793268447
aF105.70638290375437
aF3048.345888570895
aF1983.49569114332
aF782.4109515017788
aF215.3432032301481
aF5442.381741131929
aF23492.263972213448
aF0.0
aF472.2698207046434
aF2027.1583682763596
asS'Bacteria.Proteobacteria.Alphaproteobacteria.Rhizobiales.Rhizobiaceae.Allorhizobium_Neorhizobium_Pararhizobium_Rhizobium'
p263
(lp264
F38.31303452004409
aF0.0
aF74.87535455682601
aF0.0
aF0.0
aF0.0
aF0.0
aF0.0
aF1010.4199557941271
aF0.0
aF0.0
aF152.73110993862983
asS'Bacteria.Bacteroidota.Bacteroidia.Bacteroidales.Bacteroidaceae.Bacteroides.Bacteroides_caecimuris'
p265
(lp266
F0.0
aF9747.714916374087
aF14635.92959954899
aF4643.793107229403
aF6451.438203616328
aF377.1333363353898
aF2009.8698968147155
aF1269.1720265880783
aF0.0
aF0.0
aF7648.263468048649
aF0.0
asS'Bacteria.Firmicutes.Bacilli.Acholeplasmatales.Acholeplasmataceae.Anaeroplasma.uncultured_bacterium'
p267
(lp268
F0.0
aF0.0
aF0.0
aF0.0
aF0.0
aF0.0
aF215.3432032301481
aF0.0
aF1705.083675402589
aF0.0
aF0.0
aF0.0
asS'Bacteria.Firmicutes.Bacilli.Erysipelotrichales.Erysipelotrichaceae.uncultured.uncultured_Allobaculum'
p269
(lp270
F0.0
aF903.6635408796647
aF110.11081552474414
aF498.9199206114235
aF737.8874755447846
aF1046.9671725131716
aF771.646478241364
aF0.0
aF4041.6798231765083
aF0.0
aF0.0
aF2582.54422259865
asS'Bacteria.Firmicutes.Clostridia.Oscillospirales.Oscillospiraceae.UCG_005.uncultured_Clostridiales'
p271
(lp272
F0.0
aF0.0
aF0.0
aF0.0
aF0.0
aF596.6587112171838
aF0.0
aF731.3872695592316
aF0.0
aF0.0
aF0.0
aF0.0
asS'Bacteria.Firmicutes.Clostridia.Clostridia_UCG_014.Clostridia_UCG_014'
p273
(lp274
F0.0
aF488.8671614594908
aF0.0
aF394.74982729695046
aF1570.5494892329361
aF70585.85130814608
aF52364.288918797676
aF71267.23600146278
aF166277.233975371
aF80425.78356002366
aF8.35875788857776
aF175609.53597511866
asS'Bacteria.Firmicutes.Clostridia.Oscillospirales.Oscillospiraceae.Flavonifractor'
p275
(lp276
F0.0
aF0.0
aF0.0
aF0.0
aF0.0
aF0.0
aF0.0
aF0.0
aF0.0
aF0.0
aF769.0057257491538
aF0.0
asS'Bacteria.Deferribacterota.Deferribacteres.Deferribacterales.Deferribacteraceae.Mucispirillum'
p277
(lp278
F0.0
aF0.0
aF0.0
aF87.72218384376677
aF0.0
aF67.54626919439816
aF0.0
aF0.0
aF0.0
aF0.0
aF0.0
aF0.0
asS'Bacteria.Firmicutes.Bacilli.RF39.RF39'
p279
(lp280
F0.0
aF0.0
aF726.7313824633113
aF0.0
aF0.0
aF4925.248795424866
aF861.3728129205924
aF24673.56465248349
aF11872.43448058099
aF0.0
aF41.79378944288879
aF6123.129043903251
asS'Bacteria.Proteobacteria.Gammaproteobacteria.Burkholderiales.Alcaligenaceae.Achromobacter'
p281
(lp282
F0.0
aF0.0
aF79.27978717781578
aF0.0
aF0.0
aF0.0
aF0.0
aF0.0
aF0.0
aF0.0
aF0.0
aF284.63525034017374
asS'Bacteria.Elusimicrobiota.Elusimicrobia.Elusimicrobiales'
p283
(lp284
F0.0
aF0.0
aF0.0
aF0.0
aF0.0
aF0.0
aF0.0
aF0.0
aF0.0
aF0.0
aF91.94633677435534
aF190.9138874232873
asS'Bacteria.Firmicutes.Bacilli.Erysipelotrichales.Erysipelotrichaceae.Turicibacter.uncultured_bacterium'
p285
(lp286
F0.0
aF0.0
aF0.0
aF208.34018662894607
aF0.0
aF8077.408024496782
aF789.5917451772096
aF0.0
aF68013.89327439216
aF0.0
aF2892.130229447904
aF8959.068062536446
asS'Bacteria.Firmicutes.Clostridia.Christensenellales.Christensenellaceae.Christensenellaceae_R_7_group.bacterium_YE57'
p287
(lp288
F0.0
aF0.0
aF0.0
aF0.0
aF0.0
aF348.9890575043906
aF0.0
aF0.0
aF0.0
aF0.0
aF0.0
aF118.01949404348669
asS'Bacteria.Firmicutes.Clostridia.Peptostreptococcales_Tissierellales.Anaerovoracaceae.Family_XIII_UCG_001'
p289
(lp290
F0.0
aF0.0
aF0.0
aF148.03118523635644
aF0.0
aF84.43283649299772
aF0.0
aF1269.1720265880783
aF0.0
aF0.0
aF0.0
aF62.480908611257654
asS'Bacteria.Firmicutes.Clostridia.Oscillospirales.Butyricicoccaceae'
p291
(lp292
F0.0
aF0.0
aF532.9363471397617
aF542.7810125333069
aF324.94127363440055
aF529.1124420227856
aF0.0
aF3829.027470045389
aF0.0
aF0.0
aF2904.668366280771
aF135.37530199105828
asS'Bacteria.Firmicutes.Clostridia.Oscillospirales._Eubacterium__coprostanoligenes_group._Eubacterium__coprostanoligenes_group.uncultured_Clostridium'
p293
(lp294
F0.0
aF0.0
aF0.0
aF0.0
aF304.63244403225053
aF1210.203989732967
aF699.8654104979813
aF666.85309871577
aF0.0
aF0.0
aF0.0
aF0.0
asS'Bacteria.Firmicutes.Clostridia.Oscillospirales.Butyricicoccaceae.Butyricicoccus.uncultured_bacterium'
p295
(lp296
F0.0
aF0.0
aF295.09698560631426
aF383.7845543164796
aF236.9363453584171
aF0.0
aF0.0
aF365.6936347796158
aF0.0
aF0.0
aF0.0
aF0.0
asS'Bacteria.Firmicutes.Clostridia.Oscillospirales.Ruminococcaceae.Pygmaiobacter'
p297
(lp298
F0.0
aF0.0
aF0.0
aF0.0
aF0.0
aF332.102490205791
aF376.85060565275916
aF0.0
aF0.0
aF0.0
aF0.0
aF0.0
asS'Bacteria.Firmicutes.Clostridia.Lachnospirales.Lachnospiraceae.Lachnospiraceae_NK4A136_group.Trichinella_pseudospiralis'
p299
(lp300
F0.0
aF0.0
aF0.0
aF71.2742743730605
aF0.0
aF15484.98221281578
aF8918.7976671153
aF0.0
aF0.0
aF12123.004139562388
aF0.0
aF4585.404459748409
asS'Bacteria.Firmicutes.Clostridia.Oscillospirales.Oscillospiraceae.uncultured'
p301
(lp302
F2392.436155584976
aF2607.2915277839506
aF1193.6012402882263
aF31240.062721361443
aF0.0
aF30378.934570180576
aF15307.312696276362
aF3678.447738077312
aF0.0
aF0.0
aF296.7359050445104
aF853.9057510205214
asS'Bacteria.Firmicutes.Clostridia.Oscillospirales.Ruminococcaceae.Paludicola'
p303
(lp304
F0.0
aF0.0
aF0.0
aF279.6144610020066
aF0.0
aF0.0
aF0.0
aF0.0
aF0.0
aF0.0
aF0.0
aF0.0
asS'Bacteria.Firmicutes.Clostridia.Clostridia_vadinBB60_group.Clostridia_vadinBB60_group.Clostridia_vadinBB60_group.uncultured_bacterium'
p305
(lp306
F0.0
aF237.02650252581367
aF0.0
aF82.23954735353135
aF101.54414801075018
aF433.4218939973882
aF0.0
aF473.25058618538515
aF315.75623618566465
aF0.0
aF3468.8845237597698
aF163.14459470717276
asS'Bacteria.Patescibacteria'
p307
(lp308
F0.0
aF0.0
aF0.0
aF948.4961128107282
aF0.0
aF332.102490205791
aF0.0
aF2151.139028115387
aF15787.811809283234
aF2956.8302779420465
aF0.0
aF22791.646996750987
asS'Bacteria.Firmicutes.Clostridia.Oscillospirales.Oscillospiraceae.Papillibacter.uncultured_bacterium'
p309
(lp310
F0.0
aF1022.1767921425715
aF0.0
aF0.0
aF907.1277222293681
aF1277.7502589273654
aF1058.770749214895
aF5162.7336674769285
aF0.0
aF0.0
aF0.0
aF177.02924106523002
asS'Bacteria.Firmicutes.Clostridia.Oscillospirales.UCG_010.UCG_010'
p311
(lp312
F0.0
aF0.0
aF0.0
aF87.72218384376677
aF0.0
aF1812.4915567163507
aF305.0695379093765
aF0.0
aF0.0
aF0.0
aF121.2019893843775
aF728.943933798006
asS'Bacteria.Bacteroidota.Bacteroidia.Bacteroidales.Bacteroidaceae'
p313
(lp314
F70359.7593941432
aF239841.19224330768
aF340467.04603512987
aF37523.16413917124
aF290104.8612568459
aF8955.509524023957
aF14751.009421265146
aF5184.245057758084
aF0.0
aF0.0
aF40786.55911731517
aF312.4045430562883
asS'Bacteria.Bacteroidota.Bacteroidia.Bacteroidales.Bacteroidaceae.Bacteroides.Bacteroides_fragilis'
p315
(lp316
F5027.521529796897
aF229471.28275780333
aF306143.30261975667
aF30730.17752776955
aF281615.7704831472
aF422.1641824649886
aF699.8654104979813
aF0.0
aF0.0
aF0.0
aF342.70907343168807
aF0.0
asS'Bacteria.Firmicutes.Bacilli.Erysipelotrichales'
p317
(lp318
F681.1206136896728
aF1288.8316074841118
aF1233.2411338771344
aF5131.7477548603565
aF1570.5494892329361
aF10126.311523393526
aF1776.5814266487216
aF666.8530987157701
aF105778.33912219765
aF0.0
aF10799.515192042463
aF70072.33900752544
asS'Bacteria.Proteobacteria.Alphaproteobacteria'
p319
(lp320
F38.31303452004409
aF0.0
aF74.87535455682601
aF126.10063927541472
aF0.0
aF264.55622101139284
aF0.0
aF0.0
aF1894.537417113988
aF0.0
aF1776.2360513227738
aF277.6929271611452
asS'Bacteria.Firmicutes.Clostridia.Oscillospirales.Ruminococcaceae.Candidatus_Soleaferrea.Ruminococcaceae_bacterium'
p321
(lp322
F0.0
aF0.0
aF0.0
aF0.0
aF0.0
aF0.0
aF0.0
aF0.0
aF0.0
aF0.0
aF417.9378944288879
aF104.13484768542942
asS'Bacteria.Firmicutes.Clostridia.Oscillospirales.UCG_010.UCG_010.uncultured_bacterium'
p323
(lp324
F0.0
aF0.0
aF0.0
aF202.85755013871065
aF115.08336774551687
aF416.5353266987887
aF0.0
aF0.0
aF0.0
aF0.0
aF0.0
aF163.14459470717276
asS'Bacteria.Firmicutes.Clostridia.Oscillospirales.Ruminococcaceae.Ruminococcus.uncultured_Ruminococcus'
p325
(lp326
F1166.4190509435646
aF1614.7430484571055
aF158.55957435563155
aF2006.6449554261649
aF568.647228860201
aF0.0
aF0.0
aF2215.6731989588484
aF9535.838332807074
aF4139.562389118865
aF2031.1781669243953
aF0.0
asS'Bacteria.Firmicutes.Clostridia.uncultured'
p327
(lp328
F0.0
aF0.0
aF0.0
aF1293.9022116955598
aF0.0
aF0.0
aF0.0
aF0.0
aF0.0
aF0.0
aF0.0
aF114.54833245397236
asS'Bacteria.Firmicutes.Clostridia.Oscillospirales.UCG_010.UCG_010.uncultured_rumen'
p329
(lp330
F0.0
aF0.0
aF0.0
aF0.0
aF0.0
aF0.0
aF0.0
aF0.0
aF0.0
aF0.0
aF0.0
aF55.538585432229034
asS'Bacteria.Proteobacteria.Gammaproteobacteria.Pasteurellales.Pasteurellaceae.Rodentibacter'
p331
(lp332
F0.0
aF0.0
aF0.0
aF0.0
aF0.0
aF0.0
aF0.0
aF1204.637855744617
aF0.0
aF0.0
aF1391.7331884481966
aF666.4630251867483
asS'Bacteria.Proteobacteria.Alphaproteobacteria.Rhodospirillales.uncultured.uncultured.unidentified_rumen'
p333
(lp334
F0.0
aF0.0
aF0.0
aF0.0
aF0.0
aF0.0
aF0.0
aF0.0
aF0.0
aF0.0
aF91.94633677435534
aF0.0
asS'Bacteria.Proteobacteria.Alphaproteobacteria.Caulobacterales.Caulobacteraceae'
p335
(lp336
F0.0
aF0.0
aF0.0
aF49.34372841211881
aF0.0
aF0.0
aF0.0
aF0.0
aF0.0
aF0.0
aF0.0
aF0.0
asS'Bacteria.Proteobacteria.Gammaproteobacteria.Pseudomonadales.Moraxellaceae.Acinetobacter.Acinetobacter_ursingii'
p337
(lp338
F0.0
aF0.0
aF0.0
aF82.23954735353135
aF0.0
aF0.0
aF0.0
aF0.0
aF0.0
aF0.0
aF0.0
aF0.0
asS'Archaea'
p339
(lp340
F0.0
aF0.0
aF0.0
aF0.0
aF0.0
aF0.0
aF0.0
aF0.0
aF0.0
aF0.0
aF83.58757888577757
aF461.6644914054038
asS'Bacteria.Firmicutes.Clostridia.Lachnospirales.Lachnospiraceae.Marvinbryantia'
p341
(lp342
F2520.1462706517896
aF162.95572048649692
aF0.0
aF0.0
aF0.0
aF0.0
aF0.0
aF1333.70619743154
aF0.0
aF0.0
aF0.0
aF0.0
asS'Bacteria.Campilobacterota.Campylobacteria'
p343
(lp344
F0.0
aF0.0
aF0.0
aF38.378455431647964
aF0.0
aF0.0
aF0.0
aF193.60251253038481
aF0.0
aF0.0
aF639.4449784761986
aF458.19332981588946
asS'Bacteria.Patescibacteria.Saccharimonadia.Saccharimonadales.Saccharimonadaceae'
p345
(lp346
F0.0
aF0.0
aF0.0
aF948.4961128107282
aF0.0
aF332.102490205791
aF0.0
aF2151.139028115387
aF15787.811809283234
aF2956.8302779420465
aF0.0
aF22791.646996750987
asS'Bacteria.Firmicutes.Clostridia.Oscillospirales.Ruminococcaceae.Pygmaiobacter.uncultured_bacterium'
p347
(lp348
F0.0
aF0.0
aF0.0
aF0.0
aF0.0
aF332.102490205791
aF376.85060565275916
aF0.0
aF0.0
aF0.0
aF0.0
aF0.0
asS'Bacteria.Firmicutes'
p349
(lp350
F43204.33192710306
aF205487.16353347257
aF137488.7686968165
aF386191.4317356929
aF109031.33652407616
aF422220.4710226506
aF290085.2400179453
aF786908.1678748898
aF889232.7123460688
aF792726.1975162625
aF215948.5100514064
aF443510.31629224384
asS'Bacteria.Proteobacteria.Gammaproteobacteria.Burkholderiales.Alcaligenaceae.Alcaligenes'
p351
(lp352
F34.05603068448364
aF0.0
aF0.0
aF0.0
aF0.0
aF0.0
aF0.0
aF0.0
aF0.0
aF0.0
aF0.0
aF0.0
asS'Bacteria.Firmicutes.Clostridia.Oscillospirales'
p353
(lp354
F7986.139195511414
aF57715.953365035624
aF30566.762389668977
aF80134.21494128097
aF37733.80540079478
aF132722.7901112262
aF95558.54643337821
aF202013.46613031602
aF63593.30596779286
aF144589.00059136606
aF67225.31031888661
aF106363.33342589764
asS'Bacteria.Actinobacteriota.Coriobacteriia.Coriobacteriales.Atopobiaceae'
p355
(lp356
F0.0
aF429.6105358280373
aF0.0
aF1595.447218658508
aF1733.0201260501362
aF281.44278830999235
aF0.0
aF0.0
aF0.0
aF0.0
aF41.79378944288879
aF767.1267112826635
asS'Bacteria.Firmicutes.Clostridia.Oscillospirales.Oscillospiraceae.Intestinimonas.uncultured_bacterium'
p357
(lp358
F89.39708054676954
aF0.0
aF0.0
aF0.0
aF0.0
aF0.0
aF0.0
aF0.0
aF0.0
aF0.0
aF0.0
aF0.0
asS'Bacteria.Firmicutes.Bacilli.Erysipelotrichales.Erysipelatoclostridiaceae'
p359
(lp360
F140.481126573495
aF0.0
aF347.95017705819146
aF137.0659122558856
aF291.0932242974838
aF242.04079794659344
aF215.3432032301481
aF494.76197646653907
aF2273.4449005367856
aF0.0
aF3936.9749655201235
aF20.826969537085883
asS'Bacteria.Firmicutes.Bacilli.Acholeplasmatales.Acholeplasmataceae.Anaeroplasma'
p361
(lp362
F0.0
aF0.0
aF0.0
aF0.0
aF0.0
aF0.0
aF215.3432032301481
aF0.0
aF1705.083675402589
aF0.0
aF0.0
aF0.0
asS'Bacteria.Firmicutes.Clostridia.Lachnospirales.Lachnospiraceae.Lachnospiraceae_UCG_010.uncultured_bacterium'
p363
(lp364
F0.0
aF0.0
aF118.91968076672367
aF0.0
aF0.0
aF0.0
aF0.0
aF0.0
aF0.0
aF0.0
aF0.0
aF0.0
asS'Bacteria.Firmicutes.Clostridia.Lachnospirales.Lachnospiraceae.uncultured'
p365
(lp366
F0.0
aF0.0
aF0.0
aF0.0
aF0.0
aF213.89651911559423
aF0.0
aF0.0
aF0.0
aF0.0
aF0.0
aF0.0
asS'Bacteria.Proteobacteria.Gammaproteobacteria.Burkholderiales.Sutterellaceae.Parasutterella'
p367
(lp368
F5695.871131979889
aF903.6635408796647
aF3483.9062032029046
aF257.6839150410649
aF1299.7650945376022
aF3326.65375782411
aF2225.213100044864
aF430.2278056230774
aF0.0
aF0.0
aF5395.578217076943
aF1596.7343311765844
asS'Bacteria.Firmicutes.Bacilli.Erysipelotrichales.Erysipelotrichaceae.Dubosiella'
p369
(lp370
F0.0
aF0.0
aF559.3629428657002
aF3404.7172604361976
aF0.0
aF0.0
aF0.0
aF0.0
aF24881.591411430378
aF0.0
aF75.22882099719983
aF56031.490377940056
asS'Bacteria.Proteobacteria.Alphaproteobacteria.Caulobacterales'
p371
(lp372
F0.0
aF0.0
aF0.0
aF49.34372841211881
aF0.0
aF0.0
aF0.0
aF0.0
aF0.0
aF0.0
aF0.0
aF0.0
asS'Bacteria.Firmicutes.Clostridia.Clostridia'
p373
(lp374
F0.0
aF0.0
aF0.0
aF0.0
aF0.0
aF112.57711532399695
aF0.0
aF0.0
aF0.0
aF0.0
aF0.0
aF76.36555496931491
asS'Bacteria.Bacteroidota'
p375
(lp376
F806846.9649691151
aF790068.5895441682
aF857736.826342031
aF598928.6928298078
aF885106.1813307703
aF555883.2800468322
aF699004.0376850608
aF184395.63749005098
aF9472.687085569938
aF193081.01714961563
aF769009.905128098
aF519063.6194496125
asS'Bacteria.Firmicutes.Clostridia.Lachnospirales.Lachnospiraceae._Eubacterium__hallii_group'
p377
(lp378
F770.5176942364424
aF0.0
aF167.3684395976111
aF0.0
aF352.01971310393395
aF0.0
aF0.0
aF0.0
aF0.0
aF0.0
aF0.0
aF0.0
asS'Bacteria.Firmicutes.Negativicutes'
p379
(lp380
F0.0
aF0.0
aF0.0
aF0.0
aF0.0
aF0.0
aF0.0
aF0.0
aF0.0
aF0.0
aF7619.0078154386265
aF1197.5507483824385
asS'Bacteria.Verrucomicrobiota.Verrucomicrobiae'
p381
(lp382
F135836.73538889855
aF0.0
aF0.0
aF268.64918802153574
aF40.61765920430007
aF7908.542351510786
aF466.57694033198754
aF16692.838858175404
aF0.0
aF0.0
aF0.0
aF0.0
asS'Bacteria.Actinobacteriota.Actinobacteria.Bifidobacteriales.Bifidobacteriaceae'
p383
(lp384
F0.0
aF0.0
aF0.0
aF6129.587596083203
aF0.0
aF2825.6855946323235
aF1345.8950201884256
aF0.0
aF884.117461319861
aF0.0
aF0.0
aF1982.0332676126736
asS'Bacteria.Firmicutes.Clostridia.Monoglobales.Monoglobaceae.Monoglobus.uncultured_bacterium'
p385
(lp386
F0.0
aF0.0
aF0.0
aF0.0
aF0.0
aF0.0
aF0.0
aF0.0
aF0.0
aF0.0
aF0.0
aF999.6945377801225
asS'Bacteria.Firmicutes.Bacilli.Erysipelotrichales.Erysipelotrichaceae.Faecalitalea'
p387
(lp388
F68.11206136896728
aF0.0
aF0.0
aF0.0
aF0.0
aF0.0
aF0.0
aF0.0
aF0.0
aF0.0
aF0.0
aF0.0
asS'Bacteria.Campilobacterota.Campylobacteria.Campylobacterales.Helicobacteraceae'
p389
(lp390
F0.0
aF0.0
aF0.0
aF38.378455431647964
aF0.0
aF0.0
aF0.0
aF193.60251253038481
aF0.0
aF0.0
aF639.4449784761986
aF458.19332981588946
asS'Bacteria.Firmicutes.Clostridia.Oscillospirales._Eubacterium__coprostanoligenes_group._Eubacterium__coprostanoligenes_group'
p391
(lp392
F0.0
aF19643.571396826806
aF0.0
aF16294.395648979678
aF182.77946641935034
aF14139.685684694017
aF31135.038133692244
aF105298.2554262482
aF7388.695926744554
aF90774.68953282082
aF25.076273665733275
aF30966.232540057197
asS'Bacteria.Bacteroidota.Bacteroidia.Bacteroidales.Prevotellaceae.Prevotellaceae_UCG_001.uncultured_bacterium'
p393
(lp394
F85101.76367668905
aF62486.11172836763
aF71915.5758355209
aF24995.339758983293
aF65441.8185879948
aF2780.6547485027245
aF16043.068640646034
aF559.2961473100006
aF631.5124723713293
aF0.0
aF40314.28929661053
aF933.7424675793505
asS'Bacteria.Firmicutes.Clostridia.Peptococcales.Peptococcaceae.uncultured.unidentified'
p395
(lp396
F119.19610739569274
aF0.0
aF990.9973397226973
aF548.2636490235424
aF318.1716637670172
aF6726.482640608818
aF2799.4616419919253
aF0.0
aF1326.1761919797916
aF0.0
aF0.0
aF142.31762517008687
asS'Bacteria.Proteobacteria.Gammaproteobacteria.Enterobacterales.Enterobacteriaceae.Escherichia_Shigella'
p397
(lp398
F8169.190360440512
aF1733.2562997200123
aF629.8338648015365
aF3108.654889963485
aF1441.9269017526524
aF1784.3472778853516
aF251.23373710183944
aF2581.3668337384643
aF27912.851278812755
aF11235.955056179775
aF936.1808835207089
aF1690.455694093471
asS'Bacteria.Firmicutes.Clostridia.Lachnospirales.Lachnospiraceae.Lachnospiraceae.Cuneatibacter_caecimuris'
p399
(lp400
F0.0
aF0.0
aF0.0
aF0.0
aF0.0
aF0.0
aF0.0
aF0.0
aF0.0
aF0.0
aF263.30087349019936
aF0.0
asS'Bacteria.Bacteroidota.Bacteroidia.Bacteroidales.Bacteroidaceae.Bacteroides'
p401
(lp402
F65332.2378643463
aF622.1945691302609
aF19687.813815824255
aF2149.193504172286
aF2037.652570082387
aF8156.212005223579
aF12041.274113952448
aF3915.073031170005
aF0.0
aF0.0
aF8826.848330338113
aF312.4045430562883
asS'Bacteria.Firmicutes.Bacilli.Erysipelotrichales.Erysipelotrichaceae._Clostridium__innocuum_group'
p403
(lp404
F0.0
aF0.0
aF0.0
aF0.0
aF0.0
aF0.0
aF0.0
aF0.0
aF0.0
aF0.0
aF2461.6541981861496
aF0.0
asS'Bacteria.Firmicutes.Clostridia.Lachnospirales.Lachnospiraceae.Lachnospiraceae_UCG_006.uncultured_bacterium'
p405
(lp406
F0.0
aF0.0
aF0.0
aF910.1176573790802
aF419.71581177776744
aF1198.9462782005676
aF2279.0489008524005
aF1183.1264654634629
aF0.0
aF0.0
aF0.0
aF298.51989669823104
asS'Bacteria.Actinobacteriota.Actinobacteria'
p407
(lp408
F0.0
aF0.0
aF0.0
aF6129.587596083203
aF372.32854270608397
aF2915.747286891521
aF1345.8950201884256
aF0.0
aF2652.352383959583
aF0.0
aF121.2019893843775
aF2110.466246424703
asS'Bacteria.Actinobacteriota.Coriobacteriia.Coriobacteriales.uncultured'
p409
(lp410
F0.0
aF562.9379434988074
aF48.44875883088742
aF997.839841222847
aF250.47556509318377
aF146.35024992119605
aF0.0
aF623.8303181534623
aF5873.065993053363
aF0.0
aF0.0
aF531.0877231956902
asS'Bacteria.Firmicutes.Clostridia.uncultured.uncultured'
p411
(lp412
F0.0
aF0.0
aF0.0
aF1293.9022116955598
aF0.0
aF0.0
aF0.0
aF0.0
aF0.0
aF0.0
aF0.0
aF114.54833245397236
asS'Bacteria.Firmicutes.Clostridia.Oscillospirales.Ruminococcaceae'
p413
(lp414
F251.1632262980668
aF0.0
aF0.0
aF3717.227540379617
aF162.47063681720027
aF5848.3811410816415
aF7608.793180798566
aF4216.232495106158
aF820.9662140827281
aF14488.468361916026
aF292.55652610022156
aF996.2233761906083
asS'Bacteria.Firmicutes.Clostridia.Oscillospirales.Ruminococcaceae.DTU089'
p415
(lp416
F0.0
aF0.0
aF70.47092193583624
aF0.0
aF0.0
aF0.0
aF0.0
aF0.0
aF0.0
aF0.0
aF0.0
aF0.0
asS'Bacteria.Firmicutes.Clostridia.Eubacteriales.Eubacteriaceae'
p417
(lp418
F0.0
aF0.0
aF0.0
aF0.0
aF0.0
aF0.0
aF0.0
aF0.0
aF0.0
aF0.0
aF91.94633677435534
aF0.0
asS'Bacteria.Firmicutes.Clostridia.Oscillospirales.Oscillospiraceae.Oscillibacter'
p419
(lp420
F0.0
aF0.0
aF0.0
aF0.0
aF0.0
aF1621.110460665556
aF0.0
aF0.0
aF0.0
aF0.0
aF0.0
aF0.0
asS'Bacteria.Firmicutes.Clostridia.Clostridia_UCG_014.Clostridia_UCG_014.Clostridia_UCG_014.unidentified_rumen'
p421
(lp422
F0.0
aF0.0
aF0.0
aF0.0
aF0.0
aF0.0
aF0.0
aF0.0
aF0.0
aF0.0
aF0.0
aF2558.2460914720496
asS'Bacteria.Firmicutes.Clostridia.Lachnospirales.Lachnospiraceae.Lachnospiraceae_FCS020_group'
p423
(lp424
F0.0
aF0.0
aF0.0
aF0.0
aF169.24024668458364
aF0.0
aF0.0
aF0.0
aF0.0
aF0.0
aF0.0
aF0.0
asS'Bacteria.Firmicutes.Clostridia.Lachnospirales.Lachnospiraceae'
p425
(lp426
F2677.655412567526
aF2459.1499637053166
aF37596.23685276864
aF43208.658179545375
aF1827.7946641935032
aF70794.11897149548
aF39838.492597577395
aF36999.59128358466
aF42879.69687401326
aF125369.60378474277
aF22305.345425669748
aF8143.345089000581
asS'Bacteria.Firmicutes.Clostridia.Peptostreptococcales_Tissierellales.Peptostreptococcaceae'
p427
(lp428
F1111.0780010812787
aF1748.0704561278758
aF3149.1693240076825
aF53148.67813634219
aF4427.324853268708
aF10351.465754041521
aF1920.1435621354872
aF0.0
aF50899.905273129145
aF0.0
aF5057.048522589544
aF7539.362972425091
asS'Bacteria.Firmicutes.Bacilli.Erysipelotrichales.Erysipelotrichaceae.Holdemania'
p429
(lp430
F472.5274257472105
aF0.0
aF0.0
aF0.0
aF0.0
aF0.0
aF0.0
aF0.0
aF0.0
aF0.0
aF1433.5269778910856
aF0.0
asS'Bacteria.Firmicutes.Clostridia.Clostridiales.Clostridiaceae'
p431
(lp432
F0.0
aF0.0
aF0.0
aF290.5797339824774
aF0.0
aF821.8129418651778
aF0.0
aF0.0
aF48500.157878118094
aF3252.513305736251
aF1028.1272202950643
aF20521.507317208627
asS'Bacteria.Firmicutes.Clostridia.Oscillospirales.Oscillospiraceae.Oscillibacter.uncultured_bacterium'
p433
(lp434
F183.05116492909957
aF0.0
aF2065.6788992442002
aF0.0
aF0.0
aF3236.5920655649124
aF1238.2234185733514
aF989.5239529330781
aF0.0
aF0.0
aF317.6327997659548
aF1086.4735775179804
asS'Bacteria.Firmicutes.Clostridia.Oscillospirales.Ruminococcaceae.UBA1819.uncultured_organism'
p435
(lp436
F0.0
aF0.0
aF0.0
aF0.0
aF0.0
aF0.0
aF0.0
aF0.0
aF0.0
aF0.0
aF5838.592385171563
aF0.0
asS'Bacteria.Firmicutes.Bacilli.RF39.RF39.RF39.uncultured_bacterium'
p437
(lp438
F0.0
aF0.0
aF0.0
aF0.0
aF0.0
aF3585.581123069303
aF0.0
aF22350.33450211887
aF2462.8986422481844
aF0.0
aF41.79378944288879
aF881.6750437366358
asS'Bacteria.Firmicutes.Clostridia.Clostridia_UCG_014.Clostridia_UCG_014.Clostridia_UCG_014.uncultured_Clostridiales'
p439
(lp440
F0.0
aF162.95572048649692
aF0.0
aF0.0
aF0.0
aF844.3283649299772
aF0.0
aF0.0
aF7704.452162930218
aF0.0
aF0.0
aF0.0
asS'Bacteria.Firmicutes.Clostridia.Oscillospirales.Oscillospiraceae.UCG_005.uncultured_bacterium'
p441
(lp442
F0.0
aF0.0
aF0.0
aF0.0
aF0.0
aF0.0
aF0.0
aF13573.687267408093
aF694.6637196084622
aF0.0
aF0.0
aF0.0
asS'Bacteria.Actinobacteriota.Coriobacteriia.Coriobacteriales.Eggerthellaceae.Adlercreutzia.uncultured_bacterium'
p443
(lp444
F0.0
aF0.0
aF0.0
aF0.0
aF0.0
aF354.61791327059035
aF0.0
aF0.0
aF3473.3185980423114
aF0.0
aF0.0
aF260.33711921357354
asS'Bacteria.Firmicutes.Clostridia.Christensenellales.Christensenellaceae.uncultured'
p445
(lp446
F0.0
aF0.0
aF0.0
aF115.13536629494388
aF0.0
aF0.0
aF0.0
aF0.0
aF0.0
aF0.0
aF0.0
aF298.51989669823104
asS'Bacteria.Campilobacterota.Campylobacteria.Campylobacterales.Helicobacteraceae.Helicobacter'
p447
(lp448
F0.0
aF0.0
aF0.0
aF0.0
aF0.0
aF0.0
aF0.0
aF0.0
aF0.0
aF0.0
aF639.4449784761986
aF458.19332981588946
asS'Bacteria.Bacteroidota.Bacteroidia.Bacteroidales.Rikenellaceae.Alistipes.uncultured_bacterium'
p449
(lp450
F0.0
aF0.0
aF10403.269850777826
aF148.03118523635644
aF0.0
aF4255.414959247085
aF4504.262000897264
aF0.0
aF0.0
aF0.0
aF330.17093659882147
aF0.0
asS'Bacteria.Desulfobacterota.Desulfovibrionia.Desulfovibrionales.Desulfovibrionaceae.Desulfovibrio'
p451
(lp452
F0.0
aF0.0
aF0.0
aF0.0
aF0.0
aF0.0
aF0.0
aF0.0
aF0.0
aF0.0
aF1099.1766623479753
aF3196.9398239426837
asS'Bacteria.Cyanobacteria.Vampirivibrionia.Gastranaerophilales.Gastranaerophilales.Gastranaerophilales.uncultured_bacterium'
p453
(lp454
F0.0
aF814.7786024324845
aF0.0
aF164.4790947070627
aF440.02464137991745
aF2403.521412167335
aF1417.6760879318083
aF0.0
aF1073.57120303126
aF0.0
aF0.0
aF31.240454305628827
asS'Bacteria.Bacteroidota.Bacteroidia.Bacteroidales.Rikenellaceae.Alistipes.Alistipes_timonensis'
p455
(lp456
F0.0
aF414.79637942017393
aF761.9668434312294
aF296.06237047271287
aF0.0
aF129.4636826225965
aF0.0
aF0.0
aF0.0
aF0.0
aF146.27826305011078
aF0.0
asS'Bacteria.Firmicutes.Clostridia.Oscillospirales.Oscillospiraceae.Intestinimonas'
p457
(lp458
F89.39708054676954
aF0.0
aF0.0
aF0.0
aF0.0
aF0.0
aF0.0
aF0.0
aF0.0
aF0.0
aF62.690684164333184
aF0.0
asS'Bacteria.Bacteroidota.Bacteroidia.Bacteroidales.Prevotellaceae.Prevotellaceae_UCG_003'
p459
(lp460
F0.0
aF0.0
aF0.0
aF0.0
aF0.0
aF0.0
aF0.0
aF0.0
aF0.0
aF0.0
aF105872.02741672588
aF19285.77379134153
asS'Bacteria.Bacteroidota.Bacteroidia.Bacteroidales.Prevotellaceae.Prevotellaceae_UCG_001'
p461
(lp462
F85101.76367668905
aF62486.11172836763
aF71915.5758355209
aF24995.339758983293
aF65441.8185879948
aF2780.6547485027245
aF16043.068640646034
aF559.2961473100006
aF631.5124723713293
aF0.0
aF40314.28929661053
aF933.7424675793505
asS'Bacteria.Proteobacteria.Gammaproteobacteria'
p463
(lp464
F14018.313630500577
aF2636.9198405996767
aF4593.823223692326
aF4068.116275754684
aF3026.015610720355
aF5223.578151033459
aF2476.446837146703
aF4216.232495106158
aF56394.0637827597
aF11235.955056179775
aF8133.071425586158
aF5592.04132070756
asS'Bacteria.Bacteroidota.Bacteroidia.Bacteroidales.Rikenellaceae'
p465
(lp466
F0.0
aF2918.388812349081
aF11751.026232800694
aF444.0935557090693
aF1428.3876820178857
aF5448.732381681453
aF4504.262000897264
aF774.4100501215393
aF0.0
aF0.0
aF906.9252309106868
aF0.0
asS'Bacteria.Firmicutes.Clostridia.Oscillospirales.Butyricicoccaceae.UCG_009.uncultured_bacterium'
p467
(lp468
F0.0
aF0.0
aF237.83936153344735
aF158.99645821682728
aF88.00492827598349
aF405.277615166389
aF0.0
aF1527.3087099619247
aF0.0
aF0.0
aF0.0
aF135.37530199105828
asS'Bacteria.Firmicutes.Clostridia.Clostridia_vadinBB60_group.Clostridia_vadinBB60_group.Clostridia_vadinBB60_group'
p469
(lp470
F0.0
aF0.0
aF0.0
aF0.0
aF0.0
aF180.1233845183951
aF0.0
aF258.13668337384644
aF0.0
aF0.0
aF0.0
aF10.413484768542942
asS'Bacteria.Bacteroidota.Bacteroidia.Bacteroidales.Rikenellaceae.Alistipes'
p471
(lp472
F0.0
aF399.98222301231056
aF347.9501770581915
aF0.0
aF0.0
aF686.7204034763814
aF0.0
aF774.4100501215393
aF0.0
aF0.0
aF0.0
aF0.0
asS'Bacteria.Firmicutes.Clostridia.Lachnospirales.Lachnospiraceae.Lachnospiraceae_NK4A136_group'
p473
(lp474
F323.5322915025946
aF9555.130883071864
aF28699.282958369313
aF61997.65343158216
aF11325.557308132336
aF14668.798126716802
aF24423.508299685964
aF14778.325123152708
aF4483.738553836439
aF0.0
aF0.0
aF2988.6701285718245
asS'Bacteria.Firmicutes.Clostridia.Lachnospirales.Lachnospiraceae.Anaerostipes'
p475
(lp476
F0.0
aF0.0
aF0.0
aF0.0
aF0.0
aF0.0
aF0.0
aF0.0
aF0.0
aF0.0
aF1951.7699669829067
aF0.0
asS'Bacteria.Firmicutes.Clostridia.Christensenellales.Christensenellaceae'
p477
(lp478
F144.7381304090555
aF0.0
aF0.0
aF263.1665515313003
aF74.4657085412168
aF4002.116449768091
aF1938.0888290713328
aF1333.70619743154
aF177581.3072308178
aF0.0
aF0.0
aF2888.0064424759094
asS'Bacteria.Actinobacteriota.Actinobacteria.Bifidobacteriales.Bifidobacteriaceae.Bifidobacterium'
p479
(lp480
F0.0
aF0.0
aF0.0
aF0.0
aF0.0
aF309.58706714099156
aF0.0
aF0.0
aF0.0
aF0.0
aF0.0
aF0.0
asS'Bacteria.Firmicutes.Bacilli.Erysipelotrichales.Erysipelotrichaceae.Allobaculum'
p481
(lp482
F0.0
aF0.0
aF215.81719842849853
aF0.0
aF148.9314170824336
aF0.0
aF0.0
aF0.0
aF5115.251026207768
aF0.0
aF0.0
aF90.25020132737218
asS'Bacteria.Desulfobacterota'
p483
(lp484
F0.0
aF0.0
aF0.0
aF0.0
aF0.0
aF0.0
aF0.0
aF0.0
aF0.0
aF0.0
aF3723.8266393613912
aF3405.2095193135424
asS'Bacteria.Actinobacteriota.Coriobacteriia.Coriobacteriales.uncultured.uncultured'
p485
(lp486
F0.0
aF562.9379434988074
aF48.44875883088742
aF997.839841222847
aF250.47556509318377
aF146.35024992119605
aF0.0
aF623.8303181534623
aF5873.065993053363
aF0.0
aF0.0
aF531.0877231956902
asS'Bacteria.Firmicutes.Bacilli.Staphylococcales.Staphylococcaceae'
p487
(lp488
F0.0
aF414.79637942017393
aF273.0748225013655
aF466.02410167001096
aF1638.2455879067693
aF0.0
aF0.0
aF0.0
aF0.0
aF0.0
aF0.0
aF76.36555496931491
asS'Bacteria.Firmicutes.Clostridia.Oscillospirales.Ruminococcaceae.Incertae_Sedis.uncultured_Clostridiales'
p489
(lp490
F0.0
aF370.35391019658385
aF0.0
aF328.9581894141254
aF0.0
aF365.8756248029901
aF323.01480484522216
aF1161.615075182309
aF0.0
aF0.0
aF0.0
aF0.0
asS'Bacteria.Bacteroidota.Bacteroidia.Bacteroidales.Prevotellaceae.Prevotellaceae_NK3B31_group'
p491
(lp492
F128463.60474570784
aF45405.389390101176
aF9174.433149521683
aF6047.348048729672
aF28696.376227838
aF3005.8089791507186
aF92471.96052041277
aF11422.548239292704
aF0.0
aF46422.235363690124
aF171.35453671584403
aF4807.558801477325
asS'Bacteria.Bacteroidota.Bacteroidia.Bacteroidales.Tannerellaceae.Parabacteroides'
p493
(lp494
F0.0
aF0.0
aF0.0
aF0.0
aF0.0
aF0.0
aF0.0
aF0.0
aF0.0
aF0.0
aF6716.261963472229
aF492.90494571103267
asS'Bacteria.Actinobacteriota.Coriobacteriia.Coriobacteriales.Eggerthellaceae.Enterorhabdus.uncultured_bacterium'
p495
(lp496
F0.0
aF0.0
aF0.0
aF0.0
aF0.0
aF0.0
aF215.3432032301481
aF365.6936347796158
aF14145.879381117777
aF0.0
aF0.0
aF468.60681458443247
asS'Bacteria.Actinobacteriota.Coriobacteriia.Coriobacteriales.Eggerthellaceae.Parvibacter.uncultured_bacterium'
p497
(lp498
F0.0
aF0.0
aF57.25762407286695
aF455.0588286895401
aF0.0
aF0.0
aF0.0
aF0.0
aF0.0
aF0.0
aF0.0
aF0.0
asS'Bacteria.Firmicutes.Bacilli.Erysipelotrichales.Erysipelatoclostridiaceae.Erysipelatoclostridiaceae'
p499
(lp500
F0.0
aF0.0
aF0.0
aF0.0
aF0.0
aF22.51542306479939
aF0.0
aF0.0
aF0.0
aF0.0
aF0.0
aF0.0
asS'Bacteria.Firmicutes.Bacilli.Izemoplasmatales.Izemoplasmatales.Izemoplasmatales.gut_metagenome'
p501
(lp502
F0.0
aF0.0
aF0.0
aF0.0
aF0.0
aF236.41194218039362
aF0.0
aF0.0
aF0.0
aF0.0
aF0.0
aF0.0
asS'Bacteria.Firmicutes.Clostridia.Lachnospirales.Lachnospiraceae._Eubacterium__xylanophilum_group.uncultured_bacterium'
p503
(lp504
F4597.564142405292
aF2844.318030309764
aF3228.449111185498
aF25768.391504106487
aF2606.2997989425876
aF6996.66771738641
aF2027.8151637505614
aF22759.050917460794
aF0.0
aF0.0
aF0.0
aF8500.874732720556
asS'Bacteria.Firmicutes.Bacilli.Izemoplasmatales.Izemoplasmatales.Izemoplasmatales'
p505
(lp506
F0.0
aF0.0
aF0.0
aF0.0
aF0.0
aF236.41194218039362
aF0.0
aF0.0
aF0.0
aF0.0
aF0.0
aF0.0
asS'Bacteria.Proteobacteria.Gammaproteobacteria.Burkholderiales.Sutterellaceae'
p507
(lp508
F5695.871131979889
aF903.6635408796647
aF3483.9062032029046
aF257.6839150410649
aF1299.7650945376022
aF3326.65375782411
aF2225.213100044864
aF430.2278056230774
aF0.0
aF0.0
aF5395.578217076943
aF1596.7343311765844
asS'Bacteria.Firmicutes.Bacilli.Erysipelotrichales.Erysipelotrichaceae.Allobaculum.uncultured_bacterium'
p509
(lp510
F0.0
aF0.0
aF0.0
aF394.74982729695046
aF291.0932242974838
aF0.0
aF0.0
aF0.0
aF0.0
aF0.0
aF0.0
aF1176.7237788453524
asS'Bacteria.Campilobacterota.Campylobacteria.Campylobacterales'
p511
(lp512
F0.0
aF0.0
aF0.0
aF38.378455431647964
aF0.0
aF0.0
aF0.0
aF193.60251253038481
aF0.0
aF0.0
aF639.4449784761986
aF458.19332981588946
asS'Bacteria.Firmicutes.Clostridia.Peptostreptococcales_Tissierellales.Anaerovoracaceae.Anaerovorax'
p513
(lp514
F93.65408438233001
aF0.0
aF0.0
aF0.0
aF0.0
aF0.0
aF0.0
aF0.0
aF0.0
aF0.0
aF0.0
aF0.0
asS'Bacteria.Firmicutes.Clostridia.Oscillospirales.Ruminococcaceae._Eubacterium__siraeum_group.uncultured_bacterium'
p515
(lp516
F0.0
aF0.0
aF0.0
aF0.0
aF0.0
aF0.0
aF0.0
aF17037.021102673865
aF0.0
aF0.0
aF0.0
aF3738.4410319069166
asS'Bacteria.Firmicutes.Negativicutes.Veillonellales_Selenomonadales.Selenomonadaceae.Quinella.uncultured_bacterium'
p517
(lp518
F0.0
aF0.0
aF0.0
aF0.0
aF0.0
aF0.0
aF0.0
aF0.0
aF0.0
aF0.0
aF7096.585447402516
aF1044.8196384438086
asS'Bacteria.Firmicutes.Bacilli.Staphylococcales'
p519
(lp520
F0.0
aF414.79637942017393
aF273.0748225013655
aF466.02410167001096
aF1638.2455879067693
aF0.0
aF0.0
aF0.0
aF0.0
aF0.0
aF0.0
aF76.36555496931491
asS'Bacteria.Firmicutes.Clostridia.Christensenellales.Christensenellaceae.Christensenellaceae_R_7_group'
p521
(lp522
F144.7381304090555
aF0.0
aF0.0
aF148.03118523635644
aF74.4657085412168
aF3287.251767460711
aF1399.7308209959626
aF0.0
aF177581.3072308178
aF0.0
aF0.0
aF1138.541001360695
asS'Archaea.Euryarchaeota.Methanobacteria.Methanobacteriales.Methanobacteriaceae.Methanosphaera.uncultured_archaeon'
p523
(lp524
F0.0
aF0.0
aF0.0
aF0.0
aF0.0
aF0.0
aF0.0
aF0.0
aF0.0
aF0.0
aF83.58757888577757
aF461.6644914054038
asS'Bacteria.Deferribacterota.Deferribacteres.Deferribacterales'
p525
(lp526
F0.0
aF0.0
aF0.0
aF87.72218384376677
aF0.0
aF67.54626919439816
aF0.0
aF0.0
aF0.0
aF0.0
aF0.0
aF0.0
asS'Bacteria.Proteobacteria.Gammaproteobacteria.Pseudomonadales.Moraxellaceae'
p527
(lp528
F0.0
aF0.0
aF0.0
aF82.23954735353135
aF0.0
aF33.77313459719908
aF0.0
aF0.0
aF2083.9911588253867
aF0.0
aF0.0
aF0.0
asS'Bacteria.Proteobacteria.Alphaproteobacteria.Sphingomonadales.Sphingomonadaceae'
p529
(lp530
F0.0
aF0.0
aF0.0
aF0.0
aF0.0
aF0.0
aF0.0
aF0.0
aF0.0
aF0.0
aF0.0
aF65.95207020077197
asS'Bacteria.Bacteroidota.Bacteroidia.Bacteroidales.Muribaculaceae.Muribaculaceae.uncultured_organism'
p531
(lp532
F0.0
aF0.0
aF0.0
aF0.0
aF0.0
aF0.0
aF0.0
aF0.0
aF0.0
aF0.0
aF668.7006310862206
aF2037.5718530449026
asS'Bacteria.Firmicutes.Clostridia.Lachnospirales.Lachnospiraceae.Acetatifactor'
p533
(lp534
F0.0
aF0.0
aF0.0
aF0.0
aF0.0
aF337.7313459719909
aF0.0
aF0.0
aF0.0
aF0.0
aF0.0
aF0.0
asS'Bacteria.Proteobacteria.Alphaproteobacteria.Rickettsiales.Mitochondria.Mitochondria'
p535
(lp536
F0.0
aF0.0
aF0.0
aF76.75691086329593
aF0.0
aF90.06169225919756
aF0.0
aF0.0
aF0.0
aF0.0
aF0.0
aF0.0
asS'Bacteria.Actinobacteriota.Coriobacteriia.Coriobacteriales.uncultured.uncultured.uncultured_bacterium'
p537
(lp538
F0.0
aF562.9379434988074
aF48.44875883088742
aF997.839841222847
aF250.47556509318377
aF146.35024992119605
aF0.0
aF623.8303181534623
aF5873.065993053363
aF0.0
aF0.0
aF531.0877231956902
asS'Bacteria.Firmicutes.Clostridia.Oscillospirales._Eubacterium__coprostanoligenes_group._Eubacterium__coprostanoligenes_group.uncultured_bacterium'
p539
(lp540
F0.0
aF0.0
aF52.85319145187719
aF0.0
aF2267.8193055734205
aF3275.9940559283114
aF0.0
aF0.0
aF0.0
aF0.0
aF49985.372173694996
aF72.89439337980059
asS'Bacteria.Firmicutes.Bacilli.Acholeplasmatales.Acholeplasmataceae'
p541
(lp542
F0.0
aF0.0
aF0.0
aF0.0
aF0.0
aF0.0
aF215.3432032301481
aF0.0
aF1705.083675402589
aF0.0
aF0.0
aF0.0
asS'Bacteria.Elusimicrobiota.Elusimicrobia.Elusimicrobiales.Elusimicrobiaceae.Elusimicrobium'
p543
(lp544
F0.0
aF0.0
aF0.0
aF0.0
aF0.0
aF0.0
aF0.0
aF0.0
aF0.0
aF0.0
aF91.94633677435534
aF190.9138874232873
asS'Bacteria.Elusimicrobiota.Elusimicrobia.Elusimicrobiales.Elusimicrobiaceae.Elusimicrobium.uncultured_bacterium'
p545
(lp546
F0.0
aF0.0
aF0.0
aF0.0
aF0.0
aF0.0
aF0.0
aF0.0
aF0.0
aF0.0
aF91.94633677435534
aF190.9138874232873
asS'Bacteria.Firmicutes.Clostridia.Peptococcales.Peptococcaceae'
p547
(lp548
F225.6212032847041
aF0.0
aF1131.93918359437
aF619.5379233966029
aF318.1716637670172
aF6850.317467465214
aF2799.4616419919253
aF516.2733667476929
aF1326.1761919797916
aF0.0
aF0.0
aF236.03898808697338
asS'Bacteria.Firmicutes.Bacilli.RF39.RF39.RF39.unidentified'
p549
(lp550
F0.0
aF0.0
aF0.0
aF0.0
aF0.0
aF337.7313459719909
aF0.0
aF473.25058618538515
aF0.0
aF0.0
aF0.0
aF142.31762517008687
asS'Bacteria.Firmicutes.Clostridia.Clostridia_UCG_014.Clostridia_UCG_014.Clostridia_UCG_014'
p551
(lp552
F0.0
aF325.91144097299383
aF0.0
aF312.5102799434191
aF1570.5494892329361
aF18682.172288017293
aF32750.112157918356
aF33665.32579000581
aF139753.71013577518
aF80425.78356002366
aF8.35875788857776
aF125579.68398544886
asS'Bacteria.Actinobacteriota.Coriobacteriia.Coriobacteriales.Atopobiaceae.Coriobacteriaceae_UCG_002'
p553
(lp554
F0.0
aF429.6105358280373
aF0.0
aF1595.447218658508
aF1733.0201260501362
aF281.44278830999235
aF0.0
aF0.0
aF0.0
aF0.0
aF41.79378944288879
aF767.1267112826635
asS'Bacteria.Firmicutes.Clostridia.Oscillospirales.Oscillospiraceae.uncultured.uncultured_bacterium'
p555
(lp556
F0.0
aF0.0
aF0.0
aF0.0
aF0.0
aF275.81393254379253
aF0.0
aF0.0
aF0.0
aF0.0
aF0.0
aF0.0
asS'Bacteria.Firmicutes.Clostridia.Oscillospirales.Ruminococcaceae.Paludicola.uncultured_bacterium'
p557
(lp558
F0.0
aF0.0
aF0.0
aF153.51382172659186
aF0.0
aF0.0
aF0.0
aF301.1594639361542
aF0.0
aF0.0
aF0.0
aF0.0
asS'Bacteria.Firmicutes.Clostridia.Oscillospirales.Butyricicoccaceae.UCG_008.uncultured_bacterium'
p559
(lp560
F0.0
aF0.0
aF0.0
aF0.0
aF0.0
aF0.0
aF0.0
aF1936.0251253038484
aF0.0
aF0.0
aF0.0
aF0.0
asS'Bacteria.Patescibacteria.Saccharimonadia.Saccharimonadales'
p561
(lp562
F0.0
aF0.0
aF0.0
aF948.4961128107282
aF0.0
aF332.102490205791
aF0.0
aF2151.139028115387
aF15787.811809283234
aF2956.8302779420465
aF0.0
aF22791.646996750987
asS'Bacteria.Bacteroidota.Bacteroidia.Bacteroidales.Marinifilaceae.Butyricimonas'
p563
(lp564
F0.0
aF0.0
aF0.0
aF0.0
aF0.0
aF0.0
aF0.0
aF0.0
aF0.0
aF0.0
aF351.06783132026584
aF0.0
asS'Bacteria.Firmicutes.Clostridia.Lachnospirales.Lachnospiraceae._Bacteroides__pectinophilus_group'
p565
(lp566
F0.0
aF0.0
aF0.0
aF0.0
aF0.0
aF0.0
aF0.0
aF817.4328306838471
aF820.9662140827281
aF4730.928444707274
aF0.0
aF1173.2526172558382
asS'Bacteria.Desulfobacterota.Desulfovibrionia.Desulfovibrionales.Desulfovibrionaceae.uncultured'
p567
(lp568
F0.0
aF0.0
aF0.0
aF0.0
aF0.0
aF0.0
aF0.0
aF0.0
aF0.0
aF0.0
aF2624.649977013416
aF208.26969537085884
asS'Bacteria.Firmicutes.Clostridia.Monoglobales.Monoglobaceae.Monoglobus'
p569
(lp570
F327.78929533815506
aF533.3096306830807
aF391.99450326808915
aF8503.569196355142
aF676.9609867383346
aF168.86567298599545
aF0.0
aF1269.1720265880783
aF29365.329965266814
aF23063.27616794796
aF0.0
aF1218.3777179195242
asS'Bacteria.Firmicutes.Clostridia.Oscillospirales.Ruminococcaceae.Incertae_Sedis.Clostridium_sp_'
p571
(lp572
F0.0
aF0.0
aF0.0
aF3053.8285250611307
aF0.0
aF0.0
aF0.0
aF0.0
aF0.0
aF0.0
aF0.0
aF0.0
asS'Bacteria.Firmicutes.Clostridia.Lachnospirales.Defluviitaleaceae'
p573
(lp574
F0.0
aF518.4954742752174
aF0.0
aF43.861091921883386
aF385.8677624408507
aF782.4109515017788
aF0.0
aF215.1139028115387
aF0.0
aF0.0
aF0.0
aF45.12510066368609
asS'Bacteria.Firmicutes.Clostridia.Oscillospirales.Ruminococcaceae.UBA1819.uncultured_bacterium'
p575
(lp576
F0.0
aF0.0
aF0.0
aF0.0
aF0.0
aF1519.7910568739587
aF3230.1480484522217
aF1161.615075182309
aF0.0
aF0.0
aF0.0
aF65.95207020077197
asS'Bacteria.Actinobacteriota.Coriobacteriia.Coriobacteriales.Eggerthellaceae'
p577
(lp578
F55.341049862285914
aF0.0
aF57.25762407286695
aF455.0588286895401
aF0.0
aF354.61791327059035
aF215.3432032301481
aF4818.551422978467
aF17619.19797916009
aF0.0
aF430.4760312617546
aF728.943933798006
asS'Bacteria.Firmicutes.Bacilli.Lactobacillales.Enterococcaceae'
p579
(lp580
F0.0
aF0.0
aF0.0
aF0.0
aF0.0
aF0.0
aF0.0
aF0.0
aF0.0
aF0.0
aF79.4081999414887
aF0.0
asS'Bacteria.Firmicutes.Clostridia.Lachnospirales.Lachnospiraceae._Eubacterium__ruminantium_group'
p581
(lp582
F0.0
aF0.0
aF0.0
aF0.0
aF0.0
aF0.0
aF0.0
aF98113.4510723428
aF0.0
aF0.0
aF0.0
aF0.0
asS'Bacteria.Proteobacteria.Gammaproteobacteria.Burkholderiales.Comamonadaceae.Comamonas'
p583
(lp584
F0.0
aF0.0
aF0.0
aF0.0
aF0.0
aF0.0
aF0.0
aF0.0
aF1641.9324281654563
aF0.0
aF0.0
aF0.0
asS'Bacteria.Proteobacteria.Gammaproteobacteria.Burkholderiales.Alcaligenaceae'
p585
(lp586
F34.05603068448364
aF0.0
aF79.27978717781578
aF0.0
aF0.0
aF0.0
aF0.0
aF0.0
aF0.0
aF0.0
aF0.0
aF284.63525034017374
asS'Bacteria.Firmicutes.Clostridia.Lachnospirales.Lachnospiraceae.Robinsoniella'
p587
(lp588
F0.0
aF0.0
aF0.0
aF0.0
aF0.0
aF0.0
aF0.0
aF0.0
aF0.0
aF0.0
aF117.02261044008861
aF0.0
asS'Bacteria.Deferribacterota'
p589
(lp590
F0.0
aF0.0
aF0.0
aF87.72218384376677
aF0.0
aF67.54626919439816
aF0.0
aF0.0
aF0.0
aF0.0
aF0.0
aF0.0
asS'Bacteria.Firmicutes.Bacilli'
p591
(lp592
F5819.324243211142
aF1318.4599202998386
aF1435.8450344426637
aF6178.931324495322
aF2288.1281351755706
aF6844.688611699015
aF3947.958725886048
aF3377.2882741411577
aF27976.00252604989
aF10940.27202838557
aF1721.9041250470184
aF1756.407764294243
asS'Bacteria.Firmicutes.Clostridia.Peptostreptococcales_Tissierellales.Anaerovoracaceae._Eubacterium__nodatum_group'
p593
(lp594
F0.0
aF0.0
aF246.6482267754269
aF71.2742743730605
aF142.16180721505026
aF0.0
aF0.0
aF1333.70619743154
aF0.0
aF0.0
aF0.0
aF479.02029935297537
asS'Bacteria.Proteobacteria.Alphaproteobacteria.Sphingomonadales'
p595
(lp596
F0.0
aF0.0
aF0.0
aF0.0
aF0.0
aF0.0
aF0.0
aF0.0
aF0.0
aF0.0
aF0.0
aF65.95207020077197
asS'Bacteria.Actinobacteriota.Coriobacteriia.Coriobacteriales.Atopobiaceae.Coriobacteriaceae_UCG_002.uncultured_bacterium'
p597
(lp598
F0.0
aF429.6105358280373
aF0.0
aF1595.447218658508
aF1733.0201260501362
aF281.44278830999235
aF0.0
aF0.0
aF0.0
aF0.0
aF41.79378944288879
aF767.1267112826635
asS'Bacteria.Bacteroidota.Bacteroidia.Bacteroidales.Muribaculaceae.Muribaculum.uncultured_bacterium'
p599
(lp600
F13260.566947770816
aF5896.034250329615
aF13521.60814643858
aF5394.914306391656
aF11156.317061447753
aF1187.6885666681678
aF2063.7056976222525
aF817.4328306838471
aF0.0
aF0.0
aF0.0
aF0.0
asS'Bacteria.Firmicutes.Bacilli.Erysipelotrichales.Erysipelotrichaceae.Faecalibaculum.uncultured_bacterium'
p601
(lp602
F0.0
aF0.0
aF0.0
aF487.9546476309527
aF0.0
aF0.0
aF0.0
aF0.0
aF1452.4786864540577
aF0.0
aF0.0
aF118.01949404348669
asS'Bacteria.Firmicutes.Clostridia.Clostridiales'
p603
(lp604
F0.0
aF0.0
aF0.0
aF290.5797339824774
aF0.0
aF821.8129418651778
aF0.0
aF0.0
aF48500.157878118094
aF3252.513305736251
aF1028.1272202950643
aF20521.507317208627
asS'Bacteria.Firmicutes.Negativicutes.Veillonellales_Selenomonadales'
p605
(lp606
F0.0
aF0.0
aF0.0
aF0.0
aF0.0
aF0.0
aF0.0
aF0.0
aF0.0
aF0.0
aF7619.0078154386265
aF1197.5507483824385
asS'Bacteria.Firmicutes.Clostridia.Lachnospirales.Lachnospiraceae.Coprococcus'
p607
(lp608
F0.0
aF0.0
aF0.0
aF0.0
aF0.0
aF0.0
aF0.0
aF0.0
aF5620.461004104831
aF0.0
aF0.0
aF0.0
asS'Bacteria.Firmicutes.Bacilli.Erysipelotrichales.Erysipelotrichaceae.uncultured'
p609
(lp610
F0.0
aF0.0
aF0.0
aF0.0
aF0.0
aF562.8855766199847
aF0.0
aF0.0
aF0.0
aF0.0
aF0.0
aF0.0
asS'Bacteria.Firmicutes.Clostridia.Lachnospirales.Lachnospiraceae.Lachnospiraceae_NC2004_group.uncultured_Clostridiaceae'
p611
(lp612
F0.0
aF0.0
aF149.75070911365202
aF0.0
aF0.0
aF0.0
aF0.0
aF0.0
aF0.0
aF0.0
aF0.0
aF0.0
asS'Bacteria.Firmicutes.Bacilli.Lactobacillales.Streptococcaceae.Streptococcus.Streptococcus_hyointestinalis'
p613
(lp614
F0.0
aF0.0
aF0.0
aF0.0
aF0.0
aF0.0
aF0.0
aF0.0
aF0.0
aF0.0
aF672.8800100305095
aF787.9536808197494
asS'Bacteria.Proteobacteria.Gammaproteobacteria.Burkholderiales.Burkholderiaceae.Burkholderia_Caballeronia_Paraburkholderia'
p615
(lp616
F0.0
aF0.0
aF110.11081552474414
aF537.2983760430715
aF135.3921973476669
aF78.80398072679786
aF0.0
aF0.0
aF5809.914745816231
aF0.0
aF171.35453671584403
aF267.27944239260216
asS'Bacteria.Firmicutes.Clostridia.Oscillospirales.Ruminococcaceae.Incertae_Sedis.uncultured_bacterium'
p617
(lp618
F114.93910356013228
aF3496.1409122557516
aF836.8421979880554
aF1929.888044562869
aF1550.240659630786
aF714.8646823073807
aF0.0
aF1634.8656613676942
aF18819.071676665615
aF19515.079834417505
aF0.0
aF1568.96503846047
asS'Bacteria.Firmicutes.Bacilli.Erysipelotrichales.Erysipelotrichaceae.uncultured.uncultured_bacterium'
p619
(lp620
F0.0
aF385.1680666044472
aF0.0
aF0.0
aF101.54414801075018
aF197.00995181699466
aF0.0
aF172.09112224923098
aF0.0
aF0.0
aF0.0
aF1093.415900697009
asS'Bacteria.Firmicutes.Clostridia.Lachnospirales'
p621
(lp622
F15882.881310476056
aF17154.793120305763
aF79187.294092775
aF139845.60895643494
aF18379.490789945783
aF129474.94033412889
aF77487.66262898162
aF210639.5336330587
aF59425.32365014209
aF142223.5363690124
aF108488.31863585074
aF31476.493293715797
asS'Bacteria.Firmicutes.Clostridia.Peptococcales.Peptococcaceae.uncultured'
p623
(lp624
F68.11206136896728
aF0.0
aF0.0
aF0.0
aF0.0
aF0.0
aF0.0
aF0.0
aF0.0
aF0.0
aF0.0
aF0.0
asS'Bacteria.Actinobacteriota.Actinobacteria.Corynebacteriales.Corynebacteriaceae.Corynebacterium.Corynebacterium_stationis'
p625
(lp626
F0.0
aF0.0
aF0.0
aF0.0
aF372.32854270608397
aF0.0
aF0.0
aF0.0
aF0.0
aF0.0
aF0.0
aF0.0
asS'Bacteria.Firmicutes.Clostridia.Oscillospirales.Oscillospiraceae.uncultured.Clostridium_sp_'
p627
(lp628
F225.6212032847041
aF0.0
aF0.0
aF0.0
aF155.70102694981696
aF410.9064709325889
aF0.0
aF0.0
aF0.0
aF0.0
aF0.0
aF0.0
asS'Archaea.Euryarchaeota.Methanobacteria'
p629
(lp630
F0.0
aF0.0
aF0.0
aF0.0
aF0.0
aF0.0
aF0.0
aF0.0
aF0.0
aF0.0
aF83.58757888577757
aF461.6644914054038
asS'Bacteria.Firmicutes.Clostridia.Oscillospirales.Ruminococcaceae.Subdoligranulum'
p631
(lp632
F0.0
aF0.0
aF0.0
aF0.0
aF0.0
aF0.0
aF0.0
aF0.0
aF0.0
aF0.0
aF0.0
aF48.5962622532004
asS'Bacteria.Elusimicrobiota.Elusimicrobia.Elusimicrobiales.Elusimicrobiaceae'
p633
(lp634
F0.0
aF0.0
aF0.0
aF0.0
aF0.0
aF0.0
aF0.0
aF0.0
aF0.0
aF0.0
aF91.94633677435534
aF190.9138874232873
asS'Bacteria.Firmicutes.Clostridia.Oscillospirales.Ruminococcaceae.Harryflintia'
p635
(lp636
F0.0
aF0.0
aF189.3906027025599
aF1052.6662061252011
aF0.0
aF0.0
aF0.0
aF0.0
aF0.0
aF0.0
aF0.0
aF0.0
asS'Bacteria.Actinobacteriota.Actinobacteria.Corynebacteriales.Corynebacteriaceae'
p637
(lp638
F0.0
aF0.0
aF0.0
aF0.0
aF372.32854270608397
aF0.0
aF0.0
aF0.0
aF0.0
aF0.0
aF0.0
aF0.0
asS'Bacteria.Actinobacteriota.Coriobacteriia.Coriobacteriales.Eggerthellaceae.Adlercreutzia'
p639
(lp640
F55.341049862285914
aF0.0
aF0.0
aF0.0
aF0.0
aF0.0
aF0.0
aF4452.857788198851
aF0.0
aF0.0
aF430.4760312617546
aF0.0
asS'Bacteria.Firmicutes.Clostridia.Oscillospirales.Ruminococcaceae.Ruminococcaceae'
p641
(lp642
F0.0
aF0.0
aF0.0
aF981.3919317521407
aF0.0
aF0.0
aF0.0
aF0.0
aF0.0
aF0.0
aF0.0
aF114.54833245397236
asS'Bacteria.Proteobacteria.Alphaproteobacteria.Rhizobiales.Beijerinckiaceae.Microvirga'
p643
(lp644
F0.0
aF0.0
aF0.0
aF0.0
aF0.0
aF0.0
aF0.0
aF0.0
aF884.117461319861
aF0.0
aF0.0
aF0.0
asS'Bacteria.Firmicutes.Clostridia.Peptostreptococcales_Tissierellales.Anaerovoracaceae._Eubacterium__brachy_group.uncultured_bacterium'
p645
(lp646
F0.0
aF0.0
aF48.44875883088742
aF213.8228231191815
aF0.0
aF78.80398072679786
aF0.0
aF0.0
aF1705.083675402589
aF0.0
aF0.0
aF59.009747021743344
asS'Bacteria.Firmicutes.Negativicutes.Veillonellales_Selenomonadales.Veillonellaceae.Veillonella'
p647
(lp648
F0.0
aF0.0
aF0.0
aF0.0
aF0.0
aF0.0
aF0.0
aF0.0
aF0.0
aF0.0
aF522.4223680361099
aF152.73110993862983
asS'Bacteria.Firmicutes.Clostridia.Peptococcales.Peptococcaceae.uncultured.uncultured_bacterium'
p649
(lp650
F38.31303452004409
aF0.0
aF140.9418438716725
aF71.2742743730605
aF0.0
aF0.0
aF0.0
aF516.2733667476929
aF0.0
aF0.0
aF0.0
aF65.95207020077197
asS'Bacteria.Proteobacteria.Alphaproteobacteria.Caulobacterales.Caulobacteraceae.Brevundimonas'
p651
(lp652
F0.0
aF0.0
aF0.0
aF49.34372841211881
aF0.0
aF0.0
aF0.0
aF0.0
aF0.0
aF0.0
aF0.0
aF0.0
asS'Bacteria.Firmicutes.Clostridia.Lachnospirales.Lachnospiraceae._Eubacterium__hallii_group.Clostridium_sp_'
p653
(lp654
F770.5176942364424
aF0.0
aF167.3684395976111
aF0.0
aF352.01971310393395
aF0.0
aF0.0
aF0.0
aF0.0
aF0.0
aF0.0
aF0.0
asS'Bacteria.Proteobacteria.Alphaproteobacteria.Rhodospirillales'
p655
(lp656
F0.0
aF0.0
aF0.0
aF0.0
aF0.0
aF174.4945287521953
aF0.0
aF0.0
aF0.0
aF0.0
aF1776.2360513227738
aF0.0
asS'Bacteria.Firmicutes.Bacilli.Lactobacillales.Streptococcaceae.Streptococcus.Streptococcus_agalactiae'
p657
(lp658
F0.0
aF162.95572048649692
aF92.49308504078509
aF0.0
aF0.0
aF0.0
aF0.0
aF0.0
aF0.0
aF0.0
aF0.0
aF0.0
asS'Bacteria.Actinobacteriota.Actinobacteria.Micrococcales.Micrococcaceae.Rothia'
p659
(lp660
F0.0
aF0.0
aF0.0
aF0.0
aF0.0
aF90.06169225919756
aF0.0
aF0.0
aF1768.234922639722
aF0.0
aF121.2019893843775
aF128.43297881202963
asS'Bacteria.Firmicutes.Clostridia.Lachnospirales.Lachnospiraceae._Eubacterium__ruminantium_group.uncultured_bacterium'
p661
(lp662
F0.0
aF0.0
aF0.0
aF0.0
aF0.0
aF0.0
aF0.0
aF98113.4510723428
aF0.0
aF0.0
aF0.0
aF0.0
asS'Bacteria.Firmicutes.Bacilli.RF39.RF39.RF39.uncultured_Lachnospiraceae'
p663
(lp664
F0.0
aF0.0
aF726.7313824633113
aF0.0
aF0.0
aF101.31940379159725
aF0.0
aF0.0
aF1705.083675402589
aF0.0
aF0.0
aF527.6165616061758
asS'Bacteria.Firmicutes.Clostridia.Eubacteriales.Eubacteriaceae.Eubacterium'
p665
(lp666
F0.0
aF0.0
aF0.0
aF0.0
aF0.0
aF0.0
aF0.0
aF0.0
aF0.0
aF0.0
aF91.94633677435534
aF0.0
asS'Bacteria.Bacteroidota.Bacteroidia.Bacteroidales.Bacteroidaceae.Bacteroides.Bacteroides_sartorii'
p667
(lp668
F0.0
aF0.0
aF0.0
aF0.0
aF0.0
aF0.0
aF0.0
aF0.0
aF0.0
aF0.0
aF23968.738245496723
aF0.0
asS'Bacteria.Firmicutes.Clostridia.Lachnospirales.Defluviitaleaceae.Defluviitaleaceae_UCG_011.uncultured_bacterium'
p669
(lp670
F0.0
aF518.4954742752174
aF0.0
aF43.861091921883386
aF0.0
aF500.9681631917864
aF0.0
aF0.0
aF0.0
aF0.0
aF0.0
aF0.0
asS'Bacteria.Firmicutes.Bacilli.Erysipelotrichales.Erysipelatoclostridiaceae.UCG_004.uncultured_bacterium'
p671
(lp672
F0.0
aF0.0
aF26.426595725938594
aF76.75691086329593
aF0.0
aF219.52537488179405
aF215.3432032301481
aF494.76197646653907
aF0.0
aF0.0
aF0.0
aF20.826969537085883
asS'Bacteria.Firmicutes.Clostridia.Lachnospirales.Lachnospiraceae.Lachnospiraceae_NC2004_group'
p673
(lp674
F0.0
aF0.0
aF149.75070911365202
aF0.0
aF0.0
aF0.0
aF0.0
aF0.0
aF0.0
aF0.0
aF0.0
aF0.0
asS'Bacteria.Firmicutes.Bacilli.Erysipelotrichales.Erysipelotrichaceae.Turicibacter'
p675
(lp676
F0.0
aF0.0
aF0.0
aF208.34018662894607
aF0.0
aF8077.408024496782
aF789.5917451772096
aF0.0
aF68013.89327439216
aF0.0
aF2892.130229447904
aF8959.068062536446
asS'Bacteria.Firmicutes.Bacilli.Staphylococcales.Staphylococcaceae.Staphylococcus'
p677
(lp678
F0.0
aF414.79637942017393
aF96.89751766177484
aF252.20127855082944
aF1056.0591393118018
aF0.0
aF0.0
aF0.0
aF0.0
aF0.0
aF0.0
aF76.36555496931491
asS'Bacteria.Firmicutes.Bacilli.RF39.RF39.RF39'
p679
(lp680
F0.0
aF0.0
aF0.0
aF0.0
aF0.0
aF900.6169225919756
aF861.3728129205924
aF1849.979564179233
aF7704.452162930218
aF0.0
aF0.0
aF4571.519813390352
asS'Bacteria.Firmicutes.Clostridia.Lachnospirales.Lachnospiraceae.Lachnospiraceae_UCG_010'
p681
(lp682
F0.0
aF0.0
aF118.91968076672367
aF0.0
aF0.0
aF0.0
aF0.0
aF0.0
aF0.0
aF0.0
aF0.0
aF0.0
asS'Bacteria.Firmicutes.Bacilli.Bacillales'
p683
(lp684
F0.0
aF0.0
aF0.0
aF0.0
aF0.0
aF0.0
aF0.0
aF0.0
aF0.0
aF0.0
aF0.0
aF79.83671655882924
asS'Bacteria.Firmicutes.Bacilli.Lactobacillales.Aerococcaceae.Aerococcus'
p685
(lp686
F246.90622246250638
aF0.0
aF83.68421979880554
aF0.0
aF148.9314170824336
aF0.0
aF0.0
aF0.0
aF0.0
aF0.0
aF0.0
aF0.0
asS'Bacteria.Firmicutes.Clostridia.Monoglobales'
p687
(lp688
F1983.7637873711722
aF533.3096306830807
aF391.99450326808915
aF8503.569196355142
aF676.9609867383346
aF168.86567298599545
aF0.0
aF2086.6048572719255
aF35238.39595832018
aF23063.27616794796
aF0.0
aF2270.139679542361
asS'Bacteria.Firmicutes.Clostridia.Lachnospirales.Lachnospiraceae._Bacteroides__pectinophilus_group.uncultured_bacterium'
p689
(lp690
F0.0
aF0.0
aF0.0
aF0.0
aF0.0
aF0.0
aF0.0
aF817.4328306838471
aF820.9662140827281
aF4730.928444707274
aF0.0
aF1173.2526172558382
asS'Bacteria.Proteobacteria.Alphaproteobacteria.Rickettsiales'
p691
(lp692
F0.0
aF0.0
aF0.0
aF76.75691086329593
aF0.0
aF90.06169225919756
aF0.0
aF0.0
aF0.0
aF0.0
aF0.0
aF0.0
asS'Bacteria.Firmicutes.Clostridia.Monoglobales.Monoglobaceae.Monoglobus.unidentified'
p693
(lp694
F1655.974492033017
aF0.0
aF0.0
aF0.0
aF0.0
aF0.0
aF0.0
aF817.4328306838471
aF0.0
aF0.0
aF0.0
aF52.06742384271471
asS'Bacteria.Actinobacteriota.Actinobacteria.Micrococcales'
p695
(lp696
F0.0
aF0.0
aF0.0
aF0.0
aF0.0
aF90.06169225919756
aF0.0
aF0.0
aF1768.234922639722
aF0.0
aF121.2019893843775
aF128.43297881202963
asS'Bacteria.Bacteroidota.Bacteroidia.Bacteroidales.Prevotellaceae.Prevotellaceae_UCG_003.uncultured_bacterium'
p697
(lp698
F0.0
aF0.0
aF0.0
aF0.0
aF0.0
aF0.0
aF0.0
aF0.0
aF0.0
aF0.0
aF105872.02741672588
aF19285.77379134153
asS'Bacteria.Firmicutes.Clostridia.Oscillospirales.Oscillospiraceae.NK4A214_group'
p699
(lp700
F0.0
aF0.0
aF0.0
aF2829.040428961478
aF101.54414801075018
aF3394.200027018508
aF3176.3122476446842
aF1054.0581237765396
aF0.0
aF0.0
aF0.0
aF4609.702590875009
asS'Bacteria.Campilobacterota'
p701
(lp702
F0.0
aF0.0
aF0.0
aF38.378455431647964
aF0.0
aF0.0
aF0.0
aF193.60251253038481
aF0.0
aF0.0
aF639.4449784761986
aF458.19332981588946
asS'Bacteria.Firmicutes.Clostridia.Clostridiales.Clostridiaceae.Clostridium_sensu_stricto_1'
p703
(lp704
F0.0
aF0.0
aF0.0
aF290.5797339824774
aF0.0
aF821.8129418651778
aF0.0
aF0.0
aF48500.157878118094
aF3252.513305736251
aF1028.1272202950643
aF20521.507317208627
asS'Bacteria.Bacteroidota.Bacteroidia.Bacteroidales.Prevotellaceae.Prevotellaceae_NK3B31_group.uncultured_bacterium'
p705
(lp706
F128463.60474570784
aF45405.389390101176
aF9174.433149521683
aF6047.348048729672
aF28696.376227838
aF3005.8089791507186
aF92471.96052041277
aF11422.548239292704
aF0.0
aF46422.235363690124
aF171.35453671584403
aF4807.558801477325
asS'Bacteria.Firmicutes.Clostridia.Peptostreptococcales_Tissierellales'
p707
(lp708
F1362.2412273793454
aF1748.0704561278758
aF3761.38545832526
aF53581.80641907079
aF4569.486660483758
aF11606.700589904087
aF2440.556303275012
aF3635.4249575150043
aF54499.52636564573
aF0.0
aF5057.048522589544
aF8587.653772458412
asS'Bacteria.Firmicutes.Clostridia.Oscillospirales.Ruminococcaceae.Ruminococcus.Clostridium_islandicum'
p709
(lp710
F0.0
aF0.0
aF0.0
aF0.0
aF0.0
aF0.0
aF0.0
aF0.0
aF505.20997789706354
aF0.0
aF0.0
aF0.0
asS'Bacteria.Cyanobacteria.Vampirivibrionia.Gastranaerophilales'
p711
(lp712
F0.0
aF814.7786024324845
aF0.0
aF164.4790947070627
aF440.02464137991745
aF4401.76520916828
aF6406.460296096906
aF0.0
aF1073.57120303126
aF0.0
aF0.0
aF111.07717086445807
asS'Bacteria.Actinobacteriota.Coriobacteriia.Coriobacteriales.Eggerthellaceae.Parvibacter'
p713
(lp714
F0.0
aF0.0
aF57.25762407286695
aF455.0588286895401
aF0.0
aF0.0
aF0.0
aF0.0
aF0.0
aF0.0
aF0.0
aF0.0
asS'Bacteria.Actinobacteriota.Coriobacteriia'
p715
(lp716
F55.341049862285914
aF992.5484793268447
aF105.70638290375437
aF3048.345888570895
aF1983.49569114332
aF782.4109515017788
aF215.3432032301481
aF5442.381741131929
aF23492.263972213448
aF0.0
aF472.2698207046434
aF2027.1583682763596
asS'Bacteria.Firmicutes.Bacilli.Lactobacillales'
p717
(lp718
F9118.502215770493
aF124350.02888760499
aF18665.98544775463
aF89136.7040582475
aF39947.46782742912
aF42925.65407304004
aF50695.37909376404
aF265966.8294361864
aF135143.66908746448
aF388231.81549379067
aF10114.097045179087
aF15887.506595207014
asS'Bacteria.Firmicutes.Bacilli.Erysipelotrichales.Erysipelatoclostridiaceae.Erysipelatoclostridium'
p719
(lp720
F140.481126573495
aF0.0
aF303.9058508482938
aF60.30900139258966
aF291.0932242974838
aF0.0
aF0.0
aF0.0
aF0.0
aF0.0
aF656.162494253354
aF0.0
asS'Bacteria.Proteobacteria.Alphaproteobacteria.Rhodospirillales.uncultured.uncultured.Azospirillum_sp_'
p721
(lp722
F0.0
aF0.0
aF0.0
aF0.0
aF0.0
aF174.4945287521953
aF0.0
aF0.0
aF0.0
aF0.0
aF121.2019893843775
aF0.0
asS'Bacteria.Firmicutes.Clostridia.Lachnospirales.Lachnospiraceae._Eubacterium__ventriosum_group'
p723
(lp724
F0.0
aF0.0
aF57.25762407286695
aF0.0
aF0.0
aF0.0
aF0.0
aF0.0
aF0.0
aF0.0
aF0.0
aF0.0
asS'Bacteria.Firmicutes.Clostridia.Lachnospirales.Lachnospiraceae.Lachnoclostridium'
p725
(lp726
F0.0
aF0.0
aF0.0
aF0.0
aF169.24024668458364
aF545.9990093213852
aF0.0
aF1204.637855744617
aF2778.654878433849
aF0.0
aF13499.393990053079
aF548.4435311432617
asS'Archaea.Euryarchaeota.Methanobacteria.Methanobacteriales.Methanobacteriaceae'
p727
(lp728
F0.0
aF0.0
aF0.0
aF0.0
aF0.0
aF0.0
aF0.0
aF0.0
aF0.0
aF0.0
aF83.58757888577757
aF461.6644914054038
asS'Bacteria.Bacteroidota.Bacteroidia.Bacteroidales.Marinifilaceae.Odoribacter.uncultured_bacterium'
p729
(lp730
F0.0
aF0.0
aF0.0
aF0.0
aF0.0
aF0.0
aF0.0
aF0.0
aF0.0
aF0.0
aF37.614410498599916
aF86.77903973785786
asS'Bacteria.Firmicutes.Clostridia.Oscillospirales._Eubacterium__coprostanoligenes_group._Eubacterium__coprostanoligenes_group.Clostridiales_bacterium'
p731
(lp732
F0.0
aF0.0
aF0.0
aF0.0
aF0.0
aF0.0
aF0.0
aF0.0
aF0.0
aF0.0
aF0.0
aF7535.891810835576
asS'Bacteria.Cyanobacteria.Vampirivibrionia.Gastranaerophilales.Gastranaerophilales.Gastranaerophilales'
p733
(lp734
F0.0
aF0.0
aF0.0
aF0.0
aF0.0
aF1114.5134417075699
aF1722.7456258411848
aF0.0
aF0.0
aF0.0
aF0.0
aF0.0
asS'Bacteria.Proteobacteria.Gammaproteobacteria.Enterobacterales.Enterobacteriaceae'
p735
(lp736
F8169.190360440512
aF1733.2562997200123
aF629.8338648015365
aF3108.654889963485
aF1441.9269017526524
aF1784.3472778853516
aF251.23373710183944
aF2581.3668337384643
aF27912.851278812755
aF11235.955056179775
aF936.1808835207089
aF1690.455694093471
asS'Bacteria.Elusimicrobiota.Elusimicrobia'
p737
(lp738
F0.0
aF0.0
aF0.0
aF0.0
aF0.0
aF0.0
aF0.0
aF0.0
aF0.0
aF0.0
aF91.94633677435534
aF190.9138874232873
asS'Bacteria.Proteobacteria.Gammaproteobacteria.Pasteurellales.Pasteurellaceae'
p739
(lp740
F0.0
aF0.0
aF0.0
aF0.0
aF0.0
aF0.0
aF0.0
aF1204.637855744617
aF0.0
aF0.0
aF1391.7331884481966
aF666.4630251867483
asS'Bacteria.Cyanobacteria.Vampirivibrionia.Gastranaerophilales.Gastranaerophilales.Gastranaerophilales.uncultured_rumen'
p741
(lp742
F0.0
aF0.0
aF0.0
aF0.0
aF0.0
aF883.7303552933761
aF1399.7308209959626
aF0.0
aF0.0
aF0.0
aF0.0
aF79.83671655882924
asS'Bacteria.Firmicutes.Clostridia.Monoglobales.Monoglobaceae'
p743
(lp744
F1983.7637873711722
aF533.3096306830807
aF391.99450326808915
aF8503.569196355142
aF676.9609867383346
aF168.86567298599545
aF0.0
aF2086.6048572719255
aF35238.39595832018
aF23063.27616794796
aF0.0
aF2270.139679542361
asS'Bacteria.Firmicutes.Clostridia.Oscillospirales.UCG_010.UCG_010.uncultured_organism'
p745
(lp746
F0.0
aF0.0
aF0.0
aF0.0
aF0.0
aF0.0
aF0.0
aF0.0
aF0.0
aF0.0
aF0.0
aF1017.0503457276941
asS'Bacteria.Firmicutes.Bacilli.Lactobacillales.Lactobacillaceae'
p747
(lp748
F8462.923625094183
aF122216.79036487268
aF18221.13775303466
aF87261.642378587
aF37503.63866530373
aF42745.53068852164
aF50695.37909376404
aF265966.8294361864
aF130786.2330281023
aF388231.81549379067
aF9140.301751159777
aF15099.552914387266
asS'Bacteria.Firmicutes.Clostridia.Lachnospirales.Lachnospiraceae.Lachnospiraceae'
p749
(lp750
F0.0
aF0.0
aF0.0
aF0.0
aF0.0
aF0.0
aF0.0
aF0.0
aF0.0
aF0.0
aF263.30087349019936
aF0.0
asS'Bacteria.Firmicutes.Clostridia.Lachnospirales.Lachnospiraceae._Eubacterium__xylanophilum_group'
p751
(lp752
F0.0
aF0.0
aF0.0
aF0.0
aF0.0
aF10328.950330976719
aF0.0
aF17531.783079140405
aF2841.806125670982
aF0.0
aF0.0
aF97.1925245064008
asS'Archaea.Euryarchaeota.Methanobacteria.Methanobacteriales.Methanobacteriaceae.Methanosphaera'
p753
(lp754
F0.0
aF0.0
aF0.0
aF0.0
aF0.0
aF0.0
aF0.0
aF0.0
aF0.0
aF0.0
aF83.58757888577757
aF461.6644914054038
asS'Bacteria.Firmicutes.Clostridia.Lachnospirales.Lachnospiraceae.GCA_900066575.uncultured_bacterium'
p755
(lp756
F0.0
aF607.3804127223975
aF1233.2411338771344
aF0.0
aF0.0
aF731.7512496059802
aF0.0
aF0.0
aF0.0
aF0.0
aF0.0
aF354.05848213046005
asS'Bacteria.Firmicutes.Clostridia.Peptostreptococcales_Tissierellales.Anaerovoracaceae.Anaerovorax.uncultured_bacterium'
p757
(lp758
F0.0
aF0.0
aF171.77287221860087
aF0.0
aF0.0
aF591.029855450984
aF520.4127411395245
aF0.0
aF0.0
aF0.0
aF0.0
aF0.0
asS'Bacteria.Proteobacteria.Alphaproteobacteria.Rhizobiales.Rhizobiaceae.uncultured'
p759
(lp760
F0.0
aF0.0
aF0.0
aF0.0
aF0.0
aF0.0
aF0.0
aF0.0
aF0.0
aF0.0
aF0.0
aF59.009747021743344
asS'Bacteria.Firmicutes.Clostridia'
p761
(lp762
F27585.38485443174
aF78115.04673866347
aF115153.89087577745
aF285278.02449641976
aF63586.94548433177
aF357162.1560769128
aF232588.60475549582
aF492223.6324133629
aF606757.1834543734
aF393554.1099940864
aF185652.1920842563
aF348317.1808614033
asS'Bacteria.Firmicutes.Clostridia.Lachnospirales.Lachnospiraceae.GCA_900066575'
p763
(lp764
F0.0
aF607.3804127223975
aF1233.2411338771344
aF0.0
aF0.0
aF731.7512496059802
aF0.0
aF0.0
aF0.0
aF0.0
aF0.0
aF354.05848213046005
asS'Bacteria.Proteobacteria.Alphaproteobacteria.Rhodospirillales.uncultured.uncultured.uncultured_bacterium'
p765
(lp766
F0.0
aF0.0
aF0.0
aF0.0
aF0.0
aF0.0
aF0.0
aF0.0
aF0.0
aF0.0
aF1563.0877251640409
aF0.0
asS'Bacteria.Firmicutes.Bacilli.Erysipelotrichales.Erysipelotrichaceae'
p767
(lp768
F540.6394871161777
aF1288.8316074841118
aF885.290956818943
aF4994.68184260447
aF1279.4562649354523
aF9884.270725446933
aF1561.2382234185736
aF172.09112224923098
aF103504.89422166087
aF0.0
aF6862.54022652234
aF70051.51203798837
asS'Bacteria.Actinobacteriota.Coriobacteriia.Coriobacteriales.Eggerthellaceae.Enterorhabdus'
p769
(lp770
F0.0
aF0.0
aF0.0
aF0.0
aF0.0
aF0.0
aF215.3432032301481
aF365.6936347796158
aF14145.879381117777
aF0.0
aF0.0
aF468.60681458443247
asS'Bacteria.Bacteroidota.Bacteroidia.Bacteroidales.Muribaculaceae.Muribaculum'
p771
(lp772
F13260.566947770816
aF5896.034250329615
aF13521.60814643858
aF5394.914306391656
aF11156.317061447753
aF1187.6885666681678
aF2063.7056976222525
aF817.4328306838471
aF0.0
aF0.0
aF0.0
aF0.0
asS'Bacteria.Desulfobacterota.Desulfovibrionia.Desulfovibrionales.Desulfovibrionaceae.uncultured.uncultured_bacterium'
p773
(lp774
F0.0
aF0.0
aF0.0
aF0.0
aF0.0
aF0.0
aF0.0
aF0.0
aF0.0
aF0.0
aF2624.649977013416
aF208.26969537085884
asS'Bacteria.Proteobacteria.Gammaproteobacteria.Burkholderiales.Comamonadaceae'
p775
(lp776
F0.0
aF0.0
aF0.0
aF0.0
aF0.0
aF0.0
aF0.0
aF0.0
aF14587.938111777708
aF0.0
aF0.0
aF513.7319152481185
asS'Bacteria.Firmicutes.Clostridia.Clostridia_vadinBB60_group.Clostridia_vadinBB60_group.Clostridia_vadinBB60_group.gut_metagenome'
p777
(lp778
F0.0
aF0.0
aF0.0
aF0.0
aF0.0
aF0.0
aF0.0
aF0.0
aF0.0
aF0.0
aF54.33192627575543
aF0.0
asS'Bacteria.Firmicutes.Clostridia.Oscillospirales._Eubacterium__coprostanoligenes_group'
p779
(lp780
F0.0
aF19643.571396826806
aF52.85319145187719
aF16294.395648979678
aF2755.2312160250212
aF18625.883730355294
aF31834.903544190227
aF105965.10852496396
aF7388.695926744554
aF90774.68953282082
aF50010.44844736073
aF38575.01874427257
asS'Bacteria.Firmicutes.Bacilli.Erysipelotrichales.Erysipelatoclostridiaceae.Erysipelatoclostridiaceae.uncultured_bacterium'
p781
(lp782
F0.0
aF0.0
aF0.0
aF0.0
aF0.0
aF22.51542306479939
aF0.0
aF0.0
aF0.0
aF0.0
aF0.0
aF0.0
asS'Bacteria.Firmicutes.Clostridia.uncultured.uncultured.uncultured'
p783
(lp784
F0.0
aF0.0
aF0.0
aF1293.9022116955598
aF0.0
aF0.0
aF0.0
aF0.0
aF0.0
aF0.0
aF0.0
aF114.54833245397236
asS'Bacteria.Bacteroidota.Bacteroidia.Bacteroidales.Muribaculaceae.Muribaculaceae.uncultured_bacterium'
p785
(lp786
F376310.62505587307
aF253440.58782572625
aF338894.66358943656
aF470870.7523273791
aF397558.8786818217
aF417559.7784482371
aF471655.4508748319
aF155936.06814808442
aF8841.174613198611
aF136901.24186871675
aF278350.8170685836
aF414172.05853766896
asS'Bacteria.Firmicutes.Clostridia.Clostridia_UCG_014'
p787
(lp788
F0.0
aF488.8671614594908
aF0.0
aF394.74982729695046
aF1570.5494892329361
aF70585.85130814608
aF52364.288918797676
aF71267.23600146278
aF166277.233975371
aF80425.78356002366
aF8.35875788857776
aF175609.53597511866
asS'Bacteria.Firmicutes.Clostridia.Oscillospirales.Ruminococcaceae._Eubacterium__siraeum_group'
p789
(lp790
F0.0
aF0.0
aF0.0
aF0.0
aF0.0
aF0.0
aF0.0
aF17037.021102673865
aF0.0
aF0.0
aF0.0
aF3738.4410319069166
asS'Bacteria.Firmicutes.Clostridia.Oscillospirales.Ruminococcaceae.Fournierella'
p791
(lp792
F0.0
aF0.0
aF0.0
aF0.0
aF0.0
aF6242.401044715631
aF1435.621354867654
aF0.0
aF0.0
aF0.0
aF0.0
aF277.6929271611452
asS'Bacteria.Firmicutes.Bacilli.Erysipelotrichales.Erysipelatoclostridiaceae.Erysipelatoclostridium.uncultured_bacterium'
p793
(lp794
F0.0
aF0.0
aF17.61773048395906
aF0.0
aF0.0
aF0.0
aF0.0
aF0.0
aF2273.4449005367856
aF0.0
aF0.0
aF0.0
asS'Bacteria.Proteobacteria.Gammaproteobacteria.Enterobacterales.Morganellaceae'
p795
(lp796
F119.19610739569274
aF0.0
aF0.0
aF0.0
aF0.0
aF0.0
aF0.0
aF0.0
aF0.0
aF0.0
aF238.2245998244661
aF0.0
asS'Bacteria.Firmicutes.Clostridia.Peptococcales.Peptococcaceae.Peptococcus.uncultured_bacterium'
p797
(lp798
F0.0
aF0.0
aF0.0
aF0.0
aF0.0
aF123.83482685639665
aF0.0
aF0.0
aF0.0
aF0.0
aF0.0
aF27.769292716114517
asS'Bacteria.Bacteroidota.Bacteroidia.Bacteroidales.Tannerellaceae.Parabacteroides.Parabacteroides_goldsteinii'
p799
(lp800
F25197.205702682335
aF2029.5394278772794
aF27545.32161166999
aF1655.756220051098
aF2321.976184512487
aF945.6477687215745
aF2781.5163750560796
aF0.0
aF0.0
aF0.0
aF20758.975216282863
aF0.0
asS'Bacteria.Firmicutes.Bacilli.Lactobacillales.Enterococcaceae.Enterococcus'
p801
(lp802
F0.0
aF0.0
aF0.0
aF0.0
aF0.0
aF0.0
aF0.0
aF0.0
aF0.0
aF0.0
aF79.4081999414887
aF0.0
asS'Bacteria.Firmicutes.Clostridia.Eubacteriales'
p803
(lp804
F0.0
aF0.0
aF0.0
aF0.0
aF0.0
aF0.0
aF0.0
aF0.0
aF0.0
aF0.0
aF91.94633677435534
aF0.0
asS'Bacteria.Firmicutes.Bacilli.Erysipelotrichales.Erysipelatoclostridiaceae.Coprobacillus'
p805
(lp806
F0.0
aF0.0
aF0.0
aF0.0
aF0.0
aF0.0
aF0.0
aF0.0
aF0.0
aF0.0
aF3280.81247126677
aF0.0
asS'Bacteria.Proteobacteria.Alphaproteobacteria.Rhodospirillales.uncultured'
p807
(lp808
F0.0
aF0.0
aF0.0
aF0.0
aF0.0
aF174.4945287521953
aF0.0
aF0.0
aF0.0
aF0.0
aF1776.2360513227738
aF0.0
asS'Bacteria.Desulfobacterota.Desulfovibrionia.Desulfovibrionales'
p809
(lp810
F0.0
aF0.0
aF0.0
aF0.0
aF0.0
aF0.0
aF0.0
aF0.0
aF0.0
aF0.0
aF3723.8266393613912
aF3405.2095193135424
asS'Bacteria.Firmicutes.Clostridia.Lachnospirales.Lachnospiraceae.Blautia.Lachnospiraceae_bacterium'
p811
(lp812
F0.0
aF340.72559738085715
aF431.63439685699706
aF6211.827143436734
aF961.284601168435
aF923.132345656775
aF0.0
aF0.0
aF0.0
aF0.0
aF0.0
aF0.0
asS'Archaea.Euryarchaeota'
p813
(lp814
F0.0
aF0.0
aF0.0
aF0.0
aF0.0
aF0.0
aF0.0
aF0.0
aF0.0
aF0.0
aF83.58757888577757
aF461.6644914054038
asS'Bacteria.Firmicutes.Clostridia.Oscillospirales.Oscillospiraceae.Papillibacter'
p815
(lp816
F0.0
aF1022.1767921425715
aF0.0
aF0.0
aF907.1277222293681
aF1277.7502589273654
aF1058.770749214895
aF5162.7336674769285
aF0.0
aF0.0
aF0.0
aF177.02924106523002
asS'Bacteria.Bacteroidota.Bacteroidia.Bacteroidales.Rikenellaceae.Rikenella'
p817
(lp818
F0.0
aF0.0
aF0.0
aF0.0
aF0.0
aF0.0
aF0.0
aF0.0
aF0.0
aF0.0
aF430.4760312617546
aF0.0
asS'Bacteria.Verrucomicrobiota.Verrucomicrobiae.Verrucomicrobiales.Akkermansiaceae'
p819
(lp820
F135836.73538889855
aF0.0
aF0.0
aF268.64918802153574
aF40.61765920430007
aF7908.542351510786
aF466.57694033198754
aF16692.838858175404
aF0.0
aF0.0
aF0.0
aF0.0
asS'Bacteria.Firmicutes.Clostridia.Clostridia_vadinBB60_group.Clostridia_vadinBB60_group'
p821
(lp822
F0.0
aF474.05300505162734
aF114.5152481457339
aF350.8887353750671
aF264.01478482795045
aF816.1840860989778
aF0.0
aF731.3872695592316
aF315.75623618566465
aF0.0
aF3753.0822919714133
aF173.55807947571572
asS'Bacteria.Firmicutes.Clostridia.Oscillospirales.Butyricicoccaceae.Butyricicoccus'
p823
(lp824
F0.0
aF0.0
aF295.09698560631426
aF383.7845543164796
aF236.9363453584171
aF0.0
aF0.0
aF365.6936347796158
aF0.0
aF0.0
aF2904.668366280771
aF0.0
asS'Bacteria.Firmicutes.Clostridia.Peptostreptococcales_Tissierellales.Anaerovoracaceae.Family_XIII_AD3011_group'
p825
(lp826
F72.36906520452774
aF0.0
aF0.0
aF0.0
aF0.0
aF0.0
aF0.0
aF0.0
aF0.0
aF0.0
aF0.0
aF90.25020132737218
asS'Bacteria.Firmicutes.Clostridia.Lachnospirales.Lachnospiraceae.Lachnoclostridium._Clostridium__aldenense'
p827
(lp828
F0.0
aF0.0
aF0.0
aF0.0
aF0.0
aF0.0
aF0.0
aF0.0
aF0.0
aF0.0
aF28093.785263509846
aF0.0
asS'Bacteria.Firmicutes.Clostridia.Oscillospirales.Ruminococcaceae.Ruminococcaceae.uncultured_bacterium'
p829
(lp830
F0.0
aF0.0
aF0.0
aF981.3919317521407
aF0.0
aF0.0
aF0.0
aF0.0
aF0.0
aF0.0
aF0.0
aF114.54833245397236
asS'Bacteria.Firmicutes.Clostridia.Clostridia_UCG_014.Clostridia_UCG_014.Clostridia_UCG_014.unidentified'
p831
(lp832
F0.0
aF0.0
aF0.0
aF0.0
aF0.0
aF37077.272931958396
aF11772.095109914762
aF32847.89295932196
aF3978.5285759393746
aF0.0
aF0.0
aF39689.26161450667
asS'Bacteria.Firmicutes.Clostridia.Peptostreptococcales_Tissierellales.Anaerovoracaceae._Eubacterium__brachy_group'
p833
(lp834
F0.0
aF0.0
aF48.44875883088742
aF213.8228231191815
aF0.0
aF78.80398072679786
aF0.0
aF0.0
aF1705.083675402589
aF0.0
aF0.0
aF59.009747021743344
asS'Bacteria.Firmicutes.Clostridia.Oscillospirales.Ruminococcaceae.Ruminococcus.unidentified'
p835
(lp836
F0.0
aF0.0
aF0.0
aF0.0
aF0.0
aF6794.028909803216
aF8739.344997756843
aF17768.408372233098
aF1136.7224502683928
aF7096.392667060911
aF0.0
aF0.0
asS'Bacteria.Firmicutes.Clostridia.Oscillospirales.Ruminococcaceae.uncultured'
p837
(lp838
F0.0
aF0.0
aF83.68421979880554
aF301.54500696294826
aF142.16180721505026
aF225.1542306479939
aF0.0
aF129.06834168692322
aF0.0
aF0.0
aF133.74012621724415
aF59.009747021743344
asS'Bacteria.Patescibacteria.Saccharimonadia.Saccharimonadales.Saccharimonadaceae.Candidatus_Saccharimonas'
p839
(lp840
F0.0
aF0.0
aF0.0
aF948.4961128107282
aF0.0
aF332.102490205791
aF0.0
aF2151.139028115387
aF15787.811809283234
aF2956.8302779420465
aF0.0
aF22791.646996750987
asS'Bacteria.Firmicutes.Bacilli.Lactobacillales.Lactobacillaceae.Lactobacillus.Lactobacillus_faecis'
p841
(lp842
F0.0
aF105313.8379035006
aF6769.61293846127
aF47348.048729673115
aF28229.273146988548
aF7131.760255775206
aF22252.131000448637
aF0.0
aF0.0
aF24837.374334713186
aF217.3277051030217
aF8591.124934047928
asS'Bacteria.Firmicutes.Clostridia.Lachnospirales.Lachnospiraceae.Tuzzerella.uncultured_bacterium'
p843
(lp844
F0.0
aF0.0
aF0.0
aF0.0
aF0.0
aF422.1641824649886
aF0.0
aF0.0
aF0.0
aF0.0
aF0.0
aF138.8464635805726
asS'Bacteria.Patescibacteria.Saccharimonadia'
p845
(lp846
F0.0
aF0.0
aF0.0
aF948.4961128107282
aF0.0
aF332.102490205791
aF0.0
aF2151.139028115387
aF15787.811809283234
aF2956.8302779420465
aF0.0
aF22791.646996750987
asS'Bacteria.Campilobacterota.Campylobacteria.Campylobacterales.Helicobacteraceae.Helicobacter.Helicobacter_rodentium'
p847
(lp848
F0.0
aF0.0
aF0.0
aF38.378455431647964
aF0.0
aF0.0
aF0.0
aF193.60251253038481
aF0.0
aF0.0
aF0.0
aF0.0
asS'Bacteria.Firmicutes.Clostridia.Oscillospirales.Oscillospiraceae'
p849
(lp850
F2494.604247638427
aF4251.662889056783
aF22026.56753756982
aF8015.614548724188
aF3350.956884354756
aF33170.8470302157
aF14104.9798115747
aF18413.750080667716
aF20082.096621408273
aF8574.807806031935
aF3000.794081999415
aF10961.928299686206
asS'Bacteria.Firmicutes.Bacilli.Bacillales.Bacillaceae'
p851
(lp852
F0.0
aF0.0
aF0.0
aF0.0
aF0.0
aF0.0
aF0.0
aF0.0
aF0.0
aF0.0
aF0.0
aF79.83671655882924
asS'Bacteria.Proteobacteria.Gammaproteobacteria.Enterobacterales'
p853
(lp854
F8288.386467836206
aF1733.2562997200123
aF629.8338648015365
aF3108.654889963485
aF1441.9269017526524
aF1784.3472778853516
aF251.23373710183944
aF2581.3668337384643
aF27912.851278812755
aF11235.955056179775
aF1174.405483345175
aF1690.455694093471
asS'Bacteria.Proteobacteria.Gammaproteobacteria.Burkholderiales.Comamonadaceae.Delftia'
p855
(lp856
F0.0
aF0.0
aF0.0
aF0.0
aF0.0
aF0.0
aF0.0
aF0.0
aF12946.005683612251
aF0.0
aF0.0
aF513.7319152481185
asS'Bacteria.Firmicutes.Clostridia.Peptostreptococcales_Tissierellales.Anaerovoracaceae.Family_XIII_AD3011_group.uncultured_organism'
p857
(lp858
F0.0
aF0.0
aF0.0
aF0.0
aF0.0
aF0.0
aF0.0
aF0.0
aF0.0
aF0.0
aF0.0
aF131.90414040154394
asS'Bacteria.Firmicutes.Clostridia.Clostridia_vadinBB60_group.Clostridia_vadinBB60_group.Clostridia_vadinBB60_group.uncultured_Clostridia'
p859
(lp860
F0.0
aF237.02650252581367
aF114.5152481457339
aF137.0659122558856
aF0.0
aF0.0
aF0.0
aF0.0
aF0.0
aF0.0
aF133.74012621724415
aF0.0
asS'Bacteria'
p861
(lp862
F1000000.0
aF1000000.0
aF1000000.0
aF1000000.0
aF1000000.0
aF1000000.0
aF1000000.0
aF1000000.0
aF1000000.0
aF1000000.0
aF999916.4124211142
aF999538.3355085945
assS'subclass_sl'
p863
(dp864
g12
(I5
I12
tp865
sg10
(I0
I5
tp866
ssS'norm'
p867
F1000000.0
sS'cls'
p868
(dp869
S'class'
p870
(S'NR'
p871
S'NR'
p872
S'NR'
p873
S'NR'
p874
g3
S'STD-NR'
p875
S'STD-NR'
p876
S'STD-NR'
p877
S'STD-NR'
p878
S'STD-NR'
p879
S'STD-NR'
p880
g5
tp881
sS'subclass'
p882
(lp883
S'NR_subcl'
p884
aS'NR_subcl'
p885
aS'NR_subcl'
p886
aS'NR_subcl'
p887
ag10
aS'STD-NR_subcl'
p888
aS'STD-NR_subcl'
p889
aS'STD-NR_subcl'
p890
aS'STD-NR_subcl'
p891
aS'STD-NR_subcl'
p892
aS'STD-NR_subcl'
p893
ag12
asS'subject'
p894
(S'S210421121677'
p895
S'S210421121678'
p896
S'S210421121679'
p897
S'S210421121680'
p898
S'S210421121681'
p899
S'S210421121685'
p900
S'S210421121686'
p901
S'S210421121687'
p902
S'S210421121703'
p903
S'S210421121704'
p904
S'S210421121705'
p905
S'S210421121706'
p906
tp907
ss.