(dp0
S'class_sl'
p1
(dp2
S'NR'
p3
(I0
I5
tp4
sS'STD-NR'
p5
(I5
I12
tp6
ssS'class_hierarchy'
p7
(dp8
g3
(lp9
S'NR_subcl'
p10
asg5
(lp11
S'STD-NR_subcl'
p12
assS'feats'
p13
(dp14
S'Bacteria.Firmicutes.Bacilli.Acholeplasmatales'
p15
(lp16
F0.0
aF0.0
aF0.0
aF0.0
aF0.0
aF0.0
aF215.343203230148
aF0.0
aF1705.083675402589
aF0.0
aF0.0
aF0.0
asS'Bacteria.Firmicutes.Bacilli.Lactobacillales.Streptococcaceae'
p17
(lp18
F408.67236821380374
aF2133.2385227323225
aF361.1634749211607
aF1875.0616796605152
aF2294.897745042954
aF180.12338451839506
aF0.0
aF0.0
aF4357.436059362172
aF0.0
aF894.3870940778198
aF787.9536808197497
asS'Bacteria.Actinobacteriota.Actinobacteria.Bifidobacteriales'
p19
(lp20
F0.0
aF0.0
aF0.0
aF6129.5875960832045
aF0.0
aF2825.6855946323226
aF1345.895020188425
aF0.0
aF884.117461319861
aF0.0
aF0.0
aF1982.0332676126745
asS'Bacteria.Firmicutes.Bacilli.RF39'
p21
(lp22
F0.0
aF0.0
aF726.7313824633111
aF0.0
aF0.0
aF4925.2487954248645
aF861.372812920592
aF24673.56465248349
aF11872.43448058099
aF0.0
aF41.79378944288877
aF6123.129043903253
asS'Bacteria.Firmicutes.Clostridia.Peptostreptococcales_Tissierellales.Anaerovoracaceae'
p23
(lp24
F251.16322629806686
aF0.0
aF612.2161343175771
aF433.12828272859855
aF142.16180721505023
aF1255.2348358625654
aF520.4127411395243
aF3635.4249575150043
aF3599.6210925165774
aF0.0
aF0.0
aF1048.2908000333234
asS'Bacteria.Proteobacteria.Gammaproteobacteria'
p25
(lp26
F14018.31363050058
aF2636.9198405996763
aF4593.823223692325
aF4068.1162757546854
aF3026.015610720355
aF5223.578151033456
aF2476.446837146702
aF4216.232495106158
aF56394.06378275971
aF11235.955056179775
aF8133.071425586155
aF5592.0413207075635
asS'Bacteria.Proteobacteria.Alphaproteobacteria.Rhodospirillales'
p27
(lp28
F0.0
aF0.0
aF0.0
aF0.0
aF0.0
aF174.49452875219524
aF0.0
aF0.0
aF0.0
aF0.0
aF1776.236051322773
aF0.0
asS'Bacteria.Proteobacteria.Gammaproteobacteria.Pasteurellales'
p29
(lp30
F0.0
aF0.0
aF0.0
aF0.0
aF0.0
aF0.0
aF0.0
aF1204.637855744617
aF0.0
aF0.0
aF1391.7331884481962
aF666.4630251867486
asS'Archaea.Euryarchaeota.Methanobacteria.Methanobacteriales'
p31
(lp32
F0.0
aF0.0
aF0.0
aF0.0
aF0.0
aF0.0
aF0.0
aF0.0
aF0.0
aF0.0
aF83.58757888577755
aF461.664491405404
asS'Bacteria.Bacteroidota'
p33
(lp34
F806846.9649691153
aF790068.5895441682
aF857736.8263420307
aF598928.6928298081
aF885106.1813307701
aF555883.2800468318
aF699004.0376850605
aF184395.637490051
aF9472.687085569938
aF193081.01714961563
aF769009.9051280977
aF519063.6194496127
asS'Bacteria.Bacteroidota.Bacteroidia.Bacteroidales.Rikenellaceae'
p35
(lp36
F0.0
aF2918.38881234908
aF11751.026232800692
aF444.09355570906945
aF1428.3876820178855
aF5448.7323816814505
aF4504.262000897263
aF774.4100501215393
aF0.0
aF0.0
aF906.9252309106864
aF0.0
asS'Bacteria.Elusimicrobiota.Elusimicrobia'
p37
(lp38
F0.0
aF0.0
aF0.0
aF0.0
aF0.0
aF0.0
aF0.0
aF0.0
aF0.0
aF0.0
aF91.9463367743553
aF190.91388742328738
asS'Bacteria.Firmicutes.Bacilli.Lactobacillales.Aerococcaceae'
p39
(lp40
F246.90622246250643
aF0.0
aF83.68421979880551
aF0.0
aF148.93141708243357
aF0.0
aF0.0
aF0.0
aF0.0
aF0.0
aF0.0
aF0.0
asS'Bacteria.Firmicutes.Clostridia.Clostridiales'
p41
(lp42
F0.0
aF0.0
aF0.0
aF290.57973398247753
aF0.0
aF821.8129418651774
aF0.0
aF0.0
aF48500.157878118094
aF3252.513305736251
aF1028.1272202950638
aF20521.507317208638
asS'Bacteria.Firmicutes.Negativicutes.Veillonellales_Selenomonadales'
p43
(lp44
F0.0
aF0.0
aF0.0
aF0.0
aF0.0
aF0.0
aF0.0
aF0.0
aF0.0
aF0.0
aF7619.007815438625
aF1197.5507483824392
asS'Bacteria.Firmicutes.Negativicutes.Veillonellales_Selenomonadales.Veillonellaceae'
p45
(lp46
F0.0
aF0.0
aF0.0
aF0.0
aF0.0
aF0.0
aF0.0
aF0.0
aF0.0
aF0.0
aF522.4223680361098
aF152.7311099386299
asS'Bacteria.Firmicutes.Clostridia.Christensenellales.Christensenellaceae'
p47
(lp48
F144.73813040905551
aF0.0
aF0.0
aF263.1665515313004
aF74.46570854121678
aF4002.1164497680898
aF1938.088829071332
aF1333.70619743154
aF177581.3072308178
aF0.0
aF0.0
aF2888.006442475911
asS'Bacteria.Proteobacteria'
p49
(lp50
F14056.626665020625
aF2636.9198405996763
aF4668.69857824915
aF4194.2169150301
aF3026.015610720355
aF5488.1343720448485
aF2476.446837146702
aF4216.232495106158
aF58288.601199873694
aF11235.955056179775
aF9909.307476908929
aF5869.734247868709
asS'Bacteria.Bacteroidota.Bacteroidia'
p51
(lp52
F806846.9649691153
aF790068.5895441682
aF857736.8263420307
aF598928.6928298081
aF885106.1813307701
aF555883.2800468318
aF699004.0376850605
aF184395.637490051
aF9472.687085569938
aF193081.01714961563
aF769009.9051280977
aF519063.6194496127
asS'Bacteria.Firmicutes.Bacilli.Bacillales'
p53
(lp54
F0.0
aF0.0
aF0.0
aF0.0
aF0.0
aF0.0
aF0.0
aF0.0
aF0.0
aF0.0
aF0.0
aF79.83671655882927
asS'Bacteria.Proteobacteria.Alphaproteobacteria.Rhizobiales.Rhizobiaceae'
p55
(lp56
F38.3130345200441
aF0.0
aF74.87535455682598
aF0.0
aF0.0
aF0.0
aF0.0
aF0.0
aF1010.4199557941271
aF0.0
aF0.0
aF211.74085696037326
asS'Bacteria.Desulfobacterota'
p57
(lp58
F0.0
aF0.0
aF0.0
aF0.0
aF0.0
aF0.0
aF0.0
aF0.0
aF0.0
aF0.0
aF3723.8266393613903
aF3405.2095193135438
asS'Bacteria.Desulfobacterota.Desulfovibrionia'
p59
(lp60
F0.0
aF0.0
aF0.0
aF0.0
aF0.0
aF0.0
aF0.0
aF0.0
aF0.0
aF0.0
aF3723.8266393613903
aF3405.2095193135438
asS'Bacteria.Firmicutes.Clostridia.Monoglobales'
p61
(lp62
F1983.7637873711726
aF533.3096306830806
aF391.994503268089
aF8503.569196355144
aF676.9609867383344
aF168.86567298599536
aF0.0
aF2086.6048572719255
aF35238.39595832018
aF23063.27616794796
aF0.0
aF2270.1396795423625
asS'Bacteria.Firmicutes.Bacilli.Staphylococcales'
p63
(lp64
F0.0
aF414.7963794201738
aF273.07482250136536
aF466.02410167001113
aF1638.2455879067695
aF0.0
aF0.0
aF0.0
aF0.0
aF0.0
aF0.0
aF76.36555496931496
asS'Bacteria.Cyanobacteria.Vampirivibrionia'
p65
(lp66
F0.0
aF814.7786024324843
aF0.0
aF164.47909470706276
aF440.0246413799174
aF4401.765209168279
aF6406.460296096902
aF0.0
aF1073.57120303126
aF0.0
aF0.0
aF111.07717086445811
asS'Bacteria.Firmicutes.Bacilli.Staphylococcales.Staphylococcaceae'
p67
(lp68
F0.0
aF414.7963794201738
aF273.07482250136536
aF466.02410167001113
aF1638.2455879067695
aF0.0
aF0.0
aF0.0
aF0.0
aF0.0
aF0.0
aF76.36555496931496
asS'Bacteria.Proteobacteria.Alphaproteobacteria.Rickettsiales'
p69
(lp70
F0.0
aF0.0
aF0.0
aF76.75691086329596
aF0.0
aF90.06169225919753
aF0.0
aF0.0
aF0.0
aF0.0
aF0.0
aF0.0
asS'Bacteria.Deferribacterota'
p71
(lp72
F0.0
aF0.0
aF0.0
aF87.7221838437668
aF0.0
aF67.54626919439814
aF0.0
aF0.0
aF0.0
aF0.0
aF0.0
aF0.0
asS'Bacteria.Actinobacteriota.Coriobacteriia.Coriobacteriales'
p73
(lp74
F55.34104986228593
aF992.5484793268445
aF105.70638290375433
aF3048.345888570896
aF1983.4956911433198
aF782.4109515017784
aF215.343203230148
aF5442.38174113193
aF23492.26397221345
aF0.0
aF472.2698207046432
aF2027.1583682763608
asS'Bacteria.Firmicutes.Bacilli.Erysipelotrichales'
p75
(lp76
F681.120613689673
aF1288.8316074841116
aF1233.241133877134
aF5131.747754860357
aF1570.549489232936
aF10126.31152339352
aF1776.581426648721
aF666.8530987157701
aF105778.33912219766
aF0.0
aF10799.51519204246
aF70072.3390075255
asS'Bacteria.Actinobacteriota.Actinobacteria.Micrococcales'
p77
(lp78
F0.0
aF0.0
aF0.0
aF0.0
aF0.0
aF90.06169225919753
aF0.0
aF0.0
aF1768.234922639722
aF0.0
aF121.20198938437746
aF128.4329788120297
asS'Bacteria.Firmicutes.Clostridia.Clostridia_UCG_014.Clostridia_UCG_014'
p79
(lp80
F0.0
aF488.86716145949055
aF0.0
aF394.7498272969506
aF1570.549489232936
aF70585.85130814607
aF52364.288918797654
aF71267.23600146278
aF166277.233975371
aF80425.78356002366
aF8.358757888577756
aF175609.53597511875
asS'Bacteria.Campilobacterota'
p81
(lp82
F0.0
aF0.0
aF0.0
aF38.37845543164798
aF0.0
aF0.0
aF0.0
aF193.60251253038481
aF0.0
aF0.0
aF639.4449784761983
aF458.1933298158897
asS'Bacteria.Firmicutes.Bacilli.RF39.RF39'
p83
(lp84
F0.0
aF0.0
aF726.7313824633111
aF0.0
aF0.0
aF4925.2487954248645
aF861.372812920592
aF24673.56465248349
aF11872.43448058099
aF0.0
aF41.79378944288877
aF6123.129043903253
asS'Bacteria.Firmicutes.Clostridia.Clostridia_vadinBB60_group'
p85
(lp86
F0.0
aF474.0530050516272
aF114.51524814573386
aF350.8887353750672
aF264.01478482795045
aF816.1840860989777
aF0.0
aF731.3872695592316
aF315.75623618566465
aF0.0
aF3753.0822919714124
aF173.5580794757158
asS'Bacteria.Bacteroidota.Bacteroidia.Bacteroidales.Tannerellaceae'
p87
(lp88
F25197.20570268234
aF2029.539427877279
aF27545.321611669984
aF1655.7562200510984
aF2321.9761845124867
aF945.6477687215742
aF2781.5163750560782
aF0.0
aF0.0
aF0.0
aF27475.237179755084
aF492.9049457110329
asS'Bacteria.Proteobacteria.Gammaproteobacteria.Burkholderiales.Sutterellaceae'
p89
(lp90
F5695.8711319798895
aF903.6635408796644
aF3483.9062032029033
aF257.68391504106495
aF1299.765094537602
aF3326.6537578241087
aF2225.2131000448626
aF430.2278056230774
aF0.0
aF0.0
aF5395.578217076941
aF1596.7343311765853
asS'Bacteria.Bacteroidota.Bacteroidia.Bacteroidales.Muribaculaceae'
p91
(lp92
F497724.63144989294
aF437387.96794216544
aF396883.42347738764
aF528262.9911071636
aF497112.76139156113
aF534746.9266447516
aF568452.2207267833
aF166455.13799556866
aF8841.174613198611
aF146658.78178592547
aF397914.48990679975
aF491165.89375468617
asS'Bacteria.Elusimicrobiota.Elusimicrobia.Elusimicrobiales'
p93
(lp94
F0.0
aF0.0
aF0.0
aF0.0
aF0.0
aF0.0
aF0.0
aF0.0
aF0.0
aF0.0
aF91.9463367743553
aF190.91388742328738
asS'Bacteria.Campilobacterota.Campylobacteria.Campylobacterales'
p95
(lp96
F0.0
aF0.0
aF0.0
aF38.37845543164798
aF0.0
aF0.0
aF0.0
aF193.60251253038481
aF0.0
aF0.0
aF639.4449784761983
aF458.1933298158897
asS'Bacteria.Proteobacteria.Alphaproteobacteria.Rhizobiales'
p97
(lp98
F38.3130345200441
aF0.0
aF74.87535455682598
aF0.0
aF0.0
aF0.0
aF0.0
aF0.0
aF1894.537417113988
aF0.0
aF0.0
aF211.74085696037326
asS'Bacteria.Cyanobacteria'
p99
(lp100
F0.0
aF814.7786024324843
aF0.0
aF164.47909470706276
aF440.0246413799174
aF4401.765209168279
aF6406.460296096902
aF0.0
aF1073.57120303126
aF0.0
aF0.0
aF111.07717086445811
asS'Bacteria.Firmicutes.Clostridia.Peptostreptococcales_Tissierellales'
p101
(lp102
F1362.2412273793457
aF1748.0704561278753
aF3761.3854583252582
aF53581.80641907081
aF4569.486660483757
aF11606.700589904081
aF2440.556303275011
aF3635.4249575150043
aF54499.526365645725
aF0.0
aF5057.048522589543
aF8587.653772458418
asS'Bacteria.Actinobacteriota.Actinobacteria.Corynebacteriales'
p103
(lp104
F0.0
aF0.0
aF0.0
aF0.0
aF372.32854270608397
aF0.0
aF0.0
aF0.0
aF0.0
aF0.0
aF0.0
aF0.0
asS'Bacteria.Verrucomicrobiota'
p105
(lp106
F135836.73538889858
aF0.0
aF0.0
aF268.64918802153585
aF40.61765920430006
aF7908.542351510783
aF466.5769403319873
aF16692.838858175404
aF0.0
aF0.0
aF0.0
aF0.0
asS'Bacteria.Bacteroidota.Bacteroidia.Bacteroidales.Marinifilaceae'
p107
(lp108
F0.0
aF0.0
aF0.0
aF0.0
aF0.0
aF0.0
aF0.0
aF0.0
aF0.0
aF0.0
aF388.68224181886563
aF86.7790397378579
asS'Bacteria.Firmicutes.Clostridia.Oscillospirales.Butyricicoccaceae'
p109
(lp110
F0.0
aF0.0
aF532.9363471397614
aF542.7810125333071
aF324.9412736344005
aF529.1124420227856
aF0.0
aF3829.027470045389
aF0.0
aF0.0
aF2904.66836628077
aF135.37530199105834
asS'Bacteria.Cyanobacteria.Vampirivibrionia.Gastranaerophilales'
p111
(lp112
F0.0
aF814.7786024324843
aF0.0
aF164.47909470706276
aF440.0246413799174
aF4401.765209168279
aF6406.460296096902
aF0.0
aF1073.57120303126
aF0.0
aF0.0
aF111.07717086445811
asS'Bacteria.Deferribacterota.Deferribacteres.Deferribacterales'
p113
(lp114
F0.0
aF0.0
aF0.0
aF87.7221838437668
aF0.0
aF67.54626919439814
aF0.0
aF0.0
aF0.0
aF0.0
aF0.0
aF0.0
asS'Bacteria.Bacteroidota.Bacteroidia.Bacteroidales'
p115
(lp116
F806846.9649691153
aF790068.5895441682
aF857736.8263420307
aF598928.6928298081
aF885106.1813307701
aF555883.2800468318
aF699004.0376850605
aF184395.637490051
aF9472.687085569938
aF193081.01714961563
aF769009.9051280977
aF519063.6194496127
asS'Bacteria.Actinobacteriota.Coriobacteriia'
p117
(lp118
F55.34104986228593
aF992.5484793268445
aF105.70638290375433
aF3048.345888570896
aF1983.4956911433198
aF782.4109515017784
aF215.343203230148
aF5442.38174113193
aF23492.26397221345
aF0.0
aF472.2698207046432
aF2027.1583682763608
asS'Bacteria.Firmicutes.Bacilli.Lactobacillales'
p119
(lp120
F9118.502215770495
aF124350.02888760496
aF18665.98544775462
aF89136.70405824755
aF39947.467827429115
aF42925.65407304002
aF50695.37909376401
aF265966.8294361864
aF135143.66908746448
aF388231.81549379067
aF10114.097045179085
aF15887.506595207025
asS'Bacteria.Firmicutes.Clostridia.Clostridia.Hungateiclostridiaceae'
p121
(lp122
F0.0
aF0.0
aF0.0
aF0.0
aF0.0
aF112.5771153239969
aF0.0
aF0.0
aF0.0
aF0.0
aF0.0
aF76.36555496931496
asS'Bacteria.Proteobacteria.Gammaproteobacteria.Pseudomonadales.Moraxellaceae'
p123
(lp124
F0.0
aF0.0
aF0.0
aF82.23954735353138
aF0.0
aF33.77313459719907
aF0.0
aF0.0
aF2083.9911588253867
aF0.0
aF0.0
aF0.0
asS'Bacteria.Firmicutes.Bacilli.Izemoplasmatales'
p125
(lp126
F0.0
aF0.0
aF0.0
aF0.0
aF0.0
aF236.41194218039354
aF0.0
aF0.0
aF0.0
aF0.0
aF0.0
aF0.0
asS'Bacteria.Firmicutes.Clostridia.Peptococcales'
p127
(lp128
F225.62120328470417
aF0.0
aF1131.9391835943693
aF619.537923396603
aF318.1716637670172
aF6850.317467465213
aF2799.461641991924
aF516.2733667476929
aF1326.1761919797916
aF0.0
aF0.0
aF236.0389880869735
asS'Archaea.Euryarchaeota.Methanobacteria.Methanobacteriales.Methanobacteriaceae'
p129
(lp130
F0.0
aF0.0
aF0.0
aF0.0
aF0.0
aF0.0
aF0.0
aF0.0
aF0.0
aF0.0
aF83.58757888577755
aF461.664491405404
asS'Bacteria.Firmicutes.Clostridia.Lachnospirales.Defluviitaleaceae'
p131
(lp132
F0.0
aF518.4954742752172
aF0.0
aF43.8610919218834
aF385.86776244085064
aF782.4109515017785
aF0.0
aF215.1139028115387
aF0.0
aF0.0
aF0.0
aF45.12510066368611
asS'Bacteria.Bacteroidota.Bacteroidia.Bacteroidales.Bacteroidaceae'
p133
(lp134
F70359.75939414321
aF239841.19224330765
aF340467.04603512975
aF37523.16413917125
aF290104.8612568458
aF8955.509524023955
aF14751.009421265138
aF5184.245057758083
aF0.0
aF0.0
aF40786.559117315155
aF312.40454305628845
asS'Bacteria.Proteobacteria.Gammaproteobacteria.Enterobacterales.Enterobacteriaceae'
p135
(lp136
F8169.190360440514
aF1733.2562997200118
aF629.8338648015363
aF3108.654889963486
aF1441.9269017526524
aF1784.3472778853509
aF251.23373710183932
aF2581.3668337384643
aF27912.851278812755
aF11235.955056179775
aF936.1808835207087
aF1690.455694093472
asS'Bacteria.Proteobacteria.Alphaproteobacteria.Rhizobiales.Beijerinckiaceae'
p137
(lp138
F0.0
aF0.0
aF0.0
aF0.0
aF0.0
aF0.0
aF0.0
aF0.0
aF884.117461319861
aF0.0
aF0.0
aF0.0
asS'Bacteria.Proteobacteria.Alphaproteobacteria'
p139
(lp140
F38.3130345200441
aF0.0
aF74.87535455682598
aF126.10063927541476
aF0.0
aF264.5562210113928
aF0.0
aF0.0
aF1894.537417113988
aF0.0
aF1776.236051322773
aF277.6929271611453
asS'Bacteria.Firmicutes.Bacilli.Acholeplasmatales.Acholeplasmataceae'
p141
(lp142
F0.0
aF0.0
aF0.0
aF0.0
aF0.0
aF0.0
aF215.343203230148
aF0.0
aF1705.083675402589
aF0.0
aF0.0
aF0.0
asS'Bacteria.Firmicutes.Clostridia.Monoglobales.Monoglobaceae'
p143
(lp144
F1983.7637873711726
aF533.3096306830806
aF391.994503268089
aF8503.569196355144
aF676.9609867383344
aF168.86567298599536
aF0.0
aF2086.6048572719255
aF35238.39595832018
aF23063.27616794796
aF0.0
aF2270.1396795423625
asS'Bacteria.Firmicutes.Bacilli.Bacillales.Bacillaceae'
p145
(lp146
F0.0
aF0.0
aF0.0
aF0.0
aF0.0
aF0.0
aF0.0
aF0.0
aF0.0
aF0.0
aF0.0
aF79.83671655882927
asS'Bacteria.Elusimicrobiota.Elusimicrobia.Elusimicrobiales.Elusimicrobiaceae'
p147
(lp148
F0.0
aF0.0
aF0.0
aF0.0
aF0.0
aF0.0
aF0.0
aF0.0
aF0.0
aF0.0
aF91.9463367743553
aF190.91388742328738
asS'Bacteria.Firmicutes.Bacilli.Lactobacillales.Lactobacillaceae'
p149
(lp150
F8462.923625094185
aF122216.79036487264
aF18221.137753034654
aF87261.64237858701
aF37503.638665303726
aF42745.53068852163
aF50695.37909376401
aF265966.8294361864
aF130786.2330281023
aF388231.81549379067
aF9140.301751159775
aF15099.552914387275
asS'Bacteria.Firmicutes.Clostridia.Oscillospirales.UCG_010'
p151
(lp152
F0.0
aF399.98222301231044
aF0.0
aF422.1630097481277
aF284.32361443010046
aF4283.559238078083
aF933.1538806639746
aF0.0
aF0.0
aF0.0
aF121.20198938437746
aF2231.9569020577055
asS'Bacteria.Firmicutes.Negativicutes.Veillonellales_Selenomonadales.Selenomonadaceae'
p153
(lp154
F0.0
aF0.0
aF0.0
aF0.0
aF0.0
aF0.0
aF0.0
aF0.0
aF0.0
aF0.0
aF7096.585447402515
aF1044.819638443809
asS'Bacteria.Proteobacteria.Alphaproteobacteria.Rickettsiales.Mitochondria'
p155
(lp156
F0.0
aF0.0
aF0.0
aF76.75691086329596
aF0.0
aF90.06169225919753
aF0.0
aF0.0
aF0.0
aF0.0
aF0.0
aF0.0
asS'Bacteria.Elusimicrobiota'
p157
(lp158
F0.0
aF0.0
aF0.0
aF0.0
aF0.0
aF0.0
aF0.0
aF0.0
aF0.0
aF0.0
aF91.9463367743553
aF190.91388742328738
asS'Bacteria.Proteobacteria.Gammaproteobacteria.Pseudomonadales.Pseudomonadaceae'
p159
(lp160
F0.0
aF0.0
aF290.6925529853244
aF82.23954735353138
aF148.93141708243357
aF0.0
aF0.0
aF0.0
aF5999.368487527629
aF0.0
aF0.0
aF572.7416622698621
asS'Bacteria.Proteobacteria.Alphaproteobacteria.Caulobacterales.Caulobacteraceae'
p161
(lp162
F0.0
aF0.0
aF0.0
aF49.34372841211883
aF0.0
aF0.0
aF0.0
aF0.0
aF0.0
aF0.0
aF0.0
aF0.0
asS'Bacteria.Proteobacteria.Alphaproteobacteria.Sphingomonadales.Sphingomonadaceae'
p163
(lp164
F0.0
aF0.0
aF0.0
aF0.0
aF0.0
aF0.0
aF0.0
aF0.0
aF0.0
aF0.0
aF0.0
aF65.952070200772
asS'Bacteria.Firmicutes.Clostridia'
p165
(lp166
F27585.38485443175
aF78115.04673866346
aF115153.89087577739
aF285278.0244964198
aF63586.94548433175
aF357162.15607691265
aF232588.6047554957
aF492223.6324133629
aF606757.1834543733
aF393554.1099940863
aF185652.1920842562
aF348317.1808614036
asS'Archaea'
p167
(lp168
F0.0
aF0.0
aF0.0
aF0.0
aF0.0
aF0.0
aF0.0
aF0.0
aF0.0
aF0.0
aF83.58757888577755
aF461.664491405404
asS'Bacteria.Actinobacteriota.Actinobacteria.Micrococcales.Micrococcaceae'
p169
(lp170
F0.0
aF0.0
aF0.0
aF0.0
aF0.0
aF90.06169225919753
aF0.0
aF0.0
aF1768.234922639722
aF0.0
aF121.20198938437746
aF128.4329788120297
asS'Bacteria.Campilobacterota.Campylobacteria'
p171
(lp172
F0.0
aF0.0
aF0.0
aF38.37845543164798
aF0.0
aF0.0
aF0.0
aF193.60251253038481
aF0.0
aF0.0
aF639.4449784761983
aF458.1933298158897
asS'Bacteria.Patescibacteria.Saccharimonadia.Saccharimonadales.Saccharimonadaceae'
p173
(lp174
F0.0
aF0.0
aF0.0
aF948.4961128107285
aF0.0
aF332.1024902057909
aF0.0
aF2151.139028115387
aF15787.811809283234
aF2956.8302779420465
aF0.0
aF22791.646996751
asS'Bacteria.Firmicutes.Bacilli.Erysipelotrichales.Erysipelotrichaceae'
p175
(lp176
F540.6394871161779
aF1288.8316074841116
aF885.2909568189426
aF4994.681842604472
aF1279.456264935452
aF9884.270725446928
aF1561.238223418573
aF172.09112224923098
aF103504.89422166088
aF0.0
aF6862.5402265223365
aF70051.5120379884
asS'Bacteria.Actinobacteriota'
p177
(lp178
F55.34104986228593
aF992.5484793268445
aF105.70638290375433
aF9177.933484654102
aF2355.8242338494038
aF3698.1582383932987
aF1561.238223418573
aF5442.38174113193
aF26144.616356173035
aF0.0
aF593.4718100890207
aF4137.624614701065
asS'Bacteria.Proteobacteria.Gammaproteobacteria.Pasteurellales.Pasteurellaceae'
p179
(lp180
F0.0
aF0.0
aF0.0
aF0.0
aF0.0
aF0.0
aF0.0
aF1204.637855744617
aF0.0
aF0.0
aF1391.7331884481962
aF666.4630251867486
asS'Bacteria.Proteobacteria.Gammaproteobacteria.Burkholderiales'
p181
(lp182
F5729.927162664373
aF903.6635408796644
aF3673.2968059054633
aF794.9822910841367
aF1435.157291885269
aF3405.457738550907
aF2225.2131000448626
aF430.2278056230774
aF20397.852857593938
aF0.0
aF5566.932753792785
aF2662.3809391574805
asS'Bacteria.Firmicutes'
p183
(lp184
F43204.33192710306
aF205487.1635334725
aF137488.76869681646
aF386191.431735693
aF109031.33652407616
aF422220.4710226505
aF290085.24001794524
aF786908.1678748896
aF889232.7123460689
aF792726.1975162625
aF215948.51005140628
aF443510.31629224407
asS'Bacteria.Patescibacteria'
p185
(lp186
F0.0
aF0.0
aF0.0
aF948.4961128107285
aF0.0
aF332.1024902057909
aF0.0
aF2151.139028115387
aF15787.811809283234
aF2956.8302779420465
aF0.0
aF22791.646996751
asS'Bacteria.Firmicutes.Clostridia.Oscillospirales'
p187
(lp188
F7986.139195511416
aF57715.95336503562
aF30566.762389668966
aF80134.21494128098
aF37733.805400794765
aF132722.79011122618
aF95558.54643337817
aF202013.466130316
aF63593.30596779286
aF144589.00059136603
aF67225.31031888661
aF106363.33342589768
asS'Bacteria.Actinobacteriota.Coriobacteriia.Coriobacteriales.Atopobiaceae'
p189
(lp190
F0.0
aF429.6105358280372
aF0.0
aF1595.4472186585087
aF1733.020126050136
aF281.4427883099923
aF0.0
aF0.0
aF0.0
aF0.0
aF41.79378944288877
aF767.1267112826638
asS'Bacteria.Proteobacteria.Gammaproteobacteria.Burkholderiales.Comamonadaceae'
p191
(lp192
F0.0
aF0.0
aF0.0
aF0.0
aF0.0
aF0.0
aF0.0
aF0.0
aF14587.938111777707
aF0.0
aF0.0
aF513.7319152481188
asS'Bacteria.Firmicutes.Bacilli.Erysipelotrichales.Erysipelatoclostridiaceae'
p193
(lp194
F140.48112657349503
aF0.0
aF347.9501770581914
aF137.06591225588565
aF291.0932242974838
aF242.04079794659336
aF215.343203230148
aF494.76197646653907
aF2273.4449005367856
aF0.0
aF3936.974965520123
aF20.826969537085894
asS'Bacteria.Firmicutes.Clostridia.Oscillospirales._Eubacterium__coprostanoligenes_group'
p195
(lp196
F0.0
aF19643.571396826803
aF52.853191451877166
aF16294.395648979684
aF2755.231216025021
aF18625.88373035529
aF31834.903544190212
aF105965.10852496396
aF7388.695926744554
aF90774.68953282082
aF50010.448447360715
aF38575.018744272595
asS'Bacteria.Actinobacteriota.Coriobacteriia.Coriobacteriales.Eggerthellaceae'
p197
(lp198
F55.34104986228593
aF0.0
aF57.25762407286693
aF455.0588286895403
aF0.0
aF354.61791327059024
aF215.343203230148
aF4818.551422978468
aF17619.19797916009
aF0.0
aF430.47603126175443
aF728.9439337980064
asS'Bacteria.Firmicutes.Bacilli.Lactobacillales.Enterococcaceae'
p199
(lp200
F0.0
aF0.0
aF0.0
aF0.0
aF0.0
aF0.0
aF0.0
aF0.0
aF0.0
aF0.0
aF79.40819994148868
aF0.0
asS'Bacteria.Firmicutes.Clostridia.Christensenellales'
p201
(lp202
F144.73813040905551
aF0.0
aF0.0
aF263.1665515313004
aF74.46570854121678
aF4002.1164497680898
aF1938.088829071332
aF1333.70619743154
aF177581.3072308178
aF0.0
aF0.0
aF2888.006442475911
asS'Bacteria.Firmicutes.Clostridia.Clostridia_UCG_014'
p203
(lp204
F0.0
aF488.86716145949055
aF0.0
aF394.7498272969506
aF1570.549489232936
aF70585.85130814607
aF52364.288918797654
aF71267.23600146278
aF166277.233975371
aF80425.78356002366
aF8.358757888577756
aF175609.53597511875
asS'Bacteria.Proteobacteria.Alphaproteobacteria.Caulobacterales'
p205
(lp206
F0.0
aF0.0
aF0.0
aF49.34372841211883
aF0.0
aF0.0
aF0.0
aF0.0
aF0.0
aF0.0
aF0.0
aF0.0
asS'Bacteria.Firmicutes.Clostridia.Clostridia'
p207
(lp208
F0.0
aF0.0
aF0.0
aF0.0
aF0.0
aF112.5771153239969
aF0.0
aF0.0
aF0.0
aF0.0
aF0.0
aF76.36555496931496
asS'Bacteria.Cyanobacteria.Vampirivibrionia.Gastranaerophilales.Gastranaerophilales'
p209
(lp210
F0.0
aF814.7786024324843
aF0.0
aF164.47909470706276
aF440.0246413799174
aF4401.765209168279
aF6406.460296096902
aF0.0
aF1073.57120303126
aF0.0
aF0.0
aF111.07717086445811
asS'Bacteria.Bacteroidota.Bacteroidia.Bacteroidales.Prevotellaceae'
p211
(lp212
F213565.36842239695
aF107891.50111846878
aF81090.00898504256
aF31042.687807712977
aF94138.19481583277
aF5786.463727653441
aF108515.02916105874
aF11981.844386602706
aF631.5124723713293
aF46422.235363690124
aF301538.01145149826
aF27005.63716642138
asS'Bacteria.Proteobacteria.Gammaproteobacteria.Burkholderiales.Alcaligenaceae'
p213
(lp214
F34.056030684483645
aF0.0
aF79.27978717781575
aF0.0
aF0.0
aF0.0
aF0.0
aF0.0
aF0.0
aF0.0
aF0.0
aF284.6352503401739
asS'Bacteria.Firmicutes.Negativicutes'
p215
(lp216
F0.0
aF0.0
aF0.0
aF0.0
aF0.0
aF0.0
aF0.0
aF0.0
aF0.0
aF0.0
aF7619.007815438625
aF1197.5507483824392
asS'Bacteria.Firmicutes.Clostridia.Eubacteriales'
p217
(lp218
F0.0
aF0.0
aF0.0
aF0.0
aF0.0
aF0.0
aF0.0
aF0.0
aF0.0
aF0.0
aF91.9463367743553
aF0.0
asS'Bacteria.Proteobacteria.Alphaproteobacteria.Rhodospirillales.uncultured'
p219
(lp220
F0.0
aF0.0
aF0.0
aF0.0
aF0.0
aF174.49452875219524
aF0.0
aF0.0
aF0.0
aF0.0
aF1776.236051322773
aF0.0
asS'Bacteria.Desulfobacterota.Desulfovibrionia.Desulfovibrionales'
p221
(lp222
F0.0
aF0.0
aF0.0
aF0.0
aF0.0
aF0.0
aF0.0
aF0.0
aF0.0
aF0.0
aF3723.8266393613903
aF3405.2095193135438
asS'Bacteria.Proteobacteria.Gammaproteobacteria.Burkholderiales.Burkholderiaceae'
p223
(lp224
F0.0
aF0.0
aF110.1108155247441
aF537.2983760430717
aF135.39219734766687
aF78.80398072679783
aF0.0
aF0.0
aF5809.914745816231
aF0.0
aF171.35453671584398
aF267.27944239260233
asS'Bacteria.Firmicutes.Bacilli'
p225
(lp226
F5819.324243211143
aF1318.4599202998384
aF1435.8450344426633
aF6178.931324495324
aF2288.1281351755706
aF6844.688611699013
aF3947.958725886046
aF3377.2882741411577
aF27976.00252604989
aF10940.27202838557
aF1721.9041250470177
aF1756.4077642942436
asS'Archaea.Euryarchaeota'
p227
(lp228
F0.0
aF0.0
aF0.0
aF0.0
aF0.0
aF0.0
aF0.0
aF0.0
aF0.0
aF0.0
aF83.58757888577755
aF461.664491405404
asS'Bacteria.Verrucomicrobiota.Verrucomicrobiae'
p229
(lp230
F135836.73538889858
aF0.0
aF0.0
aF268.64918802153585
aF40.61765920430006
aF7908.542351510783
aF466.5769403319873
aF16692.838858175404
aF0.0
aF0.0
aF0.0
aF0.0
asS'Bacteria.Actinobacteriota.Actinobacteria.Bifidobacteriales.Bifidobacteriaceae'
p231
(lp232
F0.0
aF0.0
aF0.0
aF6129.5875960832045
aF0.0
aF2825.6855946323226
aF1345.895020188425
aF0.0
aF884.117461319861
aF0.0
aF0.0
aF1982.0332676126745
asS'Bacteria.Firmicutes.Bacilli.Izemoplasmatales.Izemoplasmatales'
p233
(lp234
F0.0
aF0.0
aF0.0
aF0.0
aF0.0
aF236.41194218039354
aF0.0
aF0.0
aF0.0
aF0.0
aF0.0
aF0.0
asS'Bacteria.Proteobacteria.Alphaproteobacteria.Sphingomonadales'
p235
(lp236
F0.0
aF0.0
aF0.0
aF0.0
aF0.0
aF0.0
aF0.0
aF0.0
aF0.0
aF0.0
aF0.0
aF65.952070200772
asS'Bacteria.Campilobacterota.Campylobacteria.Campylobacterales.Helicobacteraceae'
p237
(lp238
F0.0
aF0.0
aF0.0
aF38.37845543164798
aF0.0
aF0.0
aF0.0
aF193.60251253038481
aF0.0
aF0.0
aF639.4449784761983
aF458.1933298158897
asS'Bacteria.Verrucomicrobiota.Verrucomicrobiae.Verrucomicrobiales.Akkermansiaceae'
p239
(lp240
F135836.73538889858
aF0.0
aF0.0
aF268.64918802153585
aF40.61765920430006
aF7908.542351510783
aF466.5769403319873
aF16692.838858175404
aF0.0
aF0.0
aF0.0
aF0.0
asS'Bacteria.Firmicutes.Clostridia.Clostridia_vadinBB60_group.Clostridia_vadinBB60_group'
p241
(lp242
F0.0
aF474.0530050516272
aF114.51524814573386
aF350.8887353750672
aF264.01478482795045
aF816.1840860989777
aF0.0
aF731.3872695592316
aF315.75623618566465
aF0.0
aF3753.0822919714124
aF173.5580794757158
asS'Bacteria.Desulfobacterota.Desulfovibrionia.Desulfovibrionales.Desulfovibrionaceae'
p243
(lp244
F0.0
aF0.0
aF0.0
aF0.0
aF0.0
aF0.0
aF0.0
aF0.0
aF0.0
aF0.0
aF3723.8266393613903
aF3405.2095193135438
asS'Bacteria.Proteobacteria.Gammaproteobacteria.Pseudomonadales'
p245
(lp246
F0.0
aF0.0
aF290.6925529853244
aF164.47909470706276
aF148.93141708243357
aF33.77313459719907
aF0.0
aF0.0
aF8083.359646353017
aF0.0
aF0.0
aF572.7416622698621
asS'Bacteria.Deferribacterota.Deferribacteres'
p247
(lp248
F0.0
aF0.0
aF0.0
aF87.7221838437668
aF0.0
aF67.54626919439814
aF0.0
aF0.0
aF0.0
aF0.0
aF0.0
aF0.0
asS'Bacteria.Actinobacteriota.Actinobacteria'
p249
(lp250
F0.0
aF0.0
aF0.0
aF6129.5875960832045
aF372.32854270608397
aF2915.74728689152
aF1345.895020188425
aF0.0
aF2652.352383959583
aF0.0
aF121.20198938437746
aF2110.466246424704
asS'Bacteria.Actinobacteriota.Coriobacteriia.Coriobacteriales.uncultured'
p251
(lp252
F0.0
aF562.9379434988073
aF48.4487588308874
aF997.8398412228473
aF250.47556509318375
aF146.350249921196
aF0.0
aF623.8303181534623
aF5873.065993053363
aF0.0
aF0.0
aF531.0877231956904
asS'Bacteria.Firmicutes.Clostridia.uncultured.uncultured'
p253
(lp254
F0.0
aF0.0
aF0.0
aF1293.9022116955603
aF0.0
aF0.0
aF0.0
aF0.0
aF0.0
aF0.0
aF0.0
aF114.54833245397242
asS'Bacteria.Firmicutes.Clostridia.Oscillospirales.Ruminococcaceae'
p255
(lp256
F1843.2826607976774
aF27820.985733967373
aF2263.8783671887386
aF19172.779806353283
aF28628.68012916416
aF30170.66690683117
aF27510.094212651406
aF46400.068836448896
aF35427.84970003158
aF45239.5032525133
aF9742.132319137374
aF46555.21923856601
asS'Bacteria.Firmicutes.Clostridia.Eubacteriales.Eubacteriaceae'
p257
(lp258
F0.0
aF0.0
aF0.0
aF0.0
aF0.0
aF0.0
aF0.0
aF0.0
aF0.0
aF0.0
aF91.9463367743553
aF0.0
asS'Bacteria.Firmicutes.Clostridia.Lachnospirales.Lachnospiraceae'
p259
(lp260
F15882.88131047606
aF16636.297646030544
aF79187.29409277497
aF139801.7478645131
aF17993.62302750493
aF128692.52938262706
aF77487.66262898159
aF210424.41973024717
aF59425.32365014209
aF142223.5363690124
aF108488.31863585068
aF31431.36819305213
asS'Bacteria.Patescibacteria.Saccharimonadia'
p261
(lp262
F0.0
aF0.0
aF0.0
aF948.4961128107285
aF0.0
aF332.1024902057909
aF0.0
aF2151.139028115387
aF15787.811809283234
aF2956.8302779420465
aF0.0
aF22791.646996751
asS'Bacteria.Firmicutes.Clostridia.Peptostreptococcales_Tissierellales.Peptostreptococcaceae'
p263
(lp264
F1111.078001081279
aF1748.0704561278753
aF3149.169324007681
aF53148.67813634221
aF4427.324853268708
aF10351.465754041517
aF1920.1435621354865
aF0.0
aF50899.905273129145
aF0.0
aF5057.048522589543
aF7539.362972425094
asS'Bacteria.Firmicutes.Clostridia.Lachnospirales'
p265
(lp266
F15882.88131047606
aF17154.79312030576
aF79187.29409277497
aF139845.608956435
aF18379.490789945783
aF129474.94033412884
aF77487.66262898159
aF210639.53363305872
aF59425.32365014209
aF142223.5363690124
aF108488.31863585068
aF31476.493293715816
asS'Bacteria.Verrucomicrobiota.Verrucomicrobiae.Verrucomicrobiales'
p267
(lp268
F135836.73538889858
aF0.0
aF0.0
aF268.64918802153585
aF40.61765920430006
aF7908.542351510783
aF466.5769403319873
aF16692.838858175404
aF0.0
aF0.0
aF0.0
aF0.0
asS'Bacteria.Firmicutes.Clostridia.Clostridiales.Clostridiaceae'
p269
(lp270
F0.0
aF0.0
aF0.0
aF290.57973398247753
aF0.0
aF821.8129418651774
aF0.0
aF0.0
aF48500.157878118094
aF3252.513305736251
aF1028.1272202950638
aF20521.507317208638
asS'Bacteria.Proteobacteria.Gammaproteobacteria.Enterobacterales.Morganellaceae'
p271
(lp272
F119.19610739569276
aF0.0
aF0.0
aF0.0
aF0.0
aF0.0
aF0.0
aF0.0
aF0.0
aF0.0
aF238.22459982446603
aF0.0
asS'Bacteria.Patescibacteria.Saccharimonadia.Saccharimonadales'
p273
(lp274
F0.0
aF0.0
aF0.0
aF948.4961128107285
aF0.0
aF332.1024902057909
aF0.0
aF2151.139028115387
aF15787.811809283234
aF2956.8302779420465
aF0.0
aF22791.646996751
asS'Bacteria.Firmicutes.Clostridia.uncultured'
p275
(lp276
F0.0
aF0.0
aF0.0
aF1293.9022116955603
aF0.0
aF0.0
aF0.0
aF0.0
aF0.0
aF0.0
aF0.0
aF114.54833245397242
asS'Archaea.Euryarchaeota.Methanobacteria'
p277
(lp278
F0.0
aF0.0
aF0.0
aF0.0
aF0.0
aF0.0
aF0.0
aF0.0
aF0.0
aF0.0
aF83.58757888577755
aF461.664491405404
asS'Bacteria.Proteobacteria.Gammaproteobacteria.Enterobacterales'
p279
(lp280
F8288.386467836208
aF1733.2562997200118
aF629.8338648015363
aF3108.654889963486
aF1441.9269017526524
aF1784.3472778853509
aF251.23373710183932
aF2581.3668337384643
aF27912.851278812755
aF11235.955056179775
aF1174.4054833451746
aF1690.455694093472
asS'Bacteria.Firmicutes.Clostridia.Peptococcales.Peptococcaceae'
p281
(lp282
F225.62120328470417
aF0.0
aF1131.9391835943693
aF619.537923396603
aF318.1716637670172
aF6850.317467465213
aF2799.461641991924
aF516.2733667476929
aF1326.1761919797916
aF0.0
aF0.0
aF236.0389880869735
asS'Bacteria.Deferribacterota.Deferribacteres.Deferribacterales.Deferribacteraceae'
p283
(lp284
F0.0
aF0.0
aF0.0
aF87.7221838437668
aF0.0
aF67.54626919439814
aF0.0
aF0.0
aF0.0
aF0.0
aF0.0
aF0.0
asS'Bacteria.Actinobacteriota.Actinobacteria.Corynebacteriales.Corynebacteriaceae'
p285
(lp286
F0.0
aF0.0
aF0.0
aF0.0
aF372.32854270608397
aF0.0
aF0.0
aF0.0
aF0.0
aF0.0
aF0.0
aF0.0
asS'Bacteria.Firmicutes.Clostridia.Oscillospirales.Oscillospiraceae'
p287
(lp288
F6142.856534713738
aF9851.414011229128
aF27717.094483888588
aF43702.09546366657
aF5740.629167541076
aF79113.56779393884
aF35280.394795872584
aF45819.261298857746
aF20776.760341016736
aF8574.807806031935
aF4446.859196723366
aF18865.763239010306
asS'Bacteria'
p289
(lp290
F1000000.0
aF1000000.0
aF1000000.0
aF1000000.0
aF1000000.0
aF1000000.0
aF1000000.0
aF1000000.0
aF1000000.0
aF1000000.0
aF999916.4124211142
aF999538.3355085946
assS'subclass_sl'
p291
(dp292
g12
(I5
I12
tp293
sg10
(I0
I5
tp294
ssS'norm'
p295
F1000000.0
sS'cls'
p296
(dp297
S'class'
p298
(S'NR'
p299
S'NR'
p300
S'NR'
p301
S'NR'
p302
g3
S'STD-NR'
p303
S'STD-NR'
p304
S'STD-NR'
p305
S'STD-NR'
p306
S'STD-NR'
p307
S'STD-NR'
p308
g5
tp309
sS'subclass'
p310
(lp311
S'NR_subcl'
p312
aS'NR_subcl'
p313
aS'NR_subcl'
p314
aS'NR_subcl'
p315
ag10
aS'STD-NR_subcl'
p316
aS'STD-NR_subcl'
p317
aS'STD-NR_subcl'
p318
aS'STD-NR_subcl'
p319
aS'STD-NR_subcl'
p320
aS'STD-NR_subcl'
p321
ag12
asS'subject'
p322
(S'S210421121677'
p323
S'S210421121678'
p324
S'S210421121679'
p325
S'S210421121680'
p326
S'S210421121681'
p327
S'S210421121685'
p328
S'S210421121686'
p329
S'S210421121687'
p330
S'S210421121703'
p331
S'S210421121704'
p332
S'S210421121705'
p333
S'S210421121706'
p334
tp335
ss.