(dp0
S'class_sl'
p1
(dp2
S'NR'
p3
(I0
I5
tp4
sS'STD-NR'
p5
(I5
I12
tp6
ssS'class_hierarchy'
p7
(dp8
g3
(lp9
S'NR_subcl'
p10
asg5
(lp11
S'STD-NR_subcl'
p12
assS'feats'
p13
(dp14
S'Bacteria.Firmicutes.Clostridia.Oscillospirales.Ruminococcaceae.Ruminococcaceae'
p15
(lp16
F0.0
aF0.0
aF0.0
aF981.3919317521405
aF0.0
aF0.0
aF0.0
aF0.0
aF0.0
aF0.0
aF0.0
aF114.54833245397234
asS'Bacteria.Proteobacteria.Alphaproteobacteria.Rhizobiales.Beijerinckiaceae.Microvirga'
p17
(lp18
F0.0
aF0.0
aF0.0
aF0.0
aF0.0
aF0.0
aF0.0
aF0.0
aF884.1174613198611
aF0.0
aF0.0
aF0.0
asS'Bacteria.Firmicutes.Bacilli.Acholeplasmatales'
p19
(lp20
F0.0
aF0.0
aF0.0
aF0.0
aF0.0
aF0.0
aF215.343203230148
aF0.0
aF1705.0836754025893
aF0.0
aF0.0
aF0.0
asS'Bacteria.Campilobacterota.Campylobacteria.Campylobacterales.Helicobacteraceae.Helicobacter'
p21
(lp22
F0.0
aF0.0
aF0.0
aF38.37845543164796
aF0.0
aF0.0
aF0.0
aF193.60251253038481
aF0.0
aF0.0
aF639.4449784761985
aF458.19332981588934
asS'Bacteria.Firmicutes.Clostridia.Lachnospirales.Lachnospiraceae.Lachnospiraceae'
p23
(lp24
F0.0
aF0.0
aF0.0
aF0.0
aF0.0
aF0.0
aF0.0
aF0.0
aF0.0
aF0.0
aF263.30087349019936
aF0.0
asS'Bacteria.Desulfobacterota.Desulfovibrionia.Desulfovibrionales.Desulfovibrionaceae.Desulfovibrio'
p25
(lp26
F0.0
aF0.0
aF0.0
aF0.0
aF0.0
aF0.0
aF0.0
aF0.0
aF0.0
aF0.0
aF1099.1766623479753
aF3196.939823942683
asS'Bacteria.Firmicutes.Negativicutes.Veillonellales_Selenomonadales.Veillonellaceae.Veillonella'
p27
(lp28
F0.0
aF0.0
aF0.0
aF0.0
aF0.0
aF0.0
aF0.0
aF0.0
aF0.0
aF0.0
aF522.4223680361099
aF152.7311099386298
asS'Bacteria.Firmicutes.Bacilli.Erysipelotrichales'
p29
(lp30
F681.120613689673
aF1288.8316074841118
aF1233.2411338771337
aF5131.747754860355
aF1570.5494892329361
aF10126.311523393526
aF1776.581426648721
aF666.8530987157701
aF105778.33912219766
aF0.0
aF10799.515192042463
aF70072.33900752544
asS'Bacteria.Actinobacteriota.Actinobacteria.Bifidobacteriales'
p31
(lp32
F0.0
aF0.0
aF0.0
aF6129.587596083202
aF0.0
aF2825.685594632323
aF1345.895020188425
aF0.0
aF884.1174613198611
aF0.0
aF0.0
aF1982.0332676126732
asS'Bacteria.Bacteroidota.Bacteroidia'
p33
(lp34
F806846.9649691153
aF790068.5895441684
aF857736.8263420304
aF598928.6928298078
aF885106.1813307701
aF555883.2800468319
aF699004.0376850604
aF184395.63749005098
aF9472.68708556994
aF193081.01714961563
aF769009.9051280979
aF519063.6194496124
asS'Bacteria.Elusimicrobiota.Elusimicrobia.Elusimicrobiales.Elusimicrobiaceae'
p35
(lp36
F0.0
aF0.0
aF0.0
aF0.0
aF0.0
aF0.0
aF0.0
aF0.0
aF0.0
aF0.0
aF91.94633677435533
aF190.91388742328724
asS'Bacteria.Bacteroidota.Bacteroidia.Bacteroidales'
p37
(lp38
F806846.9649691153
aF790068.5895441684
aF857736.8263420304
aF598928.6928298078
aF885106.1813307701
aF555883.2800468319
aF699004.0376850604
aF184395.63749005098
aF9472.68708556994
aF193081.01714961563
aF769009.9051280979
aF519063.6194496124
asS'Bacteria.Proteobacteria.Alphaproteobacteria.Caulobacterales.Caulobacteraceae.Brevundimonas'
p39
(lp40
F0.0
aF0.0
aF0.0
aF49.3437284121188
aF0.0
aF0.0
aF0.0
aF0.0
aF0.0
aF0.0
aF0.0
aF0.0
asS'Bacteria.Firmicutes.Clostridia.Lachnospirales.Lachnospiraceae.Lachnospiraceae_UCG_006'
p41
(lp42
F0.0
aF0.0
aF0.0
aF910.11765737908
aF419.71581177776744
aF1198.9462782005673
aF2279.0489008523996
aF1183.1264654634629
aF0.0
aF0.0
aF0.0
aF298.519896698231
asS'Bacteria.Proteobacteria.Alphaproteobacteria.Sphingomonadales.Sphingomonadaceae'
p43
(lp44
F0.0
aF0.0
aF0.0
aF0.0
aF0.0
aF0.0
aF0.0
aF0.0
aF0.0
aF0.0
aF0.0
aF65.95207020077196
asS'Bacteria.Firmicutes.Clostridia.Peptostreptococcales_Tissierellales.Anaerovoracaceae.Anaerovorax'
p45
(lp46
F93.65408438233003
aF0.0
aF171.77287221860075
aF0.0
aF0.0
aF591.0298554509839
aF520.4127411395243
aF0.0
aF0.0
aF0.0
aF0.0
aF0.0
asS'Bacteria.Bacteroidota.Bacteroidia.Bacteroidales.Prevotellaceae.Prevotellaceae_UCG_003'
p47
(lp48
F0.0
aF0.0
aF0.0
aF0.0
aF0.0
aF0.0
aF0.0
aF0.0
aF0.0
aF0.0
aF105872.02741672588
aF19285.773791341526
asS'Bacteria.Bacteroidota.Bacteroidia.Bacteroidales.Prevotellaceae.Prevotellaceae_UCG_001'
p49
(lp50
F85101.76367668908
aF62486.11172836763
aF71915.57583552085
aF24995.339758983286
aF65441.8185879948
aF2780.654748502724
aF16043.068640646026
aF559.2961473100006
aF631.5124723713294
aF0.0
aF40314.28929661052
aF933.7424675793503
asS'Bacteria.Firmicutes.Clostridia.Lachnospirales.Lachnospiraceae.Lachnospiraceae_UCG_001'
p51
(lp52
F0.0
aF0.0
aF0.0
aF0.0
aF0.0
aF0.0
aF0.0
aF9421.988943145396
aF0.0
aF0.0
aF0.0
aF0.0
asS'Bacteria.Proteobacteria.Gammaproteobacteria'
p53
(lp54
F14018.31363050058
aF2636.9198405996767
aF4593.823223692323
aF4068.116275754683
aF3026.015610720355
aF5223.578151033459
aF2476.446837146702
aF4216.232495106158
aF56394.06378275972
aF11235.955056179775
aF8133.071425586157
aF5592.041320707558
asS'Bacteria.Proteobacteria.Alphaproteobacteria.Rhodospirillales'
p55
(lp56
F0.0
aF0.0
aF0.0
aF0.0
aF0.0
aF174.49452875219527
aF0.0
aF0.0
aF0.0
aF0.0
aF1776.2360513227734
aF0.0
asS'Bacteria.Firmicutes.Bacilli.Izemoplasmatales.Izemoplasmatales'
p57
(lp58
F0.0
aF0.0
aF0.0
aF0.0
aF0.0
aF236.4119421803936
aF0.0
aF0.0
aF0.0
aF0.0
aF0.0
aF0.0
asS'Bacteria.Actinobacteriota.Actinobacteria.Micrococcales.Micrococcaceae.Rothia'
p59
(lp60
F0.0
aF0.0
aF0.0
aF0.0
aF0.0
aF90.06169225919754
aF0.0
aF0.0
aF1768.2349226397223
aF0.0
aF121.20198938437748
aF128.4329788120296
asS'Bacteria.Firmicutes.Clostridia.Lachnospirales.Lachnospiraceae.Tyzzerella'
p61
(lp62
F0.0
aF0.0
aF0.0
aF0.0
aF0.0
aF0.0
aF0.0
aF150.5797319680771
aF0.0
aF0.0
aF0.0
aF0.0
asS'Bacteria.Proteobacteria.Alphaproteobacteria.Rhodospirillales.uncultured.uncultured'
p63
(lp64
F0.0
aF0.0
aF0.0
aF0.0
aF0.0
aF174.49452875219527
aF0.0
aF0.0
aF0.0
aF0.0
aF1776.2360513227734
aF0.0
asS'Bacteria.Actinobacteriota.Actinobacteria.Bifidobacteriales.Bifidobacteriaceae'
p65
(lp66
F0.0
aF0.0
aF0.0
aF6129.587596083202
aF0.0
aF2825.685594632323
aF1345.895020188425
aF0.0
aF884.1174613198611
aF0.0
aF0.0
aF1982.0332676126732
asS'Bacteria.Firmicutes.Clostridia.Peptostreptococcales_Tissierellales.Peptostreptococcaceae.Romboutsia'
p67
(lp68
F1111.078001081279
aF1748.0704561278758
aF3149.1693240076806
aF53148.67813634218
aF4427.324853268708
aF10351.46575404152
aF1920.1435621354865
aF0.0
aF50899.90527312915
aF0.0
aF5057.048522589544
aF7539.3629724250895
asS'Bacteria.Bacteroidota.Bacteroidia.Bacteroidales.Rikenellaceae'
p69
(lp70
F0.0
aF2918.388812349081
aF11751.026232800688
aF444.09355570906916
aF1428.3876820178857
aF5448.732381681451
aF4504.262000897263
aF774.4100501215393
aF0.0
aF0.0
aF906.9252309106867
aF0.0
asS'Bacteria.Bacteroidota.Bacteroidia.Bacteroidales.Marinifilaceae.Odoribacter'
p71
(lp72
F0.0
aF0.0
aF0.0
aF0.0
aF0.0
aF0.0
aF0.0
aF0.0
aF0.0
aF0.0
aF37.61441049859991
aF86.77903973785784
asS'Bacteria.Verrucomicrobiota.Verrucomicrobiae.Verrucomicrobiales.Akkermansiaceae.Akkermansia'
p73
(lp74
F135836.73538889858
aF0.0
aF0.0
aF268.6491880215357
aF40.61765920430007
aF7908.542351510785
aF466.5769403319873
aF16692.838858175404
aF0.0
aF0.0
aF0.0
aF0.0
asS'Bacteria.Firmicutes.Clostridia.Eubacteriales.Eubacteriaceae.Eubacterium'
p75
(lp76
F0.0
aF0.0
aF0.0
aF0.0
aF0.0
aF0.0
aF0.0
aF0.0
aF0.0
aF0.0
aF91.94633677435533
aF0.0
asS'Bacteria.Bacteroidota.Bacteroidia.Bacteroidales.Muribaculaceae.Muribaculum'
p77
(lp78
F13260.56694777082
aF5896.034250329615
aF13521.608146438573
aF5394.914306391655
aF11156.317061447753
aF1187.6885666681678
aF2063.7056976222516
aF817.4328306838471
aF0.0
aF0.0
aF0.0
aF0.0
asS'Bacteria.Proteobacteria.Alphaproteobacteria.Sphingomonadales.Sphingomonadaceae.Sphingomonas'
p79
(lp80
F0.0
aF0.0
aF0.0
aF0.0
aF0.0
aF0.0
aF0.0
aF0.0
aF0.0
aF0.0
aF0.0
aF65.95207020077196
asS'Bacteria.Bacteroidota.Bacteroidia.Bacteroidales.Rikenellaceae.Alistipes'
p81
(lp82
F0.0
aF2918.388812349081
aF11751.026232800688
aF444.09355570906916
aF1428.3876820178857
aF5448.732381681451
aF4504.262000897263
aF774.4100501215393
aF0.0
aF0.0
aF476.44919964893217
aF0.0
asS'Bacteria.Firmicutes.Clostridia.Lachnospirales.Lachnospiraceae.Lachnospiraceae_NK4A136_group'
p83
(lp84
F323.53229150259466
aF9555.130883071864
aF28699.2829583693
aF62332.09425748651
aF11325.557308132336
aF30969.96442563156
aF33342.30596680124
aF17596.317249983866
aF4483.738553836439
aF12123.004139562388
aF0.0
aF7574.074588320232
asS'Bacteria.Firmicutes.Clostridia.Lachnospirales.Lachnospiraceae.Robinsoniella'
p85
(lp86
F0.0
aF0.0
aF0.0
aF0.0
aF0.0
aF0.0
aF0.0
aF0.0
aF0.0
aF0.0
aF117.02261044008861
aF0.0
asS'Bacteria.Firmicutes.Clostridia.Lachnospirales.Lachnospiraceae.Roseburia'
p87
(lp88
F4929.610441579008
aF0.0
aF6628.671094589593
aF1271.9716657346178
aF0.0
aF4655.063718647274
aF0.0
aF3312.754103297696
aF0.0
aF0.0
aF0.0
aF4522.92355113715
asS'Bacteria.Firmicutes.Clostridia.Lachnospirales.Lachnospiraceae.Anaerostipes'
p89
(lp90
F0.0
aF0.0
aF57.257624072866925
aF0.0
aF0.0
aF0.0
aF0.0
aF0.0
aF0.0
aF0.0
aF1951.7699669829065
aF0.0
asS'Bacteria.Firmicutes.Clostridia.Peptococcales.Peptococcaceae.Peptococcus'
p91
(lp92
F0.0
aF0.0
aF0.0
aF0.0
aF0.0
aF123.83482685639663
aF0.0
aF0.0
aF0.0
aF0.0
aF0.0
aF27.76929271611451
asS'Bacteria.Firmicutes.Bacilli.Erysipelotrichales.Erysipelotrichaceae.uncultured'
p93
(lp94
F0.0
aF1288.8316074841118
aF110.11081552474408
aF498.9199206114234
aF839.4316235555349
aF1806.8627009501508
aF771.6464782413636
aF172.09112224923098
aF4041.6798231765088
aF0.0
aF0.0
aF3675.960123295658
asS'Bacteria.Firmicutes.Negativicutes'
p95
(lp96
F0.0
aF0.0
aF0.0
aF0.0
aF0.0
aF0.0
aF0.0
aF0.0
aF0.0
aF0.0
aF7619.007815438626
aF1197.5507483824383
asS'Bacteria.Firmicutes.Clostridia.Lachnospirales.Lachnospiraceae.Lachnospiraceae_NC2004_group'
p97
(lp98
F0.0
aF0.0
aF149.75070911365194
aF0.0
aF0.0
aF0.0
aF0.0
aF0.0
aF0.0
aF0.0
aF0.0
aF0.0
asS'Bacteria.Firmicutes.Clostridia.Christensenellales.Christensenellaceae'
p99
(lp100
F144.73813040905551
aF0.0
aF0.0
aF263.16655153130023
aF74.4657085412168
aF4002.1164497680907
aF1938.088829071332
aF1333.70619743154
aF177581.30723081782
aF0.0
aF0.0
aF2888.0064424759084
asS'Bacteria.Actinobacteriota.Actinobacteria.Bifidobacteriales.Bifidobacteriaceae.Bifidobacterium'
p101
(lp102
F0.0
aF0.0
aF0.0
aF6129.587596083202
aF0.0
aF2825.685594632323
aF1345.895020188425
aF0.0
aF884.1174613198611
aF0.0
aF0.0
aF1982.0332676126732
asS'Bacteria.Firmicutes.Clostridia.Oscillospirales.Ruminococcaceae.Anaerofilum'
p103
(lp104
F0.0
aF0.0
aF0.0
aF0.0
aF0.0
aF84.43283649299771
aF0.0
aF0.0
aF0.0
aF0.0
aF0.0
aF65.95207020077196
asS'Bacteria.Firmicutes.Bacilli.Lactobacillales.Lactobacillaceae.Lactobacillus'
p105
(lp106
F8462.923625094185
aF122216.79036487266
aF18221.13775303465
aF87261.64237858697
aF37503.63866530373
aF42745.53068852164
aF50695.37909376401
aF265966.8294361864
aF130786.23302810232
aF388231.81549379067
aF9140.301751159779
aF15099.552914387265
asS'Bacteria.Firmicutes.Bacilli.Staphylococcales.Staphylococcaceae.Staphylococcus'
p107
(lp108
F0.0
aF414.79637942017393
aF96.89751766177478
aF252.2012785508294
aF1056.0591393118018
aF0.0
aF0.0
aF0.0
aF0.0
aF0.0
aF0.0
aF76.3655549693149
asS'Bacteria.Firmicutes.Bacilli.RF39.RF39.RF39'
p109
(lp110
F0.0
aF0.0
aF726.731382463311
aF0.0
aF0.0
aF4925.248795424865
aF861.372812920592
aF24673.56465248349
aF11872.434480580992
aF0.0
aF41.79378944288879
aF6123.129043903248
asS'Bacteria.Firmicutes.Clostridia.Lachnospirales.Lachnospiraceae.Lachnospiraceae_UCG_010'
p111
(lp112
F0.0
aF0.0
aF118.91968076672362
aF0.0
aF0.0
aF0.0
aF0.0
aF0.0
aF0.0
aF0.0
aF0.0
aF0.0
asS'Bacteria.Firmicutes.Bacilli.Erysipelotrichales.Erysipelotrichaceae.Allobaculum'
p113
(lp114
F0.0
aF0.0
aF215.8171984284984
aF394.7498272969504
aF440.02464137991745
aF0.0
aF0.0
aF0.0
aF5115.251026207768
aF0.0
aF0.0
aF1266.9739801727244
asS'Bacteria.Firmicutes.Bacilli.Bacillales'
p115
(lp116
F0.0
aF0.0
aF0.0
aF0.0
aF0.0
aF0.0
aF0.0
aF0.0
aF0.0
aF0.0
aF0.0
aF79.83671655882921
asS'Bacteria.Proteobacteria.Alphaproteobacteria.Rhizobiales.Rhizobiaceae'
p117
(lp118
F38.3130345200441
aF0.0
aF74.87535455682597
aF0.0
aF0.0
aF0.0
aF0.0
aF0.0
aF1010.4199557941272
aF0.0
aF0.0
aF211.74085696037312
asS'Bacteria.Desulfobacterota'
p119
(lp120
F0.0
aF0.0
aF0.0
aF0.0
aF0.0
aF0.0
aF0.0
aF0.0
aF0.0
aF0.0
aF3723.826639361391
aF3405.209519313542
asS'Bacteria.Firmicutes.Bacilli.Lactobacillales.Aerococcaceae.Aerococcus'
p121
(lp122
F246.90622246250643
aF0.0
aF83.6842197988055
aF0.0
aF148.9314170824336
aF0.0
aF0.0
aF0.0
aF0.0
aF0.0
aF0.0
aF0.0
asS'Bacteria.Actinobacteriota.Coriobacteriia.Coriobacteriales.uncultured.uncultured'
p123
(lp124
F0.0
aF562.9379434988074
aF48.44875883088739
aF997.8398412228468
aF250.47556509318377
aF146.35024992119602
aF0.0
aF623.8303181534623
aF5873.065993053364
aF0.0
aF0.0
aF531.08772319569
asS'Bacteria.Firmicutes.Bacilli.Erysipelotrichales.Erysipelotrichaceae.Faecalibaculum'
p125
(lp126
F0.0
aF0.0
aF0.0
aF487.9546476309526
aF0.0
aF0.0
aF0.0
aF0.0
aF1452.4786864540577
aF0.0
aF0.0
aF118.01949404348666
asS'Bacteria.Bacteroidota.Bacteroidia.Bacteroidales.Marinifilaceae'
p127
(lp128
F0.0
aF0.0
aF0.0
aF0.0
aF0.0
aF0.0
aF0.0
aF0.0
aF0.0
aF0.0
aF388.6822418188657
aF86.77903973785784
asS'Bacteria.Firmicutes.Clostridia.Monoglobales'
p129
(lp130
F1983.7637873711726
aF533.3096306830807
aF391.9945032680889
aF8503.56919635514
aF676.9609867383346
aF168.86567298599542
aF0.0
aF2086.6048572719255
aF35238.39595832018
aF23063.27616794796
aF0.0
aF2270.139679542361
asS'Bacteria.Firmicutes.Bacilli.Erysipelotrichales.Erysipelotrichaceae.Dubosiella'
p131
(lp132
F0.0
aF0.0
aF559.3629428656999
aF3404.7172604361967
aF0.0
aF0.0
aF0.0
aF0.0
aF24881.59141143038
aF0.0
aF75.22882099719982
aF56031.49037794005
asS'Bacteria.Firmicutes.Bacilli.Staphylococcales'
p133
(lp134
F0.0
aF414.79637942017393
aF273.07482250136536
aF466.02410167001085
aF1638.2455879067693
aF0.0
aF0.0
aF0.0
aF0.0
aF0.0
aF0.0
aF76.3655549693149
asS'Bacteria.Cyanobacteria.Vampirivibrionia'
p135
(lp136
F0.0
aF814.7786024324845
aF0.0
aF164.47909470706264
aF440.02464137991745
aF4401.76520916828
aF6406.460296096902
aF0.0
aF1073.57120303126
aF0.0
aF0.0
aF111.07717086445804
asS'Bacteria.Firmicutes.Clostridia.Oscillospirales.Ruminococcaceae.Candidatus_Soleaferrea'
p137
(lp138
F0.0
aF0.0
aF0.0
aF0.0
aF0.0
aF0.0
aF0.0
aF0.0
aF0.0
aF0.0
aF417.93789442888783
aF104.1348476854294
asS'Bacteria.Bacteroidota.Bacteroidia.Bacteroidales.Muribaculaceae.Muribaculaceae'
p139
(lp140
F484464.0645021221
aF431491.9336918359
aF383361.815330949
aF522868.0768007717
aF485956.4443301134
aF533559.2380780835
aF566388.515029161
aF165637.7051648848
aF8841.174613198611
aF146658.78178592547
aF397914.48990679986
aF491165.8937546858
asS'Bacteria.Proteobacteria.Alphaproteobacteria.Rickettsiales'
p141
(lp142
F0.0
aF0.0
aF0.0
aF76.75691086329591
aF0.0
aF90.06169225919754
aF0.0
aF0.0
aF0.0
aF0.0
aF0.0
aF0.0
asS'Bacteria.Deferribacterota'
p143
(lp144
F0.0
aF0.0
aF0.0
aF87.72218384376674
aF0.0
aF67.54626919439816
aF0.0
aF0.0
aF0.0
aF0.0
aF0.0
aF0.0
asS'Bacteria.Actinobacteriota.Coriobacteriia.Coriobacteriales'
p145
(lp146
F55.34104986228593
aF992.5484793268447
aF105.70638290375432
aF3048.345888570894
aF1983.49569114332
aF782.4109515017788
aF215.343203230148
aF5442.381741131929
aF23492.26397221345
aF0.0
aF472.26982070464334
aF2027.1583682763592
asS'Bacteria.Proteobacteria.Alphaproteobacteria.Rhizobiales.Rhizobiaceae.Allorhizobium_Neorhizobium_Pararhizobium_Rhizobium'
p147
(lp148
F38.3130345200441
aF0.0
aF74.87535455682597
aF0.0
aF0.0
aF0.0
aF0.0
aF0.0
aF1010.4199557941272
aF0.0
aF0.0
aF152.7311099386298
asS'Bacteria.Bacteroidota.Bacteroidia.Bacteroidales.Prevotellaceae.Prevotellaceae_NK3B31_group'
p149
(lp150
F128463.60474570787
aF45405.389390101176
aF9174.433149521677
aF6047.34804872967
aF28696.376227838
aF3005.808979150718
aF92471.96052041273
aF11422.548239292704
aF0.0
aF46422.235363690124
aF171.35453671584403
aF4807.558801477324
asS'Bacteria.Bacteroidota.Bacteroidia.Bacteroidales.Tannerellaceae.Parabacteroides'
p151
(lp152
F25197.20570268234
aF2029.5394278772794
aF27545.321611669977
aF1655.7562200510974
aF2321.976184512487
aF945.6477687215744
aF2781.5163750560782
aF0.0
aF0.0
aF0.0
aF27475.237179755088
aF492.90494571103255
asS'Bacteria.Actinobacteriota.Actinobacteria.Micrococcales'
p153
(lp154
F0.0
aF0.0
aF0.0
aF0.0
aF0.0
aF90.06169225919754
aF0.0
aF0.0
aF1768.2349226397223
aF0.0
aF121.20198938437748
aF128.4329788120296
asS'Bacteria.Firmicutes.Clostridia.Lachnospirales.Lachnospiraceae.Frisingicoccus'
p155
(lp156
F0.0
aF666.6370383538509
aF110.11081552474408
aF0.0
aF162.47063681720027
aF422.1641824649885
aF0.0
aF0.0
aF0.0
aF0.0
aF2081.3307142558615
aF0.0
asS'Bacteria.Desulfobacterota.Desulfovibrionia'
p157
(lp158
F0.0
aF0.0
aF0.0
aF0.0
aF0.0
aF0.0
aF0.0
aF0.0
aF0.0
aF0.0
aF3723.826639361391
aF3405.209519313542
asS'Bacteria.Firmicutes.Clostridia.Clostridia_UCG_014.Clostridia_UCG_014'
p159
(lp160
F0.0
aF488.86716145949066
aF0.0
aF394.7498272969504
aF1570.5494892329361
aF70585.85130814608
aF52364.288918797654
aF71267.23600146278
aF166277.23397537103
aF80425.78356002366
aF8.358757888577758
aF175609.53597511863
asS'Bacteria.Firmicutes.Bacilli.Erysipelotrichales.Erysipelatoclostridiaceae.Erysipelatoclostridiaceae'
p161
(lp162
F0.0
aF0.0
aF0.0
aF0.0
aF0.0
aF22.515423064799386
aF0.0
aF0.0
aF0.0
aF0.0
aF0.0
aF0.0
asS'Bacteria.Firmicutes.Clostridia.Oscillospirales.Oscillospiraceae.Flavonifractor'
p163
(lp164
F0.0
aF0.0
aF0.0
aF0.0
aF0.0
aF0.0
aF0.0
aF0.0
aF0.0
aF0.0
aF769.0057257491537
aF0.0
asS'Bacteria.Firmicutes.Clostridia.Oscillospirales.Oscillospiraceae.NK4A214_group'
p165
(lp166
F170.28015342241824
aF0.0
aF268.6703898803755
aF2938.693158766186
aF189.54907628673365
aF5763.948304588643
aF3571.1081202332875
aF2968.571858799234
aF0.0
aF0.0
aF0.0
aF4866.568548499067
asS'Bacteria.Desulfobacterota.Desulfovibrionia.Desulfovibrionales'
p167
(lp168
F0.0
aF0.0
aF0.0
aF0.0
aF0.0
aF0.0
aF0.0
aF0.0
aF0.0
aF0.0
aF3723.826639361391
aF3405.209519313542
asS'Bacteria.Deferribacterota.Deferribacteres.Deferribacterales.Deferribacteraceae.Mucispirillum'
p169
(lp170
F0.0
aF0.0
aF0.0
aF87.72218384376674
aF0.0
aF67.54626919439816
aF0.0
aF0.0
aF0.0
aF0.0
aF0.0
aF0.0
asS'Bacteria.Firmicutes.Bacilli.RF39.RF39'
p171
(lp172
F0.0
aF0.0
aF726.731382463311
aF0.0
aF0.0
aF4925.248795424865
aF861.372812920592
aF24673.56465248349
aF11872.434480580992
aF0.0
aF41.79378944288879
aF6123.129043903248
asS'Bacteria.Proteobacteria.Gammaproteobacteria.Pseudomonadales.Moraxellaceae.Acinetobacter'
p173
(lp174
F0.0
aF0.0
aF0.0
aF82.23954735353132
aF0.0
aF33.77313459719908
aF0.0
aF0.0
aF2083.991158825387
aF0.0
aF0.0
aF0.0
asS'Bacteria.Firmicutes.Clostridia.Clostridia_vadinBB60_group'
p175
(lp176
F0.0
aF474.05300505162734
aF114.51524814573385
aF350.888735375067
aF264.01478482795045
aF816.1840860989779
aF0.0
aF731.3872695592316
aF315.7562361856647
aF0.0
aF3753.0822919714133
aF173.5580794757157
asS'Bacteria.Firmicutes.Bacilli.Izemoplasmatales.Izemoplasmatales.Izemoplasmatales'
p177
(lp178
F0.0
aF0.0
aF0.0
aF0.0
aF0.0
aF236.4119421803936
aF0.0
aF0.0
aF0.0
aF0.0
aF0.0
aF0.0
asS'Bacteria.Firmicutes.Bacilli.Erysipelotrichales.Erysipelatoclostridiaceae.UCG_004'
p179
(lp180
F0.0
aF0.0
aF26.42659572593858
aF76.75691086329591
aF0.0
aF219.52537488179402
aF215.343203230148
aF494.76197646653907
aF0.0
aF0.0
aF0.0
aF20.82696953708588
asS'Bacteria.Cyanobacteria.Vampirivibrionia.Gastranaerophilales.Gastranaerophilales'
p181
(lp182
F0.0
aF814.7786024324845
aF0.0
aF164.47909470706264
aF440.02464137991745
aF4401.76520916828
aF6406.460296096902
aF0.0
aF1073.57120303126
aF0.0
aF0.0
aF111.07717086445804
asS'Bacteria.Proteobacteria.Gammaproteobacteria.Burkholderiales.Alcaligenaceae.Achromobacter'
p183
(lp184
F0.0
aF0.0
aF79.27978717781573
aF0.0
aF0.0
aF0.0
aF0.0
aF0.0
aF0.0
aF0.0
aF0.0
aF284.6352503401737
asS'Bacteria.Firmicutes.Clostridia.Oscillospirales.Oscillospiraceae.Colidextribacter'
p185
(lp186
F587.4665293073429
aF770.3361332088944
aF1752.9641831539257
aF904.6350208888446
aF1008.6718702401184
aF1598.5950376007565
aF0.0
aF0.0
aF0.0
aF0.0
aF0.0
aF142.31762517008684
asS'Bacteria.Bacteroidota.Bacteroidia.Bacteroidales.Tannerellaceae'
p187
(lp188
F25197.20570268234
aF2029.5394278772794
aF27545.321611669977
aF1655.7562200510974
aF2321.976184512487
aF945.6477687215744
aF2781.5163750560782
aF0.0
aF0.0
aF0.0
aF27475.237179755088
aF492.90494571103255
asS'Bacteria.Firmicutes.Negativicutes.Veillonellales_Selenomonadales.Veillonellaceae'
p189
(lp190
F0.0
aF0.0
aF0.0
aF0.0
aF0.0
aF0.0
aF0.0
aF0.0
aF0.0
aF0.0
aF522.4223680361099
aF152.7311099386298
asS'Bacteria.Proteobacteria.Gammaproteobacteria.Burkholderiales.Sutterellaceae'
p191
(lp192
F5695.8711319798895
aF903.6635408796647
aF3483.906203202903
aF257.6839150410648
aF1299.7650945376022
aF3326.6537578241096
aF2225.2131000448626
aF430.2278056230774
aF0.0
aF0.0
aF5395.578217076943
aF1596.7343311765842
asS'Bacteria.Firmicutes.Clostridia.Clostridiales.Clostridiaceae.Clostridium_sensu_stricto_1'
p193
(lp194
F0.0
aF0.0
aF0.0
aF290.57973398247736
aF0.0
aF821.8129418651777
aF0.0
aF0.0
aF48500.1578781181
aF3252.513305736251
aF1028.127220295064
aF20521.507317208623
asS'Bacteria.Proteobacteria.Gammaproteobacteria.Pseudomonadales.Moraxellaceae'
p195
(lp196
F0.0
aF0.0
aF0.0
aF82.23954735353132
aF0.0
aF33.77313459719908
aF0.0
aF0.0
aF2083.991158825387
aF0.0
aF0.0
aF0.0
asS'Bacteria.Elusimicrobiota.Elusimicrobia.Elusimicrobiales'
p197
(lp198
F0.0
aF0.0
aF0.0
aF0.0
aF0.0
aF0.0
aF0.0
aF0.0
aF0.0
aF0.0
aF91.94633677435533
aF190.91388742328724
asS'Bacteria.Campilobacterota.Campylobacteria.Campylobacterales'
p199
(lp200
F0.0
aF0.0
aF0.0
aF38.37845543164796
aF0.0
aF0.0
aF0.0
aF193.60251253038481
aF0.0
aF0.0
aF639.4449784761985
aF458.19332981588934
asS'Bacteria.Firmicutes.Clostridia.Lachnospirales.Lachnospiraceae.GCA_900066575'
p201
(lp202
F0.0
aF607.3804127223975
aF1233.2411338771337
aF0.0
aF0.0
aF731.7512496059801
aF0.0
aF0.0
aF0.0
aF0.0
aF0.0
aF354.05848213046
asS'Bacteria.Proteobacteria.Alphaproteobacteria.Rhizobiales'
p203
(lp204
F38.3130345200441
aF0.0
aF74.87535455682597
aF0.0
aF0.0
aF0.0
aF0.0
aF0.0
aF1894.5374171139883
aF0.0
aF0.0
aF211.74085696037312
asS'Bacteria.Firmicutes.Clostridia.Lachnospirales.Defluviitaleaceae.Defluviitaleaceae_UCG_011'
p205
(lp206
F0.0
aF518.4954742752174
aF0.0
aF43.86109192188337
aF385.8677624408507
aF782.4109515017788
aF0.0
aF215.1139028115387
aF0.0
aF0.0
aF0.0
aF45.12510066368608
asS'Bacteria.Firmicutes.Bacilli.RF39'
p207
(lp208
F0.0
aF0.0
aF726.731382463311
aF0.0
aF0.0
aF4925.248795424865
aF861.372812920592
aF24673.56465248349
aF11872.434480580992
aF0.0
aF41.79378944288879
aF6123.129043903248
asS'Bacteria.Firmicutes.Clostridia.Peptostreptococcales_Tissierellales'
p209
(lp210
F1362.2412273793457
aF1748.0704561278758
aF3761.385458325258
aF53581.806419070774
aF4569.486660483758
aF11606.700589904085
aF2440.556303275011
aF3635.4249575150043
aF54499.52636564573
aF0.0
aF5057.048522589544
aF8587.653772458412
asS'Bacteria.Firmicutes.Clostridia.Peptococcales'
p211
(lp212
F225.62120328470417
aF0.0
aF1131.939183594369
aF619.5379233966027
aF318.1716637670172
aF6850.317467465213
aF2799.461641991924
aF516.2733667476929
aF1326.1761919797916
aF0.0
aF0.0
aF236.03898808697332
asS'Bacteria.Actinobacteriota.Actinobacteria.Corynebacteriales'
p213
(lp214
F0.0
aF0.0
aF0.0
aF0.0
aF372.32854270608397
aF0.0
aF0.0
aF0.0
aF0.0
aF0.0
aF0.0
aF0.0
asS'Bacteria.Verrucomicrobiota'
p215
(lp216
F135836.73538889858
aF0.0
aF0.0
aF268.6491880215357
aF40.61765920430007
aF7908.542351510785
aF466.5769403319873
aF16692.838858175404
aF0.0
aF0.0
aF0.0
aF0.0
asS'Bacteria.Firmicutes.Clostridia.Peptostreptococcales_Tissierellales.Anaerovoracaceae.Family_XIII_UCG_001'
p217
(lp218
F0.0
aF0.0
aF0.0
aF148.0311852363564
aF0.0
aF84.43283649299771
aF0.0
aF1269.1720265880783
aF0.0
aF0.0
aF0.0
aF62.48090861125764
asS'Bacteria.Firmicutes.Clostridia.Christensenellales.Christensenellaceae.Christensenellaceae_R_7_group'
p219
(lp220
F144.73813040905551
aF0.0
aF0.0
aF148.0311852363564
aF74.4657085412168
aF4002.1164497680907
aF1938.088829071332
aF1333.70619743154
aF177581.30723081782
aF0.0
aF0.0
aF2589.4865457776777
asS'Bacteria.Cyanobacteria.Vampirivibrionia.Gastranaerophilales'
p221
(lp222
F0.0
aF814.7786024324845
aF0.0
aF164.47909470706264
aF440.02464137991745
aF4401.76520916828
aF6406.460296096902
aF0.0
aF1073.57120303126
aF0.0
aF0.0
aF111.07717086445804
asS'Bacteria.Actinobacteriota.Coriobacteriia.Coriobacteriales.Eggerthellaceae.Parvibacter'
p223
(lp224
F0.0
aF0.0
aF57.257624072866925
aF455.05882868954
aF0.0
aF0.0
aF0.0
aF0.0
aF0.0
aF0.0
aF0.0
aF0.0
asS'Bacteria.Patescibacteria'
p225
(lp226
F0.0
aF0.0
aF0.0
aF948.4961128107279
aF0.0
aF332.10249020579096
aF0.0
aF2151.139028115387
aF15787.811809283236
aF2956.8302779420465
aF0.0
aF22791.646996750984
asS'Bacteria.Deferribacterota.Deferribacteres.Deferribacterales'
p227
(lp228
F0.0
aF0.0
aF0.0
aF87.72218384376674
aF0.0
aF67.54626919439816
aF0.0
aF0.0
aF0.0
aF0.0
aF0.0
aF0.0
asS'Bacteria.Firmicutes.Clostridia.Oscillospirales.Ruminococcaceae.Pygmaiobacter'
p229
(lp230
F0.0
aF0.0
aF0.0
aF0.0
aF0.0
aF332.10249020579096
aF376.850605652759
aF0.0
aF0.0
aF0.0
aF0.0
aF0.0
asS'Bacteria.Actinobacteriota.Coriobacteriia'
p231
(lp232
F55.34104986228593
aF992.5484793268447
aF105.70638290375432
aF3048.345888570894
aF1983.49569114332
aF782.4109515017788
aF215.343203230148
aF5442.381741131929
aF23492.26397221345
aF0.0
aF472.26982070464334
aF2027.1583682763592
asS'Bacteria.Firmicutes.Clostridia.Lachnospirales.Lachnospiraceae.Tuzzerella'
p233
(lp234
F0.0
aF0.0
aF0.0
aF0.0
aF0.0
aF422.1641824649885
aF0.0
aF0.0
aF0.0
aF0.0
aF0.0
aF138.84646358057256
asS'Bacteria.Firmicutes.Clostridia.Clostridia.Hungateiclostridiaceae'
p235
(lp236
F0.0
aF0.0
aF0.0
aF0.0
aF0.0
aF112.57711532399694
aF0.0
aF0.0
aF0.0
aF0.0
aF0.0
aF76.3655549693149
asS'Bacteria.Cyanobacteria'
p237
(lp238
F0.0
aF814.7786024324845
aF0.0
aF164.47909470706264
aF440.02464137991745
aF4401.76520916828
aF6406.460296096902
aF0.0
aF1073.57120303126
aF0.0
aF0.0
aF111.07717086445804
asS'Bacteria.Firmicutes.Clostridia.Oscillospirales.Oscillospiraceae.uncultured'
p239
(lp240
F2618.0573588696807
aF2607.2915277839506
aF1193.6012402882257
aF31240.062721361435
aF155.70102694981696
aF31065.654973656954
aF15307.312696276354
aF3678.447738077312
aF0.0
aF0.0
aF296.7359050445104
aF853.9057510205212
asS'Bacteria.Firmicutes.Clostridia.Oscillospirales.Ruminococcaceae.Paludicola'
p241
(lp242
F0.0
aF0.0
aF0.0
aF433.1282827285983
aF0.0
aF0.0
aF0.0
aF301.1594639361542
aF0.0
aF0.0
aF0.0
aF0.0
asS'Bacteria.Firmicutes.Clostridia.Lachnospirales.Lachnospiraceae._Eubacterium__ventriosum_group'
p243
(lp244
F0.0
aF0.0
aF57.257624072866925
aF0.0
aF0.0
aF0.0
aF0.0
aF0.0
aF0.0
aF0.0
aF0.0
aF0.0
asS'Bacteria.Campilobacterota'
p245
(lp246
F0.0
aF0.0
aF0.0
aF38.37845543164796
aF0.0
aF0.0
aF0.0
aF193.60251253038481
aF0.0
aF0.0
aF639.4449784761985
aF458.19332981588934
asS'Bacteria.Firmicutes.Clostridia.Lachnospirales.Lachnospiraceae.Lachnoclostridium'
p247
(lp248
F0.0
aF0.0
aF0.0
aF0.0
aF169.24024668458364
aF545.9990093213852
aF0.0
aF1204.637855744617
aF2778.6548784338493
aF0.0
aF42796.84038951812
aF548.4435311432616
asS'Archaea.Euryarchaeota.Methanobacteria.Methanobacteriales.Methanobacteriaceae'
p249
(lp250
F0.0
aF0.0
aF0.0
aF0.0
aF0.0
aF0.0
aF0.0
aF0.0
aF0.0
aF0.0
aF83.58757888577757
aF461.6644914054037
asS'Bacteria.Firmicutes.Clostridia.Lachnospirales.Defluviitaleaceae'
p251
(lp252
F0.0
aF518.4954742752174
aF0.0
aF43.86109192188337
aF385.8677624408507
aF782.4109515017788
aF0.0
aF215.1139028115387
aF0.0
aF0.0
aF0.0
aF45.12510066368608
asS'Bacteria.Firmicutes.Clostridia.Lachnospirales.Lachnospiraceae.Acetatifactor'
p253
(lp254
F0.0
aF0.0
aF0.0
aF0.0
aF0.0
aF337.73134597199083
aF0.0
aF0.0
aF0.0
aF0.0
aF0.0
aF0.0
asS'Bacteria.Firmicutes.Clostridia.Lachnospirales.Lachnospiraceae.Hungatella'
p255
(lp256
F0.0
aF0.0
aF0.0
aF0.0
aF0.0
aF0.0
aF0.0
aF0.0
aF0.0
aF0.0
aF14397.960463075187
aF0.0
asS'Bacteria.Firmicutes.Negativicutes.Veillonellales_Selenomonadales'
p257
(lp258
F0.0
aF0.0
aF0.0
aF0.0
aF0.0
aF0.0
aF0.0
aF0.0
aF0.0
aF0.0
aF7619.007815438626
aF1197.5507483824383
asS'Bacteria.Firmicutes.Clostridia.Oscillospirales.UCG_010.UCG_010'
p259
(lp260
F0.0
aF399.98222301231056
aF0.0
aF422.1630097481275
aF284.3236144301005
aF4283.559238078084
aF933.1538806639746
aF0.0
aF0.0
aF0.0
aF121.20198938437748
aF2231.9569020577037
asS'Bacteria.Bacteroidota.Bacteroidia.Bacteroidales.Bacteroidaceae'
p261
(lp262
F70359.75939414321
aF239841.1922433077
aF340467.04603512964
aF37523.164139171226
aF290104.8612568459
aF8955.509524023957
aF14751.009421265138
aF5184.245057758083
aF0.0
aF0.0
aF40786.55911731516
aF312.4045430562882
asS'Bacteria.Firmicutes.Bacilli.Staphylococcales.Staphylococcaceae.Jeotgalicoccus'
p263
(lp264
F0.0
aF0.0
aF176.17730483959053
aF213.82282311918146
aF582.1864485949676
aF0.0
aF0.0
aF0.0
aF0.0
aF0.0
aF0.0
aF0.0
asS'Bacteria.Proteobacteria.Alphaproteobacteria.Rickettsiales.Mitochondria.Mitochondria'
p265
(lp266
F0.0
aF0.0
aF0.0
aF76.75691086329591
aF0.0
aF90.06169225919754
aF0.0
aF0.0
aF0.0
aF0.0
aF0.0
aF0.0
asS'Bacteria.Firmicutes.Clostridia.Oscillospirales.Ruminococcaceae.UBA1819'
p267
(lp268
F0.0
aF0.0
aF0.0
aF0.0
aF0.0
aF1519.7910568739585
aF3230.1480484522203
aF1936.0251253038484
aF0.0
aF0.0
aF5838.592385171563
aF65.95207020077196
asS'Bacteria.Firmicutes.Clostridia.Eubacteriales.Eubacteriaceae'
p269
(lp270
F0.0
aF0.0
aF0.0
aF0.0
aF0.0
aF0.0
aF0.0
aF0.0
aF0.0
aF0.0
aF91.94633677435533
aF0.0
asS'Bacteria.Firmicutes.Clostridia.Oscillospirales.UCG_010'
p271
(lp272
F0.0
aF399.98222301231056
aF0.0
aF422.1630097481275
aF284.3236144301005
aF4283.559238078084
aF933.1538806639746
aF0.0
aF0.0
aF0.0
aF121.20198938437748
aF2231.9569020577037
asS'Bacteria.Cyanobacteria.Vampirivibrionia.Gastranaerophilales.Gastranaerophilales.Gastranaerophilales'
p273
(lp274
F0.0
aF814.7786024324845
aF0.0
aF164.47909470706264
aF440.02464137991745
aF4401.76520916828
aF6406.460296096902
aF0.0
aF1073.57120303126
aF0.0
aF0.0
aF111.07717086445804
asS'Bacteria.Proteobacteria.Gammaproteobacteria.Enterobacterales.Enterobacteriaceae'
p275
(lp276
F8169.190360440514
aF1733.2562997200123
aF629.8338648015362
aF3108.654889963484
aF1441.9269017526524
aF1784.3472778853513
aF251.23373710183932
aF2581.3668337384643
aF27912.85127881276
aF11235.955056179775
aF936.1808835207089
aF1690.4556940934708
asS'Bacteria.Elusimicrobiota.Elusimicrobia'
p277
(lp278
F0.0
aF0.0
aF0.0
aF0.0
aF0.0
aF0.0
aF0.0
aF0.0
aF0.0
aF0.0
aF91.94633677435533
aF190.91388742328724
asS'Bacteria.Proteobacteria.Alphaproteobacteria'
p279
(lp280
F38.3130345200441
aF0.0
aF74.87535455682597
aF126.1006392754147
aF0.0
aF264.55622101139284
aF0.0
aF0.0
aF1894.5374171139883
aF0.0
aF1776.2360513227734
aF277.6929271611451
asS'Bacteria.Proteobacteria.Gammaproteobacteria.Pasteurellales.Pasteurellaceae'
p281
(lp282
F0.0
aF0.0
aF0.0
aF0.0
aF0.0
aF0.0
aF0.0
aF1204.637855744617
aF0.0
aF0.0
aF1391.7331884481966
aF666.4630251867482
asS'Bacteria.Firmicutes.Bacilli.Acholeplasmatales.Acholeplasmataceae'
p283
(lp284
F0.0
aF0.0
aF0.0
aF0.0
aF0.0
aF0.0
aF215.343203230148
aF0.0
aF1705.0836754025893
aF0.0
aF0.0
aF0.0
asS'Bacteria.Elusimicrobiota.Elusimicrobia.Elusimicrobiales.Elusimicrobiaceae.Elusimicrobium'
p285
(lp286
F0.0
aF0.0
aF0.0
aF0.0
aF0.0
aF0.0
aF0.0
aF0.0
aF0.0
aF0.0
aF91.94633677435533
aF190.91388742328724
asS'Bacteria.Firmicutes.Clostridia.Monoglobales.Monoglobaceae'
p287
(lp288
F1983.7637873711726
aF533.3096306830807
aF391.9945032680889
aF8503.56919635514
aF676.9609867383346
aF168.86567298599542
aF0.0
aF2086.6048572719255
aF35238.39595832018
aF23063.27616794796
aF0.0
aF2270.139679542361
asS'Bacteria.Firmicutes.Clostridia.uncultured'
p289
(lp290
F0.0
aF0.0
aF0.0
aF1293.9022116955596
aF0.0
aF0.0
aF0.0
aF0.0
aF0.0
aF0.0
aF0.0
aF114.54833245397234
asS'Bacteria.Firmicutes.Clostridia.Peptococcales.Peptococcaceae'
p291
(lp292
F225.62120328470417
aF0.0
aF1131.939183594369
aF619.5379233966027
aF318.1716637670172
aF6850.317467465213
aF2799.461641991924
aF516.2733667476929
aF1326.1761919797916
aF0.0
aF0.0
aF236.03898808697332
asS'Bacteria.Firmicutes.Bacilli.Lactobacillales.Lactobacillaceae'
p293
(lp294
F8462.923625094185
aF122216.79036487266
aF18221.13775303465
aF87261.64237858697
aF37503.63866530373
aF42745.53068852164
aF50695.37909376401
aF265966.8294361864
aF130786.23302810232
aF388231.81549379067
aF9140.301751159779
aF15099.552914387265
asS'Bacteria.Firmicutes.Bacilli.Izemoplasmatales'
p295
(lp296
F0.0
aF0.0
aF0.0
aF0.0
aF0.0
aF236.4119421803936
aF0.0
aF0.0
aF0.0
aF0.0
aF0.0
aF0.0
asS'Bacteria.Firmicutes.Clostridia.Clostridia_UCG_014.Clostridia_UCG_014.Clostridia_UCG_014'
p297
(lp298
F0.0
aF488.86716145949066
aF0.0
aF394.7498272969504
aF1570.5494892329361
aF70585.85130814608
aF52364.288918797654
aF71267.23600146278
aF166277.23397537103
aF80425.78356002366
aF8.358757888577758
aF175609.53597511863
asS'Bacteria.Firmicutes.Negativicutes.Veillonellales_Selenomonadales.Selenomonadaceae'
p299
(lp300
F0.0
aF0.0
aF0.0
aF0.0
aF0.0
aF0.0
aF0.0
aF0.0
aF0.0
aF0.0
aF7096.585447402516
aF1044.8196384438083
asS'Bacteria.Proteobacteria.Alphaproteobacteria.Rickettsiales.Mitochondria'
p301
(lp302
F0.0
aF0.0
aF0.0
aF76.75691086329591
aF0.0
aF90.06169225919754
aF0.0
aF0.0
aF0.0
aF0.0
aF0.0
aF0.0
asS'Bacteria.Firmicutes.Clostridia.Lachnospirales.Lachnospiraceae._Eubacterium__xylanophilum_group'
p303
(lp304
F4597.564142405293
aF2844.318030309764
aF3228.4491111854963
aF25768.391504106483
aF2606.2997989425876
aF17325.61804836313
aF2027.8151637505605
aF40290.8339966012
aF2841.8061256709825
aF0.0
aF0.0
aF8598.067257226954
asS'Archaea.Euryarchaeota.Methanobacteria.Methanobacteriales.Methanobacteriaceae.Methanosphaera'
p305
(lp306
F0.0
aF0.0
aF0.0
aF0.0
aF0.0
aF0.0
aF0.0
aF0.0
aF0.0
aF0.0
aF83.58757888577757
aF461.6644914054037
asS'Bacteria.Proteobacteria.Gammaproteobacteria.Pasteurellales.Pasteurellaceae.Rodentibacter'
p307
(lp308
F0.0
aF0.0
aF0.0
aF0.0
aF0.0
aF0.0
aF0.0
aF1204.637855744617
aF0.0
aF0.0
aF1391.7331884481966
aF666.4630251867482
asS'Bacteria.Bacteroidota'
p309
(lp310
F806846.9649691153
aF790068.5895441684
aF857736.8263420304
aF598928.6928298078
aF885106.1813307701
aF555883.2800468319
aF699004.0376850604
aF184395.63749005098
aF9472.68708556994
aF193081.01714961563
aF769009.9051280979
aF519063.6194496124
asS'Bacteria.Elusimicrobiota'
p311
(lp312
F0.0
aF0.0
aF0.0
aF0.0
aF0.0
aF0.0
aF0.0
aF0.0
aF0.0
aF0.0
aF91.94633677435533
aF190.91388742328724
asS'Bacteria.Actinobacteriota.Coriobacteriia.Coriobacteriales.Atopobiaceae.Coriobacteriaceae_UCG_002'
p313
(lp314
F0.0
aF429.6105358280373
aF0.0
aF1595.4472186585076
aF1733.0201260501362
aF281.44278830999235
aF0.0
aF0.0
aF0.0
aF0.0
aF41.79378944288879
aF767.1267112826633
asS'Bacteria.Proteobacteria.Gammaproteobacteria.Pseudomonadales.Pseudomonadaceae'
p315
(lp316
F0.0
aF0.0
aF290.69255298532437
aF82.23954735353132
aF148.9314170824336
aF0.0
aF0.0
aF0.0
aF5999.368487527629
aF0.0
aF0.0
aF572.7416622698618
asS'Bacteria.Proteobacteria.Alphaproteobacteria.Caulobacterales.Caulobacteraceae'
p317
(lp318
F0.0
aF0.0
aF0.0
aF49.3437284121188
aF0.0
aF0.0
aF0.0
aF0.0
aF0.0
aF0.0
aF0.0
aF0.0
asS'Bacteria.Desulfobacterota.Desulfovibrionia.Desulfovibrionales.Desulfovibrionaceae.uncultured'
p319
(lp320
F0.0
aF0.0
aF0.0
aF0.0
aF0.0
aF0.0
aF0.0
aF0.0
aF0.0
aF0.0
aF2624.6499770134155
aF208.2696953708588
asS'Bacteria.Proteobacteria.Alphaproteobacteria.Rhizobiales.Rhizobiaceae.uncultured'
p321
(lp322
F0.0
aF0.0
aF0.0
aF0.0
aF0.0
aF0.0
aF0.0
aF0.0
aF0.0
aF0.0
aF0.0
aF59.00974702174333
asS'Bacteria.Proteobacteria.Gammaproteobacteria.Pseudomonadales.Pseudomonadaceae.Pseudomonas'
p323
(lp324
F0.0
aF0.0
aF290.69255298532437
aF82.23954735353132
aF148.9314170824336
aF0.0
aF0.0
aF0.0
aF5999.368487527629
aF0.0
aF0.0
aF572.7416622698618
asS'Bacteria.Firmicutes.Clostridia'
p325
(lp326
F27585.384854431748
aF78115.04673866344
aF115153.89087577735
aF285278.0244964197
aF63586.94548433177
aF357162.15607691277
aF232588.60475549567
aF492223.6324133628
aF606757.1834543732
aF393554.1099940864
aF185652.1920842563
aF348317.18086140323
asS'Archaea'
p327
(lp328
F0.0
aF0.0
aF0.0
aF0.0
aF0.0
aF0.0
aF0.0
aF0.0
aF0.0
aF0.0
aF83.58757888577757
aF461.6644914054037
asS'Bacteria.Firmicutes.Clostridia.Lachnospirales.Lachnospiraceae.Marvinbryantia'
p329
(lp330
F2520.14627065179
aF162.95572048649692
aF0.0
aF0.0
aF0.0
aF0.0
aF0.0
aF1333.70619743154
aF0.0
aF0.0
aF0.0
aF0.0
asS'Bacteria.Campilobacterota.Campylobacteria'
p331
(lp332
F0.0
aF0.0
aF0.0
aF38.37845543164796
aF0.0
aF0.0
aF0.0
aF193.60251253038481
aF0.0
aF0.0
aF639.4449784761985
aF458.19332981588934
asS'Bacteria.Patescibacteria.Saccharimonadia.Saccharimonadales.Saccharimonadaceae'
p333
(lp334
F0.0
aF0.0
aF0.0
aF948.4961128107279
aF0.0
aF332.10249020579096
aF0.0
aF2151.139028115387
aF15787.811809283236
aF2956.8302779420465
aF0.0
aF22791.646996750984
asS'Bacteria.Firmicutes.Bacilli.Erysipelotrichales.Erysipelotrichaceae'
p335
(lp336
F540.6394871161779
aF1288.8316074841118
aF885.2909568189424
aF4994.681842604469
aF1279.4562649354523
aF9884.270725446931
aF1561.238223418573
aF172.09112224923098
aF103504.89422166088
aF0.0
aF6862.540226522339
aF70051.51203798836
asS'Bacteria.Actinobacteriota'
p337
(lp338
F55.34104986228593
aF992.5484793268447
aF105.70638290375432
aF9177.933484654095
aF2355.824233849404
aF3698.1582383932996
aF1561.238223418573
aF5442.381741131929
aF26144.616356173035
aF0.0
aF593.4718100890208
aF4137.624614701062
asS'Bacteria.Bacteroidota.Bacteroidia.Bacteroidales.Marinifilaceae.Butyricimonas'
p339
(lp340
F0.0
aF0.0
aF0.0
aF0.0
aF0.0
aF0.0
aF0.0
aF0.0
aF0.0
aF0.0
aF351.06783132026584
aF0.0
asS'Bacteria.Actinobacteriota.Coriobacteriia.Coriobacteriales.Eggerthellaceae.Enterorhabdus'
p341
(lp342
F0.0
aF0.0
aF0.0
aF0.0
aF0.0
aF0.0
aF215.343203230148
aF365.6936347796158
aF14145.879381117778
aF0.0
aF0.0
aF468.60681458443236
asS'Bacteria.Firmicutes.Clostridia.Lachnospirales.Lachnospiraceae._Bacteroides__pectinophilus_group'
p343
(lp344
F0.0
aF0.0
aF0.0
aF0.0
aF0.0
aF0.0
aF0.0
aF817.4328306838471
aF820.9662140827282
aF4730.928444707274
aF0.0
aF1173.252617255838
asS'Bacteria.Proteobacteria.Gammaproteobacteria.Burkholderiales'
p345
(lp346
F5729.927162664373
aF903.6635408796647
aF3673.2968059054624
aF794.9822910841362
aF1435.1572918852692
aF3405.457738550908
aF2225.2131000448626
aF430.2278056230774
aF20397.85285759394
aF0.0
aF5566.932753792787
aF2662.380939157478
asS'Bacteria.Firmicutes.Clostridia.Peptostreptococcales_Tissierellales.Anaerovoracaceae'
p347
(lp348
F0.0
aF0.0
aF0.0
aF0.0
aF0.0
aF118.2059710901968
aF0.0
aF1032.5467334953858
aF1894.5374171139883
aF0.0
aF0.0
aF0.0
asS'Bacteria.Firmicutes'
p349
(lp350
F43204.33192710306
aF205487.16353347254
aF137488.76869681643
aF386191.4317356928
aF109031.33652407616
aF422220.47102265054
aF290085.24001794524
aF786908.1678748897
aF889232.7123460688
aF792726.1975162625
aF215948.5100514064
aF443510.31629224366
asS'Bacteria.Firmicutes.Clostridia.Oscillospirales.Ruminococcaceae.Ruminococcus'
p351
(lp352
F1166.4190509435648
aF23954.490911515044
aF1083.4904247634815
aF5203.022029233415
aF26266.086285447378
aF13903.273742513622
aF14535.66621803499
aF19984.081571191946
aF15787.811809283236
aF11235.955056179775
aF2031.178166924395
aF39362.97242509232
asS'Bacteria.Firmicutes.Clostridia.Monoglobales.Monoglobaceae.Monoglobus'
p353
(lp354
F1983.7637873711726
aF533.3096306830807
aF391.9945032680889
aF8503.56919635514
aF676.9609867383346
aF168.86567298599542
aF0.0
aF2086.6048572719255
aF35238.39595832018
aF23063.27616794796
aF0.0
aF2270.139679542361
asS'Bacteria.Proteobacteria'
p355
(lp356
F14056.626665020625
aF2636.9198405996767
aF4668.698578249149
aF4194.216915030098
aF3026.015610720355
aF5488.134372044851
aF2476.446837146702
aF4216.232495106158
aF58288.6011998737
aF11235.955056179775
aF9909.30747690893
aF5869.734247868703
asS'Bacteria.Proteobacteria.Gammaproteobacteria.Burkholderiales.Alcaligenaceae.Alcaligenes'
p357
(lp358
F34.056030684483645
aF0.0
aF0.0
aF0.0
aF0.0
aF0.0
aF0.0
aF0.0
aF0.0
aF0.0
aF0.0
aF0.0
asS'Bacteria.Firmicutes.Clostridia.Oscillospirales'
p359
(lp360
F7986.139195511416
aF57715.953365035624
aF30566.76238966896
aF80134.21494128094
aF37733.805400794765
aF132722.7901112262
aF95558.54643337817
aF202013.466130316
aF63593.30596779287
aF144589.00059136606
aF67225.3103188866
aF106363.33342589762
asS'Bacteria.Actinobacteriota.Coriobacteriia.Coriobacteriales.Atopobiaceae'
p361
(lp362
F0.0
aF429.6105358280373
aF0.0
aF1595.4472186585076
aF1733.0201260501362
aF281.44278830999235
aF0.0
aF0.0
aF0.0
aF0.0
aF41.79378944288879
aF767.1267112826633
asS'Bacteria.Proteobacteria.Gammaproteobacteria.Burkholderiales.Comamonadaceae'
p363
(lp364
F0.0
aF0.0
aF0.0
aF0.0
aF0.0
aF0.0
aF0.0
aF0.0
aF14587.93811177771
aF0.0
aF0.0
aF513.7319152481184
asS'Bacteria.Firmicutes.Bacilli.Erysipelotrichales.Erysipelatoclostridiaceae'
p365
(lp366
F140.48112657349503
aF0.0
aF347.9501770581913
aF137.06591225588556
aF291.0932242974838
aF242.04079794659341
aF215.343203230148
aF494.76197646653907
aF2273.444900536786
aF0.0
aF3936.974965520123
aF20.82696953708588
asS'Bacteria.Firmicutes.Clostridia.Lachnospirales.Lachnospiraceae.ASF356'
p367
(lp368
F0.0
aF0.0
aF0.0
aF0.0
aF0.0
aF151.97910568739587
aF0.0
aF0.0
aF0.0
aF0.0
aF0.0
aF0.0
asS'Bacteria.Firmicutes.Bacilli.Acholeplasmatales.Acholeplasmataceae.Anaeroplasma'
p369
(lp370
F0.0
aF0.0
aF0.0
aF0.0
aF0.0
aF0.0
aF215.343203230148
aF0.0
aF1705.0836754025893
aF0.0
aF0.0
aF0.0
asS'Bacteria.Actinobacteriota.Coriobacteriia.Coriobacteriales.Eggerthellaceae'
p371
(lp372
F55.34104986228593
aF0.0
aF57.257624072866925
aF455.05882868954
aF0.0
aF354.61791327059035
aF215.343203230148
aF4818.551422978467
aF17619.19797916009
aF0.0
aF430.47603126175454
aF728.9439337980058
asS'Bacteria.Firmicutes.Bacilli.Lactobacillales.Enterococcaceae'
p373
(lp374
F0.0
aF0.0
aF0.0
aF0.0
aF0.0
aF0.0
aF0.0
aF0.0
aF0.0
aF0.0
aF79.40819994148869
aF0.0
asS'Bacteria.Firmicutes.Clostridia.Lachnospirales.Lachnospiraceae._Eubacterium__ruminantium_group'
p375
(lp376
F0.0
aF0.0
aF0.0
aF0.0
aF0.0
aF0.0
aF0.0
aF98113.4510723428
aF0.0
aF0.0
aF0.0
aF0.0
asS'Bacteria.Firmicutes.Clostridia.Christensenellales'
p377
(lp378
F144.73813040905551
aF0.0
aF0.0
aF263.16655153130023
aF74.4657085412168
aF4002.1164497680907
aF1938.088829071332
aF1333.70619743154
aF177581.30723081782
aF0.0
aF0.0
aF2888.0064424759084
asS'Bacteria.Proteobacteria.Gammaproteobacteria.Burkholderiales.Sutterellaceae.Parasutterella'
p379
(lp380
F5695.8711319798895
aF903.6635408796647
aF3483.906203202903
aF257.6839150410648
aF1299.7650945376022
aF3326.6537578241096
aF2225.2131000448626
aF430.2278056230774
aF0.0
aF0.0
aF5395.578217076943
aF1596.7343311765842
asS'Bacteria.Firmicutes.Clostridia.uncultured.uncultured.uncultured'
p381
(lp382
F0.0
aF0.0
aF0.0
aF1293.9022116955596
aF0.0
aF0.0
aF0.0
aF0.0
aF0.0
aF0.0
aF0.0
aF114.54833245397234
asS'Bacteria.Bacteroidota.Bacteroidia.Bacteroidales.Prevotellaceae.Prevotellaceae_Ga6A1_group'
p383
(lp384
F0.0
aF0.0
aF0.0
aF0.0
aF0.0
aF0.0
aF0.0
aF0.0
aF0.0
aF0.0
aF20441.342416516905
aF0.0
asS'Bacteria.Proteobacteria.Gammaproteobacteria.Burkholderiales.Comamonadaceae.Comamonas'
p385
(lp386
F0.0
aF0.0
aF0.0
aF0.0
aF0.0
aF0.0
aF0.0
aF0.0
aF1641.9324281654565
aF0.0
aF0.0
aF0.0
asS'Bacteria.Firmicutes.Clostridia.Clostridia_UCG_014'
p387
(lp388
F0.0
aF488.86716145949066
aF0.0
aF394.7498272969504
aF1570.5494892329361
aF70585.85130814608
aF52364.288918797654
aF71267.23600146278
aF166277.23397537103
aF80425.78356002366
aF8.358757888577758
aF175609.53597511863
asS'Bacteria.Firmicutes.Clostridia.Oscillospirales.Ruminococcaceae._Eubacterium__siraeum_group'
p389
(lp390
F0.0
aF0.0
aF0.0
aF0.0
aF0.0
aF0.0
aF0.0
aF17037.021102673865
aF0.0
aF0.0
aF0.0
aF3738.4410319069157
asS'Bacteria.Proteobacteria.Alphaproteobacteria.Caulobacterales'
p391
(lp392
F0.0
aF0.0
aF0.0
aF49.3437284121188
aF0.0
aF0.0
aF0.0
aF0.0
aF0.0
aF0.0
aF0.0
aF0.0
asS'Bacteria.Bacteroidota.Bacteroidia.Bacteroidales.Prevotellaceae.Prevotella'
p393
(lp394
F0.0
aF0.0
aF0.0
aF0.0
aF0.0
aF0.0
aF0.0
aF0.0
aF0.0
aF0.0
aF130388.26430392444
aF781.0113576407206
asS'Bacteria.Firmicutes.Clostridia.Clostridia'
p395
(lp396
F0.0
aF0.0
aF0.0
aF0.0
aF0.0
aF112.57711532399694
aF0.0
aF0.0
aF0.0
aF0.0
aF0.0
aF76.3655549693149
asS'Bacteria.Firmicutes.Bacilli.Erysipelotrichales.Erysipelotrichaceae.Turicibacter'
p397
(lp398
F0.0
aF0.0
aF0.0
aF208.34018662894604
aF0.0
aF8077.408024496781
aF789.5917451772093
aF0.0
aF68013.89327439218
aF0.0
aF2892.1302294479037
aF8959.068062536442
asS'Bacteria.Firmicutes.Clostridia.Clostridia_vadinBB60_group.Clostridia_vadinBB60_group'
p399
(lp400
F0.0
aF474.05300505162734
aF114.51524814573385
aF350.888735375067
aF264.01478482795045
aF816.1840860989779
aF0.0
aF731.3872695592316
aF315.7562361856647
aF0.0
aF3753.0822919714133
aF173.5580794757157
asS'Bacteria.Firmicutes.Bacilli.Lactobacillales.Streptococcaceae.Streptococcus'
p401
(lp402
F408.67236821380374
aF2133.238522732323
aF361.16347492116057
aF1875.0616796605143
aF2294.8977450429543
aF180.12338451839508
aF0.0
aF0.0
aF4357.436059362173
aF0.0
aF894.38709407782
aF787.9536808197491
asS'Bacteria.Firmicutes.Bacilli.Lactobacillales.Streptococcaceae'
p403
(lp404
F408.67236821380374
aF2133.238522732323
aF361.16347492116057
aF1875.0616796605143
aF2294.8977450429543
aF180.12338451839508
aF0.0
aF0.0
aF4357.436059362173
aF0.0
aF894.38709407782
aF787.9536808197491
asS'Bacteria.Bacteroidota.Bacteroidia.Bacteroidales.Prevotellaceae'
p405
(lp406
F0.0
aF0.0
aF0.0
aF0.0
aF0.0
aF0.0
aF0.0
aF0.0
aF0.0
aF0.0
aF4350.733481004723
aF1197.550748382438
asS'Bacteria.Proteobacteria.Gammaproteobacteria.Burkholderiales.Alcaligenaceae'
p407
(lp408
F34.056030684483645
aF0.0
aF79.27978717781573
aF0.0
aF0.0
aF0.0
aF0.0
aF0.0
aF0.0
aF0.0
aF0.0
aF284.6352503401737
asS'Bacteria.Firmicutes.Clostridia.Lachnospirales.Lachnospiraceae._Eubacterium__hallii_group'
p409
(lp410
F770.5176942364425
aF0.0
aF167.368439597611
aF0.0
aF352.01971310393395
aF0.0
aF0.0
aF0.0
aF0.0
aF0.0
aF0.0
aF0.0
asS'Bacteria.Firmicutes.Bacilli.Lactobacillales.Enterococcaceae.Enterococcus'
p411
(lp412
F0.0
aF0.0
aF0.0
aF0.0
aF0.0
aF0.0
aF0.0
aF0.0
aF0.0
aF0.0
aF79.40819994148869
aF0.0
asS'Bacteria.Firmicutes.Clostridia.Eubacteriales'
p413
(lp414
F0.0
aF0.0
aF0.0
aF0.0
aF0.0
aF0.0
aF0.0
aF0.0
aF0.0
aF0.0
aF91.94633677435533
aF0.0
asS'Bacteria.Firmicutes.Clostridia.Oscillospirales.Ruminococcaceae.Incertae_Sedis'
p415
(lp416
F425.7003835560456
aF3866.494822452335
aF836.842197988055
aF5312.674759038124
aF1875.1819332651867
aF1395.9562300175621
aF323.01480484522205
aF2796.4807365500033
aF18819.07167666562
aF19515.079834417505
aF631.0862205876207
aF1721.6961483990995
asS'Bacteria.Firmicutes.Clostridia.Clostridia_vadinBB60_group.Clostridia_vadinBB60_group.Clostridia_vadinBB60_group'
p417
(lp418
F0.0
aF474.05300505162734
aF114.51524814573385
aF350.888735375067
aF264.01478482795045
aF816.1840860989779
aF0.0
aF731.3872695592316
aF315.7562361856647
aF0.0
aF3753.0822919714133
aF173.5580794757157
asS'Bacteria.Firmicutes.Bacilli.Erysipelotrichales.Erysipelatoclostridiaceae.Coprobacillus'
p419
(lp420
F0.0
aF0.0
aF0.0
aF0.0
aF0.0
aF0.0
aF0.0
aF0.0
aF0.0
aF0.0
aF3280.8124712667695
aF0.0
asS'Bacteria.Proteobacteria.Alphaproteobacteria.Rhodospirillales.uncultured'
p421
(lp422
F0.0
aF0.0
aF0.0
aF0.0
aF0.0
aF174.49452875219527
aF0.0
aF0.0
aF0.0
aF0.0
aF1776.2360513227734
aF0.0
asS'Bacteria.Firmicutes.Bacilli.Bacillales.Bacillaceae'
p423
(lp424
F0.0
aF0.0
aF0.0
aF0.0
aF0.0
aF0.0
aF0.0
aF0.0
aF0.0
aF0.0
aF0.0
aF79.83671655882921
asS'Bacteria.Proteobacteria.Gammaproteobacteria.Pasteurellales'
p425
(lp426
F0.0
aF0.0
aF0.0
aF0.0
aF0.0
aF0.0
aF0.0
aF1204.637855744617
aF0.0
aF0.0
aF1391.7331884481966
aF666.4630251867482
asS'Bacteria.Proteobacteria.Gammaproteobacteria.Burkholderiales.Burkholderiaceae'
p427
(lp428
F0.0
aF0.0
aF110.11081552474408
aF537.2983760430714
aF135.3921973476669
aF78.80398072679785
aF0.0
aF0.0
aF5809.914745816231
aF0.0
aF171.35453671584403
aF267.2794423926021
asS'Bacteria.Firmicutes.Bacilli'
p429
(lp430
F5819.324243211143
aF1318.4599202998386
aF1435.8450344426628
aF6178.93132449532
aF2288.1281351755706
aF6844.6886116990145
aF3947.958725886046
aF3377.2882741411577
aF27976.002526049895
aF10940.27202838557
aF1721.9041250470182
aF1756.4077642942425
asS'Archaea.Euryarchaeota'
p431
(lp432
F0.0
aF0.0
aF0.0
aF0.0
aF0.0
aF0.0
aF0.0
aF0.0
aF0.0
aF0.0
aF83.58757888577757
aF461.6644914054037
asS'Bacteria.Proteobacteria.Gammaproteobacteria.Enterobacterales.Morganellaceae.Proteus'
p433
(lp434
F119.19610739569276
aF0.0
aF0.0
aF0.0
aF0.0
aF0.0
aF0.0
aF0.0
aF0.0
aF0.0
aF238.22459982446608
aF0.0
asS'Bacteria.Verrucomicrobiota.Verrucomicrobiae'
p435
(lp436
F135836.73538889858
aF0.0
aF0.0
aF268.6491880215357
aF40.61765920430007
aF7908.542351510785
aF466.5769403319873
aF16692.838858175404
aF0.0
aF0.0
aF0.0
aF0.0
asS'Bacteria.Firmicutes.Clostridia.Peptostreptococcales_Tissierellales.Anaerovoracaceae._Eubacterium__nodatum_group'
p437
(lp438
F0.0
aF0.0
aF246.64822677542674
aF71.27427437306049
aF142.16180721505026
aF0.0
aF0.0
aF1333.70619743154
aF0.0
aF0.0
aF0.0
aF479.02029935297526
asS'Bacteria.Firmicutes.Clostridia.Oscillospirales.Oscillospiraceae.Papillibacter'
p439
(lp440
F0.0
aF1022.1767921425715
aF0.0
aF0.0
aF907.1277222293681
aF1277.7502589273652
aF1058.7707492148945
aF5162.7336674769285
aF0.0
aF0.0
aF0.0
aF177.02924106523
asS'Bacteria.Firmicutes.Clostridia.Lachnospirales.Lachnospiraceae.Eisenbergiella'
p441
(lp442
F0.0
aF0.0
aF0.0
aF0.0
aF0.0
aF0.0
aF0.0
aF0.0
aF0.0
aF0.0
aF1918.3349354285954
aF0.0
asS'Bacteria.Firmicutes.Bacilli.Erysipelotrichales.Erysipelotrichaceae.Faecalitalea'
p443
(lp444
F68.11206136896729
aF0.0
aF0.0
aF0.0
aF0.0
aF0.0
aF0.0
aF0.0
aF0.0
aF0.0
aF0.0
aF0.0
asS'Bacteria.Bacteroidota.Bacteroidia.Bacteroidales.Rikenellaceae.Rikenella'
p445
(lp446
F0.0
aF0.0
aF0.0
aF0.0
aF0.0
aF0.0
aF0.0
aF0.0
aF0.0
aF0.0
aF430.47603126175454
aF0.0
asS'Bacteria.Proteobacteria.Alphaproteobacteria.Sphingomonadales'
p447
(lp448
F0.0
aF0.0
aF0.0
aF0.0
aF0.0
aF0.0
aF0.0
aF0.0
aF0.0
aF0.0
aF0.0
aF65.95207020077196
asS'Bacteria.Firmicutes.Bacilli.Bacillales.Bacillaceae.Bacillus'
p449
(lp450
F0.0
aF0.0
aF0.0
aF0.0
aF0.0
aF0.0
aF0.0
aF0.0
aF0.0
aF0.0
aF0.0
aF79.83671655882921
asS'Bacteria.Campilobacterota.Campylobacteria.Campylobacterales.Helicobacteraceae'
p451
(lp452
F0.0
aF0.0
aF0.0
aF38.37845543164796
aF0.0
aF0.0
aF0.0
aF193.60251253038481
aF0.0
aF0.0
aF639.4449784761985
aF458.19332981588934
asS'Bacteria.Proteobacteria.Gammaproteobacteria.Enterobacterales.Enterobacteriaceae.Escherichia_Shigella'
p453
(lp454
F8169.190360440514
aF1733.2562997200123
aF629.8338648015362
aF3108.654889963484
aF1441.9269017526524
aF1784.3472778853513
aF251.23373710183932
aF2581.3668337384643
aF27912.85127881276
aF11235.955056179775
aF936.1808835207089
aF1690.4556940934708
asS'Bacteria.Verrucomicrobiota.Verrucomicrobiae.Verrucomicrobiales.Akkermansiaceae'
p455
(lp456
F135836.73538889858
aF0.0
aF0.0
aF268.6491880215357
aF40.61765920430007
aF7908.542351510785
aF466.5769403319873
aF16692.838858175404
aF0.0
aF0.0
aF0.0
aF0.0
asS'Bacteria.Firmicutes.Clostridia.Oscillospirales._Eubacterium__coprostanoligenes_group._Eubacterium__coprostanoligenes_group'
p457
(lp458
F0.0
aF19643.571396826806
aF52.85319145187716
aF16294.395648979675
aF2755.2312160250212
aF18625.883730355294
aF31834.903544190212
aF105965.10852496396
aF7388.6959267445545
aF90774.68953282082
aF50010.44844736072
aF38575.018744272566
asS'Bacteria.Deferribacterota.Deferribacteres.Deferribacterales.Deferribacteraceae'
p459
(lp460
F0.0
aF0.0
aF0.0
aF87.72218384376674
aF0.0
aF67.54626919439816
aF0.0
aF0.0
aF0.0
aF0.0
aF0.0
aF0.0
asS'Bacteria.Firmicutes.Clostridia.Lachnospirales.Lachnospiraceae.uncultured'
p461
(lp462
F0.0
aF0.0
aF0.0
aF0.0
aF0.0
aF213.8965191155942
aF0.0
aF0.0
aF0.0
aF0.0
aF0.0
aF0.0
asS'Bacteria.Desulfobacterota.Desulfovibrionia.Desulfovibrionales.Desulfovibrionaceae'
p463
(lp464
F0.0
aF0.0
aF0.0
aF0.0
aF0.0
aF0.0
aF0.0
aF0.0
aF0.0
aF0.0
aF3723.826639361391
aF3405.209519313542
asS'Bacteria.Proteobacteria.Gammaproteobacteria.Pseudomonadales'
p465
(lp466
F0.0
aF0.0
aF290.69255298532437
aF164.47909470706264
aF148.9314170824336
aF33.77313459719908
aF0.0
aF0.0
aF8083.3596463530175
aF0.0
aF0.0
aF572.7416622698618
asS'Bacteria.Firmicutes.Clostridia.Oscillospirales.Butyricicoccaceae.UCG_008'
p467
(lp468
F0.0
aF0.0
aF0.0
aF0.0
aF0.0
aF0.0
aF0.0
aF1936.0251253038484
aF0.0
aF0.0
aF0.0
aF0.0
asS'Bacteria.Firmicutes.Clostridia.Oscillospirales.Butyricicoccaceae.UCG_009'
p469
(lp470
F0.0
aF0.0
aF237.83936153344723
aF158.99645821682722
aF88.00492827598349
aF529.1124420227857
aF0.0
aF1527.3087099619247
aF0.0
aF0.0
aF0.0
aF135.37530199105822
asS'Bacteria.Firmicutes.Clostridia.Oscillospirales.Butyricicoccaceae.Butyricicoccus'
p471
(lp472
F0.0
aF0.0
aF295.0969856063141
aF383.78455431647956
aF236.9363453584171
aF0.0
aF0.0
aF365.6936347796158
aF0.0
aF0.0
aF2904.6683662807704
aF0.0
asS'Bacteria.Firmicutes.Clostridia.Peptostreptococcales_Tissierellales.Anaerovoracaceae.Family_XIII_AD3011_group'
p473
(lp474
F157.50914191573688
aF0.0
aF145.34627649266218
aF0.0
aF0.0
aF382.7621921015896
aF0.0
aF0.0
aF0.0
aF0.0
aF0.0
aF447.77984504734644
asS'Bacteria.Proteobacteria.Alphaproteobacteria.Rhizobiales.Beijerinckiaceae'
p475
(lp476
F0.0
aF0.0
aF0.0
aF0.0
aF0.0
aF0.0
aF0.0
aF0.0
aF884.1174613198611
aF0.0
aF0.0
aF0.0
asS'Bacteria.Bacteroidota.Bacteroidia.Bacteroidales.Bacteroidaceae.Bacteroides'
p477
(lp478
F70359.75939414321
aF239841.1922433077
aF340467.04603512964
aF37523.164139171226
aF290104.8612568459
aF8955.509524023957
aF14751.009421265138
aF5184.245057758083
aF0.0
aF0.0
aF40786.55911731516
aF312.4045430562882
asS'Bacteria.Firmicutes.Bacilli.Erysipelotrichales.Erysipelotrichaceae._Clostridium__innocuum_group'
p479
(lp480
F0.0
aF0.0
aF0.0
aF0.0
aF0.0
aF0.0
aF0.0
aF0.0
aF0.0
aF0.0
aF2461.6541981861496
aF0.0
asS'Bacteria.Firmicutes.Clostridia.Lachnospirales'
p481
(lp482
F15882.881310476063
aF17154.793120305763
aF79187.29409277496
aF139845.6089564349
aF18379.49078994578
aF129474.94033412887
aF77487.66262898159
aF210639.53363305872
aF59425.3236501421
aF142223.5363690124
aF108488.31863585072
aF31476.49329371579
asS'Bacteria.Actinobacteriota.Actinobacteria.Corynebacteriales.Corynebacteriaceae.Corynebacterium'
p483
(lp484
F0.0
aF0.0
aF0.0
aF0.0
aF372.32854270608397
aF0.0
aF0.0
aF0.0
aF0.0
aF0.0
aF0.0
aF0.0
asS'Bacteria.Deferribacterota.Deferribacteres'
p485
(lp486
F0.0
aF0.0
aF0.0
aF87.72218384376674
aF0.0
aF67.54626919439816
aF0.0
aF0.0
aF0.0
aF0.0
aF0.0
aF0.0
asS'Bacteria.Firmicutes.Clostridia.Clostridiales'
p487
(lp488
F0.0
aF0.0
aF0.0
aF290.57973398247736
aF0.0
aF821.8129418651777
aF0.0
aF0.0
aF48500.1578781181
aF3252.513305736251
aF1028.127220295064
aF20521.507317208623
asS'Bacteria.Firmicutes.Bacilli.Lactobacillales'
p489
(lp490
F9118.502215770495
aF124350.02888760499
aF18665.985447754614
aF89136.70405824749
aF39947.46782742913
aF42925.65407304003
aF50695.37909376401
aF265966.8294361864
aF135143.66908746448
aF388231.81549379067
aF10114.097045179087
aF15887.506595207014
asS'Bacteria.Firmicutes.Clostridia.Oscillospirales.Oscillospiraceae.Intestinimonas'
p491
(lp492
F89.39708054676957
aF0.0
aF0.0
aF0.0
aF0.0
aF0.0
aF0.0
aF0.0
aF0.0
aF0.0
aF62.69068416433318
aF0.0
asS'Bacteria.Actinobacteriota.Actinobacteria'
p493
(lp494
F0.0
aF0.0
aF0.0
aF6129.587596083202
aF372.32854270608397
aF2915.7472868915206
aF1345.895020188425
aF0.0
aF2652.352383959583
aF0.0
aF121.20198938437748
aF2110.4662464247026
asS'Bacteria.Firmicutes.Clostridia.Peptostreptococcales_Tissierellales.Anaerovoracaceae._Eubacterium__brachy_group'
p495
(lp496
F0.0
aF0.0
aF48.44875883088739
aF213.82282311918146
aF0.0
aF78.80398072679785
aF0.0
aF0.0
aF1705.0836754025893
aF0.0
aF0.0
aF59.00974702174333
asS'Bacteria.Actinobacteriota.Coriobacteriia.Coriobacteriales.uncultured'
p497
(lp498
F0.0
aF562.9379434988074
aF48.44875883088739
aF997.8398412228468
aF250.47556509318377
aF146.35024992119602
aF0.0
aF623.8303181534623
aF5873.065993053364
aF0.0
aF0.0
aF531.08772319569
asS'Bacteria.Firmicutes.Clostridia.uncultured.uncultured'
p499
(lp500
F0.0
aF0.0
aF0.0
aF1293.9022116955596
aF0.0
aF0.0
aF0.0
aF0.0
aF0.0
aF0.0
aF0.0
aF114.54833245397234
asS'Bacteria.Firmicutes.Clostridia.Oscillospirales.Ruminococcaceae'
p501
(lp502
F251.16322629806686
aF0.0
aF0.0
aF3717.227540379616
aF162.47063681720027
aF5848.381141081641
aF7608.793180798562
aF4216.232495106158
aF820.9662140827282
aF14488.468361916026
aF292.5565261002215
aF996.223376190608
asS'Bacteria.Firmicutes.Clostridia.Oscillospirales.Ruminococcaceae.DTU089'
p503
(lp504
F0.0
aF0.0
aF70.4709219358362
aF0.0
aF0.0
aF0.0
aF0.0
aF0.0
aF0.0
aF0.0
aF0.0
aF0.0
asS'Bacteria.Firmicutes.Clostridia.Oscillospirales.Ruminococcaceae.uncultured'
p505
(lp506
F0.0
aF0.0
aF83.6842197988055
aF2472.6690570961755
aF324.94127363440055
aF844.328364929977
aF0.0
aF129.06834168692322
aF0.0
aF0.0
aF530.7811259246876
aF59.00974702174333
asS'Archaea.Euryarchaeota.Methanobacteria.Methanobacteriales'
p507
(lp508
F0.0
aF0.0
aF0.0
aF0.0
aF0.0
aF0.0
aF0.0
aF0.0
aF0.0
aF0.0
aF83.58757888577757
aF461.6644914054037
asS'Bacteria.Firmicutes.Clostridia.Oscillospirales.Oscillospiraceae.Oscillibacter'
p509
(lp510
F183.0511649290996
aF0.0
aF2065.678899244199
aF0.0
aF0.0
aF4857.702526230468
aF1238.223418573351
aF989.5239529330781
aF0.0
aF0.0
aF317.63279976595476
aF1086.4735775179802
asS'Bacteria.Firmicutes.Clostridia.Lachnospirales.Lachnospiraceae.Coprococcus'
p511
(lp512
F0.0
aF0.0
aF0.0
aF0.0
aF0.0
aF0.0
aF0.0
aF0.0
aF5620.461004104832
aF0.0
aF0.0
aF0.0
asS'Bacteria.Patescibacteria.Saccharimonadia.Saccharimonadales.Saccharimonadaceae.Candidatus_Saccharimonas'
p513
(lp514
F0.0
aF0.0
aF0.0
aF948.4961128107279
aF0.0
aF332.10249020579096
aF0.0
aF2151.139028115387
aF15787.811809283236
aF2956.8302779420465
aF0.0
aF22791.646996750984
asS'Bacteria.Firmicutes.Clostridia.Lachnospirales.Lachnospiraceae.Lachnospiraceae_FCS020_group'
p515
(lp516
F0.0
aF0.0
aF0.0
aF0.0
aF169.24024668458364
aF0.0
aF0.0
aF0.0
aF0.0
aF0.0
aF0.0
aF0.0
asS'Bacteria.Firmicutes.Clostridia.Lachnospirales.Lachnospiraceae'
p517
(lp518
F2677.6554125675266
aF2459.1499637053166
aF37596.23685276862
aF43208.65817954536
aF1827.7946641935032
aF70794.11897149547
aF39838.49259757738
aF36999.59128358466
aF42879.696874013265
aF125369.60378474277
aF22305.345425669748
aF8143.345089000579
asS'Bacteria.Firmicutes.Bacilli.Erysipelotrichales.Erysipelatoclostridiaceae.Erysipelatoclostridium'
p519
(lp520
F140.48112657349503
aF0.0
aF321.5235813322527
aF60.30900139258964
aF291.0932242974838
aF0.0
aF0.0
aF0.0
aF2273.444900536786
aF0.0
aF656.1624942533539
aF0.0
asS'Bacteria.Proteobacteria.Gammaproteobacteria.Burkholderiales.Burkholderiaceae.Burkholderia_Caballeronia_Paraburkholderia'
p521
(lp522
F0.0
aF0.0
aF110.11081552474408
aF537.2983760430714
aF135.3921973476669
aF78.80398072679785
aF0.0
aF0.0
aF5809.914745816231
aF0.0
aF171.35453671584403
aF267.2794423926021
asS'Bacteria.Patescibacteria.Saccharimonadia'
p523
(lp524
F0.0
aF0.0
aF0.0
aF948.4961128107279
aF0.0
aF332.10249020579096
aF0.0
aF2151.139028115387
aF15787.811809283236
aF2956.8302779420465
aF0.0
aF22791.646996750984
asS'Bacteria.Firmicutes.Clostridia.Peptostreptococcales_Tissierellales.Peptostreptococcaceae'
p525
(lp526
F1111.078001081279
aF1748.0704561278758
aF3149.1693240076806
aF53148.67813634218
aF4427.324853268708
aF10351.46575404152
aF1920.1435621354865
aF0.0
aF50899.90527312915
aF0.0
aF5057.048522589544
aF7539.3629724250895
asS'Bacteria.Firmicutes.Bacilli.Erysipelotrichales.Erysipelotrichaceae.Holdemania'
p527
(lp528
F472.5274257472106
aF0.0
aF0.0
aF0.0
aF0.0
aF0.0
aF0.0
aF0.0
aF0.0
aF0.0
aF1433.5269778910854
aF0.0
asS'Bacteria.Firmicutes.Clostridia.Oscillospirales._Eubacterium__coprostanoligenes_group'
p529
(lp530
F0.0
aF19643.571396826806
aF52.85319145187716
aF16294.395648979675
aF2755.2312160250212
aF18625.883730355294
aF31834.903544190212
aF105965.10852496396
aF7388.6959267445545
aF90774.68953282082
aF50010.44844736072
aF38575.018744272566
asS'Bacteria.Firmicutes.Negativicutes.Veillonellales_Selenomonadales.Selenomonadaceae.Quinella'
p531
(lp532
F0.0
aF0.0
aF0.0
aF0.0
aF0.0
aF0.0
aF0.0
aF0.0
aF0.0
aF0.0
aF7096.585447402516
aF1044.8196384438083
asS'Bacteria.Firmicutes.Clostridia.Peptococcales.Peptococcaceae.uncultured'
p533
(lp534
F225.62120328470417
aF0.0
aF1131.939183594369
aF619.5379233966027
aF318.1716637670172
aF6726.482640608817
aF2799.461641991924
aF516.2733667476929
aF1326.1761919797916
aF0.0
aF0.0
aF208.2696953708588
asS'Bacteria.Verrucomicrobiota.Verrucomicrobiae.Verrucomicrobiales'
p535
(lp536
F135836.73538889858
aF0.0
aF0.0
aF268.6491880215357
aF40.61765920430007
aF7908.542351510785
aF466.5769403319873
aF16692.838858175404
aF0.0
aF0.0
aF0.0
aF0.0
asS'Bacteria.Firmicutes.Clostridia.Oscillospirales.Butyricicoccaceae'
p537
(lp538
F0.0
aF0.0
aF532.9363471397614
aF542.7810125333068
aF324.94127363440055
aF529.1124420227857
aF0.0
aF3829.027470045389
aF0.0
aF0.0
aF2904.6683662807704
aF135.37530199105822
asS'Bacteria.Firmicutes.Clostridia.Clostridiales.Clostridiaceae'
p539
(lp540
F0.0
aF0.0
aF0.0
aF290.57973398247736
aF0.0
aF821.8129418651777
aF0.0
aF0.0
aF48500.1578781181
aF3252.513305736251
aF1028.127220295064
aF20521.507317208623
asS'Bacteria.Proteobacteria.Gammaproteobacteria.Enterobacterales.Morganellaceae'
p541
(lp542
F119.19610739569276
aF0.0
aF0.0
aF0.0
aF0.0
aF0.0
aF0.0
aF0.0
aF0.0
aF0.0
aF238.22459982446608
aF0.0
asS'Bacteria.Bacteroidota.Bacteroidia.Bacteroidales.Muribaculaceae'
p543
(lp544
F497724.63144989294
aF437387.96794216556
aF396883.4234773875
aF528262.9911071634
aF497112.7613915612
aF534746.9266447517
aF568452.2207267833
aF166455.13799556863
aF8841.174613198611
aF146658.78178592547
aF397914.48990679986
aF491165.8937546858
asS'Bacteria.Firmicutes.Clostridia.Lachnospirales.Lachnospiraceae.Blautia'
p545
(lp546
F63.855057533406836
aF340.72559738085715
aF1140.7480488363485
aF6310.514600260971
aF961.284601168435
aF923.1323456567749
aF0.0
aF0.0
aF0.0
aF0.0
aF22656.413256990014
aF79.83671655882921
asS'Bacteria.Patescibacteria.Saccharimonadia.Saccharimonadales'
p547
(lp548
F0.0
aF0.0
aF0.0
aF948.4961128107279
aF0.0
aF332.10249020579096
aF0.0
aF2151.139028115387
aF15787.811809283236
aF2956.8302779420465
aF0.0
aF22791.646996750984
asS'Archaea.Euryarchaeota.Methanobacteria'
p549
(lp550
F0.0
aF0.0
aF0.0
aF0.0
aF0.0
aF0.0
aF0.0
aF0.0
aF0.0
aF0.0
aF83.58757888577757
aF461.6644914054037
asS'Bacteria.Proteobacteria.Gammaproteobacteria.Enterobacterales'
p551
(lp552
F8288.386467836208
aF1733.2562997200123
aF629.8338648015362
aF3108.654889963484
aF1441.9269017526524
aF1784.3472778853513
aF251.23373710183932
aF2581.3668337384643
aF27912.85127881276
aF11235.955056179775
aF1174.405483345175
aF1690.4556940934708
asS'Bacteria.Firmicutes.Clostridia.Oscillospirales.Ruminococcaceae.Fournierella'
p553
(lp554
F0.0
aF0.0
aF0.0
aF0.0
aF0.0
aF6242.401044715631
aF1435.6213548676533
aF0.0
aF0.0
aF0.0
aF0.0
aF277.6929271611451
asS'Bacteria.Firmicutes.Clostridia.Oscillospirales.Ruminococcaceae.Subdoligranulum'
p555
(lp556
F0.0
aF0.0
aF0.0
aF0.0
aF0.0
aF0.0
aF0.0
aF0.0
aF0.0
aF0.0
aF0.0
aF48.596262253200386
asS'Bacteria.Firmicutes.Bacilli.Staphylococcales.Staphylococcaceae'
p557
(lp558
F0.0
aF414.79637942017393
aF273.07482250136536
aF466.02410167001085
aF1638.2455879067693
aF0.0
aF0.0
aF0.0
aF0.0
aF0.0
aF0.0
aF76.3655549693149
asS'Bacteria.Proteobacteria.Gammaproteobacteria.Burkholderiales.Comamonadaceae.Delftia'
p559
(lp560
F0.0
aF0.0
aF0.0
aF0.0
aF0.0
aF0.0
aF0.0
aF0.0
aF12946.005683612253
aF0.0
aF0.0
aF513.7319152481184
asS'Bacteria.Firmicutes.Clostridia.Oscillospirales.Ruminococcaceae.Harryflintia'
p561
(lp562
F0.0
aF0.0
aF189.3906027025598
aF1052.666206125201
aF0.0
aF0.0
aF0.0
aF0.0
aF0.0
aF0.0
aF0.0
aF0.0
asS'Bacteria.Actinobacteriota.Actinobacteria.Micrococcales.Micrococcaceae'
p563
(lp564
F0.0
aF0.0
aF0.0
aF0.0
aF0.0
aF90.06169225919754
aF0.0
aF0.0
aF1768.2349226397223
aF0.0
aF121.20198938437748
aF128.4329788120296
asS'Bacteria.Actinobacteriota.Actinobacteria.Corynebacteriales.Corynebacteriaceae'
p565
(lp566
F0.0
aF0.0
aF0.0
aF0.0
aF372.32854270608397
aF0.0
aF0.0
aF0.0
aF0.0
aF0.0
aF0.0
aF0.0
asS'Bacteria.Actinobacteriota.Coriobacteriia.Coriobacteriales.Eggerthellaceae.Adlercreutzia'
p567
(lp568
F55.34104986228593
aF0.0
aF0.0
aF0.0
aF0.0
aF354.61791327059035
aF0.0
aF4452.857788198851
aF3473.318598042312
aF0.0
aF430.47603126175454
aF260.3371192135735
asS'Bacteria.Firmicutes.Bacilli.Lactobacillales.Aerococcaceae'
p569
(lp570
F246.90622246250643
aF0.0
aF83.6842197988055
aF0.0
aF148.9314170824336
aF0.0
aF0.0
aF0.0
aF0.0
aF0.0
aF0.0
aF0.0
asS'Bacteria.Firmicutes.Clostridia.Oscillospirales.Oscillospiraceae'
p571
(lp572
F2494.6042476384273
aF4251.662889056783
aF22026.56753756981
aF8015.6145487241865
aF3350.956884354756
aF33170.84703021569
aF14104.979811574693
aF18413.750080667716
aF20082.096621408276
aF8574.807806031935
aF3000.7940819994146
aF10961.928299686202
asS'Bacteria.Firmicutes.Clostridia.Oscillospirales.Oscillospiraceae.UCG_003'
p573
(lp574
F0.0
aF814.7786024324845
aF0.0
aF0.0
aF0.0
aF0.0
aF0.0
aF0.0
aF0.0
aF0.0
aF0.0
aF0.0
asS'Bacteria.Firmicutes.Clostridia.Christensenellales.Christensenellaceae.uncultured'
p575
(lp576
F0.0
aF0.0
aF0.0
aF115.13536629494385
aF0.0
aF0.0
aF0.0
aF0.0
aF0.0
aF0.0
aF0.0
aF298.519896698231
asS'Bacteria.Firmicutes.Clostridia.Oscillospirales.Oscillospiraceae.UCG_005'
p577
(lp578
F0.0
aF385.1680666044472
aF409.612233752048
aF603.0900139258964
aF128.62258748028356
aF1249.605980096366
aF0.0
aF14606.234000903478
aF694.6637196084623
aF0.0
aF0.0
aF520.674238427147
asS'Bacteria'
p579
(lp580
F1000000.0
aF1000000.0
aF1000000.0
aF1000000.0
aF1000000.0
aF1000000.0
aF1000000.0
aF1000000.0
aF1000000.0
aF1000000.0
aF999916.4124211142
aF999538.3355085946
asS'Bacteria.Firmicutes.Clostridia.Oscillospirales.Oscillospiraceae.UCG_007'
p581
(lp582
F0.0
aF0.0
aF0.0
aF0.0
aF0.0
aF129.46368262259648
aF0.0
aF0.0
aF0.0
aF0.0
aF0.0
aF256.8659576240592
assS'subclass_sl'
p583
(dp584
g12
(I5
I12
tp585
sg10
(I0
I5
tp586
ssS'norm'
p587
F1000000.0
sS'cls'
p588
(dp589
S'class'
p590
(S'NR'
p591
S'NR'
p592
S'NR'
p593
S'NR'
p594
g3
S'STD-NR'
p595
S'STD-NR'
p596
S'STD-NR'
p597
S'STD-NR'
p598
S'STD-NR'
p599
S'STD-NR'
p600
g5
tp601
sS'subclass'
p602
(lp603
S'NR_subcl'
p604
aS'NR_subcl'
p605
aS'NR_subcl'
p606
aS'NR_subcl'
p607
ag10
aS'STD-NR_subcl'
p608
aS'STD-NR_subcl'
p609
aS'STD-NR_subcl'
p610
aS'STD-NR_subcl'
p611
aS'STD-NR_subcl'
p612
aS'STD-NR_subcl'
p613
ag12
asS'subject'
p614
(S'S210421121677'
p615
S'S210421121678'
p616
S'S210421121679'
p617
S'S210421121680'
p618
S'S210421121681'
p619
S'S210421121685'
p620
S'S210421121686'
p621
S'S210421121687'
p622
S'S210421121703'
p623
S'S210421121704'
p624
S'S210421121705'
p625
S'S210421121706'
p626
tp627
ss.