(dp0
S'class_sl'
p1
(dp2
S'NR'
p3
(I0
I5
tp4
sS'STD-NR'
p5
(I5
I12
tp6
ssS'class_hierarchy'
p7
(dp8
g3
(lp9
S'NR_subcl'
p10
asg5
(lp11
S'STD-NR_subcl'
p12
assS'feats'
p13
(dp14
S'Bacteria.Desulfobacterota'
p15
(lp16
F0.0
aF0.0
aF0.0
aF0.0
aF0.0
aF0.0
aF0.0
aF0.0
aF0.0
aF0.0
aF1861.9133196806956
aF1702.6047596567714
asS'Bacteria.Actinobacteriota'
p17
(lp18
F27.670524931142964
aF496.2742396634224
aF52.853191451877166
aF4588.96674232705
aF1177.9121169247016
aF1849.0791191966498
aF780.6191117092867
aF2721.190870565965
aF13072.30817808652
aF0.0
aF296.7359050445104
aF2068.812307350532
asS'Archaea'
p19
(lp20
F0.0
aF0.0
aF0.0
aF0.0
aF0.0
aF0.0
aF0.0
aF0.0
aF0.0
aF0.0
aF41.79378944288879
aF230.83224570270195
asS'Bacteria'
p21
(lp22
F500000.0
aF500000.0
aF500000.0
aF499999.99999999994
aF500000.00000000006
aF500000.0
aF500000.0
aF500000.0
aF500000.0
aF500000.0
aF499958.2062105571
aF499769.1677542974
asS'Bacteria.Cyanobacteria'
p23
(lp24
F0.0
aF407.3893012162423
aF0.0
aF82.23954735353136
aF220.01232068995867
aF2200.88260458414
aF3203.230148048452
aF0.0
aF536.78560151563
aF0.0
aF0.0
aF55.53858543222904
asS'Bacteria.Firmicutes'
p25
(lp26
F21602.16596355153
aF102743.58176673632
aF68744.38434840823
aF193095.7158678465
aF54515.66826203807
aF211110.23551132527
aF145042.62000897265
aF393454.08393744484
aF444616.35617303447
aF396363.0987581312
aF107974.25502570318
aF221755.158146122
asS'Bacteria.Bacteroidota'
p27
(lp28
F403423.4824845577
aF395034.2947720842
aF428868.41317101533
aF299464.346414904
aF442553.090665385
aF277941.640023416
aF349502.0188425303
aF92197.81874502549
aF4736.343542784971
aF96540.50857480778
aF384504.952564049
aF259531.80972480634
asS'Bacteria.Elusimicrobiota'
p29
(lp30
F0.0
aF0.0
aF0.0
aF0.0
aF0.0
aF0.0
aF0.0
aF0.0
aF0.0
aF0.0
aF45.973168387177665
aF95.45694371164366
asS'Bacteria.Campilobacterota'
p31
(lp32
F0.0
aF0.0
aF0.0
aF19.189227715823986
aF0.0
aF0.0
aF0.0
aF96.80125626519241
aF0.0
aF0.0
aF319.72248923809923
aF229.09666490794478
asS'Archaea.Euryarchaeota'
p33
(lp34
F0.0
aF0.0
aF0.0
aF0.0
aF0.0
aF0.0
aF0.0
aF0.0
aF0.0
aF0.0
aF41.79378944288879
aF230.83224570270195
asS'Bacteria.Proteobacteria'
p35
(lp36
F7028.313332510313
aF1318.4599202998388
aF2334.349289124575
aF2097.10845751505
aF1513.0078053601771
aF2744.0671860224256
aF1238.2234185733512
aF2108.116247553079
aF29144.30059993685
aF5617.977528089887
aF4954.653738454465
aF2934.8671239343535
asS'Bacteria.Deferribacterota'
p37
(lp38
F0.0
aF0.0
aF0.0
aF43.86109192188339
aF0.0
aF33.77313459719908
aF0.0
aF0.0
aF0.0
aF0.0
aF0.0
aF0.0
asS'Bacteria.Verrucomicrobiota'
p39
(lp40
F67918.36769444929
aF0.0
aF0.0
aF134.32459401076792
aF20.30882960215003
aF3954.2711757553925
aF233.28847016599371
aF8346.419429087702
aF0.0
aF0.0
aF0.0
aF0.0
asS'Bacteria.Patescibacteria'
p41
(lp42
F0.0
aF0.0
aF0.0
aF474.2480564053642
aF0.0
aF166.05124510289548
aF0.0
aF1075.5695140576936
aF7893.905904641618
aF1478.4151389710228
aF0.0
aF11395.823498375497
assS'subclass_sl'
p43
(dp44
g12
(I5
I12
tp45
sg10
(I0
I5
tp46
ssS'norm'
p47
F1000000.0
sS'cls'
p48
(dp49
S'class'
p50
(S'NR'
p51
S'NR'
p52
S'NR'
p53
S'NR'
p54
g3
S'STD-NR'
p55
S'STD-NR'
p56
S'STD-NR'
p57
S'STD-NR'
p58
S'STD-NR'
p59
S'STD-NR'
p60
g5
tp61
sS'subclass'
p62
(lp63
S'NR_subcl'
p64
aS'NR_subcl'
p65
aS'NR_subcl'
p66
aS'NR_subcl'
p67
ag10
aS'STD-NR_subcl'
p68
aS'STD-NR_subcl'
p69
aS'STD-NR_subcl'
p70
aS'STD-NR_subcl'
p71
aS'STD-NR_subcl'
p72
aS'STD-NR_subcl'
p73
ag12
asS'subject'
p74
(S'S210421121677'
p75
S'S210421121678'
p76
S'S210421121679'
p77
S'S210421121680'
p78
S'S210421121681'
p79
S'S210421121685'
p80
S'S210421121686'
p81
S'S210421121687'
p82
S'S210421121703'
p83
S'S210421121704'
p84
S'S210421121705'
p85
S'S210421121706'
p86
tp87
ss.