(dp0
S'class_sl'
p1
(dp2
S'STD-NC'
p3
(I8
I15
tp4
sS'HSD-NC'
p5
(I0
I8
tp6
ssS'class_hierarchy'
p7
(dp8
g3
(lp9
S'STD-NC_subcl'
p10
asg5
(lp11
S'HSD-NC_subcl'
p12
assS'feats'
p13
(dp14
S'Bacteria.Chloroflexi'
p15
(lp16
F179.6088243673434
aF0.0
aF0.0
aF0.0
aF0.0
aF0.0
aF0.0
aF0.0
aF0.0
aF0.0
aF0.0
aF0.0
aF0.0
aF0.0
aF0.0
asS'Bacteria.Chloroflexi.Chloroflexia'
p17
(lp18
F179.6088243673434
aF0.0
aF0.0
aF0.0
aF0.0
aF0.0
aF0.0
aF0.0
aF0.0
aF0.0
aF0.0
aF0.0
aF0.0
aF0.0
aF0.0
asS'Eukaryota'
p19
(lp20
F1399.7101485179176
aF0.0
aF0.0
aF0.0
aF0.0
aF0.0
aF0.0
aF0.0
aF0.0
aF0.0
aF0.0
aF0.0
aF1823.547215496368
aF0.0
aF0.0
asS'Bacteria.Campilobacterota'
p21
(lp22
F0.0
aF0.0
aF0.0
aF0.0
aF0.0
aF0.0
aF0.0
aF0.0
aF0.0
aF66.32053662788493
aF0.0
aF0.0
aF0.0
aF0.0
aF327.64573934521263
asS'Bacteria.Firmicutes.Clostridia'
p23
(lp24
F386784.5065712056
aF274504.3706073507
aF382925.134618725
aF765420.5607476635
aF497756.8416330193
aF799288.3713407732
aF810297.6044477149
aF362767.8801962303
aF487223.80612972204
aF534789.8586425134
aF145492.91477388298
aF429513.34057956154
aF817493.9467312349
aF776489.5771795089
aF678403.1050734683
asS'Bacteria.Campilobacterota.Campylobacteria'
p25
(lp26
F0.0
aF0.0
aF0.0
aF0.0
aF0.0
aF0.0
aF0.0
aF0.0
aF0.0
aF66.32053662788493
aF0.0
aF0.0
aF0.0
aF0.0
aF327.64573934521263
asS'Bacteria.Cyanobacteria.Vampirivibrionia'
p27
(lp28
F501.66602668120055
aF188.93115348766912
aF0.0
aF519.2107995846313
aF0.0
aF0.0
aF0.0
aF0.0
aF294.0128296507484
aF0.0
aF745.8132754763035
aF287.11470232357823
aF0.0
aF0.0
aF2192.706101771808
asS'Bacteria.Proteobacteria.Gammaproteobacteria'
p29
(lp30
F7165.7727514833205
aF9534.725546011035
aF16733.25227259568
aF21910.695742471442
aF123373.71018393898
aF35338.83228206372
aF23444.526203908103
aF31758.32687838885
aF2539.2017106200997
aF5248.796755978323
aF4826.598413451759
aF6644.654539488526
aF11448.244552058111
aF13735.33631530087
aF40980.92093656275
asS'Bacteria.Deferribacterota.Deferribacteres'
p31
(lp32
F0.0
aF125.95410232511273
aF0.0
aF0.0
aF0.0
aF0.0
aF0.0
aF0.0
aF677.12045616536
aF0.0
aF0.0
aF0.0
aF0.0
aF0.0
aF0.0
asS'Bacteria.Actinobacteriota'
p33
(lp34
F780.369374837423
aF1058.014459530947
aF8858.780614903595
aF27622.01453790239
aF25572.00538358008
aF23532.265890344497
aF19376.992886926662
aF3356.5711334882526
aF579.1161796151105
aF2131.7315344677304
aF3546.850633941284
aF27409.199975390165
aF14141.949152542375
aF12701.49379694489
aF42644.35315169999
asS'Bacteria.Firmicutes'
p35
(lp36
F472953.3884133728
aF303310.073809104
aF572867.8130970992
aF941433.0218068535
aF614774.9364438463
aF853873.524179201
aF908163.6824462431
aF371030.2091402014
aF499750.5345687812
aF611750.1042179861
aF234998.98298189708
aF479184.18408154056
aF928616.828087167
aF901320.786564267
aF854021.2213625023
asS'Bacteria.Actinobacteriota.Actinobacteria'
p37
(lp38
F0.0
aF0.0
aF4603.091888136182
aF13603.32294911734
aF10468.07237924331
aF4609.412906356138
aF163.5189273158368
aF0.0
aF0.0
aF28.423087126236403
aF3343.4470133568375
aF19185.41457312196
aF10797.518159806295
aF5992.066841083636
aF3326.864430274467
asS'Bacteria.Patescibacteria'
p39
(lp40
F1486.4178568331868
aF1234.3502027861048
aF9843.089572115106
aF3738.3177570093458
aF15253.47689546882
aF32508.491023774863
aF551.8763796909492
aF12651.69119545572
aF507.8403421240199
aF1288.5132830560503
aF1178.0459692182521
aF3804.2698057874118
aF5614.406779661017
aF15349.39657355051
aF6351.286639614891
asS'Bacteria.Acidobacteriota'
p41
(lp42
F0.0
aF0.0
aF0.0
aF0.0
aF0.0
aF0.0
aF0.0
aF0.0
aF0.0
aF0.0
aF0.0
aF0.0
aF0.0
aF0.0
aF378.0527761675531
asS'Bacteria.Verrucomicrobiota'
p43
(lp44
F6701.26717122295
aF82600.70030480894
aF24607.723930287764
aF0.0
aF897.2633467922835
aF21187.125990619443
aF24425.63976780312
aF10069.713400464758
aF588.0256593014968
aF11767.15807026187
aF37595.76920469184
aF91517.81136564058
aF3488.1961259079903
aF10992.488817621741
aF0.0
asS'Bacteria.Gemmatimonadota.Gemmatimonadetes'
p45
(lp46
F0.0
aF0.0
aF0.0
aF0.0
aF0.0
aF0.0
aF0.0
aF2840.1755744900597
aF0.0
aF0.0
aF0.0
aF0.0
aF0.0
aF0.0
aF0.0
asS'Bacteria.Actinobacteriota.Coriobacteriia'
p47
(lp48
F780.369374837423
aF1058.014459530947
aF4255.688726767413
aF14018.691588785046
aF15103.933004336772
aF18922.852983988356
aF19213.473959610827
aF3356.5711334882526
aF579.1161796151105
aF2103.3084473414942
aF203.4036205844464
aF8223.785402268206
aF3344.4309927360778
aF6709.426955861254
aF39317.48872142552
asS'Bacteria.Cyanobacteria'
p49
(lp50
F501.66602668120055
aF188.93115348766912
aF0.0
aF519.2107995846313
aF0.0
aF0.0
aF0.0
aF0.0
aF294.0128296507484
aF0.0
aF745.8132754763035
aF287.11470232357823
aF0.0
aF0.0
aF2545.555359528191
asS'Bacteria.Patescibacteria.Saccharimonadia'
p51
(lp52
F1486.4178568331868
aF1234.3502027861048
aF9843.089572115106
aF3738.3177570093458
aF15253.47689546882
aF32508.491023774863
aF551.8763796909492
aF12651.69119545572
aF507.8403421240199
aF1288.5132830560503
aF1178.0459692182521
aF3804.2698057874118
aF5614.406779661017
aF15349.39657355051
aF6351.286639614891
asS'Bacteria.Proteobacteria'
p53
(lp54
F7413.509060955519
aF9534.725546011035
aF16733.25227259568
aF22845.27518172378
aF130477.04501271124
aF35985.76742681546
aF25365.873599869185
aF31758.32687838885
aF2672.8439059158945
aF5248.796755978323
aF5157.129296901485
aF6706.179118557864
aF11758.474576271186
aF14051.81871887923
aF41560.60186001966
asS'Bacteria.Bacteroidota.Bacteroidia'
p55
(lp56
F506757.0078408542
aF601947.2504219463
aF367089.3405129987
aF1973.001038421599
aF208389.41229250786
aF32912.8254892447
aF22115.93491946693
aF568293.312677511
aF494930.5060584462
aF367747.37560162204
aF716777.4086378737
aF391091.2409507598
aF34556.598062954
aF45584.0155287366
aF52171.28311112232
asS'Bacteria.Bacteroidota'
p57
(lp58
F506757.0078408542
aF601947.2504219463
aF367089.3405129987
aF1973.001038421599
aF208389.41229250786
aF32912.8254892447
aF22115.93491946693
aF568293.312677511
aF494930.5060584462
aF367747.37560162204
aF716777.4086378737
aF391091.2409507598
aF34556.598062954
aF45584.0155287366
aF52171.28311112232
asS'Bacteria.Desulfobacterota'
p59
(lp60
F1827.0552823574587
aF0.0
aF0.0
aF1869.1588785046729
aF4635.860625093465
aF0.0
aF0.0
aF0.0
aF0.0
aF0.0
aF0.0
aF0.0
aF0.0
aF0.0
aF0.0
asS'Bacteria.Desulfobacterota.Desulfovibrionia'
p61
(lp62
F1827.0552823574587
aF0.0
aF0.0
aF1869.1588785046729
aF4635.860625093465
aF0.0
aF0.0
aF0.0
aF0.0
aF0.0
aF0.0
aF0.0
aF0.0
aF0.0
aF0.0
asS'Bacteria.Gemmatimonadota'
p63
(lp64
F0.0
aF0.0
aF0.0
aF0.0
aF0.0
aF0.0
aF0.0
aF2840.1755744900597
aF0.0
aF0.0
aF0.0
aF0.0
aF0.0
aF0.0
aF0.0
asS'Bacteria.Firmicutes.Bacilli'
p65
(lp66
F86168.8818421672
aF28805.703201753287
aF189942.67847837415
aF176012.46105919
aF117018.09481082698
aF54585.15283842795
aF97866.07799852833
aF8262.328943971082
aF12526.72843905916
aF76960.24557547277
aF89506.0682080141
aF49670.84350197904
aF111122.8813559322
aF124831.20938475821
aF175618.11628903396
asS'Bacteria.Proteobacteria.Alphaproteobacteria'
p67
(lp68
F247.73630947219777
aF0.0
aF0.0
aF934.5794392523364
aF7103.334828772245
aF646.9351447517387
aF1921.3473959610824
aF0.0
aF133.64219529579472
aF0.0
aF330.5308834497254
aF61.5245790693382
aF310.23002421307507
aF316.482403578361
aF579.6809234569147
asS'Bacteria.Acidobacteriota.Blastocatellia'
p69
(lp70
F0.0
aF0.0
aF0.0
aF0.0
aF0.0
aF0.0
aF0.0
aF0.0
aF0.0
aF0.0
aF0.0
aF0.0
aF0.0
aF0.0
aF378.0527761675531
asS'Bacteria.Verrucomicrobiota.Verrucomicrobiae'
p71
(lp72
F6701.26717122295
aF82600.70030480894
aF24607.723930287764
aF0.0
aF897.2633467922835
aF21187.125990619443
aF24425.63976780312
aF10069.713400464758
aF588.0256593014968
aF11767.15807026187
aF37595.76920469184
aF91517.81136564058
aF3488.1961259079903
aF10992.488817621741
aF0.0
asS'Bacteria.Deferribacterota'
p73
(lp74
F0.0
aF125.95410232511273
aF0.0
aF0.0
aF0.0
aF0.0
aF0.0
aF0.0
aF677.12045616536
aF0.0
aF0.0
aF0.0
aF0.0
aF0.0
aF0.0
asS'Bacteria.Cyanobacteria.Cyanobacteriia'
p75
(lp76
F0.0
aF0.0
aF0.0
aF0.0
aF0.0
aF0.0
aF0.0
aF0.0
aF0.0
aF0.0
aF0.0
aF0.0
aF0.0
aF0.0
aF352.8492577563828
asS'Bacteria'
p77
(lp78
F998600.289851482
aF1000000.0
aF1000000.0
aF1000000.0
aF1000000.0
aF1000000.0
aF1000000.0
aF1000000.0
aF1000000.0
aF1000000.0
aF1000000.0
aF1000000.0
aF998176.4527845036
aF1000000.0
aF1000000.0
assS'subclass_sl'
p79
(dp80
g12
(I0
I8
tp81
sg10
(I8
I15
tp82
ssS'norm'
p83
F1000000.0
sS'cls'
p84
(dp85
S'class'
p86
(S'HSD-NC'
p87
S'HSD-NC'
p88
S'HSD-NC'
p89
S'HSD-NC'
p90
S'HSD-NC'
p91
S'HSD-NC'
p92
S'HSD-NC'
p93
g5
S'STD-NC'
p94
S'STD-NC'
p95
S'STD-NC'
p96
S'STD-NC'
p97
S'STD-NC'
p98
S'STD-NC'
p99
g3
tp100
sS'subclass'
p101
(lp102
S'HSD-NC_subcl'
p103
aS'HSD-NC_subcl'
p104
aS'HSD-NC_subcl'
p105
aS'HSD-NC_subcl'
p106
aS'HSD-NC_subcl'
p107
aS'HSD-NC_subcl'
p108
aS'HSD-NC_subcl'
p109
ag12
aS'STD-NC_subcl'
p110
aS'STD-NC_subcl'
p111
aS'STD-NC_subcl'
p112
aS'STD-NC_subcl'
p113
aS'STD-NC_subcl'
p114
aS'STD-NC_subcl'
p115
ag10
asS'subject'
p116
(S'S210421121695'
p117
S'S210421121696'
p118
S'S210421121697'
p119
S'S210421121698'
p120
S'S210421121699'
p121
S'S210421121700'
p122
S'S210421121701'
p123
S'S210421121702'
p124
S'S210421121682'
p125
S'S210421121683'
p126
S'S210421121684'
p127
S'S210421121688'
p128
S'S210421121689'
p129
S'S210421121690'
p130
S'S210421121694'
p131
tp132
ss.