(dp0
S'class_sl'
p1
(dp2
S'STD-NC'
p3
(I8
I15
tp4
sS'HSD-NC'
p5
(I0
I8
tp6
ssS'class_hierarchy'
p7
(dp8
g3
(lp9
S'STD-NC_subcl'
p10
asg5
(lp11
S'HSD-NC_subcl'
p12
assS'feats'
p13
(dp14
S'Bacteria.Firmicutes.Clostridia.Oscillospirales.Ruminococcaceae.Ruminococcaceae'
p15
(lp16
F0.0
aF163.74033302264655
aF0.0
aF0.0
aF0.0
aF0.0
aF0.0
aF0.0
aF80.18531717747683
aF0.0
aF0.0
aF0.0
aF0.0
aF94.94472107350832
aF0.0
asS'Bacteria.Firmicutes.Bacilli.Acholeplasmatales'
p17
(lp18
F371.6044642082967
aF0.0
aF0.0
aF0.0
aF299.0877822640946
aF0.0
aF61.3195977434388
aF0.0
aF365.2886671418389
aF104.2179861295335
aF29.66302800189843
aF0.0
aF0.0
aF0.0
aF0.0
asS'Bacteria.Firmicutes.Clostridia.Peptostreptococcales_Tissierellales.Anaerovoracaceae'
p19
(lp20
F49.54726189443956
aF0.0
aF0.0
aF0.0
aF0.0
aF0.0
aF0.0
aF0.0
aF0.0
aF0.0
aF0.0
aF0.0
aF196.73123486682803
aF0.0
aF0.0
asS'Bacteria.Firmicutes.Clostridia.Oscillospirales.UCG_010'
p21
(lp22
F1294.4222169922334
aF642.3659218580749
aF0.0
aF0.0
aF0.0
aF0.0
aF0.0
aF0.0
aF490.02138275124736
aF1373.7825444347598
aF817.852057766628
aF1538.1144767334551
aF45.39951573849878
aF0.0
aF0.0
asS'Eukaryota'
p23
(lp24
F1399.7101485179176
aF0.0
aF0.0
aF0.0
aF0.0
aF0.0
aF0.0
aF0.0
aF0.0
aF0.0
aF0.0
aF0.0
aF1823.5472154963675
aF0.0
aF0.0
asS'Bacteria.Desulfobacterota.Desulfovibrionia.Desulfovibrionales.Desulfovibrionaceae.Desulfovibrio'
p25
(lp26
F1827.0552823574587
aF0.0
aF0.0
aF1869.1588785046729
aF4635.860625093466
aF0.0
aF0.0
aF0.0
aF0.0
aF0.0
aF0.0
aF0.0
aF0.0
aF0.0
aF0.0
asS'Bacteria.Actinobacteriota.Actinobacteria.Bifidobacteriales'
p27
(lp28
F0.0
aF0.0
aF4603.091888136182
aF7684.319833852544
aF10468.072379243311
aF4609.412906356139
aF163.5189273158368
aF0.0
aF0.0
aF0.0
aF3271.408231066512
aF19185.41457312196
aF10457.021791767553
aF5992.066841083636
aF1512.2111046702123
asS'Bacteria.Bacteroidota.Bacteroidia'
p29
(lp30
F506757.0078408542
aF601947.2504219463
aF367089.34051299863
aF1973.001038421599
aF208389.41229250788
aF32912.82548924471
aF22115.934919466927
aF568293.312677511
aF494930.5060584462
aF367747.3756016221
aF716777.4086378736
aF391091.2409507599
aF34556.598062953984
aF45584.01552873661
aF52171.28311112231
asS'Bacteria.Firmicutes.Clostridia.Clostridiales.Clostridiaceae.Candidatus_Arthromitus'
p31
(lp32
F260.12312494580766
aF0.0
aF0.0
aF0.0
aF0.0
aF0.0
aF0.0
aF0.0
aF0.0
aF0.0
aF0.0
aF0.0
aF0.0
aF0.0
aF0.0
asS'Bacteria.Proteobacteria.Alphaproteobacteria.Caulobacterales.Caulobacteraceae.Brevundimonas'
p33
(lp34
F0.0
aF0.0
aF0.0
aF0.0
aF972.0352923583074
aF0.0
aF633.6358433488676
aF0.0
aF0.0
aF0.0
aF0.0
aF0.0
aF0.0
aF0.0
aF0.0
asS'Bacteria.Firmicutes.Clostridia.Lachnospirales.Lachnospiraceae.Lachnospiraceae_UCG_006'
p35
(lp36
F2446.3960560379533
aF0.0
aF1100.1100110011002
aF3219.1069574247144
aF0.0
aF0.0
aF0.0
aF0.0
aF2628.296507483963
aF4140.296358055104
aF80.51393314801003
aF2317.425811611739
aF529.6610169491524
aF2774.495738036965
aF0.0
asS'Bacteria.Proteobacteria.Alphaproteobacteria.Sphingomonadales.Sphingomonadaceae'
p37
(lp38
F0.0
aF0.0
aF0.0
aF0.0
aF0.0
aF0.0
aF0.0
aF0.0
aF0.0
aF0.0
aF0.0
aF0.0
aF0.0
aF94.94472107350832
aF579.6809234569147
asS'Bacteria.Firmicutes.Clostridia.Peptostreptococcales_Tissierellales.Anaerovoracaceae.Anaerovorax'
p39
(lp40
F136.25497020970877
aF0.0
aF0.0
aF0.0
aF0.0
aF0.0
aF204.398659144796
aF0.0
aF775.1247327156094
aF1136.9234850494563
aF0.0
aF0.0
aF0.0
aF0.0
aF0.0
asS'Bacteria.Proteobacteria.Gammaproteobacteria.Xanthomonadales.Xanthomonadaceae.Stenotrophomonas'
p41
(lp42
F0.0
aF0.0
aF202.65184413178162
aF0.0
aF0.0
aF0.0
aF0.0
aF0.0
aF0.0
aF0.0
aF0.0
aF0.0
aF0.0
aF0.0
aF0.0
asS'Bacteria.Bacteroidota.Bacteroidia.Bacteroidales.Prevotellaceae.Prevotellaceae_UCG_001'
p43
(lp44
F19342.01236204184
aF27949.215305942515
aF12824.966707197036
aF0.0
aF8748.317631224765
aF0.0
aF592.7561115199084
aF0.0
aF16812.188168210974
aF4197.142532307576
aF54444.36910977014
aF2317.425811611739
aF438.86198547215486
aF0.0
aF932.5301812132975
asS'Bacteria.Firmicutes.Clostridia.Lachnospirales.Lachnospiraceae.Lachnospiraceae_UCG_001'
p45
(lp46
F452.118764786761
aF352.6714865103156
aF0.0
aF1557.632398753894
aF0.0
aF0.0
aF0.0
aF0.0
aF160.37063435495367
aF0.0
aF974.6423486338055
aF0.0
aF938.2566585956414
aF0.0
aF428.45981298989346
asS'Bacteria.Proteobacteria.Gammaproteobacteria'
p47
(lp48
F7165.772751483321
aF9534.725546011032
aF16733.252272595684
aF21910.695742471442
aF123373.710183939
aF35338.83228206373
aF23444.526203908106
aF31758.32687838885
aF2539.2017106201
aF5248.796755978324
aF4826.5984134517585
aF6644.654539488526
aF11448.244552058108
aF13735.33631530087
aF40980.92093656275
asS'Bacteria.Proteobacteria.Alphaproteobacteria.Rhodospirillales'
p49
(lp50
F0.0
aF0.0
aF0.0
aF0.0
aF0.0
aF0.0
aF0.0
aF0.0
aF133.64219529579472
aF0.0
aF330.53088344972537
aF0.0
aF0.0
aF0.0
aF0.0
asS'Bacteria.Firmicutes.Bacilli.Izemoplasmatales.Izemoplasmatales'
p51
(lp52
F117.67474699929394
aF0.0
aF0.0
aF0.0
aF0.0
aF0.0
aF0.0
aF0.0
aF0.0
aF104.2179861295335
aF0.0
aF0.0
aF0.0
aF0.0
aF0.0
asS'Bacteria.Actinobacteriota.Actinobacteria.Micrococcales.Micrococcaceae.Rothia'
p53
(lp54
F0.0
aF0.0
aF0.0
aF0.0
aF0.0
aF0.0
aF0.0
aF0.0
aF0.0
aF0.0
aF72.03878229032475
aF0.0
aF340.4963680387408
aF0.0
aF1814.6533256042546
asS'Bacteria.Proteobacteria.Alphaproteobacteria.Rhodospirillales.uncultured.uncultured'
p55
(lp56
F0.0
aF0.0
aF0.0
aF0.0
aF0.0
aF0.0
aF0.0
aF0.0
aF133.64219529579472
aF0.0
aF330.53088344972537
aF0.0
aF0.0
aF0.0
aF0.0
asS'Bacteria.Firmicutes.Bacilli.Erysipelotrichales.Erysipelatoclostridiaceae.Erysipelotrichaceae_UCG_003'
p57
(lp58
F0.0
aF0.0
aF1244.861328238087
aF1557.632398753894
aF0.0
aF0.0
aF0.0
aF0.0
aF0.0
aF0.0
aF0.0
aF0.0
aF0.0
aF0.0
aF0.0
asS'Bacteria.Firmicutes.Clostridia.Eubacteriales'
p59
(lp60
F111.481339262489
aF365.26689674282693
aF1186.9608013432924
aF0.0
aF0.0
aF404.33446546983674
aF0.0
aF0.0
aF0.0
aF75.7948990032971
aF0.0
aF328.13108836980376
aF75.66585956416463
aF189.88944214701664
aF0.0
asS'Bacteria.Bacteroidota.Bacteroidia.Bacteroidales.Rikenellaceae'
p61
(lp62
F9767.004000941397
aF2657.6315590598783
aF0.0
aF0.0
aF0.0
aF0.0
aF204.398659144796
aF0.0
aF8517.462580185316
aF3666.5782392844967
aF11755.034239609462
aF3291.564980209594
aF98.36561743341402
aF0.0
aF0.0
asS'Bacteria.Acidobacteriota'
p63
(lp64
F0.0
aF0.0
aF0.0
aF0.0
aF0.0
aF0.0
aF0.0
aF0.0
aF0.0
aF0.0
aF0.0
aF0.0
aF0.0
aF0.0
aF378.0527761675531
asS'Bacteria.Verrucomicrobiota.Verrucomicrobiae.Verrucomicrobiales.Akkermansiaceae.Akkermansia'
p65
(lp66
F6701.26717122295
aF82600.70030480892
aF24607.723930287768
aF0.0
aF897.2633467922838
aF21187.125990619443
aF24425.63976780312
aF10069.713400464758
aF588.0256593014968
aF11767.158070261874
aF37595.76920469183
aF91517.81136564059
aF3488.1961259079894
aF10992.488817621743
aF0.0
asS'Bacteria.Bacteroidota.Bacteroidia.Bacteroidales'
p67
(lp68
F506757.0078408542
aF601947.2504219463
aF367089.34051299863
aF1973.001038421599
aF208389.41229250788
aF32912.82548924471
aF20869.103098683674
aF568293.312677511
aF494930.5060584462
aF367747.3756016221
aF716777.4086378736
aF391091.2409507599
aF34556.598062953984
aF45584.01552873661
aF52171.28311112231
asS'Bacteria.Firmicutes.Clostridia.Peptostreptococcales_Tissierellales.Peptostreptococcaceae.Romboutsia'
p69
(lp70
F1833.2486900942636
aF856.4878958107665
aF22320.653117943377
aF168120.45690550364
aF17048.00358905339
aF17871.58337376678
aF56168.75153298995
aF8262.328943971082
aF285.1033499643621
aF20426.725281388568
aF1343.3114109431147
aF14929.964520826072
aF150673.42615012103
aF211747.82682082878
aF9829.37218035638
asS'Bacteria.Bacteroidota.Bacteroidia.Bacteroidales.Rikenellaceae.Alistipes'
p71
(lp72
F9767.004000941397
aF2657.6315590598783
aF0.0
aF0.0
aF0.0
aF0.0
aF204.398659144796
aF0.0
aF8517.462580185316
aF3666.5782392844967
aF11755.034239609462
aF3291.564980209594
aF98.36561743341402
aF0.0
aF0.0
asS'Bacteria.Firmicutes.Clostridia.Lachnospirales.Lachnospiraceae.Lachnospiraceae_NK4A136_group'
p73
(lp74
F32639.25877296206
aF18099.6045041187
aF14156.678825777317
aF0.0
aF4262.000897263348
aF12291.767750283036
aF1246.8318207832558
aF14717.273431448491
aF50445.47398431932
aF15310.569598666014
aF9937.114380635972
aF4921.966325547057
aF18878.631961259074
aF28293.52687990548
aF831.7161075686167
asS'Bacteria.Firmicutes.Clostridia.Lachnospirales.Lachnospiraceae.Roseburia'
p75
(lp76
F2403.0422018803188
aF188.9311534876691
aF0.0
aF0.0
aF0.0
aF0.0
aF0.0
aF0.0
aF0.0
aF4528.745215447001
aF961.9296223472776
aF1015.1555546440803
aF408.595641646489
aF0.0
aF529.2738866345742
asS'Bacteria.Firmicutes.Clostridia.Peptococcales.Peptococcaceae.Peptococcus'
p77
(lp78
F111.481339262489
aF0.0
aF0.0
aF0.0
aF0.0
aF0.0
aF81.7594636579184
aF0.0
aF329.65074839629364
aF0.0
aF0.0
aF0.0
aF0.0
aF0.0
aF0.0
asS'Bacteria.Firmicutes.Bacilli.Erysipelotrichales.Erysipelotrichaceae.uncultured'
p79
(lp80
F1337.7760711498681
aF617.1751013930524
aF347.4031613687685
aF2596.053997923157
aF26319.72483924032
aF0.0
aF531.4365137764696
aF0.0
aF124.73271560940842
aF1136.9234850494563
aF767.0011526205165
aF6972.78562785833
aF2391.0411622276024
aF2848.34163220525
aF8039.922373163295
asS'Bacteria.Acidobacteriota.Blastocatellia.Blastocatellales.Blastocatellaceae'
p81
(lp82
F0.0
aF0.0
aF0.0
aF0.0
aF0.0
aF0.0
aF0.0
aF0.0
aF0.0
aF0.0
aF0.0
aF0.0
aF0.0
aF0.0
aF378.0527761675531
asS'Bacteria.Firmicutes.Clostridia.Lachnospirales.Lachnospiraceae.Lachnospiraceae_NC2004_group'
p83
(lp84
F0.0
aF780.9154344156989
aF0.0
aF0.0
aF0.0
aF0.0
aF0.0
aF0.0
aF2868.8524590163934
aF16087.46731344981
aF0.0
aF0.0
aF0.0
aF0.0
aF0.0
asS'Bacteria.Cyanobacteria.Cyanobacteriia.Chloroplast.Chloroplast'
p85
(lp86
F0.0
aF0.0
aF0.0
aF0.0
aF0.0
aF0.0
aF0.0
aF0.0
aF0.0
aF0.0
aF0.0
aF0.0
aF0.0
aF0.0
aF352.8492577563828
asS'Bacteria.Actinobacteriota.Actinobacteria.Bifidobacteriales.Bifidobacteriaceae.Bifidobacterium'
p87
(lp88
F0.0
aF0.0
aF4603.091888136182
aF7684.319833852544
aF10468.072379243311
aF4609.412906356139
aF163.5189273158368
aF0.0
aF0.0
aF0.0
aF3271.408231066512
aF19185.41457312196
aF10457.021791767553
aF5992.066841083636
aF1512.2111046702123
asS'Bacteria.Firmicutes.Clostridia.Oscillospirales.Ruminococcaceae.Anaerofilum'
p89
(lp90
F0.0
aF0.0
aF0.0
aF0.0
aF0.0
aF0.0
aF0.0
aF0.0
aF712.7583749109052
aF0.0
aF0.0
aF0.0
aF0.0
aF0.0
aF0.0
asS'Bacteria.Firmicutes.Bacilli.Lactobacillales.Lactobacillaceae.Lactobacillus'
p91
(lp92
F55307.13108966816
aF5214.499836259666
aF43280.643853859074
aF27414.330218068535
aF11365.335726035595
aF1779.0716480672813
aF2616.302837053389
aF0.0
aF8579.828937990022
aF61858.11194906584
aF82713.23479557934
aF666.5162732511639
aF18749.999999999996
aF48801.58663178328
aF77979.6859641606
asS'Bacteria.Firmicutes.Bacilli.Staphylococcales.Staphylococcaceae.Staphylococcus'
p93
(lp94
F0.0
aF0.0
aF0.0
aF1765.3167185877467
aF0.0
aF1617.337861879347
aF0.0
aF0.0
aF0.0
aF0.0
aF0.0
aF0.0
aF113.49878934624695
aF0.0
aF1360.989994203191
asS'Bacteria.Firmicutes.Bacilli.RF39.RF39.RF39'
p95
(lp96
F1690.80031214775
aF8010.68090787717
aF19715.12940767761
aF4257.528556593978
aF27067.44429490056
aF12210.900857189068
aF2084.8663232769195
aF2840.1755744900597
aF1033.4996436208125
aF1373.7825444347598
aF1279.7477795104749
aF3599.1878755562852
aF1566.2832929782078
aF1793.400286944046
aF19356.302139778712
asS'Bacteria.Firmicutes.Clostridia.Lachnospirales.Lachnospiraceae.Lachnospiraceae_UCG_010'
p97
(lp98
F43.353854157634615
aF0.0
aF0.0
aF0.0
aF0.0
aF0.0
aF0.0
aF0.0
aF106.91375623663578
aF0.0
aF0.0
aF0.0
aF0.0
aF0.0
aF0.0
asS'Bacteria.Firmicutes.Bacilli.Erysipelotrichales.Erysipelotrichaceae.Allobaculum'
p99
(lp100
F501.66602668120055
aF0.0
aF0.0
aF0.0
aF8000.59817556453
aF17062.91444282711
aF1042.4331616384598
aF0.0
aF1167.1418389166072
aF975.8593246674501
aF0.0
aF338.38518488136015
aF0.0
aF0.0
aF20540.867505103717
asS'Bacteria.Firmicutes.Bacilli.Bacillales'
p101
(lp102
F0.0
aF0.0
aF0.0
aF0.0
aF0.0
aF0.0
aF0.0
aF0.0
aF0.0
aF0.0
aF0.0
aF0.0
aF0.0
aF0.0
aF932.5301812132975
asS'Bacteria.Proteobacteria.Alphaproteobacteria.Rhizobiales.Rhizobiaceae'
p103
(lp104
F247.73630947219777
aF0.0
aF0.0
aF934.5794392523364
aF6131.299536413939
aF646.9351447517387
aF1287.711552612215
aF0.0
aF0.0
aF0.0
aF0.0
aF0.0
aF0.0
aF221.53768250485277
aF0.0
asS'Bacteria.Desulfobacterota'
p105
(lp106
F1827.0552823574587
aF0.0
aF0.0
aF1869.1588785046729
aF4635.860625093466
aF0.0
aF0.0
aF0.0
aF0.0
aF0.0
aF0.0
aF0.0
aF0.0
aF0.0
aF0.0
asS'Bacteria.Firmicutes.Bacilli.Lactobacillales.Aerococcaceae.Aerococcus'
p107
(lp108
F0.0
aF0.0
aF0.0
aF1246.1059190031153
aF822.49140122626
aF0.0
aF0.0
aF0.0
aF0.0
aF0.0
aF0.0
aF0.0
aF0.0
aF0.0
aF0.0
asS'Bacteria.Actinobacteriota.Coriobacteriia.Coriobacteriales.uncultured.uncultured'
p109
(lp110
F575.9869195228599
aF806.1062548807215
aF1129.0602744484975
aF5295.95015576324
aF5981.755645281892
aF7924.9555232088
aF3904.014389665604
aF3356.5711334882526
aF178.1895937277263
aF492.6668435214311
aF0.0
aF0.0
aF0.0
aF780.6565954932906
aF12022.078282128186
asS'Bacteria.Proteobacteria.Gammaproteobacteria.Enterobacterales.Erwiniaceae'
p111
(lp112
F0.0
aF138.54951255762398
aF0.0
aF0.0
aF0.0
aF0.0
aF0.0
aF0.0
aF0.0
aF0.0
aF0.0
aF0.0
aF0.0
aF0.0
aF0.0
asS'Bacteria.Firmicutes.Bacilli.Erysipelotrichales.Erysipelotrichaceae.Faecalibaculum'
p113
(lp114
F0.0
aF188.9311534876691
aF1013.259220658908
aF0.0
aF0.0
aF0.0
aF1737.388602730766
aF0.0
aF0.0
aF180.0128851328306
aF88.98908400569528
aF5691.0235639137845
aF711.2590799031475
aF717.3601147776185
aF856.9196259797869
asS'Bacteria.Firmicutes.Clostridia.Monoglobales'
p115
(lp116
F16666.460219742108
aF340.07607627780436
aF1042.2094841063054
aF2284.527518172378
aF0.0
aF79087.82144590004
aF1962.2271277900415
aF26336.173508907825
aF5167.498218104063
aF9588.054723917083
aF55.08848057495422
aF7823.875638317509
aF4010.2905569007257
aF9294.033251751205
aF60286.81603951912
asS'Bacteria.Firmicutes.Bacilli.Staphylococcales'
p117
(lp118
F0.0
aF0.0
aF0.0
aF5711.318795430945
aF0.0
aF1617.337861879347
aF0.0
aF0.0
aF0.0
aF0.0
aF25.425452573055797
aF0.0
aF113.49878934624695
aF0.0
aF1360.989994203191
asS'Bacteria.Cyanobacteria.Vampirivibrionia'
p119
(lp120
F501.66602668120055
aF188.9311534876691
aF0.0
aF519.2107995846313
aF0.0
aF0.0
aF0.0
aF0.0
aF294.0128296507484
aF0.0
aF745.8132754763033
aF287.1147023235783
aF0.0
aF0.0
aF2192.706101771808
asS'Bacteria.Actinobacteriota.Coriobacteriia.Coriobacteriales.Eggerthellaceae.Gordonibacter'
p121
(lp122
F43.353854157634615
aF0.0
aF0.0
aF0.0
aF0.0
aF0.0
aF0.0
aF0.0
aF0.0
aF0.0
aF0.0
aF0.0
aF340.4963680387408
aF0.0
aF0.0
asS'Bacteria.Firmicutes.Clostridia.Oscillospirales.Butyricicoccaceae'
p123
(lp124
F0.0
aF0.0
aF0.0
aF0.0
aF0.0
aF0.0
aF0.0
aF0.0
aF0.0
aF142.11543563118204
aF0.0
aF0.0
aF0.0
aF0.0
aF0.0
asS'Bacteria.Bacteroidota.Bacteroidia.Bacteroidales.Muribaculaceae.Muribaculaceae'
p125
(lp126
F383093.23556006985
aF446759.20094717486
aF333014.880435412
aF1973.001038421599
aF164722.5960819501
aF30405.95180333172
aF19581.39154607146
aF568293.312677511
aF389237.3485388453
aF330986.849585023
aF384394.704725744
aF374961.5471380817
aF32210.95641646488
aF45320.280192421305
aF47180.986465710615
asS'Bacteria.Chloroflexi.Chloroflexia.Chloroflexales'
p127
(lp128
F179.6088243673434
aF0.0
aF0.0
aF0.0
aF0.0
aF0.0
aF0.0
aF0.0
aF0.0
aF0.0
aF0.0
aF0.0
aF0.0
aF0.0
aF0.0
asS'Bacteria.Deferribacterota'
p129
(lp130
F0.0
aF125.95410232511271
aF0.0
aF0.0
aF0.0
aF0.0
aF0.0
aF0.0
aF677.12045616536
aF0.0
aF0.0
aF0.0
aF0.0
aF0.0
aF0.0
asS'Bacteria.Actinobacteriota.Coriobacteriia.Coriobacteriales'
p131
(lp132
F780.3693748374229
aF1058.0144595309469
aF4255.688726767415
aF14018.691588785048
aF15103.933004336775
aF18922.852983988356
aF19213.473959610823
aF3356.5711334882526
aF579.1161796151105
aF2103.3084473414947
aF203.40362058444637
aF8223.785402268206
aF3344.4309927360764
aF6709.426955861255
aF39317.48872142552
asS'Bacteria.Proteobacteria.Alphaproteobacteria.Rhizobiales.Rhizobiaceae.Allorhizobium_Neorhizobium_Pararhizobium_Rhizobium'
p133
(lp134
F247.73630947219777
aF0.0
aF0.0
aF934.5794392523364
aF6131.299536413939
aF646.9351447517387
aF1287.711552612215
aF0.0
aF0.0
aF0.0
aF0.0
aF0.0
aF0.0
aF221.53768250485277
aF0.0
asS'Bacteria.Bacteroidota.Bacteroidia.Bacteroidales.Prevotellaceae.Prevotellaceae_NK3B31_group'
p135
(lp136
F86429.00496711301
aF117867.84895584048
aF20207.283886283367
aF0.0
aF1420.6669657544494
aF2506.8736859129876
aF306.597988717194
aF0.0
aF68255.52387740556
aF26101.868344260438
aF217722.3879585056
aF6921.515145300548
aF1082.0217917675543
aF263.7353363153009
aF4057.7664641984024
asS'Bacteria.Patescibacteria'
p137
(lp138
F1486.4178568331868
aF1234.3502027861048
aF9843.089572115108
aF3738.3177570093458
aF15253.476895468824
aF32508.49102377487
aF551.8763796909492
aF12651.69119545572
aF507.8403421240199
aF1288.5132830560508
aF1178.0459692182517
aF3804.269805787412
aF5614.406779661015
aF15349.396573550512
aF6351.286639614891
asS'Bacteria.Bacteroidota.Bacteroidia.Bacteroidales.Tannerellaceae.Parabacteroides'
p139
(lp140
F2464.976279248368
aF2292.3646623170516
aF839.5576399745239
aF0.0
aF1121.5791834903546
aF0.0
aF0.0
aF0.0
aF320.74126870990733
aF483.19248114601896
aF8631.941148552442
aF646.0080802280512
aF279.96368038740917
aF0.0
aF0.0
asS'Bacteria.Actinobacteriota.Actinobacteria.Micrococcales'
p141
(lp142
F0.0
aF0.0
aF0.0
aF0.0
aF0.0
aF0.0
aF0.0
aF0.0
aF0.0
aF28.42308712623641
aF72.03878229032475
aF0.0
aF340.4963680387408
aF0.0
aF1814.6533256042546
asS'Bacteria.Firmicutes.Clostridia.Clostridiales.Clostridiaceae'
p143
(lp144
F371.6044642082967
aF100.76328186009019
aF0.0
aF402284.5275181724
aF18842.53028263796
aF16982.04754973314
aF659390.0744011119
aF12651.69119545572
aF35.637918745545264
aF7437.374464698527
aF1491.6265509526065
aF60519.67761120568
aF432907.0823244551
aF235220.27175289058
aF11845.653653249994
asS'Bacteria.Firmicutes.Clostridia.Lachnospirales.Lachnospiraceae.Frisingicoccus'
p145
(lp146
F1040.4924997832306
aF0.0
aF0.0
aF0.0
aF7252.878719904294
aF1213.00339640951
aF0.0
aF0.0
aF0.0
aF701.1028157804981
aF76.27635771916738
aF1281.762063944546
aF0.0
aF0.0
aF579.6809234569147
asS'Bacteria.Desulfobacterota.Desulfovibrionia'
p147
(lp148
F1827.0552823574587
aF0.0
aF0.0
aF1869.1588785046729
aF4635.860625093466
aF0.0
aF0.0
aF0.0
aF0.0
aF0.0
aF0.0
aF0.0
aF0.0
aF0.0
aF0.0
asS'Bacteria.Firmicutes.Clostridia.Clostridia_UCG_014.Clostridia_UCG_014'
p149
(lp150
F35853.63738836383
aF116205.254805149
aF176972.96045394015
aF69989.6157840083
aF281890.2347839091
aF267912.01682031376
aF36546.480255089526
aF62225.66485928222
aF11519.957234497506
aF70820.85875620572
aF23539.731507220822
aF237495.12930415705
aF57006.65859564164
aF100029.53835766732
aF275247.6245683898
asS'Bacteria.Proteobacteria.Alphaproteobacteria.Sphingomonadales.Sphingomonadaceae.Sphingobium'
p151
(lp152
F0.0
aF0.0
aF0.0
aF0.0
aF0.0
aF0.0
aF0.0
aF0.0
aF0.0
aF0.0
aF0.0
aF0.0
aF0.0
aF0.0
aF579.6809234569147
asS'Bacteria.Actinobacteriota.Coriobacteriia.Coriobacteriales.Coriobacteriales_Incertae_Sedis'
p153
(lp154
F0.0
aF0.0
aF0.0
aF0.0
aF448.6316733961419
aF0.0
aF388.3574523751124
aF0.0
aF0.0
aF0.0
aF0.0
aF0.0
aF0.0
aF0.0
aF1537.4146230813824
asS'Bacteria.Firmicutes.Clostridia.Oscillospirales.Oscillospiraceae.NK4A214_group'
p155
(lp156
F2050.017960882437
aF1133.5869209260145
aF376.35342481616584
aF0.0
aF0.0
aF7197.153485363093
aF0.0
aF0.0
aF10896.293656450463
aF12619.850684048966
aF584.7854091802833
aF4624.597526711922
aF0.0
aF0.0
aF1915.4673992489354
asS'Bacteria.Desulfobacterota.Desulfovibrionia.Desulfovibrionales'
p157
(lp158
F1827.0552823574587
aF0.0
aF0.0
aF1869.1588785046729
aF4635.860625093466
aF0.0
aF0.0
aF0.0
aF0.0
aF0.0
aF0.0
aF0.0
aF0.0
aF0.0
aF0.0
asS'Bacteria.Actinobacteriota.Coriobacteriia.Coriobacteriales.Coriobacteriales_Incertae_Sedis.uncultured'
p159
(lp160
F0.0
aF0.0
aF0.0
aF0.0
aF448.6316733961419
aF0.0
aF388.3574523751124
aF0.0
aF0.0
aF0.0
aF0.0
aF0.0
aF0.0
aF0.0
aF1537.4146230813824
asS'Bacteria.Deferribacterota.Deferribacteres.Deferribacterales.Deferribacteraceae.Mucispirillum'
p161
(lp162
F0.0
aF125.95410232511271
aF0.0
aF0.0
aF0.0
aF0.0
aF0.0
aF0.0
aF677.12045616536
aF0.0
aF0.0
aF0.0
aF0.0
aF0.0
aF0.0
asS'Bacteria.Firmicutes.Bacilli.RF39.RF39'
p163
(lp164
F1690.80031214775
aF8010.68090787717
aF19715.12940767761
aF4257.528556593978
aF27067.44429490056
aF12210.900857189068
aF2084.8663232769195
aF2840.1755744900597
aF1033.4996436208125
aF1373.7825444347598
aF1279.7477795104749
aF3599.1878755562852
aF1566.2832929782078
aF1793.400286944046
aF19356.302139778712
asS'Bacteria.Proteobacteria.Gammaproteobacteria.Pseudomonadales.Moraxellaceae.Acinetobacter'
p165
(lp166
F49.54726189443956
aF0.0
aF0.0
aF0.0
aF0.0
aF0.0
aF2738.942032540266
aF0.0
aF0.0
aF0.0
aF0.0
aF0.0
aF0.0
aF0.0
aF1159.3618469138294
asS'Bacteria.Firmicutes.Clostridia.Lachnospirales.Lachnospiraceae.Lachnospira'
p167
(lp168
F0.0
aF0.0
aF0.0
aF0.0
aF1719.7547480185438
aF0.0
aF0.0
aF0.0
aF0.0
aF0.0
aF0.0
aF0.0
aF0.0
aF0.0
aF0.0
asS'Bacteria.Firmicutes.Clostridia.Clostridia_vadinBB60_group'
p169
(lp170
F12585.004521187648
aF0.0
aF0.0
aF0.0
aF0.0
aF566.0682516577714
aF0.0
aF0.0
aF739.4868139700641
aF947.4362375412137
aF402.5696657400501
aF307.62289534669105
aF0.0
aF158.24120178918054
aF0.0
asS'Bacteria.Firmicutes.Bacilli.Izemoplasmatales.Izemoplasmatales.Izemoplasmatales'
p171
(lp172
F117.67474699929394
aF0.0
aF0.0
aF0.0
aF0.0
aF0.0
aF0.0
aF0.0
aF0.0
aF104.2179861295335
aF0.0
aF0.0
aF0.0
aF0.0
aF0.0
asS'Bacteria.Firmicutes.Bacilli.Erysipelotrichales.Erysipelatoclostridiaceae.UCG_004'
p173
(lp174
F1263.4551783082088
aF0.0
aF0.0
aF0.0
aF0.0
aF0.0
aF0.0
aF0.0
aF329.65074839629364
aF729.5259029067346
aF0.0
aF0.0
aF0.0
aF0.0
aF252.035184111702
asS'Bacteria.Cyanobacteria.Vampirivibrionia.Gastranaerophilales.Gastranaerophilales'
p175
(lp176
F501.66602668120055
aF188.9311534876691
aF0.0
aF519.2107995846313
aF0.0
aF0.0
aF0.0
aF0.0
aF294.0128296507484
aF0.0
aF745.8132754763033
aF287.1147023235783
aF0.0
aF0.0
aF2192.706101771808
asS'Bacteria.Proteobacteria.Gammaproteobacteria.Burkholderiales.Alcaligenaceae.Achromobacter'
p177
(lp178
F0.0
aF0.0
aF0.0
aF0.0
aF3514.2814416031115
aF0.0
aF715.3953070067861
aF0.0
aF0.0
aF47.371811877060686
aF0.0
aF102.54096511556368
aF75.66585956416463
aF179.34002869440462
aF957.7336996244677
asS'Bacteria.Firmicutes.Clostridia.Oscillospirales.Oscillospiraceae.Colidextribacter'
p179
(lp180
F1121.006800361695
aF0.0
aF0.0
aF0.0
aF0.0
aF0.0
aF0.0
aF0.0
aF3421.240199572345
aF1335.8850949331113
aF682.2496440436638
aF0.0
aF0.0
aF1002.1942779981433
aF932.5301812132975
asS'Bacteria.Bacteroidota.Bacteroidia.Bacteroidales.Tannerellaceae'
p181
(lp182
F2464.976279248368
aF2292.3646623170516
aF839.5576399745239
aF0.0
aF1121.5791834903546
aF0.0
aF0.0
aF0.0
aF320.74126870990733
aF483.19248114601896
aF8631.941148552442
aF646.0080802280512
aF279.96368038740917
aF0.0
aF0.0
asS'Bacteria.Acidobacteriota.Blastocatellia.Blastocatellales'
p183
(lp184
F0.0
aF0.0
aF0.0
aF0.0
aF0.0
aF0.0
aF0.0
aF0.0
aF0.0
aF0.0
aF0.0
aF0.0
aF0.0
aF0.0
aF378.0527761675531
asS'Bacteria.Firmicutes.Clostridia.Clostridiales.Clostridiaceae.Clostridium_sensu_stricto_1'
p185
(lp186
F111.481339262489
aF100.76328186009019
aF0.0
aF402284.5275181724
aF18842.53028263796
aF16982.04754973314
aF659390.0744011119
aF12651.69119545572
aF35.637918745545264
aF7437.374464698527
aF1491.6265509526065
aF60519.67761120568
aF432907.0823244551
aF235220.27175289058
aF11845.653653249994
asS'Bacteria.Campilobacterota.Campylobacteria.Campylobacterales'
p187
(lp188
F0.0
aF0.0
aF0.0
aF0.0
aF0.0
aF0.0
aF0.0
aF0.0
aF0.0
aF66.32053662788495
aF0.0
aF0.0
aF0.0
aF0.0
aF327.64573934521263
asS'Bacteria.Proteobacteria.Gammaproteobacteria.Xanthomonadales.Xanthomonadaceae'
p189
(lp190
F0.0
aF0.0
aF202.65184413178162
aF0.0
aF0.0
aF0.0
aF0.0
aF0.0
aF0.0
aF0.0
aF0.0
aF0.0
aF0.0
aF0.0
aF0.0
asS'Bacteria.Firmicutes.Clostridia.Lachnospirales.Lachnospiraceae.GCA_900066575'
p191
(lp192
F198.18904757775823
aF0.0
aF0.0
aF0.0
aF0.0
aF0.0
aF0.0
aF0.0
aF1755.1674982181041
aF682.1540910296739
aF656.8241914706081
aF215.3360267426837
aF242.13075060532682
aF0.0
aF0.0
asS'Bacteria.Proteobacteria.Alphaproteobacteria.Rhizobiales'
p193
(lp194
F247.73630947219777
aF0.0
aF0.0
aF934.5794392523364
aF6131.299536413939
aF646.9351447517387
aF1287.711552612215
aF0.0
aF0.0
aF0.0
aF0.0
aF61.52457906933821
aF310.230024213075
aF221.53768250485277
aF0.0
asS'Bacteria.Firmicutes.Clostridia.Lachnospirales.Defluviitaleaceae.Defluviitaleaceae_UCG_011'
p195
(lp196
F545.0198808388351
aF1662.594150691488
aF0.0
aF0.0
aF0.0
aF0.0
aF0.0
aF0.0
aF106.91375623663578
aF653.7310039034375
aF114.41453657875107
aF0.0
aF0.0
aF0.0
aF0.0
asS'Bacteria.Firmicutes.Bacilli.RF39'
p197
(lp198
F1690.80031214775
aF8010.68090787717
aF19715.12940767761
aF4257.528556593978
aF27067.44429490056
aF12210.900857189068
aF2084.8663232769195
aF2840.1755744900597
aF1033.4996436208125
aF1373.7825444347598
aF1279.7477795104749
aF3599.1878755562852
aF1566.2832929782078
aF1793.400286944046
aF19356.302139778712
asS'Bacteria.Firmicutes.Clostridia.Peptostreptococcales_Tissierellales'
p199
(lp200
F0.0
aF0.0
aF0.0
aF0.0
aF0.0
aF0.0
aF0.0
aF0.0
aF0.0
aF0.0
aF0.0
aF0.0
aF0.0
aF253.18592286268887
aF0.0
asS'Bacteria.Actinobacteriota.Actinobacteria.Corynebacteriales'
p201
(lp202
F0.0
aF0.0
aF0.0
aF5919.003115264798
aF0.0
aF0.0
aF0.0
aF0.0
aF0.0
aF0.0
aF0.0
aF0.0
aF0.0
aF0.0
aF0.0
asS'Bacteria.Campilobacterota.Campylobacteria.Campylobacterales.Helicobacteraceae.Helicobacter'
p203
(lp204
F0.0
aF0.0
aF0.0
aF0.0
aF0.0
aF0.0
aF0.0
aF0.0
aF0.0
aF66.32053662788495
aF0.0
aF0.0
aF0.0
aF0.0
aF0.0
asS'Bacteria.Firmicutes.Clostridia.Peptostreptococcales_Tissierellales.Anaerovoracaceae.Family_XIII_UCG_001'
p205
(lp206
F148.64178568331866
aF0.0
aF0.0
aF0.0
aF0.0
aF0.0
aF0.0
aF0.0
aF267.28439059158944
aF208.435972259067
aF0.0
aF0.0
aF0.0
aF0.0
aF0.0
asS'Bacteria.Firmicutes.Clostridia.Christensenellales.Christensenellaceae.Christensenellaceae_R_7_group'
p207
(lp208
F1635.0596425165054
aF3136.257147895307
aF2547.623183370969
aF41536.863966770514
aF30133.09406310753
aF3719.8770823224977
aF3863.1346578366447
aF0.0
aF1211.6892373485389
aF1743.2826770758331
aF682.2496440436638
aF4347.7369208999
aF575.0605326876512
aF2036.0367963541228
aF167275.75169493663
asS'Bacteria.Cyanobacteria.Vampirivibrionia.Gastranaerophilales'
p209
(lp210
F501.66602668120055
aF188.9311534876691
aF0.0
aF519.2107995846313
aF0.0
aF0.0
aF0.0
aF0.0
aF294.0128296507484
aF0.0
aF745.8132754763033
aF287.1147023235783
aF0.0
aF0.0
aF2192.706101771808
asS'Bacteria.Actinobacteriota.Coriobacteriia.Coriobacteriales.Eggerthellaceae.Parvibacter'
p211
(lp212
F0.0
aF251.90820465022543
aF0.0
aF0.0
aF0.0
aF0.0
aF0.0
aF0.0
aF0.0
aF0.0
aF0.0
aF0.0
aF0.0
aF0.0
aF0.0
asS'Bacteria.Firmicutes.Bacilli.Bacillales.Bacillaceae.Anoxybacillus'
p213
(lp214
F0.0
aF0.0
aF0.0
aF0.0
aF0.0
aF0.0
aF0.0
aF0.0
aF0.0
aF0.0
aF0.0
aF0.0
aF0.0
aF0.0
aF932.5301812132975
asS'Bacteria.Deferribacterota.Deferribacteres.Deferribacterales'
p215
(lp216
F0.0
aF125.95410232511271
aF0.0
aF0.0
aF0.0
aF0.0
aF0.0
aF0.0
aF677.12045616536
aF0.0
aF0.0
aF0.0
aF0.0
aF0.0
aF0.0
asS'Bacteria.Bacteroidota'
p217
(lp218
F506757.0078408542
aF601947.2504219463
aF367089.34051299863
aF1973.001038421599
aF208389.41229250788
aF32912.82548924471
aF22115.934919466927
aF568293.312677511
aF494930.5060584462
aF367747.3756016221
aF716777.4086378736
aF391091.2409507599
aF34556.598062953984
aF45584.01552873661
aF52171.28311112231
asS'Bacteria.Actinobacteriota.Coriobacteriia'
p219
(lp220
F780.3693748374229
aF1058.0144595309469
aF4255.688726767415
aF14018.691588785048
aF15103.933004336775
aF18922.852983988356
aF19213.473959610823
aF3356.5711334882526
aF579.1161796151105
aF2103.3084473414947
aF203.40362058444637
aF8223.785402268206
aF3344.4309927360764
aF6709.426955861255
aF39317.48872142552
asS'Bacteria.Firmicutes.Clostridia.Lachnospirales.Lachnospiraceae.Tuzzerella'
p221
(lp222
F0.0
aF0.0
aF0.0
aF0.0
aF0.0
aF0.0
aF0.0
aF0.0
aF0.0
aF0.0
aF0.0
aF164.06554418490188
aF0.0
aF0.0
aF0.0
asS'Bacteria.Firmicutes.Clostridia.Clostridia.Hungateiclostridiaceae'
p223
(lp224
F0.0
aF0.0
aF0.0
aF0.0
aF0.0
aF0.0
aF0.0
aF0.0
aF178.1895937277263
aF113.69234850494564
aF0.0
aF0.0
aF0.0
aF0.0
aF0.0
asS'Bacteria.Proteobacteria.Gammaproteobacteria.Pseudomonadales.Moraxellaceae'
p225
(lp226
F49.54726189443956
aF0.0
aF0.0
aF0.0
aF0.0
aF0.0
aF2738.942032540266
aF0.0
aF0.0
aF0.0
aF0.0
aF0.0
aF0.0
aF0.0
aF1159.3618469138294
asS'Bacteria.Firmicutes.Clostridia.Oscillospirales.Oscillospiraceae.uncultured'
p227
(lp228
F14343.932318440251
aF377.8623069753382
aF0.0
aF0.0
aF5981.755645281892
aF0.0
aF347.47772054615325
aF20914.020139426804
aF13961.154668567357
aF2141.205896843143
aF1534.002305241033
aF687.0244662742767
aF0.0
aF1033.8425183559793
aF0.0
asS'Bacteria.Verrucomicrobiota'
p229
(lp230
F6701.26717122295
aF82600.70030480892
aF24607.723930287768
aF0.0
aF897.2633467922838
aF21187.125990619443
aF24425.63976780312
aF10069.713400464758
aF588.0256593014968
aF11767.158070261874
aF37595.76920469183
aF91517.81136564059
aF3488.1961259079894
aF10992.488817621743
aF0.0
asS'Bacteria.Cyanobacteria.Cyanobacteriia.Chloroplast.Chloroplast.Chloroplast'
p231
(lp232
F0.0
aF0.0
aF0.0
aF0.0
aF0.0
aF0.0
aF0.0
aF0.0
aF0.0
aF0.0
aF0.0
aF0.0
aF0.0
aF0.0
aF352.8492577563828
asS'Bacteria.Firmicutes.Clostridia.Lachnospirales.Lachnospiraceae._Eubacterium__ventriosum_group'
p233
(lp234
F0.0
aF0.0
aF0.0
aF0.0
aF0.0
aF1374.7371825974446
aF0.0
aF4905.75781048283
aF864.2195295794726
aF0.0
aF385.61936402467956
aF410.1638604622547
aF0.0
aF0.0
aF0.0
asS'Bacteria.Campilobacterota'
p235
(lp236
F0.0
aF0.0
aF0.0
aF0.0
aF0.0
aF0.0
aF0.0
aF0.0
aF0.0
aF66.32053662788495
aF0.0
aF0.0
aF0.0
aF0.0
aF327.64573934521263
asS'Bacteria.Firmicutes.Clostridia.Lachnospirales.Lachnospiraceae.Lachnoclostridium'
p237
(lp238
F0.0
aF0.0
aF694.806322737537
aF0.0
aF0.0
aF0.0
aF674.5155751778268
aF0.0
aF819.672131147541
aF0.0
aF0.0
aF0.0
aF0.0
aF189.88944214701664
aF378.0527761675531
asS'Bacteria.Gemmatimonadota.Gemmatimonadetes.Gemmatimonadales.Gemmatimonadaceae.Roseisolibacter'
p239
(lp240
F0.0
aF0.0
aF0.0
aF0.0
aF0.0
aF0.0
aF0.0
aF2840.1755744900597
aF0.0
aF0.0
aF0.0
aF0.0
aF0.0
aF0.0
aF0.0
asS'Bacteria.Campilobacterota.Campylobacteria.Campylobacterales.Campylobacteraceae'
p241
(lp242
F0.0
aF0.0
aF0.0
aF0.0
aF0.0
aF0.0
aF0.0
aF0.0
aF0.0
aF0.0
aF0.0
aF0.0
aF0.0
aF0.0
aF327.64573934521263
asS'Bacteria.Firmicutes.Clostridia.Lachnospirales.Defluviitaleaceae'
p243
(lp244
F545.0198808388351
aF1662.594150691488
aF0.0
aF0.0
aF0.0
aF0.0
aF0.0
aF0.0
aF106.91375623663578
aF653.7310039034375
aF114.41453657875107
aF0.0
aF0.0
aF0.0
aF0.0
asS'Bacteria.Firmicutes.Clostridia.Lachnospirales.Lachnospiraceae.Acetatifactor'
p245
(lp246
F92.90111605207417
aF0.0
aF0.0
aF0.0
aF0.0
aF0.0
aF0.0
aF0.0
aF614.7540983606558
aF123.16671088035777
aF0.0
aF0.0
aF0.0
aF443.07536500970554
aF0.0
asS'Bacteria.Bacteroidota.Bacteroidia.Bacteroidales.Muribaculaceae.Muribaculum'
p247
(lp248
F959.9781992047664
aF0.0
aF0.0
aF0.0
aF0.0
aF0.0
aF0.0
aF0.0
aF2245.1888809693514
aF1203.2440216773414
aF6538.578886704181
aF328.13108836980376
aF0.0
aF0.0
aF0.0
asS'Bacteria.Actinobacteriota'
p249
(lp250
F780.3693748374229
aF1058.0144595309469
aF8858.780614903597
aF27622.01453790239
aF25572.00538358009
aF23532.265890344497
aF19376.99288692666
aF3356.5711334882526
aF579.1161796151105
aF2131.731534467731
aF3546.8506339412834
aF27409.19997539017
aF14141.949152542371
aF12701.493796944893
aF42644.35315169998
asS'Bacteria.Firmicutes.Clostridia.Oscillospirales.UCG_010.UCG_010'
p251
(lp252
F1294.4222169922334
aF642.3659218580749
aF0.0
aF0.0
aF0.0
aF0.0
aF0.0
aF0.0
aF490.02138275124736
aF1373.7825444347598
aF817.852057766628
aF1538.1144767334551
aF45.39951573849878
aF0.0
aF0.0
asS'Bacteria.Bacteroidota.Bacteroidia.Bacteroidales.Bacteroidaceae'
p253
(lp254
F4700.796472234953
aF4194.2716074262535
aF202.65184413178162
aF0.0
aF32376.252430088236
aF0.0
aF183.95879323031642
aF0.0
aF9542.052744119745
aF1108.5003979232201
aF33290.39256898772
aF2625.04870695843
aF446.42857142857133
aF0.0
aF0.0
asS'Bacteria.Firmicutes.Bacilli.Staphylococcales.Staphylococcaceae.Jeotgalicoccus'
p255
(lp256
F0.0
aF0.0
aF0.0
aF3946.002076843198
aF0.0
aF0.0
aF0.0
aF0.0
aF0.0
aF0.0
aF25.425452573055797
aF0.0
aF0.0
aF0.0
aF0.0
asS'Bacteria.Gemmatimonadota.Gemmatimonadetes.Gemmatimonadales.Gemmatimonadaceae'
p257
(lp258
F0.0
aF0.0
aF0.0
aF0.0
aF0.0
aF0.0
aF0.0
aF2840.1755744900597
aF0.0
aF0.0
aF0.0
aF0.0
aF0.0
aF0.0
aF0.0
asS'Bacteria.Firmicutes.Clostridia.Oscillospirales.Ruminococcaceae.UBA1819'
p259
(lp260
F167.22200889373352
aF0.0
aF0.0
aF0.0
aF0.0
aF0.0
aF0.0
aF0.0
aF1568.0684248039913
aF331.6026831394248
aF0.0
aF953.6309755747423
aF0.0
aF168.79061524179258
aF781.3090707462762
asS'Bacteria.Cyanobacteria.Vampirivibrionia.Gastranaerophilales.Gastranaerophilales.Gastranaerophilales'
p261
(lp262
F501.66602668120055
aF188.9311534876691
aF0.0
aF519.2107995846313
aF0.0
aF0.0
aF0.0
aF0.0
aF294.0128296507484
aF0.0
aF745.8132754763033
aF287.1147023235783
aF0.0
aF0.0
aF2192.706101771808
asS'Bacteria.Proteobacteria.Gammaproteobacteria.Enterobacterales.Enterobacteriaceae'
p263
(lp264
F2025.244329935217
aF4244.6532483563
aF10016.791152799491
aF15576.32398753894
aF9047.405413488861
aF27818.211224324765
aF6663.39628812035
aF18590.240123934935
aF409.8360655737705
aF2368.5905938530345
aF432.2326937419485
aF3547.917392998503
aF5523.607748184018
aF7774.91771457507
aF9879.779217178719
asS'Bacteria.Firmicutes.Bacilli.Erysipelotrichales'
p265
(lp266
F5010.4668590752
aF6423.6592185807485
aF103468.24156099823
aF132398.753894081
aF73201.73470913716
aF38977.84247129225
aF89465.29310767721
aF5422.153369481022
aF2548.1111903064857
aF12619.850684048966
aF2822.225235609193
aF45261.58200200981
aF89111.68280871668
aF73582.15883196895
aF66612.89916072284
asS'Bacteria.Proteobacteria.Alphaproteobacteria'
p267
(lp268
F247.73630947219777
aF0.0
aF0.0
aF934.5794392523364
aF7103.3348287722465
aF646.9351447517387
aF1921.3473959610824
aF0.0
aF133.64219529579472
aF0.0
aF330.53088344972537
aF61.52457906933821
aF310.230024213075
aF316.4824035783611
aF579.6809234569147
asS'Bacteria.Firmicutes.Clostridia.Oscillospirales.Oscillospiraceae.Oscillospira'
p269
(lp270
F0.0
aF0.0
aF0.0
aF0.0
aF5159.264244055631
aF0.0
aF0.0
aF0.0
aF0.0
aF0.0
aF0.0
aF0.0
aF0.0
aF0.0
aF0.0
asS'Bacteria.Proteobacteria.Gammaproteobacteria.Xanthomonadales'
p271
(lp272
F0.0
aF0.0
aF202.65184413178162
aF0.0
aF0.0
aF0.0
aF0.0
aF0.0
aF0.0
aF0.0
aF0.0
aF0.0
aF0.0
aF0.0
aF0.0
asS'Bacteria.Firmicutes.Clostridia.Monoglobales.Monoglobaceae'
p273
(lp274
F16666.460219742108
aF340.07607627780436
aF1042.2094841063054
aF2284.527518172378
aF0.0
aF79087.82144590004
aF1962.2271277900415
aF26336.173508907825
aF5167.498218104063
aF9588.054723917083
aF55.08848057495422
aF7823.875638317509
aF4010.2905569007257
aF9294.033251751205
aF60286.81603951912
asS'Bacteria.Firmicutes.Clostridia.Oscillospirales.Butyricicoccaceae.uncultured'
p275
(lp276
F0.0
aF0.0
aF0.0
aF0.0
aF8598.773740092718
aF4205.078440886302
aF0.0
aF0.0
aF0.0
aF0.0
aF0.0
aF0.0
aF0.0
aF0.0
aF0.0
asS'Bacteria.Proteobacteria.Gammaproteobacteria.Burkholderiales.Oxalobacteraceae.Massilia'
p277
(lp278
F0.0
aF0.0
aF0.0
aF0.0
aF0.0
aF0.0
aF0.0
aF13168.086754453912
aF0.0
aF0.0
aF0.0
aF0.0
aF0.0
aF0.0
aF0.0
asS'Bacteria.Firmicutes.Bacilli.Bacillales.Bacillaceae'
p279
(lp280
F0.0
aF0.0
aF0.0
aF0.0
aF0.0
aF0.0
aF0.0
aF0.0
aF0.0
aF0.0
aF0.0
aF0.0
aF0.0
aF0.0
aF932.5301812132975
asS'Bacteria.Firmicutes.Clostridia.Peptococcales.Peptococcaceae'
p281
(lp282
F891.850714099912
aF579.3888706955186
aF434.2539517109606
aF0.0
aF0.0
aF0.0
aF81.7594636579184
aF0.0
aF3866.714183891661
aF4443.475954068292
aF7055.563089022982
aF153.81144767334553
aF242.13075060532682
aF210.98826905224072
aF226.83166570053183
asS'Bacteria.Firmicutes.Bacilli.Lactobacillales.Lactobacillaceae'
p283
(lp284
F55307.13108966816
aF5214.499836259666
aF43280.643853859074
aF27414.330218068535
aF11365.335726035595
aF1779.0716480672813
aF2616.302837053389
aF0.0
aF8579.828937990022
aF61858.11194906584
aF82713.23479557934
aF666.5162732511639
aF18749.999999999996
aF48801.58663178328
aF77979.6859641606
asS'Bacteria.Firmicutes.Bacilli.Izemoplasmatales'
p285
(lp286
F117.67474699929394
aF0.0
aF0.0
aF0.0
aF0.0
aF0.0
aF0.0
aF0.0
aF0.0
aF104.2179861295335
aF0.0
aF0.0
aF0.0
aF0.0
aF0.0
asS'Bacteria.Chloroflexi'
p287
(lp288
F179.6088243673434
aF0.0
aF0.0
aF0.0
aF0.0
aF0.0
aF0.0
aF0.0
aF0.0
aF0.0
aF0.0
aF0.0
aF0.0
aF0.0
aF0.0
asS'Bacteria.Firmicutes.Clostridia.Clostridia_UCG_014.Clostridia_UCG_014.Clostridia_UCG_014'
p289
(lp290
F35853.63738836383
aF116205.254805149
aF176972.96045394015
aF69989.6157840083
aF281890.2347839091
aF267912.01682031376
aF36546.480255089526
aF62225.66485928222
aF11519.957234497506
aF70820.85875620572
aF23539.731507220822
aF237495.12930415705
aF57006.65859564164
aF100029.53835766732
aF275247.6245683898
asS'Bacteria.Proteobacteria.Gammaproteobacteria.Burkholderiales.Oxalobacteraceae.Herminiimonas'
p291
(lp292
F0.0
aF0.0
aF434.2539517109606
aF0.0
aF0.0
aF0.0
aF429.2371842040716
aF0.0
aF0.0
aF0.0
aF0.0
aF0.0
aF0.0
aF0.0
aF655.2914786904253
asS'Bacteria.Chloroflexi.Chloroflexia'
p293
(lp294
F179.6088243673434
aF0.0
aF0.0
aF0.0
aF0.0
aF0.0
aF0.0
aF0.0
aF0.0
aF0.0
aF0.0
aF0.0
aF0.0
aF0.0
aF0.0
asS'Bacteria.Acidobacteriota.Blastocatellia.Blastocatellales.Blastocatellaceae.Blastocatella'
p295
(lp296
F0.0
aF0.0
aF0.0
aF0.0
aF0.0
aF0.0
aF0.0
aF0.0
aF0.0
aF0.0
aF0.0
aF0.0
aF0.0
aF0.0
aF378.0527761675531
asS'Bacteria.Actinobacteriota.Actinobacteria.Bifidobacteriales.Bifidobacteriaceae'
p297
(lp298
F0.0
aF0.0
aF4603.091888136182
aF7684.319833852544
aF10468.072379243311
aF4609.412906356139
aF163.5189273158368
aF0.0
aF0.0
aF0.0
aF3271.408231066512
aF19185.41457312196
aF10457.021791767553
aF5992.066841083636
aF1512.2111046702123
asS'Bacteria.Firmicutes.Clostridia.Lachnospirales.Lachnospiraceae._Eubacterium__xylanophilum_group'
p299
(lp300
F14498.767511860377
aF25959.140489205733
aF37114.23773956344
aF0.0
aF2243.158366980709
aF14232.57318453825
aF2207.5055187637968
aF16266.460108443069
aF10833.92729864576
aF9559.631636790848
aF2195.064072140484
aF4973.236808104839
aF6855.326876513315
aF10232.931049033676
aF957.7336996244677
asS'Bacteria.Proteobacteria.Alphaproteobacteria.Sphingomonadales.Sphingomonadaceae.Sphingomonas'
p301
(lp302
F0.0
aF0.0
aF0.0
aF0.0
aF0.0
aF0.0
aF0.0
aF0.0
aF0.0
aF0.0
aF0.0
aF0.0
aF0.0
aF94.94472107350832
aF0.0
asS'Bacteria.Proteobacteria.Gammaproteobacteria.Pasteurellales.Pasteurellaceae.Rodentibacter'
p303
(lp304
F222.962678524978
aF0.0
aF0.0
aF0.0
aF672.9475100942128
aF1374.7371825974446
aF0.0
aF0.0
aF356.3791874554526
aF824.269526660856
aF0.0
aF0.0
aF0.0
aF0.0
aF1789.4498071930843
asS'Bacteria.Firmicutes.Clostridia.Eubacteriales.Anaerofustaceae'
p305
(lp306
F111.481339262489
aF365.26689674282693
aF1186.9608013432924
aF0.0
aF0.0
aF404.33446546983674
aF0.0
aF0.0
aF0.0
aF75.7948990032971
aF0.0
aF328.13108836980376
aF75.66585956416463
aF189.88944214701664
aF0.0
asS'Bacteria.Actinobacteriota.Coriobacteriia.Coriobacteriales.Atopobiaceae.Coriobacteriaceae_UCG_002'
p307
(lp308
F0.0
aF0.0
aF0.0
aF3219.1069574247144
aF0.0
aF3800.743975416465
aF0.0
aF0.0
aF0.0
aF634.7822791526131
aF0.0
aF6142.203810422265
aF741.5254237288134
aF1540.2143640813572
aF0.0
asS'Bacteria.Proteobacteria.Gammaproteobacteria.Pseudomonadales.Pseudomonadaceae'
p309
(lp310
F123.86815473609889
aF302.28984558027054
aF2026.518441317816
aF0.0
aF28189.023478390915
aF970.4027171276081
aF2677.6224347968277
aF0.0
aF0.0
aF0.0
aF84.75150857685266
aF389.65566743914195
aF756.6585956416463
aF3238.669929951895
aF6830.153489427124
asS'Bacteria.Proteobacteria.Alphaproteobacteria.Caulobacterales.Caulobacteraceae'
p311
(lp312
F0.0
aF0.0
aF0.0
aF0.0
aF972.0352923583074
aF0.0
aF633.6358433488676
aF0.0
aF0.0
aF0.0
aF0.0
aF0.0
aF0.0
aF0.0
aF0.0
asS'Bacteria.Campilobacterota.Campylobacteria.Campylobacterales.Campylobacteraceae.Campylobacter'
p313
(lp314
F0.0
aF0.0
aF0.0
aF0.0
aF0.0
aF0.0
aF0.0
aF0.0
aF0.0
aF0.0
aF0.0
aF0.0
aF0.0
aF0.0
aF327.64573934521263
asS'Bacteria.Verrucomicrobiota.Verrucomicrobiae.Verrucomicrobiales'
p315
(lp316
F6701.26717122295
aF82600.70030480892
aF24607.723930287768
aF0.0
aF897.2633467922838
aF21187.125990619443
aF24425.63976780312
aF10069.713400464758
aF588.0256593014968
aF11767.158070261874
aF37595.76920469183
aF91517.81136564059
aF3488.1961259079894
aF10992.488817621743
aF0.0
asS'Bacteria.Proteobacteria.Gammaproteobacteria.Enterobacterales.Erwiniaceae.uncultured'
p317
(lp318
F0.0
aF138.54951255762398
aF0.0
aF0.0
aF0.0
aF0.0
aF0.0
aF0.0
aF0.0
aF0.0
aF0.0
aF0.0
aF0.0
aF0.0
aF0.0
asS'Bacteria.Firmicutes.Clostridia.Peptococcales'
p319
(lp320
F891.850714099912
aF579.3888706955186
aF434.2539517109606
aF0.0
aF0.0
aF0.0
aF81.7594636579184
aF0.0
aF3866.714183891661
aF4443.475954068292
aF7055.563089022982
aF153.81144767334553
aF242.13075060532682
aF210.98826905224072
aF226.83166570053183
asS'Bacteria.Proteobacteria.Gammaproteobacteria.Pseudomonadales.Pseudomonadaceae.Pseudomonas'
p321
(lp322
F123.86815473609889
aF302.28984558027054
aF2026.518441317816
aF0.0
aF28189.023478390915
aF970.4027171276081
aF2677.6224347968277
aF0.0
aF0.0
aF0.0
aF84.75150857685266
aF389.65566743914195
aF756.6585956416463
aF3238.669929951895
aF6830.153489427124
asS'Bacteria.Firmicutes.Clostridia'
p323
(lp324
F0.0
aF0.0
aF0.0
aF0.0
aF0.0
aF0.0
aF0.0
aF0.0
aF0.0
aF596.8848296509645
aF0.0
aF717.7867558089458
aF0.0
aF0.0
aF0.0
asS'Bacteria.Firmicutes.Clostridia.Clostridia.Hungateiclostridiaceae.Ruminiclostridium'
p325
(lp326
F0.0
aF0.0
aF0.0
aF0.0
aF0.0
aF0.0
aF0.0
aF0.0
aF178.1895937277263
aF113.69234850494564
aF0.0
aF0.0
aF0.0
aF0.0
aF0.0
asS'Bacteria.Firmicutes.Clostridia.Lachnospirales.Lachnospiraceae.Marvinbryantia'
p327
(lp328
F1814.6684668838489
aF0.0
aF0.0
aF0.0
aF0.0
aF1213.00339640951
aF572.3162456054288
aF0.0
aF828.5816108339272
aF0.0
aF0.0
aF0.0
aF0.0
aF0.0
aF34226.37800236913
asS'Bacteria.Campilobacterota.Campylobacteria'
p329
(lp330
F0.0
aF0.0
aF0.0
aF0.0
aF0.0
aF0.0
aF0.0
aF0.0
aF0.0
aF66.32053662788495
aF0.0
aF0.0
aF0.0
aF0.0
aF327.64573934521263
asS'Bacteria.Patescibacteria.Saccharimonadia.Saccharimonadales.Saccharimonadaceae'
p331
(lp332
F1486.4178568331868
aF1234.3502027861048
aF9843.089572115108
aF3738.3177570093458
aF15253.476895468824
aF32508.49102377487
aF551.8763796909492
aF12651.69119545572
aF507.8403421240199
aF1288.5132830560508
aF1178.0459692182517
aF3804.269805787412
aF5614.406779661015
aF15349.396573550512
aF6351.286639614891
asS'Bacteria.Firmicutes.Bacilli.Erysipelotrichales.Erysipelotrichaceae'
p333
(lp334
F0.0
aF0.0
aF0.0
aF0.0
aF0.0
aF0.0
aF0.0
aF0.0
aF481.111903064861
aF0.0
aF0.0
aF0.0
aF0.0
aF0.0
aF0.0
asS'Bacteria.Cyanobacteria.Cyanobacteriia.Chloroplast'
p335
(lp336
F0.0
aF0.0
aF0.0
aF0.0
aF0.0
aF0.0
aF0.0
aF0.0
aF0.0
aF0.0
aF0.0
aF0.0
aF0.0
aF0.0
aF352.8492577563828
asS'Bacteria.Gemmatimonadota.Gemmatimonadetes.Gemmatimonadales'
p337
(lp338
F0.0
aF0.0
aF0.0
aF0.0
aF0.0
aF0.0
aF0.0
aF2840.1755744900597
aF0.0
aF0.0
aF0.0
aF0.0
aF0.0
aF0.0
aF0.0
asS'Bacteria.Proteobacteria.Gammaproteobacteria.Pasteurellales.Pasteurellaceae'
p339
(lp340
F222.962678524978
aF0.0
aF0.0
aF0.0
aF672.9475100942128
aF1374.7371825974446
aF0.0
aF0.0
aF356.3791874554526
aF824.269526660856
aF0.0
aF0.0
aF0.0
aF0.0
aF1789.4498071930843
asS'Bacteria.Actinobacteriota.Coriobacteriia.Coriobacteriales.Eggerthellaceae.Enterorhabdus'
p341
(lp342
F161.02860115692857
aF0.0
aF2344.9713392391873
aF0.0
aF5383.5800807537025
aF2749.4743651948893
aF9872.455236693648
aF0.0
aF0.0
aF151.5897980065942
aF0.0
aF604.9916941818258
aF1641.9491525423725
aF2405.266267195544
aF17264.41011165159
asS'Bacteria.Firmicutes.Clostridia.Lachnospirales.Lachnospiraceae._Bacteroides__pectinophilus_group'
p343
(lp344
F898.044121836717
aF0.0
aF926.4084303167159
aF0.0
aF1046.807237924331
aF1132.1365033155428
aF0.0
aF0.0
aF0.0
aF0.0
aF707.6750966167197
aF0.0
aF408.595641646489
aF0.0
aF0.0
asS'Bacteria.Proteobacteria.Gammaproteobacteria.Burkholderiales'
p345
(lp346
F4744.150326392588
aF4849.23293951684
aF4487.290834346593
aF6334.371754932503
aF85464.33378196502
aF5175.481158013909
aF11364.56544845066
aF13168.086754453912
aF1772.9864575908766
aF2055.9366354644335
aF4309.614211132957
aF2707.081479050881
aF5167.978208232445
aF2721.7486707739054
aF21322.176575849993
asS'Bacteria.Deferribacterota.Deferribacteres.Deferribacterales.Deferribacteraceae'
p347
(lp348
F0.0
aF125.95410232511271
aF0.0
aF0.0
aF0.0
aF0.0
aF0.0
aF0.0
aF677.12045616536
aF0.0
aF0.0
aF0.0
aF0.0
aF0.0
aF0.0
asS'Bacteria.Firmicutes'
p349
(lp350
F472953.38841337286
aF303310.07380910404
aF572867.8130970992
aF941433.0218068536
aF614774.9364438462
aF853873.524179201
aF908163.6824462431
aF371030.2091402014
aF499750.5345687811
aF611750.1042179863
aF234998.98298189702
aF479184.1840815407
aF928616.8280871671
aF901320.7865642669
aF854021.2213625022
asS'Bacteria.Firmicutes.Clostridia.Oscillospirales.Ruminococcaceae.Ruminococcus'
p351
(lp352
F24154.290173539284
aF6776.330705091065
aF4718.892941925772
aF2284.527518172378
aF5757.43980858382
aF8895.358240336407
aF32417.627340364652
aF7487.735605473794
aF2405.5595153243053
aF28830.484708379132
aF31247.88121228557
aF2255.901232542401
aF196.73123486682803
aF727.9095282302304
aF20440.053431459033
asS'Bacteria.Firmicutes.Clostridia.Monoglobales.Monoglobaceae.Monoglobus'
p353
(lp354
F16666.460219742108
aF340.07607627780436
aF1042.2094841063054
aF2284.527518172378
aF0.0
aF79087.82144590004
aF1962.2271277900415
aF26336.173508907825
aF5167.498218104063
aF9588.054723917083
aF55.08848057495422
aF7823.875638317509
aF4010.2905569007257
aF9294.033251751205
aF60286.81603951912
asS'Bacteria.Proteobacteria'
p355
(lp356
F7413.50906095552
aF9534.725546011032
aF16733.252272595684
aF22845.27518172378
aF130477.04501271127
aF35985.76742681547
aF25365.873599869185
aF31758.32687838885
aF2672.8439059158945
aF5248.796755978324
aF5157.129296901484
aF6706.179118557864
aF11758.474576271185
aF14051.818718879233
aF41560.60186001966
asS'Bacteria.Proteobacteria.Gammaproteobacteria.Burkholderiales.Alcaligenaceae.Alcaligenes'
p357
(lp358
F0.0
aF0.0
aF0.0
aF0.0
aF0.0
aF0.0
aF408.797318289592
aF0.0
aF0.0
aF0.0
aF0.0
aF0.0
aF0.0
aF0.0
aF0.0
asS'Bacteria.Firmicutes.Clostridia.Oscillospirales'
p359
(lp360
F210.57586305136812
aF0.0
aF0.0
aF0.0
aF0.0
aF0.0
aF0.0
aF0.0
aF641.4825374198147
aF0.0
aF0.0
aF164.06554418490188
aF0.0
aF0.0
aF0.0
asS'Bacteria.Actinobacteriota.Coriobacteriia.Coriobacteriales.Atopobiaceae'
p361
(lp362
F0.0
aF0.0
aF0.0
aF3219.1069574247144
aF0.0
aF3800.743975416465
aF531.4365137764696
aF0.0
aF0.0
aF634.7822791526131
aF0.0
aF6265.252968560942
aF741.5254237288134
aF1540.2143640813572
aF0.0
asS'Bacteria.Campilobacterota.Campylobacteria.Campylobacterales.Helicobacteraceae'
p363
(lp364
F0.0
aF0.0
aF0.0
aF0.0
aF0.0
aF0.0
aF0.0
aF0.0
aF0.0
aF66.32053662788495
aF0.0
aF0.0
aF0.0
aF0.0
aF0.0
asS'Bacteria.Proteobacteria.Gammaproteobacteria.Burkholderiales.Comamonadaceae'
p365
(lp366
F0.0
aF0.0
aF376.35342481616584
aF0.0
aF0.0
aF0.0
aF0.0
aF0.0
aF0.0
aF0.0
aF0.0
aF0.0
aF0.0
aF0.0
aF0.0
asS'Bacteria.Firmicutes.Bacilli.Erysipelotrichales.Erysipelatoclostridiaceae'
p367
(lp368
F2043.8245531456319
aF0.0
aF1244.861328238087
aF1557.632398753894
aF747.7194556602365
aF1213.00339640951
aF0.0
aF0.0
aF775.1247327156094
aF729.5259029067346
aF0.0
aF0.0
aF0.0
aF0.0
aF6653.728860548934
asS'Bacteria.Chloroflexi.Chloroflexia.Chloroflexales.Chloroflexaceae'
p369
(lp370
F179.6088243673434
aF0.0
aF0.0
aF0.0
aF0.0
aF0.0
aF0.0
aF0.0
aF0.0
aF0.0
aF0.0
aF0.0
aF0.0
aF0.0
aF0.0
asS'Bacteria.Firmicutes.Clostridia.Lachnospirales.Lachnospiraceae.ASF356'
p371
(lp372
F0.0
aF0.0
aF0.0
aF0.0
aF0.0
aF0.0
aF0.0
aF0.0
aF142.55167498218105
aF0.0
aF33.90060343074106
aF0.0
aF0.0
aF0.0
aF0.0
asS'Bacteria.Firmicutes.Bacilli.Acholeplasmatales.Acholeplasmataceae.Anaeroplasma'
p373
(lp374
F371.6044642082967
aF0.0
aF0.0
aF0.0
aF299.0877822640946
aF0.0
aF61.3195977434388
aF0.0
aF365.2886671418389
aF104.2179861295335
aF29.66302800189843
aF0.0
aF0.0
aF0.0
aF0.0
asS'Bacteria.Actinobacteriota.Coriobacteriia.Coriobacteriales.Eggerthellaceae'
p375
(lp376
F204.38245531456317
aF251.90820465022543
aF3126.6284523189165
aF5503.634475597092
aF8673.545685658743
aF7197.153485363093
aF14389.66560379364
aF0.0
aF400.9265858873842
aF975.8593246674502
aF203.40362058444637
aF1958.5324337072664
aF2602.905569007263
aF4388.555996286606
aF25757.99581621595
asS'Bacteria.Firmicutes.Clostridia.Lachnospirales.Lachnospiraceae._Eubacterium__ruminantium_group'
p377
(lp378
F0.0
aF0.0
aF0.0
aF0.0
aF0.0
aF0.0
aF0.0
aF0.0
aF2040.270848182466
aF58030.46954939934
aF3644.3148688046635
aF399.9097639506984
aF4048.1234866828077
aF1856.6967676597183
aF0.0
asS'Bacteria.Firmicutes.Clostridia.Christensenellales'
p379
(lp380
F1635.0596425165054
aF3136.257147895307
aF2547.623183370969
aF41536.863966770514
aF30133.09406310753
aF3719.8770823224977
aF3863.1346578366447
aF0.0
aF1211.6892373485389
aF1743.2826770758331
aF682.2496440436638
aF4511.802465084802
aF575.0605326876512
aF2036.0367963541228
aF167275.75169493663
asS'Bacteria.Proteobacteria.Gammaproteobacteria.Burkholderiales.Sutterellaceae.Parasutterella'
p381
(lp382
F4180.550222343338
aF1725.5712018540444
aF0.0
aF0.0
aF2841.333931508899
aF0.0
aF0.0
aF0.0
aF1666.072701354241
aF1629.5903285708876
aF4068.0724116889273
aF1066.4260372018623
aF0.0
aF0.0
aF579.6809234569147
asS'Bacteria.Firmicutes.Clostridia.uncultured.uncultured.uncultured'
p383
(lp384
F0.0
aF390.45771720784944
aF0.0
aF0.0
aF0.0
aF0.0
aF0.0
aF0.0
aF0.0
aF0.0
aF0.0
aF0.0
aF0.0
aF0.0
aF0.0
asS'Bacteria.Firmicutes.Bacilli.Erysipelotrichales.Erysipelotrichaceae.Dubosiella'
p385
(lp386
F0.0
aF0.0
aF318.4528979213711
aF18483.904465212876
aF17272.319425751462
aF14151.706291444283
aF2330.1447142506745
aF0.0
aF0.0
aF0.0
aF177.97816801139055
aF15565.718504542567
aF4131.355932203389
aF4989.872563085493
aF23439.272122388287
asS'Bacteria.Proteobacteria.Gammaproteobacteria.Burkholderiales.Comamonadaceae.Comamonas'
p387
(lp388
F0.0
aF226.71738418520292
aF0.0
aF0.0
aF20113.65335726036
aF0.0
aF0.0
aF0.0
aF0.0
aF0.0
aF0.0
aF0.0
aF189.1646489104116
aF263.7353363153009
aF0.0
asS'Bacteria.Firmicutes.Clostridia.Clostridia_UCG_014'
p389
(lp390
F35853.63738836383
aF116205.254805149
aF176972.96045394015
aF69989.6157840083
aF281890.2347839091
aF267912.01682031376
aF36546.480255089526
aF62225.66485928222
aF11519.957234497506
aF70820.85875620572
aF23539.731507220822
aF237495.12930415705
aF57006.65859564164
aF100029.53835766732
aF275247.6245683898
asS'Bacteria.Firmicutes.Clostridia.Oscillospirales.Ruminococcaceae._Eubacterium__siraeum_group'
p391
(lp392
F66424.29797723304
aF3299.9974809179535
aF4921.544786057554
aF0.0
aF0.0
aF0.0
aF1553.4298095004497
aF14717.273431448491
aF46641.12615823236
aF615.8335544017889
aF516.9842023188012
aF15288.857898730545
aF37.83292978208232
aF0.0
aF0.0
asS'Bacteria.Firmicutes.Clostridia.Lachnospirales.Lachnospiraceae.Fusicatenibacter'
p393
(lp394
F0.0
aF0.0
aF0.0
aF33852.54413291797
aF0.0
aF16739.44687045124
aF0.0
aF0.0
aF0.0
aF0.0
aF0.0
aF0.0
aF0.0
aF0.0
aF0.0
asS'Bacteria.Firmicutes.Clostridia.Oscillospirales.Ruminococcaceae.Fournierella'
p395
(lp396
F154.83519342012363
aF0.0
aF0.0
aF0.0
aF0.0
aF0.0
aF0.0
aF0.0
aF1176.0513186029937
aF0.0
aF186.45331886907582
aF779.3113348782839
aF30.266343825665853
aF0.0
aF0.0
asS'Bacteria.Firmicutes.Clostridia.Clostridia'
p397
(lp398
F0.0
aF0.0
aF0.0
aF0.0
aF0.0
aF0.0
aF0.0
aF0.0
aF178.1895937277263
aF113.69234850494564
aF0.0
aF0.0
aF0.0
aF0.0
aF0.0
asS'Bacteria.Firmicutes.Bacilli.Erysipelotrichales.Erysipelotrichaceae.Turicibacter'
p399
(lp400
F1127.2002080984998
aF5617.552963700027
aF100544.26495281109
aF109761.16303219106
aF20861.372812920596
aF5337.214944201844
aF83823.89011528084
aF5422.153369481022
aF0.0
aF9597.529086292496
aF1606.0410875313578
aF16693.669120813767
aF81878.02663438255
aF65026.584521900586
aF7082.188673538827
asS'Bacteria.Firmicutes.Clostridia.Clostridia_vadinBB60_group.Clostridia_vadinBB60_group'
p401
(lp402
F12585.004521187648
aF0.0
aF0.0
aF0.0
aF0.0
aF566.0682516577714
aF0.0
aF0.0
aF739.4868139700641
aF947.4362375412137
aF402.5696657400501
aF307.62289534669105
aF0.0
aF158.24120178918054
aF0.0
asS'Bacteria.Firmicutes.Bacilli.Lactobacillales.Streptococcaceae.Streptococcus'
p403
(lp404
F0.0
aF503.81640930045086
aF0.0
aF4049.844236760125
aF4262.000897263348
aF0.0
aF2207.5055187637968
aF0.0
aF0.0
aF0.0
aF203.40362058444637
aF0.0
aF158.89830508474572
aF0.0
aF5015.50016382287
asS'Bacteria.Firmicutes.Bacilli.Lactobacillales.Streptococcaceae'
p405
(lp406
F0.0
aF503.81640930045086
aF0.0
aF4049.844236760125
aF4262.000897263348
aF0.0
aF2207.5055187637968
aF0.0
aF0.0
aF0.0
aF203.40362058444637
aF0.0
aF158.89830508474572
aF0.0
aF5015.50016382287
asS'Bacteria.Firmicutes.Clostridia.Lachnospirales.Lachnospiraceae.A2'
p407
(lp408
F0.0
aF403.05312744036075
aF0.0
aF0.0
aF0.0
aF0.0
aF0.0
aF0.0
aF570.2066999287242
aF530.5642930230796
aF72.03878229032475
aF0.0
aF408.595641646489
aF1941.0920752806146
aF0.0
asS'Bacteria.Proteobacteria.Gammaproteobacteria.Burkholderiales.Alcaligenaceae'
p409
(lp410
F0.0
aF0.0
aF0.0
aF0.0
aF3514.2814416031115
aF0.0
aF1124.192625296378
aF0.0
aF0.0
aF47.371811877060686
aF0.0
aF102.54096511556368
aF75.66585956416463
aF179.34002869440462
aF957.7336996244677
asS'Bacteria.Firmicutes.Clostridia.Lachnospirales.Lachnospiraceae._Eubacterium__hallii_group'
p411
(lp412
F260.12312494580766
aF0.0
aF0.0
aF0.0
aF0.0
aF0.0
aF0.0
aF0.0
aF0.0
aF0.0
aF0.0
aF0.0
aF0.0
aF0.0
aF0.0
asS'Bacteria.Firmicutes.Clostridia.Lachnospirales'
p413
(lp414
F93099.30509965192
aF75056.04957553466
aF88848.35852006255
aF52128.76427829699
aF100867.35456856589
aF136341.58175642893
aF10444.771482299078
aF86754.45391169637
aF238061.29722024233
aF177947.47413499077
aF36489.76201776392
aF23522.89739751031
aF52020.278450363185
aF70501.73010380623
aF95521.33477833508
asS'Bacteria.Bacteroidota.Bacteroidia.Bacteroidales.Prevotellaceae'
p415
(lp416
F105771.01732915486
aF146043.7816459682
aF33032.25059348041
aF0.0
aF10168.984596979215
aF2506.8736859129876
aF899.3541002371024
aF0.0
aF85067.71204561654
aF30299.010876568012
aF272166.75706827577
aF9238.940956912287
aF1520.8837772397092
aF263.7353363153009
aF4990.2966454117
asS'Bacteria.Firmicutes.Clostridia.Oscillospirales.Ruminococcaceae.Incertae_Sedis'
p417
(lp418
F9698.876515836544
aF2632.440738594856
aF9408.835620404147
aF8826.583592938734
aF2766.561985942875
aF4609.412906356139
aF3474.777205461532
aF28659.95352439969
aF8027.441197434071
aF6812.066547921327
aF211.8787714421316
aF615.2457906933821
aF0.0
aF369.2294708414213
aF15399.349749224994
asS'Bacteria.Firmicutes.Clostridia.Clostridia_vadinBB60_group.Clostridia_vadinBB60_group.Clostridia_vadinBB60_group'
p419
(lp420
F12585.004521187648
aF0.0
aF0.0
aF0.0
aF0.0
aF566.0682516577714
aF0.0
aF0.0
aF739.4868139700641
aF947.4362375412137
aF402.5696657400501
aF307.62289534669105
aF0.0
aF158.24120178918054
aF0.0
asS'Bacteria.Bacteroidota.Bacteroidia.Flavobacteriales'
p421
(lp422
F0.0
aF0.0
aF0.0
aF0.0
aF0.0
aF0.0
aF1246.8318207832558
aF0.0
aF0.0
aF0.0
aF0.0
aF0.0
aF0.0
aF0.0
aF0.0
asS'Bacteria.Proteobacteria.Alphaproteobacteria.Rhodospirillales.uncultured'
p423
(lp424
F0.0
aF0.0
aF0.0
aF0.0
aF0.0
aF0.0
aF0.0
aF0.0
aF133.64219529579472
aF0.0
aF330.53088344972537
aF0.0
aF0.0
aF0.0
aF0.0
asS'Bacteria.Gemmatimonadota'
p425
(lp426
F0.0
aF0.0
aF0.0
aF0.0
aF0.0
aF0.0
aF0.0
aF2840.1755744900597
aF0.0
aF0.0
aF0.0
aF0.0
aF0.0
aF0.0
aF0.0
asS'Bacteria.Proteobacteria.Gammaproteobacteria.Pasteurellales'
p427
(lp428
F222.962678524978
aF0.0
aF0.0
aF0.0
aF672.9475100942128
aF1374.7371825974446
aF0.0
aF0.0
aF356.3791874554526
aF824.269526660856
aF0.0
aF0.0
aF0.0
aF0.0
aF1789.4498071930843
asS'Bacteria.Proteobacteria.Gammaproteobacteria.Burkholderiales.Burkholderiaceae'
p429
(lp430
F247.73630947219777
aF982.4419981358792
aF1968.6179144230216
aF4776.739356178608
aF13010.318528488115
aF1617.337861879347
aF4169.732646553839
aF0.0
aF106.91375623663578
aF378.9744950164855
aF241.54179944403006
aF1538.1144767334551
aF4517.251815980629
aF2278.6733057642
aF12626.96272399627
asS'Bacteria.Firmicutes.Bacilli'
p431
(lp432
F23671.2043700685
aF8653.046829735245
aF23478.66365583927
aF934.5794392523364
aF0.0
aF0.0
aF1430.7906140135722
aF0.0
aF0.0
aF900.064425664153
aF2432.368296155671
aF143.55735116178914
aF1422.518159806295
aF654.0636340619462
aF4360.208685132445
asS'Bacteria.Firmicutes.Clostridia.Oscillospirales.Ruminococcaceae.Negativibacillus'
p433
(lp434
F501.66602668120055
aF0.0
aF0.0
aF0.0
aF0.0
aF0.0
aF0.0
aF0.0
aF0.0
aF151.5897980065942
aF0.0
aF0.0
aF0.0
aF0.0
aF0.0
asS'Bacteria.Verrucomicrobiota.Verrucomicrobiae'
p435
(lp436
F6701.26717122295
aF82600.70030480892
aF24607.723930287768
aF0.0
aF897.2633467922838
aF21187.125990619443
aF24425.63976780312
aF10069.713400464758
aF588.0256593014968
aF11767.158070261874
aF37595.76920469183
aF91517.81136564059
aF3488.1961259079894
aF10992.488817621743
aF0.0
asS'Bacteria.Firmicutes.Clostridia.Peptostreptococcales_Tissierellales.Anaerovoracaceae._Eubacterium__nodatum_group'
p437
(lp438
F402.5715028923214
aF1498.8538176688417
aF1852.8168606334318
aF0.0
aF0.0
aF0.0
aF0.0
aF0.0
aF988.9522451888809
aF644.2566415280254
aF779.7138789070443
aF974.1391685978549
aF0.0
aF0.0
aF0.0
asS'Bacteria.Chloroflexi.Chloroflexia.Chloroflexales.Chloroflexaceae.FFCH7168'
p439
(lp440
F179.6088243673434
aF0.0
aF0.0
aF0.0
aF0.0
aF0.0
aF0.0
aF0.0
aF0.0
aF0.0
aF0.0
aF0.0
aF0.0
aF0.0
aF0.0
asS'Bacteria.Firmicutes.Clostridia.Oscillospirales.Oscillospiraceae.Papillibacter'
p441
(lp442
F526.4396576284204
aF0.0
aF0.0
aF0.0
aF0.0
aF2345.139899725053
aF0.0
aF0.0
aF8704.561653599429
aF1563.2697919430025
aF741.5757000474606
aF728.0408523205022
aF128.63196125907987
aF0.0
aF0.0
asS'Bacteria.Firmicutes.Bacilli.Lactobacillales.Aerococcaceae'
p443
(lp444
F0.0
aF0.0
aF0.0
aF1246.1059190031153
aF822.49140122626
aF0.0
aF0.0
aF0.0
aF0.0
aF0.0
aF0.0
aF0.0
aF0.0
aF0.0
aF0.0
asS'Bacteria.Proteobacteria.Gammaproteobacteria.Enterobacterales'
p445
(lp446
F2025.244329935217
aF4383.202760913923
aF10016.791152799491
aF15576.32398753894
aF9047.405413488861
aF27818.211224324765
aF6663.39628812035
aF18590.240123934935
aF409.8360655737705
aF2368.5905938530345
aF432.2326937419485
aF3547.917392998503
aF5523.607748184018
aF7774.91771457507
aF9879.779217178719
asS'Bacteria.Proteobacteria.Alphaproteobacteria.Sphingomonadales'
p447
(lp448
F0.0
aF0.0
aF0.0
aF0.0
aF0.0
aF0.0
aF0.0
aF0.0
aF0.0
aF0.0
aF0.0
aF0.0
aF0.0
aF94.94472107350832
aF579.6809234569147
asS'Bacteria.Firmicutes.Clostridia.Lachnospirales.Lachnospiraceae.Lachnospiraceae_NK4B4_group'
p449
(lp450
F0.0
aF314.8852558127818
aF0.0
aF0.0
aF0.0
aF0.0
aF0.0
aF0.0
aF0.0
aF0.0
aF0.0
aF0.0
aF0.0
aF0.0
aF0.0
asS'Bacteria.Proteobacteria.Gammaproteobacteria.Enterobacterales.Enterobacteriaceae.Escherichia_Shigella'
p451
(lp452
F2025.244329935217
aF4244.6532483563
aF10016.791152799491
aF15576.32398753894
aF9047.405413488861
aF27818.211224324765
aF6663.39628812035
aF18590.240123934935
aF409.8360655737705
aF2368.5905938530345
aF432.2326937419485
aF3547.917392998503
aF5523.607748184018
aF7774.91771457507
aF9879.779217178719
asS'Bacteria.Verrucomicrobiota.Verrucomicrobiae.Verrucomicrobiales.Akkermansiaceae'
p453
(lp454
F6701.26717122295
aF82600.70030480892
aF24607.723930287768
aF0.0
aF897.2633467922838
aF21187.125990619443
aF24425.63976780312
aF10069.713400464758
aF588.0256593014968
aF11767.158070261874
aF37595.76920469183
aF91517.81136564059
aF3488.1961259079894
aF10992.488817621743
aF0.0
asS'Bacteria.Firmicutes.Clostridia.Oscillospirales._Eubacterium__coprostanoligenes_group._Eubacterium__coprostanoligenes_group'
p455
(lp456
F13272.472779972997
aF22507.998085497646
aF57987.37768513694
aF10072.689511941848
aF4635.860625093466
aF13262.170467410644
aF2166.625786934838
aF69971.5982442551
aF4133.99857448325
aF86879.9029825293
aF21531.120753949417
aF37612.026004388754
aF116086.56174334139
aF136277.3229808423
aF2923.6081356957434
asS'Bacteria.Actinobacteriota.Coriobacteriia.Coriobacteriales.uncultured'
p457
(lp458
F575.9869195228599
aF806.1062548807215
aF1129.0602744484975
aF5295.95015576324
aF5981.755645281892
aF7924.9555232088
aF3904.014389665604
aF3356.5711334882526
aF178.1895937277263
aF492.6668435214311
aF0.0
aF0.0
aF0.0
aF780.6565954932906
aF12022.078282128186
asS'Bacteria.Desulfobacterota.Desulfovibrionia.Desulfovibrionales.Desulfovibrionaceae'
p459
(lp460
F1827.0552823574587
aF0.0
aF0.0
aF1869.1588785046729
aF4635.860625093466
aF0.0
aF0.0
aF0.0
aF0.0
aF0.0
aF0.0
aF0.0
aF0.0
aF0.0
aF0.0
asS'Bacteria.Proteobacteria.Gammaproteobacteria.Pseudomonadales'
p461
(lp462
F173.41541663053846
aF302.28984558027054
aF2026.518441317816
aF0.0
aF28189.023478390915
aF970.4027171276081
aF5416.564467337094
aF0.0
aF0.0
aF0.0
aF84.75150857685266
aF389.65566743914195
aF756.6585956416463
aF3238.669929951895
aF7989.515336340955
asS'Bacteria.Firmicutes.Clostridia.Oscillospirales.Butyricicoccaceae.UCG_009'
p463
(lp464
F532.6330653652253
aF1385.49512557624
aF579.0052689479475
aF0.0
aF0.0
aF0.0
aF0.0
aF0.0
aF1202.7797576621526
aF1032.7054989199228
aF0.0
aF512.7048255778184
aF174.03147699757866
aF706.8107013250063
aF0.0
asS'Bacteria.Firmicutes.Clostridia.Oscillospirales.Butyricicoccaceae.Butyricicoccus'
p465
(lp466
F117.67474699929394
aF0.0
aF0.0
aF0.0
aF0.0
aF0.0
aF286.1581228027144
aF0.0
aF454.3834640057021
aF104.2179861295335
aF300.8678554478269
aF112.79506162712005
aF446.42857142857133
aF0.0
aF0.0
asS'Bacteria.Firmicutes.Clostridia.Peptostreptococcales_Tissierellales.Anaerovoracaceae.Family_XIII_AD3011_group'
p467
(lp468
F346.8308332610769
aF1826.3344837141344
aF0.0
aF0.0
aF0.0
aF0.0
aF0.0
aF0.0
aF712.7583749109052
aF388.4488573918976
aF343.24360973625323
aF994.6473616209677
aF0.0
aF137.14237488395648
aF0.0
asS'Bacteria.Proteobacteria.Alphaproteobacteria.Rhizobiales.Beijerinckiaceae'
p469
(lp470
F0.0
aF0.0
aF0.0
aF0.0
aF0.0
aF0.0
aF0.0
aF0.0
aF0.0
aF0.0
aF0.0
aF61.52457906933821
aF310.230024213075
aF0.0
aF0.0
asS'Bacteria.Bacteroidota.Bacteroidia.Bacteroidales.Bacteroidaceae.Bacteroides'
p471
(lp472
F4700.796472234953
aF4194.2716074262535
aF202.65184413178162
aF0.0
aF32376.252430088236
aF0.0
aF183.95879323031642
aF0.0
aF9542.052744119745
aF1108.5003979232201
aF33290.39256898772
aF2625.04870695843
aF446.42857142857133
aF0.0
aF0.0
asS'Bacteria.Firmicutes.Clostridia.Christensenellales.Christensenellaceae'
p473
(lp474
F1635.0596425165054
aF3136.257147895307
aF2547.623183370969
aF41536.863966770514
aF30133.09406310753
aF3719.8770823224977
aF3863.1346578366447
aF0.0
aF1211.6892373485389
aF1743.2826770758331
aF682.2496440436638
aF4511.802465084802
aF575.0605326876512
aF2036.0367963541228
aF167275.75169493663
asS'Bacteria.Actinobacteriota.Actinobacteria.Corynebacteriales.Corynebacteriaceae.Corynebacterium'
p475
(lp476
F0.0
aF0.0
aF0.0
aF5919.003115264798
aF0.0
aF0.0
aF0.0
aF0.0
aF0.0
aF0.0
aF0.0
aF0.0
aF0.0
aF0.0
aF0.0
asS'Bacteria.Actinobacteriota.Actinobacteria.Micrococcales.Intrasporangiaceae'
p477
(lp478
F0.0
aF0.0
aF0.0
aF0.0
aF0.0
aF0.0
aF0.0
aF0.0
aF0.0
aF28.42308712623641
aF0.0
aF0.0
aF0.0
aF0.0
aF0.0
asS'Bacteria.Firmicutes.Clostridia.Clostridiales'
p479
(lp480
F371.6044642082967
aF100.76328186009019
aF0.0
aF402284.5275181724
aF18842.53028263796
aF16982.04754973314
aF659390.0744011119
aF12651.69119545572
aF35.637918745545264
aF7437.374464698527
aF1491.6265509526065
aF60519.67761120568
aF432907.0823244551
aF235220.27175289058
aF11845.653653249994
asS'Bacteria.Proteobacteria.Gammaproteobacteria.Burkholderiales.Comamonadaceae.Delftia'
p481
(lp482
F315.8637945770522
aF1914.5023553417136
aF1708.0655433964453
aF1557.632398753894
aF45984.74652310454
aF3558.1432961345627
aF5641.40299239637
aF0.0
aF0.0
aF0.0
aF0.0
aF0.0
aF385.89588377723965
aF0.0
aF6502.5077500819125
asS'Bacteria.Firmicutes.Bacilli.Lactobacillales'
p483
(lp484
F55307.13108966816
aF5718.316245560118
aF43280.643853859074
aF32710.28037383177
aF16449.828024525206
aF1779.0716480672813
aF4823.808355817186
aF0.0
aF8579.828937990022
aF61858.11194906584
aF82916.6384161638
aF666.5162732511639
aF18908.898305084742
aF48801.58663178328
aF82995.18612798347
asS'Bacteria.Acidobacteriota.Blastocatellia'
p485
(lp486
F0.0
aF0.0
aF0.0
aF0.0
aF0.0
aF0.0
aF0.0
aF0.0
aF0.0
aF0.0
aF0.0
aF0.0
aF0.0
aF0.0
aF378.0527761675531
asS'Bacteria.Actinobacteriota.Actinobacteria'
p487
(lp488
F0.0
aF0.0
aF4603.091888136182
aF13603.32294911734
aF10468.072379243311
aF4609.412906356139
aF163.5189273158368
aF0.0
aF0.0
aF28.42308712623641
aF3343.447013356837
aF19185.41457312196
aF10797.518159806294
aF5992.066841083636
aF3326.864430274467
asS'Bacteria.Firmicutes.Clostridia.Peptostreptococcales_Tissierellales.Anaerovoracaceae._Eubacterium__brachy_group'
p489
(lp490
F0.0
aF0.0
aF0.0
aF0.0
aF0.0
aF1293.8702895034774
aF0.0
aF0.0
aF115.8232359230221
aF0.0
aF0.0
aF0.0
aF143.7651331719128
aF242.63650941007683
aF0.0
asS'Bacteria.Gemmatimonadota.Gemmatimonadetes'
p491
(lp492
F0.0
aF0.0
aF0.0
aF0.0
aF0.0
aF0.0
aF0.0
aF2840.1755744900597
aF0.0
aF0.0
aF0.0
aF0.0
aF0.0
aF0.0
aF0.0
asS'Bacteria.Actinobacteriota.Coriobacteriia.Coriobacteriales.Atopobiaceae.uncultured'
p493
(lp494
F0.0
aF0.0
aF0.0
aF0.0
aF0.0
aF0.0
aF531.4365137764696
aF0.0
aF0.0
aF0.0
aF0.0
aF123.04915813867642
aF0.0
aF0.0
aF0.0
asS'Bacteria.Bacteroidota.Bacteroidia.Flavobacteriales.Weeksellaceae.Chryseobacterium'
p495
(lp496
F0.0
aF0.0
aF0.0
aF0.0
aF0.0
aF0.0
aF1246.8318207832558
aF0.0
aF0.0
aF0.0
aF0.0
aF0.0
aF0.0
aF0.0
aF0.0
asS'Bacteria.Firmicutes.Clostridia.uncultured.uncultured'
p497
(lp498
F0.0
aF390.45771720784944
aF0.0
aF0.0
aF0.0
aF0.0
aF0.0
aF0.0
aF0.0
aF0.0
aF0.0
aF0.0
aF0.0
aF0.0
aF0.0
asS'Bacteria.Firmicutes.Clostridia.Oscillospirales.Ruminococcaceae'
p499
(lp500
F10918.977839987117
aF9585.107186941077
aF1244.861328238087
aF0.0
aF0.0
aF1617.337861879347
aF245.2783909737552
aF10586.10895946295
aF36911.97434069851
aF60891.7269867738
aF4822.360838022916
aF1968.7865302188227
aF529.6610169491524
aF907.2495569246352
aF352.8492577563828
asS'Bacteria.Bacteroidota.Bacteroidia.Flavobacteriales.Weeksellaceae'
p501
(lp502
F0.0
aF0.0
aF0.0
aF0.0
aF0.0
aF0.0
aF1246.8318207832558
aF0.0
aF0.0
aF0.0
aF0.0
aF0.0
aF0.0
aF0.0
aF0.0
asS'Bacteria.Firmicutes.Clostridia.Lachnospirales.Lachnospiraceae.Dorea'
p503
(lp504
F0.0
aF0.0
aF0.0
aF0.0
aF2916.105877074922
aF0.0
aF0.0
aF0.0
aF0.0
aF0.0
aF0.0
aF0.0
aF0.0
aF0.0
aF0.0
asS'Bacteria.Firmicutes.Clostridia.Oscillospirales.Ruminococcaceae.uncultured'
p505
(lp506
F2972.8357136663735
aF390.45771720784944
aF434.2539517109606
aF0.0
aF0.0
aF0.0
aF0.0
aF0.0
aF1425.5167498218104
aF511.6155682722554
aF0.0
aF82.03277209245094
aF0.0
aF0.0
aF882.123144390957
asS'Bacteria.Firmicutes.Clostridia.Oscillospirales.Oscillospiraceae.Oscillibacter'
p507
(lp508
F6143.860474910505
aF466.0301786029171
aF0.0
aF0.0
aF0.0
aF0.0
aF0.0
aF0.0
aF14228.439059158945
aF2965.475423503999
aF508.5090514611159
aF410.1638604622547
aF121.06537530266341
aF833.4036627563507
aF831.7161075686167
asS'Bacteria.Firmicutes.Clostridia.Lachnospirales.Lachnospiraceae.Coprococcus'
p509
(lp510
F359.2176487346868
aF0.0
aF0.0
aF0.0
aF0.0
aF0.0
aF0.0
aF0.0
aF0.0
aF0.0
aF0.0
aF0.0
aF0.0
aF0.0
aF7384.63089447287
asS'Bacteria.Patescibacteria.Saccharimonadia.Saccharimonadales.Saccharimonadaceae.Candidatus_Saccharimonas'
p511
(lp512
F1486.4178568331868
aF1234.3502027861048
aF9843.089572115108
aF3738.3177570093458
aF15253.476895468824
aF32508.49102377487
aF551.8763796909492
aF12651.69119545572
aF507.8403421240199
aF1288.5132830560508
aF1178.0459692182517
aF3804.269805787412
aF5614.406779661015
aF15349.396573550512
aF6351.286639614891
asS'Bacteria.Proteobacteria.Alphaproteobacteria.Rhizobiales.Beijerinckiaceae.Methylobacterium_Methylorubrum'
p513
(lp514
F0.0
aF0.0
aF0.0
aF0.0
aF0.0
aF0.0
aF0.0
aF0.0
aF0.0
aF0.0
aF0.0
aF61.52457906933821
aF310.230024213075
aF0.0
aF0.0
asS'Bacteria.Firmicutes.Clostridia.Lachnospirales.Lachnospiraceae.Lachnospiraceae_FCS020_group'
p515
(lp516
F253.92971720900275
aF743.1292037181651
aF0.0
aF0.0
aF0.0
aF0.0
aF0.0
aF0.0
aF0.0
aF407.3975821427219
aF0.0
aF0.0
aF0.0
aF0.0
aF0.0
asS'Bacteria.Firmicutes.Clostridia.Lachnospirales.Lachnospiraceae'
p517
(lp518
F34689.2767338445
aF26085.094591530844
aF34161.3108679289
aF10176.531671858775
aF25871.093165844184
aF69788.12874009382
aF5743.602321968768
aF50864.96256132198
aF163275.1247327156
aF67192.17796642288
aF16242.626618753811
aF7567.5232255286
aF19226.694915254233
aF24137.05797957634
aF46374.47387655317
asS'Bacteria.Firmicutes.Bacilli.Erysipelotrichales.Erysipelatoclostridiaceae.Erysipelatoclostridium'
p519
(lp520
F780.369374837423
aF0.0
aF0.0
aF0.0
aF747.7194556602365
aF1213.00339640951
aF0.0
aF0.0
aF445.4739843193158
aF0.0
aF0.0
aF0.0
aF0.0
aF0.0
aF6401.693676437231
asS'Bacteria.Proteobacteria.Gammaproteobacteria.Burkholderiales.Burkholderiaceae.Burkholderia_Caballeronia_Paraburkholderia'
p521
(lp522
F247.73630947219777
aF982.4419981358792
aF1968.6179144230216
aF4776.739356178608
aF13010.318528488115
aF1617.337861879347
aF4169.732646553839
aF0.0
aF106.91375623663578
aF378.9744950164855
aF241.54179944403006
aF1538.1144767334551
aF4517.251815980629
aF2278.6733057642
aF12626.96272399627
asS'Bacteria.Patescibacteria.Saccharimonadia'
p523
(lp524
F1486.4178568331868
aF1234.3502027861048
aF9843.089572115108
aF3738.3177570093458
aF15253.476895468824
aF32508.49102377487
aF551.8763796909492
aF12651.69119545572
aF507.8403421240199
aF1288.5132830560508
aF1178.0459692182517
aF3804.269805787412
aF5614.406779661015
aF15349.396573550512
aF6351.286639614891
asS'Bacteria.Firmicutes.Clostridia.Peptostreptococcales_Tissierellales.Peptostreptococcaceae'
p525
(lp526
F1833.2486900942636
aF856.4878958107665
aF22320.653117943377
aF168120.45690550364
aF17048.00358905339
aF17871.58337376678
aF56168.75153298995
aF8262.328943971082
aF285.1033499643621
aF20426.725281388568
aF1343.3114109431147
aF14929.964520826072
aF150673.42615012103
aF211747.82682082878
aF9829.37218035638
asS'Bacteria.Firmicutes.Bacilli.Erysipelotrichales.Erysipelotrichaceae.Holdemania'
p527
(lp528
F0.0
aF0.0
aF0.0
aF0.0
aF0.0
aF1213.00339640951
aF0.0
aF0.0
aF0.0
aF0.0
aF182.21574344023318
aF0.0
aF0.0
aF0.0
aF0.0
asS'Bacteria.Firmicutes.Clostridia.Oscillospirales._Eubacterium__coprostanoligenes_group'
p529
(lp530
F13272.472779972997
aF22507.998085497646
aF57987.37768513694
aF10072.689511941848
aF4635.860625093466
aF13262.170467410644
aF2166.625786934838
aF69971.5982442551
aF4133.99857448325
aF86879.9029825293
aF21531.120753949417
aF37612.026004388754
aF116086.56174334139
aF136277.3229808423
aF2923.6081356957434
asS'Bacteria.Firmicutes.Clostridia.Peptococcales.Peptococcaceae.uncultured'
p531
(lp532
F780.369374837423
aF579.3888706955186
aF434.2539517109606
aF0.0
aF0.0
aF0.0
aF0.0
aF0.0
aF3537.0634354953672
aF4443.475954068292
aF7055.563089022982
aF153.81144767334553
aF242.13075060532682
aF210.98826905224072
aF226.83166570053183
asS'Bacteria.Proteobacteria.Gammaproteobacteria.Burkholderiales.Oxalobacteraceae'
p533
(lp534
F0.0
aF0.0
aF434.2539517109606
aF0.0
aF0.0
aF0.0
aF429.2371842040716
aF13168.086754453912
aF0.0
aF0.0
aF0.0
aF0.0
aF0.0
aF0.0
aF655.2914786904253
asS'Bacteria.Proteobacteria.Gammaproteobacteria.Burkholderiales.Sutterellaceae'
p535
(lp536
F4180.550222343338
aF1725.5712018540444
aF0.0
aF0.0
aF2841.333931508899
aF0.0
aF0.0
aF0.0
aF1666.072701354241
aF1629.5903285708876
aF4068.0724116889273
aF1066.4260372018623
aF0.0
aF0.0
aF579.6809234569147
asS'Bacteria.Deferribacterota.Deferribacteres'
p537
(lp538
F0.0
aF125.95410232511271
aF0.0
aF0.0
aF0.0
aF0.0
aF0.0
aF0.0
aF677.12045616536
aF0.0
aF0.0
aF0.0
aF0.0
aF0.0
aF0.0
asS'Bacteria.Proteobacteria.Alphaproteobacteria.Caulobacterales'
p539
(lp540
F0.0
aF0.0
aF0.0
aF0.0
aF972.0352923583074
aF0.0
aF633.6358433488676
aF0.0
aF0.0
aF0.0
aF0.0
aF0.0
aF0.0
aF0.0
aF0.0
asS'Bacteria.Cyanobacteria.Cyanobacteriia'
p541
(lp542
F0.0
aF0.0
aF0.0
aF0.0
aF0.0
aF0.0
aF0.0
aF0.0
aF0.0
aF0.0
aF0.0
aF0.0
aF0.0
aF0.0
aF352.8492577563828
asS'Bacteria.Bacteroidota.Bacteroidia.Bacteroidales.Muribaculaceae'
p543
(lp544
F384053.21375927463
aF446759.20094717486
aF333014.880435412
aF1973.001038421599
aF164722.5960819501
aF30405.95180333172
aF19581.39154607146
aF568293.312677511
aF391482.5374198147
aF332190.09360670036
aF390933.2836124482
aF375289.6782264515
aF32210.95641646488
aF45320.280192421305
aF47180.986465710615
asS'Bacteria.Firmicutes.Clostridia.Lachnospirales.Lachnospiraceae.Blautia'
p545
(lp546
F464.5055802603709
aF466.0301786029171
aF694.806322737537
aF3322.949117341641
aF55555.55555555556
aF18356.784732330583
aF0.0
aF0.0
aF0.0
aF0.0
aF406.80724116889274
aF256.3524127889092
aF75.66585956416463
aF632.9648071567221
aF3830.934798497871
asS'Bacteria.Patescibacteria.Saccharimonadia.Saccharimonadales'
p547
(lp548
F1486.4178568331868
aF1234.3502027861048
aF9843.089572115108
aF3738.3177570093458
aF15253.476895468824
aF32508.49102377487
aF551.8763796909492
aF12651.69119545572
aF507.8403421240199
aF1288.5132830560508
aF1178.0459692182517
aF3804.269805787412
aF5614.406779661015
aF15349.396573550512
aF6351.286639614891
asS'Bacteria.Cyanobacteria'
p549
(lp550
F501.66602668120055
aF188.9311534876691
aF0.0
aF519.2107995846313
aF0.0
aF0.0
aF0.0
aF0.0
aF294.0128296507484
aF0.0
aF745.8132754763033
aF287.1147023235783
aF0.0
aF0.0
aF2545.555359528191
asS'Bacteria.Bacteroidota.Bacteroidia.Bacteroidales.Prevotellaceae.Prevotella'
p551
(lp552
F0.0
aF226.71738418520292
aF0.0
aF0.0
aF0.0
aF0.0
aF0.0
aF0.0
aF0.0
aF0.0
aF0.0
aF0.0
aF0.0
aF0.0
aF0.0
asS'Bacteria.Firmicutes.Clostridia.Oscillospirales.Ruminococcaceae.Subdoligranulum'
p553
(lp554
F650.3078123645192
aF0.0
aF0.0
aF0.0
aF8299.685957828626
aF38411.774219634484
aF0.0
aF0.0
aF0.0
aF0.0
aF0.0
aF0.0
aF0.0
aF179.34002869440462
aF3478.085540741488
asS'Bacteria.Firmicutes.Bacilli.Staphylococcales.Staphylococcaceae'
p555
(lp556
F0.0
aF0.0
aF0.0
aF5711.318795430945
aF0.0
aF1617.337861879347
aF0.0
aF0.0
aF0.0
aF0.0
aF25.425452573055797
aF0.0
aF113.49878934624695
aF0.0
aF1360.989994203191
asS'Bacteria.Firmicutes.Clostridia.uncultured'
p557
(lp558
F0.0
aF390.45771720784944
aF0.0
aF0.0
aF0.0
aF0.0
aF0.0
aF0.0
aF0.0
aF0.0
aF0.0
aF0.0
aF0.0
aF0.0
aF0.0
asS'Bacteria.Firmicutes.Clostridia.Eubacteriales.Anaerofustaceae.Anaerofustis'
p559
(lp560
F111.481339262489
aF365.26689674282693
aF1186.9608013432924
aF0.0
aF0.0
aF404.33446546983674
aF0.0
aF0.0
aF0.0
aF75.7948990032971
aF0.0
aF328.13108836980376
aF75.66585956416463
aF189.88944214701664
aF0.0
asS'Bacteria.Firmicutes.Clostridia.Oscillospirales.Ruminococcaceae.Harryflintia'
p561
(lp562
F0.0
aF0.0
aF0.0
aF0.0
aF0.0
aF0.0
aF0.0
aF0.0
aF1202.7797576621526
aF0.0
aF0.0
aF0.0
aF0.0
aF0.0
aF0.0
asS'Bacteria.Actinobacteriota.Actinobacteria.Micrococcales.Micrococcaceae'
p563
(lp564
F0.0
aF0.0
aF0.0
aF0.0
aF0.0
aF0.0
aF0.0
aF0.0
aF0.0
aF0.0
aF72.03878229032475
aF0.0
aF340.4963680387408
aF0.0
aF1814.6533256042546
asS'Bacteria.Actinobacteriota.Actinobacteria.Corynebacteriales.Corynebacteriaceae'
p565
(lp566
F0.0
aF0.0
aF0.0
aF5919.003115264798
aF0.0
aF0.0
aF0.0
aF0.0
aF0.0
aF0.0
aF0.0
aF0.0
aF0.0
aF0.0
aF0.0
asS'Bacteria.Actinobacteriota.Coriobacteriia.Coriobacteriales.Eggerthellaceae.Adlercreutzia'
p567
(lp568
F0.0
aF0.0
aF781.6571130797291
aF5503.634475597092
aF3289.96560490504
aF4447.679120168204
aF4517.210367099991
aF0.0
aF400.9265858873842
aF824.269526660856
aF203.40362058444637
aF1353.5407395254406
aF620.46004842615
aF1983.2897290910626
aF8493.585704564359
asS'Bacteria.Firmicutes.Bacilli.Acholeplasmatales.Acholeplasmataceae'
p569
(lp570
F371.6044642082967
aF0.0
aF0.0
aF0.0
aF299.0877822640946
aF0.0
aF61.3195977434388
aF0.0
aF365.2886671418389
aF104.2179861295335
aF29.66302800189843
aF0.0
aF0.0
aF0.0
aF0.0
asS'Bacteria.Firmicutes.Clostridia.Oscillospirales.Oscillospiraceae'
p571
(lp572
F21689.313894290917
aF19333.954706904802
aF6369.057958427423
aF3738.3177570093458
aF672.9475100942128
aF23532.265890344497
aF1144.6324912108576
aF14200.877872450299
aF63310.762651461155
aF27750.40739758215
aF8623.465997694757
aF8162.260823198869
aF855.0242130750603
aF1772.3014600388221
aF7989.515336340954
asS'Bacteria.Firmicutes.Clostridia.Christensenellales.Christensenellaceae.uncultured'
p573
(lp574
F0.0
aF0.0
aF0.0
aF0.0
aF0.0
aF0.0
aF0.0
aF0.0
aF0.0
aF0.0
aF0.0
aF164.06554418490188
aF0.0
aF0.0
aF0.0
asS'Bacteria.Firmicutes.Clostridia.Oscillospirales.Oscillospiraceae.UCG_005'
p575
(lp576
F45707.34909762049
aF5453.812630677382
aF1679.1152799490478
aF4153.686396677051
aF7103.3348287722465
aF171033.47889374092
aF0.0
aF0.0
aF1701.7106200997862
aF2217.0007958464403
aF1000.0678012068613
aF738.2949488320585
aF991.2227602905566
aF2394.716853742932
aF2243.113138594148
asS'Bacteria'
p577
(lp578
F998600.2898514821
aF1000000.0
aF1000000.0
aF1000000.0
aF1000000.0
aF1000000.0
aF1000000.0
aF1000000.0
aF1000000.0
aF1000000.0
aF1000000.0
aF1000000.0
aF998176.4527845036
aF1000000.0
aF1000000.0
assS'subclass_sl'
p579
(dp580
g12
(I0
I8
tp581
sg10
(I8
I15
tp582
ssS'norm'
p583
F1000000.0
sS'cls'
p584
(dp585
S'class'
p586
(S'HSD-NC'
p587
S'HSD-NC'
p588
S'HSD-NC'
p589
S'HSD-NC'
p590
S'HSD-NC'
p591
S'HSD-NC'
p592
S'HSD-NC'
p593
g5
S'STD-NC'
p594
S'STD-NC'
p595
S'STD-NC'
p596
S'STD-NC'
p597
S'STD-NC'
p598
S'STD-NC'
p599
g3
tp600
sS'subclass'
p601
(lp602
S'HSD-NC_subcl'
p603
aS'HSD-NC_subcl'
p604
aS'HSD-NC_subcl'
p605
aS'HSD-NC_subcl'
p606
aS'HSD-NC_subcl'
p607
aS'HSD-NC_subcl'
p608
aS'HSD-NC_subcl'
p609
ag12
aS'STD-NC_subcl'
p610
aS'STD-NC_subcl'
p611
aS'STD-NC_subcl'
p612
aS'STD-NC_subcl'
p613
aS'STD-NC_subcl'
p614
aS'STD-NC_subcl'
p615
ag10
asS'subject'
p616
(S'S210421121695'
p617
S'S210421121696'
p618
S'S210421121697'
p619
S'S210421121698'
p620
S'S210421121699'
p621
S'S210421121700'
p622
S'S210421121701'
p623
S'S210421121702'
p624
S'S210421121682'
p625
S'S210421121683'
p626
S'S210421121684'
p627
S'S210421121688'
p628
S'S210421121689'
p629
S'S210421121690'
p630
S'S210421121694'
p631
tp632
ss.