(dp0
S'class_sl'
p1
(dp2
S'STD-NC'
p3
(I8
I15
tp4
sS'HSD-NC'
p5
(I0
I8
tp6
ssS'class_hierarchy'
p7
(dp8
g3
(lp9
S'STD-NC_subcl'
p10
asg5
(lp11
S'HSD-NC_subcl'
p12
assS'feats'
p13
(dp14
S'Bacteria.Chloroflexi'
p15
(lp16
F89.86730627397753
aF0.0
aF0.0
aF0.0
aF0.0
aF0.0
aF0.0
aF0.0
aF0.0
aF0.0
aF0.0
aF0.0
aF0.0
aF0.0
aF0.0
asS'Bacteria.Desulfobacterota'
p17
(lp18
F914.1674258904611
aF0.0
aF0.0
aF934.5794392523364
aF2317.9303125467327
aF0.0
aF0.0
aF0.0
aF0.0
aF0.0
aF0.0
aF0.0
aF0.0
aF0.0
aF0.0
asS'Bacteria.Actinobacteriota'
p19
(lp20
F390.4579513972817
aF529.0072297654734
aF4429.390307451797
aF13811.007268951194
aF12786.00269179004
aF11766.132945172247
aF9688.496443463333
aF1678.2855667441263
aF289.5580898075553
aF1065.8657672338652
aF1773.4253169706421
aF13704.599987695085
aF7077.427587956635
aF6350.746898472444
aF21322.176575849986
asS'Eukaryota'
p21
(lp22
F700.3452144109973
aF0.0
aF0.0
aF0.0
aF0.0
aF0.0
aF0.0
aF0.0
aF0.0
aF0.0
aF0.0
aF0.0
aF912.6056975374793
aF0.0
aF0.0
asS'Bacteria.Gemmatimonadota'
p23
(lp24
F0.0
aF0.0
aF0.0
aF0.0
aF0.0
aF0.0
aF0.0
aF1420.0877872450299
aF0.0
aF0.0
aF0.0
aF0.0
aF0.0
aF0.0
aF0.0
asS'Bacteria'
p25
(lp26
F499649.8273927946
aF499999.99999999994
aF500000.0
aF500000.0
aF500000.0
aF500000.0
aF500000.0
aF500000.00000000006
aF500000.00000000006
aF500000.0
aF500000.0
aF500000.0
aF499543.6971512313
aF499999.9999999999
aF500000.0
asS'Bacteria.Cyanobacteria'
p27
(lp28
F251.00868304110966
aF94.46557674383455
aF0.0
aF259.60539979231567
aF0.0
aF0.0
aF0.0
aF0.0
aF147.0064148253742
aF0.0
aF372.90663773815174
aF143.55735116178911
aF0.0
aF0.0
aF1272.7776797640952
asS'Bacteria.Firmicutes'
p29
(lp30
F236642.3095277938
aF151655.036904552
aF286433.90654854954
aF470716.5109034268
aF307387.46822192316
aF426936.7620896005
aF454081.8412231216
aF185515.10457010072
aF249875.2672843906
aF305875.05210899306
aF117499.49149094854
aF239592.09204077028
aF464732.1445476543
aF450660.39328213345
aF427010.6106812511
asS'Bacteria.Bacteroidota'
p31
(lp32
F253555.9563430824
aF300973.6252109731
aF183544.6702564993
aF986.5005192107996
aF104194.70614625393
aF16456.41274462235
aF11057.967459733467
aF284146.6563387555
aF247465.25302922312
aF183873.68780081102
aF358388.70431893686
aF195545.6204753799
aF17294.06730561688
aF22792.007764368296
aF26085.641555561157
asS'Bacteria.Campilobacterota'
p33
(lp34
F0.0
aF0.0
aF0.0
aF0.0
aF0.0
aF0.0
aF0.0
aF0.0
aF0.0
aF33.16026831394247
aF0.0
aF0.0
aF0.0
aF0.0
aF163.8228696726063
asS'Bacteria.Proteobacteria'
p35
(lp36
F3709.350538274176
aF4767.362773005517
aF8366.626136297838
aF11422.63759086189
aF65238.52250635562
aF17992.88371340773
aF12682.936799934594
aF15879.163439194424
aF1336.4219529579475
aF2624.3983779891614
aF2578.5646484507424
aF3353.089559278932
aF5884.602713581921
aF7025.909359439614
aF20780.300930009827
asS'Bacteria.Acidobacteriota'
p37
(lp38
F0.0
aF0.0
aF0.0
aF0.0
aF0.0
aF0.0
aF0.0
aF0.0
aF0.0
aF0.0
aF0.0
aF0.0
aF0.0
aF0.0
aF189.0263880837765
asS'Bacteria.Deferribacterota'
p39
(lp40
F0.0
aF62.97705116255636
aF0.0
aF0.0
aF0.0
aF0.0
aF0.0
aF0.0
aF338.56022808268
aF0.0
aF0.0
aF0.0
aF0.0
aF0.0
aF0.0
asS'Bacteria.Verrucomicrobiota'
p41
(lp42
F3352.980185808403
aF41300.35015240446
aF12303.86196514388
aF0.0
aF448.63167339614176
aF10593.562995309721
aF12212.819883901562
aF5034.856700232379
aF294.0128296507484
aF5883.579035130935
aF18797.88460234592
aF45758.90568282029
aF1745.6897367833112
aF5496.24440881087
aF0.0
asS'Bacteria.Patescibacteria'
p43
(lp44
F743.7294312329175
aF617.1751013930524
aF4921.544786057552
aF1869.1588785046729
aF7626.73844773441
aF16254.245511887431
aF275.93818984547465
aF6325.84559772786
aF253.92017106201
aF644.2566415280252
aF589.0229846091261
aF1902.1349028937059
aF2809.7652596382145
aF7674.698286775253
aF3175.643319807445
assS'subclass_sl'
p45
(dp46
g12
(I0
I8
tp47
sg10
(I8
I15
tp48
ssS'norm'
p49
F1000000.0
sS'cls'
p50
(dp51
S'class'
p52
(S'HSD-NC'
p53
S'HSD-NC'
p54
S'HSD-NC'
p55
S'HSD-NC'
p56
S'HSD-NC'
p57
S'HSD-NC'
p58
S'HSD-NC'
p59
g5
S'STD-NC'
p60
S'STD-NC'
p61
S'STD-NC'
p62
S'STD-NC'
p63
S'STD-NC'
p64
S'STD-NC'
p65
g3
tp66
sS'subclass'
p67
(lp68
S'HSD-NC_subcl'
p69
aS'HSD-NC_subcl'
p70
aS'HSD-NC_subcl'
p71
aS'HSD-NC_subcl'
p72
aS'HSD-NC_subcl'
p73
aS'HSD-NC_subcl'
p74
aS'HSD-NC_subcl'
p75
ag12
aS'STD-NC_subcl'
p76
aS'STD-NC_subcl'
p77
aS'STD-NC_subcl'
p78
aS'STD-NC_subcl'
p79
aS'STD-NC_subcl'
p80
aS'STD-NC_subcl'
p81
ag10
asS'subject'
p82
(S'S210421121695'
p83
S'S210421121696'
p84
S'S210421121697'
p85
S'S210421121698'
p86
S'S210421121699'
p87
S'S210421121700'
p88
S'S210421121701'
p89
S'S210421121702'
p90
S'S210421121682'
p91
S'S210421121683'
p92
S'S210421121684'
p93
S'S210421121688'
p94
S'S210421121689'
p95
S'S210421121690'
p96
S'S210421121694'
p97
tp98
ss.