(dp0
S'class_sl'
p1
(dp2
S'STD-NC'
p3
(I8
I15
tp4
sS'HSD-NC'
p5
(I0
I8
tp6
ssS'class_hierarchy'
p7
(dp8
g3
(lp9
S'STD-NC_subcl'
p10
asg5
(lp11
S'HSD-NC_subcl'
p12
assS'feats'
p13
(dp14
S'Bacteria.Firmicutes.Bacilli.Acholeplasmatales'
p15
(lp16
F371.60446420829675
aF0.0
aF0.0
aF0.0
aF299.0877822640946
aF0.0
aF61.319597743438784
aF0.0
aF365.28866714183897
aF104.21798612953349
aF29.663028001898436
aF0.0
aF0.0
aF0.0
aF0.0
asS'Bacteria.Firmicutes.Clostridia.Peptostreptococcales_Tissierellales.Anaerovoracaceae'
p17
(lp18
F1083.8463539408656
aF3325.188301382975
aF1852.8168606334316
aF0.0
aF0.0
aF1293.8702895034774
aF204.39865914479597
aF0.0
aF2859.942979330008
aF2378.0649562284457
aF1122.957488643298
aF1968.7865302188225
aF340.4963680387409
aF379.7788842940333
aF0.0
asS'Eukaryota'
p19
(lp20
F1399.7101485179178
aF0.0
aF0.0
aF0.0
aF0.0
aF0.0
aF0.0
aF0.0
aF0.0
aF0.0
aF0.0
aF0.0
aF1823.547215496368
aF0.0
aF0.0
asS'Bacteria.Actinobacteriota.Actinobacteria.Bifidobacteriales'
p21
(lp22
F0.0
aF0.0
aF4603.091888136182
aF7684.319833852543
aF10468.072379243311
aF4609.412906356138
aF163.51892731583678
aF0.0
aF0.0
aF0.0
aF3271.408231066513
aF19185.41457312196
aF10457.021791767555
aF5992.066841083636
aF1512.211104670212
asS'Bacteria.Firmicutes.Bacilli.RF39'
p23
(lp24
F1690.8003121477502
aF8010.6809078771685
aF19715.129407677607
aF4257.528556593977
aF27067.44429490056
aF12210.900857189066
aF2084.866323276919
aF2840.1755744900597
aF1033.4996436208128
aF1373.7825444347595
aF1279.747779510475
aF3599.187875556285
aF1566.2832929782082
aF1793.400286944046
aF19356.302139778712
asS'Bacteria.Firmicutes.Bacilli.Lactobacillales.Streptococcaceae'
p25
(lp26
F0.0
aF503.81640930045074
aF0.0
aF4049.8442367601237
aF4262.000897263348
aF0.0
aF2207.5055187637963
aF0.0
aF0.0
aF0.0
aF203.4036205844464
aF0.0
aF158.89830508474574
aF0.0
aF5015.50016382287
asS'Bacteria.Proteobacteria.Gammaproteobacteria'
p27
(lp28
F7165.772751483322
aF9534.725546011032
aF16733.25227259568
aF21910.69574247144
aF123373.71018393901
aF35338.83228206372
aF23444.526203908095
aF31758.326878388845
aF2539.2017106201
aF5248.796755978324
aF4826.59841345176
aF6644.654539488526
aF11448.244552058111
aF13735.33631530087
aF40980.92093656275
asS'Bacteria.Proteobacteria.Alphaproteobacteria.Rhodospirillales'
p29
(lp30
F0.0
aF0.0
aF0.0
aF0.0
aF0.0
aF0.0
aF0.0
aF0.0
aF133.64219529579475
aF0.0
aF330.5308834497254
aF0.0
aF0.0
aF0.0
aF0.0
asS'Bacteria.Proteobacteria.Gammaproteobacteria.Pasteurellales'
p31
(lp32
F222.96267852497803
aF0.0
aF0.0
aF0.0
aF672.9475100942128
aF1374.7371825974446
aF0.0
aF0.0
aF356.3791874554527
aF824.2695266608557
aF0.0
aF0.0
aF0.0
aF0.0
aF1789.449807193084
asS'Bacteria.Bacteroidota'
p33
(lp34
F506757.00784085423
aF601947.250421946
aF367089.34051299863
aF1973.0010384215987
aF208389.41229250788
aF32912.82548924471
aF22115.934919466923
aF568293.3126775109
aF494930.5060584463
aF367747.37560162204
aF716777.4086378736
aF391091.2409507599
aF34556.59806295399
aF45584.01552873661
aF52171.28311112231
asS'Bacteria.Bacteroidota.Bacteroidia.Bacteroidales.Rikenellaceae'
p35
(lp36
F9767.004000941399
aF2657.631559059878
aF0.0
aF0.0
aF0.0
aF0.0
aF204.39865914479597
aF0.0
aF8517.462580185318
aF3666.5782392844962
aF11755.034239609466
aF3291.564980209594
aF98.36561743341404
aF0.0
aF0.0
asS'Bacteria.Acidobacteriota'
p37
(lp38
F0.0
aF0.0
aF0.0
aF0.0
aF0.0
aF0.0
aF0.0
aF0.0
aF0.0
aF0.0
aF0.0
aF0.0
aF0.0
aF0.0
aF378.052776167553
asS'Bacteria.Firmicutes.Bacilli.Lactobacillales.Aerococcaceae'
p39
(lp40
F0.0
aF0.0
aF0.0
aF1246.105919003115
aF822.49140122626
aF0.0
aF0.0
aF0.0
aF0.0
aF0.0
aF0.0
aF0.0
aF0.0
aF0.0
aF0.0
asS'Bacteria.Firmicutes.Clostridia.Clostridiales'
p41
(lp42
F371.60446420829675
aF100.76328186009016
aF0.0
aF402284.5275181723
aF18842.53028263796
aF16982.04754973314
aF659390.0744011118
aF12651.691195455718
aF35.63791874554527
aF7437.374464698525
aF1491.626550952607
aF60519.677611205676
aF432907.0823244552
aF235220.27175289058
aF11845.653653249994
asS'Bacteria.Acidobacteriota.Blastocatellia.Blastocatellales.Blastocatellaceae'
p43
(lp44
F0.0
aF0.0
aF0.0
aF0.0
aF0.0
aF0.0
aF0.0
aF0.0
aF0.0
aF0.0
aF0.0
aF0.0
aF0.0
aF0.0
aF378.052776167553
asS'Bacteria.Cyanobacteria.Cyanobacteriia.Chloroplast.Chloroplast'
p45
(lp46
F0.0
aF0.0
aF0.0
aF0.0
aF0.0
aF0.0
aF0.0
aF0.0
aF0.0
aF0.0
aF0.0
aF0.0
aF0.0
aF0.0
aF352.84925775638277
asS'Bacteria.Proteobacteria'
p47
(lp48
F7413.509060955521
aF9534.725546011032
aF16733.25227259568
aF22845.275181723773
aF130477.04501271124
aF35985.76742681546
aF25365.873599869174
aF31758.326878388845
aF2672.8439059158954
aF5248.796755978324
aF5157.129296901486
aF6706.179118557864
aF11758.474576271186
aF14051.818718879233
aF41560.601860019655
asS'Bacteria.Bacteroidota.Bacteroidia'
p49
(lp50
F506757.00784085423
aF601947.250421946
aF367089.34051299863
aF1973.0010384215987
aF208389.41229250788
aF32912.82548924471
aF22115.934919466923
aF568293.3126775109
aF494930.5060584463
aF367747.37560162204
aF716777.4086378736
aF391091.2409507599
aF34556.59806295399
aF45584.01552873661
aF52171.28311112231
asS'Bacteria.Firmicutes.Bacilli.Bacillales'
p51
(lp52
F0.0
aF0.0
aF0.0
aF0.0
aF0.0
aF0.0
aF0.0
aF0.0
aF0.0
aF0.0
aF0.0
aF0.0
aF0.0
aF0.0
aF932.5301812132974
asS'Bacteria.Proteobacteria.Alphaproteobacteria.Rhizobiales.Rhizobiaceae'
p53
(lp54
F247.7363094721978
aF0.0
aF0.0
aF934.5794392523362
aF6131.299536413939
aF646.9351447517387
aF1287.7115526122145
aF0.0
aF0.0
aF0.0
aF0.0
aF0.0
aF0.0
aF221.53768250485277
aF0.0
asS'Bacteria.Desulfobacterota'
p55
(lp56
F1827.055282357459
aF0.0
aF0.0
aF1869.1588785046724
aF4635.860625093466
aF0.0
aF0.0
aF0.0
aF0.0
aF0.0
aF0.0
aF0.0
aF0.0
aF0.0
aF0.0
asS'Bacteria.Desulfobacterota.Desulfovibrionia'
p57
(lp58
F1827.055282357459
aF0.0
aF0.0
aF1869.1588785046724
aF4635.860625093466
aF0.0
aF0.0
aF0.0
aF0.0
aF0.0
aF0.0
aF0.0
aF0.0
aF0.0
aF0.0
asS'Bacteria.Chloroflexi.Chloroflexia.Chloroflexales'
p59
(lp60
F179.60882436734343
aF0.0
aF0.0
aF0.0
aF0.0
aF0.0
aF0.0
aF0.0
aF0.0
aF0.0
aF0.0
aF0.0
aF0.0
aF0.0
aF0.0
asS'Bacteria.Chloroflexi.Chloroflexia.Chloroflexales.Chloroflexaceae'
p61
(lp62
F179.60882436734343
aF0.0
aF0.0
aF0.0
aF0.0
aF0.0
aF0.0
aF0.0
aF0.0
aF0.0
aF0.0
aF0.0
aF0.0
aF0.0
aF0.0
asS'Bacteria.Cyanobacteria.Vampirivibrionia'
p63
(lp64
F501.6660266812006
aF188.93115348766904
aF0.0
aF519.2107995846312
aF0.0
aF0.0
aF0.0
aF0.0
aF294.0128296507485
aF0.0
aF745.8132754763035
aF287.11470232357823
aF0.0
aF0.0
aF2192.7061017718074
asS'Bacteria.Firmicutes.Bacilli.Staphylococcales.Staphylococcaceae'
p65
(lp66
F0.0
aF0.0
aF0.0
aF5711.318795430943
aF0.0
aF1617.3378618793467
aF0.0
aF0.0
aF0.0
aF0.0
aF25.4254525730558
aF0.0
aF113.49878934624698
aF0.0
aF1360.989994203191
asS'Bacteria.Deferribacterota'
p67
(lp68
F0.0
aF125.95410232511269
aF0.0
aF0.0
aF0.0
aF0.0
aF0.0
aF0.0
aF677.1204561653601
aF0.0
aF0.0
aF0.0
aF0.0
aF0.0
aF0.0
asS'Bacteria.Actinobacteriota.Coriobacteriia.Coriobacteriales'
p69
(lp70
F780.3693748374232
aF1058.0144595309466
aF4255.688726767413
aF14018.691588785043
aF15103.933004336777
aF18922.852983988352
aF19213.473959610823
aF3356.571133488252
aF579.1161796151107
aF2103.308447341494
aF203.4036205844464
aF8223.785402268206
aF3344.4309927360778
aF6709.426955861255
aF39317.488721425514
asS'Bacteria.Firmicutes.Bacilli.Erysipelotrichales'
p71
(lp72
F5010.466859075201
aF6423.659218580748
aF103468.24156099821
aF132398.75389408096
aF73201.73470913715
aF38977.84247129225
aF89465.2931076772
aF5422.153369481022
aF2548.111190306487
aF12619.850684048963
aF2822.225235609194
aF45261.5820020098
aF89111.68280871671
aF73582.15883196896
aF66612.89916072284
asS'Bacteria.Bacteroidota.Bacteroidia.Bacteroidales'
p73
(lp74
F506757.00784085423
aF601947.250421946
aF367089.34051299863
aF1973.0010384215987
aF208389.41229250788
aF32912.82548924471
aF20869.103098683667
aF568293.3126775109
aF494930.5060584463
aF367747.37560162204
aF716777.4086378736
aF391091.2409507599
aF34556.59806295399
aF45584.01552873661
aF52171.28311112231
asS'Bacteria.Actinobacteriota.Actinobacteria.Micrococcales'
p75
(lp76
F0.0
aF0.0
aF0.0
aF0.0
aF0.0
aF0.0
aF0.0
aF0.0
aF0.0
aF28.423087126236403
aF72.03878229032476
aF0.0
aF340.4963680387409
aF0.0
aF1814.6533256042544
asS'Bacteria.Firmicutes.Clostridia.Clostridia_UCG_014.Clostridia_UCG_014'
p77
(lp78
F35853.63738836383
aF116205.25480514897
aF176972.96045394012
aF69989.61578400829
aF281890.2347839091
aF267912.01682031376
aF36546.48025508952
aF62225.66485928221
aF11519.957234497508
aF70820.85875620571
aF23539.73150722083
aF237495.12930415702
aF57006.658595641646
aF100029.53835766732
aF275247.6245683897
asS'Bacteria.Firmicutes.Clostridia.Monoglobales'
p79
(lp80
F16666.460219742108
aF340.0760762778043
aF1042.2094841063054
aF2284.5275181723773
aF0.0
aF79087.82144590004
aF1962.227127790041
aF26336.173508907825
aF5167.498218104064
aF9588.054723917081
aF55.08848057495423
aF7823.875638317508
aF4010.2905569007266
aF9294.033251751205
aF60286.816039519115
asS'Bacteria.Campilobacterota'
p81
(lp82
F0.0
aF0.0
aF0.0
aF0.0
aF0.0
aF0.0
aF0.0
aF0.0
aF0.0
aF66.32053662788493
aF0.0
aF0.0
aF0.0
aF0.0
aF327.6457393452126
asS'Bacteria.Firmicutes.Bacilli.RF39.RF39'
p83
(lp84
F1690.8003121477502
aF8010.6809078771685
aF19715.129407677607
aF4257.528556593977
aF27067.44429490056
aF12210.900857189066
aF2084.866323276919
aF2840.1755744900597
aF1033.4996436208128
aF1373.7825444347595
aF1279.747779510475
aF3599.187875556285
aF1566.2832929782082
aF1793.400286944046
aF19356.302139778712
asS'Bacteria.Firmicutes.Clostridia.Clostridia_vadinBB60_group'
p85
(lp86
F12585.00452118765
aF0.0
aF0.0
aF0.0
aF0.0
aF566.0682516577713
aF0.0
aF0.0
aF739.4868139700643
aF947.4362375412135
aF402.5696657400502
aF307.622895346691
aF0.0
aF158.24120178918054
aF0.0
asS'Bacteria.Bacteroidota.Bacteroidia.Bacteroidales.Tannerellaceae'
p87
(lp88
F2464.9762792483684
aF2292.364662317051
aF839.5576399745238
aF0.0
aF1121.5791834903546
aF0.0
aF0.0
aF0.0
aF320.7412687099074
aF483.1924811460189
aF8631.941148552443
aF646.0080802280511
aF279.9636803874092
aF0.0
aF0.0
asS'Bacteria.Proteobacteria.Gammaproteobacteria.Burkholderiales.Sutterellaceae'
p89
(lp90
F4180.550222343339
aF1725.571201854044
aF0.0
aF0.0
aF2841.333931508899
aF0.0
aF0.0
aF0.0
aF1666.0727013542414
aF1629.5903285708873
aF4068.0724116889282
aF1066.426037201862
aF0.0
aF0.0
aF579.6809234569146
asS'Bacteria.Bacteroidota.Bacteroidia.Bacteroidales.Muribaculaceae'
p91
(lp92
F384053.2137592747
aF446759.20094717474
aF333014.88043541193
aF1973.0010384215987
aF164722.5960819501
aF30405.951803331718
aF19581.391546071456
aF568293.3126775109
aF391482.5374198148
aF332190.09360670025
aF390933.28361244826
aF375289.6782264515
aF32210.95641646489
aF45320.280192421305
aF47180.98646571061
asS'Bacteria.Campilobacterota.Campylobacteria.Campylobacterales'
p93
(lp94
F0.0
aF0.0
aF0.0
aF0.0
aF0.0
aF0.0
aF0.0
aF0.0
aF0.0
aF66.32053662788493
aF0.0
aF0.0
aF0.0
aF0.0
aF327.6457393452126
asS'Bacteria.Proteobacteria.Gammaproteobacteria.Xanthomonadales.Xanthomonadaceae'
p95
(lp96
F0.0
aF0.0
aF202.6518441317816
aF0.0
aF0.0
aF0.0
aF0.0
aF0.0
aF0.0
aF0.0
aF0.0
aF0.0
aF0.0
aF0.0
aF0.0
asS'Bacteria.Proteobacteria.Alphaproteobacteria.Rhizobiales'
p97
(lp98
F247.7363094721978
aF0.0
aF0.0
aF934.5794392523362
aF6131.299536413939
aF646.9351447517387
aF1287.7115526122145
aF0.0
aF0.0
aF0.0
aF0.0
aF61.5245790693382
aF310.23002421307507
aF221.53768250485277
aF0.0
asS'Bacteria.Cyanobacteria'
p99
(lp100
F501.6660266812006
aF188.93115348766904
aF0.0
aF519.2107995846312
aF0.0
aF0.0
aF0.0
aF0.0
aF294.0128296507485
aF0.0
aF745.8132754763035
aF287.11470232357823
aF0.0
aF0.0
aF2545.5553595281904
asS'Bacteria.Firmicutes.Clostridia.Peptostreptococcales_Tissierellales'
p101
(lp102
F0.0
aF0.0
aF0.0
aF0.0
aF0.0
aF0.0
aF0.0
aF0.0
aF0.0
aF0.0
aF0.0
aF0.0
aF0.0
aF253.18592286268887
aF0.0
asS'Bacteria.Actinobacteriota.Actinobacteria.Corynebacteriales'
p103
(lp104
F0.0
aF0.0
aF0.0
aF5919.003115264796
aF0.0
aF0.0
aF0.0
aF0.0
aF0.0
aF0.0
aF0.0
aF0.0
aF0.0
aF0.0
aF0.0
asS'Bacteria.Proteobacteria.Gammaproteobacteria.Enterobacterales.Erwiniaceae'
p105
(lp106
F0.0
aF138.54951255762396
aF0.0
aF0.0
aF0.0
aF0.0
aF0.0
aF0.0
aF0.0
aF0.0
aF0.0
aF0.0
aF0.0
aF0.0
aF0.0
asS'Bacteria.Firmicutes.Bacilli.Staphylococcales'
p107
(lp108
F0.0
aF0.0
aF0.0
aF5711.318795430943
aF0.0
aF1617.3378618793467
aF0.0
aF0.0
aF0.0
aF0.0
aF25.4254525730558
aF0.0
aF113.49878934624698
aF0.0
aF1360.989994203191
asS'Bacteria.Firmicutes.Clostridia.Oscillospirales.Butyricicoccaceae'
p109
(lp110
F650.3078123645194
aF1385.4951255762396
aF579.0052689479475
aF0.0
aF8598.773740092718
aF4205.078440886302
aF286.15812280271433
aF0.0
aF1657.163221667855
aF1279.0389206806383
aF300.86785544782697
aF625.4998872049384
aF620.4600484261501
aF706.8107013250063
aF0.0
asS'Bacteria.Cyanobacteria.Vampirivibrionia.Gastranaerophilales'
p111
(lp112
F501.6660266812006
aF188.93115348766904
aF0.0
aF519.2107995846312
aF0.0
aF0.0
aF0.0
aF0.0
aF294.0128296507485
aF0.0
aF745.8132754763035
aF287.11470232357823
aF0.0
aF0.0
aF2192.7061017718074
asS'Bacteria.Deferribacterota.Deferribacteres.Deferribacterales'
p113
(lp114
F0.0
aF125.95410232511269
aF0.0
aF0.0
aF0.0
aF0.0
aF0.0
aF0.0
aF677.1204561653601
aF0.0
aF0.0
aF0.0
aF0.0
aF0.0
aF0.0
asS'Bacteria.Acidobacteriota.Blastocatellia.Blastocatellales'
p115
(lp116
F0.0
aF0.0
aF0.0
aF0.0
aF0.0
aF0.0
aF0.0
aF0.0
aF0.0
aF0.0
aF0.0
aF0.0
aF0.0
aF0.0
aF378.052776167553
asS'Bacteria.Actinobacteriota.Coriobacteriia'
p117
(lp118
F780.3693748374232
aF1058.0144595309466
aF4255.688726767413
aF14018.691588785043
aF15103.933004336777
aF18922.852983988352
aF19213.473959610823
aF3356.571133488252
aF579.1161796151107
aF2103.308447341494
aF203.4036205844464
aF8223.785402268206
aF3344.4309927360778
aF6709.426955861255
aF39317.488721425514
asS'Bacteria.Firmicutes.Bacilli.Lactobacillales'
p119
(lp120
F55307.13108966816
aF5718.316245560116
aF43280.64385385907
aF32710.28037383177
aF16449.828024525203
aF1779.071648067281
aF4823.808355817184
aF0.0
aF8579.828937990023
aF61858.111949065824
aF82916.63841616381
aF666.5162732511639
aF18908.898305084746
aF48801.58663178328
aF82995.18612798346
asS'Bacteria.Firmicutes.Clostridia.Clostridia.Hungateiclostridiaceae'
p121
(lp122
F0.0
aF0.0
aF0.0
aF0.0
aF0.0
aF0.0
aF0.0
aF0.0
aF178.18959372772636
aF113.69234850494561
aF0.0
aF0.0
aF0.0
aF0.0
aF0.0
asS'Bacteria.Proteobacteria.Gammaproteobacteria.Pseudomonadales.Moraxellaceae'
p123
(lp124
F49.547261894439565
aF0.0
aF0.0
aF0.0
aF0.0
aF0.0
aF2738.9420325402657
aF0.0
aF0.0
aF0.0
aF0.0
aF0.0
aF0.0
aF0.0
aF1159.3618469138291
asS'Bacteria.Verrucomicrobiota'
p125
(lp126
F6701.267171222951
aF82600.70030480891
aF24607.723930287764
aF0.0
aF897.2633467922838
aF21187.125990619443
aF24425.639767803117
aF10069.713400464756
aF588.025659301497
aF11767.15807026187
aF37595.76920469184
aF91517.81136564058
aF3488.1961259079903
aF10992.488817621743
aF0.0
asS'Bacteria.Firmicutes.Bacilli.Izemoplasmatales'
p127
(lp128
F117.67474699929396
aF0.0
aF0.0
aF0.0
aF0.0
aF0.0
aF0.0
aF0.0
aF0.0
aF104.21798612953349
aF0.0
aF0.0
aF0.0
aF0.0
aF0.0
asS'Bacteria.Firmicutes.Clostridia.Peptococcales'
p129
(lp130
F891.8507140999121
aF579.3888706955183
aF434.25395171096056
aF0.0
aF0.0
aF0.0
aF81.75946365791839
aF0.0
aF3866.714183891662
aF4443.475954068291
aF7055.563089022984
aF153.8114476733455
aF242.13075060532688
aF210.98826905224072
aF226.8316657005318
asS'Bacteria.Campilobacterota.Campylobacteria.Campylobacterales.Campylobacteraceae'
p131
(lp132
F0.0
aF0.0
aF0.0
aF0.0
aF0.0
aF0.0
aF0.0
aF0.0
aF0.0
aF0.0
aF0.0
aF0.0
aF0.0
aF0.0
aF327.6457393452126
asS'Bacteria.Firmicutes.Clostridia.Lachnospirales.Defluviitaleaceae'
p133
(lp134
F545.0198808388352
aF1662.5941506914876
aF0.0
aF0.0
aF0.0
aF0.0
aF0.0
aF0.0
aF106.9137562366358
aF653.7310039034373
aF114.4145365787511
aF0.0
aF0.0
aF0.0
aF0.0
asS'Bacteria.Actinobacteriota'
p135
(lp136
F780.3693748374232
aF1058.0144595309466
aF8858.780614903595
aF27622.01453790238
aF25572.005383580086
aF23532.265890344497
aF19376.99288692666
aF3356.571133488252
aF579.1161796151107
aF2131.73153446773
aF3546.8506339412843
aF27409.19997539017
aF14141.949152542375
aF12701.493796944891
aF42644.35315169998
asS'Bacteria.Bacteroidota.Bacteroidia.Bacteroidales.Bacteroidaceae'
p137
(lp138
F4700.796472234954
aF4194.271607426253
aF202.6518441317816
aF0.0
aF32376.252430088236
aF0.0
aF183.95879323031636
aF0.0
aF9542.052744119746
aF1108.50039792322
aF33290.39256898773
aF2625.0487069584296
aF446.4285714285714
aF0.0
aF0.0
asS'Bacteria.Cyanobacteria.Cyanobacteriia.Chloroplast'
p139
(lp140
F0.0
aF0.0
aF0.0
aF0.0
aF0.0
aF0.0
aF0.0
aF0.0
aF0.0
aF0.0
aF0.0
aF0.0
aF0.0
aF0.0
aF352.84925775638277
asS'Bacteria.Proteobacteria.Gammaproteobacteria.Enterobacterales.Enterobacteriaceae'
p141
(lp142
F2025.2443299352171
aF4244.653248356298
aF10016.791152799491
aF15576.323987538937
aF9047.405413488861
aF27818.21122432476
aF6663.396288120348
aF18590.24012393493
aF409.8360655737706
aF2368.590593853034
aF432.2326937419486
aF3547.917392998503
aF5523.607748184019
aF7774.91771457507
aF9879.779217178717
asS'Bacteria.Proteobacteria.Alphaproteobacteria.Rhizobiales.Beijerinckiaceae'
p143
(lp144
F0.0
aF0.0
aF0.0
aF0.0
aF0.0
aF0.0
aF0.0
aF0.0
aF0.0
aF0.0
aF0.0
aF61.5245790693382
aF310.23002421307507
aF0.0
aF0.0
asS'Bacteria.Proteobacteria.Alphaproteobacteria'
p145
(lp146
F247.7363094721978
aF0.0
aF0.0
aF934.5794392523362
aF7103.3348287722465
aF646.9351447517387
aF1921.347395961082
aF0.0
aF133.64219529579475
aF0.0
aF330.5308834497254
aF61.5245790693382
aF310.23002421307507
aF316.4824035783611
aF579.6809234569146
asS'Bacteria.Firmicutes.Bacilli.Acholeplasmatales.Acholeplasmataceae'
p147
(lp148
F371.60446420829675
aF0.0
aF0.0
aF0.0
aF299.0877822640946
aF0.0
aF61.319597743438784
aF0.0
aF365.28866714183897
aF104.21798612953349
aF29.663028001898436
aF0.0
aF0.0
aF0.0
aF0.0
asS'Bacteria.Proteobacteria.Gammaproteobacteria.Burkholderiales.Oxalobacteraceae'
p149
(lp150
F0.0
aF0.0
aF434.25395171096056
aF0.0
aF0.0
aF0.0
aF429.2371842040715
aF13168.086754453912
aF0.0
aF0.0
aF0.0
aF0.0
aF0.0
aF0.0
aF655.2914786904252
asS'Bacteria.Firmicutes.Clostridia.Monoglobales.Monoglobaceae'
p151
(lp152
F16666.460219742108
aF340.0760762778043
aF1042.2094841063054
aF2284.5275181723773
aF0.0
aF79087.82144590004
aF1962.227127790041
aF26336.173508907825
aF5167.498218104064
aF9588.054723917081
aF55.08848057495423
aF7823.875638317508
aF4010.2905569007266
aF9294.033251751205
aF60286.816039519115
asS'Bacteria.Cyanobacteria.Cyanobacteriia'
p153
(lp154
F0.0
aF0.0
aF0.0
aF0.0
aF0.0
aF0.0
aF0.0
aF0.0
aF0.0
aF0.0
aF0.0
aF0.0
aF0.0
aF0.0
aF352.84925775638277
asS'Bacteria.Firmicutes.Bacilli.Bacillales.Bacillaceae'
p155
(lp156
F0.0
aF0.0
aF0.0
aF0.0
aF0.0
aF0.0
aF0.0
aF0.0
aF0.0
aF0.0
aF0.0
aF0.0
aF0.0
aF0.0
aF932.5301812132974
asS'Bacteria.Firmicutes.Clostridia.Peptococcales.Peptococcaceae'
p157
(lp158
F891.8507140999121
aF579.3888706955183
aF434.25395171096056
aF0.0
aF0.0
aF0.0
aF81.75946365791839
aF0.0
aF3866.714183891662
aF4443.475954068291
aF7055.563089022984
aF153.8114476733455
aF242.13075060532688
aF210.98826905224072
aF226.8316657005318
asS'Bacteria.Firmicutes.Bacilli.Lactobacillales.Lactobacillaceae'
p159
(lp160
F55307.13108966816
aF5214.499836259665
aF43280.64385385907
aF27414.33021806853
aF11365.335726035595
aF1779.071648067281
aF2616.3028370533884
aF0.0
aF8579.828937990023
aF61858.111949065824
aF82713.23479557937
aF666.5162732511639
aF18750.0
aF48801.58663178328
aF77979.6859641606
asS'Bacteria.Chloroflexi'
p161
(lp162
F179.60882436734343
aF0.0
aF0.0
aF0.0
aF0.0
aF0.0
aF0.0
aF0.0
aF0.0
aF0.0
aF0.0
aF0.0
aF0.0
aF0.0
aF0.0
asS'Bacteria.Firmicutes.Clostridia.Oscillospirales.UCG_010'
p163
(lp164
F1294.4222169922334
aF642.3659218580748
aF0.0
aF0.0
aF0.0
aF0.0
aF0.0
aF0.0
aF490.0213827512475
aF1373.7825444347595
aF817.8520577666283
aF1538.114476733455
aF45.399515738498785
aF0.0
aF0.0
asS'Bacteria.Chloroflexi.Chloroflexia'
p165
(lp166
F179.60882436734343
aF0.0
aF0.0
aF0.0
aF0.0
aF0.0
aF0.0
aF0.0
aF0.0
aF0.0
aF0.0
aF0.0
aF0.0
aF0.0
aF0.0
asS'Bacteria.Firmicutes.Clostridia.Eubacteriales.Anaerofustaceae'
p167
(lp168
F111.48133926248902
aF365.2668967428268
aF1186.9608013432921
aF0.0
aF0.0
aF404.3344654698367
aF0.0
aF0.0
aF0.0
aF75.79489900329709
aF0.0
aF328.1310883698037
aF75.66585956416465
aF189.88944214701664
aF0.0
asS'Bacteria.Proteobacteria.Gammaproteobacteria.Pseudomonadales.Pseudomonadaceae'
p169
(lp170
F123.8681547360989
aF302.2898455802705
aF2026.5184413178158
aF0.0
aF28189.023478390915
aF970.402717127608
aF2677.622434796827
aF0.0
aF0.0
aF0.0
aF84.75150857685267
aF389.6556674391419
aF756.6585956416465
aF3238.669929951895
aF6830.153489427124
asS'Bacteria.Proteobacteria.Alphaproteobacteria.Caulobacterales.Caulobacteraceae'
p171
(lp172
F0.0
aF0.0
aF0.0
aF0.0
aF972.0352923583074
aF0.0
aF633.6358433488675
aF0.0
aF0.0
aF0.0
aF0.0
aF0.0
aF0.0
aF0.0
aF0.0
asS'Bacteria.Proteobacteria.Gammaproteobacteria.Xanthomonadales'
p173
(lp174
F0.0
aF0.0
aF202.6518441317816
aF0.0
aF0.0
aF0.0
aF0.0
aF0.0
aF0.0
aF0.0
aF0.0
aF0.0
aF0.0
aF0.0
aF0.0
asS'Bacteria.Proteobacteria.Alphaproteobacteria.Sphingomonadales.Sphingomonadaceae'
p175
(lp176
F0.0
aF0.0
aF0.0
aF0.0
aF0.0
aF0.0
aF0.0
aF0.0
aF0.0
aF0.0
aF0.0
aF0.0
aF0.0
aF94.94472107350832
aF579.6809234569146
asS'Bacteria.Firmicutes.Clostridia'
p177
(lp178
F0.0
aF0.0
aF0.0
aF0.0
aF0.0
aF0.0
aF0.0
aF0.0
aF0.0
aF596.8848296509644
aF0.0
aF717.7867558089457
aF0.0
aF0.0
aF0.0
asS'Bacteria.Firmicutes.Clostridia.Lachnospirales'
p179
(lp180
F93099.30509965195
aF75056.04957553466
aF88848.35852006254
aF52128.76427829698
aF100867.35456856589
aF136341.5817564289
aF10444.771482299073
aF86754.45391169636
aF238061.2972202424
aF177947.4741349907
aF36489.76201776392
aF23522.897397510307
aF52020.27845036319
aF70501.73010380623
aF95521.33477833506
asS'Bacteria.Actinobacteriota.Actinobacteria.Micrococcales.Micrococcaceae'
p181
(lp182
F0.0
aF0.0
aF0.0
aF0.0
aF0.0
aF0.0
aF0.0
aF0.0
aF0.0
aF0.0
aF72.03878229032476
aF0.0
aF340.4963680387409
aF0.0
aF1814.6533256042544
asS'Bacteria.Campilobacterota.Campylobacteria'
p183
(lp184
F0.0
aF0.0
aF0.0
aF0.0
aF0.0
aF0.0
aF0.0
aF0.0
aF0.0
aF66.32053662788493
aF0.0
aF0.0
aF0.0
aF0.0
aF327.6457393452126
asS'Bacteria.Patescibacteria.Saccharimonadia.Saccharimonadales.Saccharimonadaceae'
p185
(lp186
F1486.417856833187
aF1234.3502027861043
aF9843.089572115106
aF3738.317757009345
aF15253.476895468824
aF32508.491023774863
aF551.8763796909491
aF12651.691195455718
aF507.8403421240201
aF1288.5132830560503
aF1178.0459692182521
aF3804.2698057874118
aF5614.406779661017
aF15349.396573550512
aF6351.28663961489
asS'Bacteria.Firmicutes.Bacilli.Erysipelotrichales.Erysipelotrichaceae'
p187
(lp188
F2966.642305929569
aF6423.659218580748
aF102223.38023276012
aF130841.12149532705
aF72454.0152534769
aF37764.83907488274
aF89465.2931076772
aF5422.153369481022
aF1772.986457590877
aF11890.32478114223
aF2822.225235609194
aF45261.5820020098
aF89111.68280871671
aF73582.15883196896
aF59959.17030017391
asS'Bacteria.Gemmatimonadota.Gemmatimonadetes.Gemmatimonadales'
p189
(lp190
F0.0
aF0.0
aF0.0
aF0.0
aF0.0
aF0.0
aF0.0
aF2840.1755744900597
aF0.0
aF0.0
aF0.0
aF0.0
aF0.0
aF0.0
aF0.0
asS'Bacteria.Proteobacteria.Gammaproteobacteria.Pasteurellales.Pasteurellaceae'
p191
(lp192
F222.96267852497803
aF0.0
aF0.0
aF0.0
aF672.9475100942128
aF1374.7371825974446
aF0.0
aF0.0
aF356.3791874554527
aF824.2695266608557
aF0.0
aF0.0
aF0.0
aF0.0
aF1789.449807193084
asS'Bacteria.Proteobacteria.Gammaproteobacteria.Burkholderiales'
p193
(lp194
F4744.150326392589
aF4849.232939516838
aF4487.290834346593
aF6334.371754932501
aF85464.33378196502
aF5175.481158013909
aF11364.565448450656
aF13168.086754453912
aF1772.986457590877
aF2055.9366354644335
aF4309.614211132958
aF2707.0814790508807
aF5167.9782082324455
aF2721.7486707739054
aF21322.17657584999
asS'Bacteria.Firmicutes'
p195
(lp196
F472953.38841337286
aF303310.07380910387
aF572867.8130970992
aF941433.0218068535
aF614774.9364438462
aF853873.5241792008
aF908163.682446243
aF371030.2091402014
aF499750.5345687814
aF611750.1042179861
aF234998.98298189708
aF479184.18408154056
aF928616.828087167
aF901320.786564267
aF854021.2213625022
asS'Bacteria.Patescibacteria'
p197
(lp198
F1486.417856833187
aF1234.3502027861043
aF9843.089572115106
aF3738.317757009345
aF15253.476895468824
aF32508.491023774863
aF551.8763796909491
aF12651.691195455718
aF507.8403421240201
aF1288.5132830560503
aF1178.0459692182521
aF3804.2698057874118
aF5614.406779661017
aF15349.396573550512
aF6351.28663961489
asS'Bacteria.Firmicutes.Clostridia.Oscillospirales'
p199
(lp200
F210.57586305136815
aF0.0
aF0.0
aF0.0
aF0.0
aF0.0
aF0.0
aF0.0
aF641.4825374198148
aF0.0
aF0.0
aF164.06554418490185
aF0.0
aF0.0
aF0.0
asS'Bacteria.Actinobacteriota.Coriobacteriia.Coriobacteriales.Atopobiaceae'
p201
(lp202
F0.0
aF0.0
aF0.0
aF3219.1069574247135
aF0.0
aF3800.7439754164648
aF531.4365137764695
aF0.0
aF0.0
aF634.782279152613
aF0.0
aF6265.252968560941
aF741.5254237288136
aF1540.2143640813572
aF0.0
asS'Bacteria.Proteobacteria.Gammaproteobacteria.Burkholderiales.Comamonadaceae'
p203
(lp204
F315.86379457705226
aF2141.219739526916
aF2084.4189682126107
aF1557.6323987538938
aF66098.3998803649
aF3558.143296134562
aF5641.402992396369
aF0.0
aF0.0
aF0.0
aF0.0
aF0.0
aF575.0605326876513
aF263.7353363153009
aF6502.507750081912
asS'Bacteria.Firmicutes.Bacilli.Erysipelotrichales.Erysipelatoclostridiaceae'
p205
(lp206
F2043.824553145632
aF0.0
aF1244.861328238087
aF1557.6323987538938
aF747.7194556602365
aF1213.0033964095098
aF0.0
aF0.0
aF775.1247327156096
aF729.5259029067344
aF0.0
aF0.0
aF0.0
aF0.0
aF6653.728860548933
asS'Bacteria.Firmicutes.Clostridia.Oscillospirales._Eubacterium__coprostanoligenes_group'
p207
(lp208
F13272.472779972997
aF22507.99808549764
aF57987.37768513693
aF10072.689511941846
aF4635.860625093466
aF13262.170467410642
aF2166.6257869348374
aF69971.5982442551
aF4133.998574483251
aF86879.90298252928
aF21531.12075394942
aF37612.026004388754
aF116086.5617433414
aF136277.3229808423
aF2923.608135695743
asS'Bacteria.Actinobacteriota.Coriobacteriia.Coriobacteriales.Eggerthellaceae'
p209
(lp210
F204.3824553145632
aF251.90820465022537
aF3126.628452318916
aF5503.634475597091
aF8673.545685658743
aF7197.153485363092
aF14389.665603793635
aF0.0
aF400.9265858873843
aF975.8593246674499
aF203.4036205844464
aF1958.5324337072661
aF2602.905569007264
aF4388.555996286607
aF25757.995816215946
asS'Bacteria.Firmicutes.Clostridia.Christensenellales'
p211
(lp212
F1635.0596425165056
aF3136.2571478953064
aF2547.623183370969
aF41536.8639667705
aF30133.09406310753
aF3719.8770823224972
aF3863.134657836644
aF0.0
aF1211.689237348539
aF1743.2826770758327
aF682.249644043664
aF4511.802465084801
aF575.0605326876513
aF2036.0367963541228
aF167275.7516949366
asS'Bacteria.Firmicutes.Clostridia.Clostridia_UCG_014'
p213
(lp214
F35853.63738836383
aF116205.25480514897
aF176972.96045394012
aF69989.61578400829
aF281890.2347839091
aF267912.01682031376
aF36546.48025508952
aF62225.66485928221
aF11519.957234497508
aF70820.85875620571
aF23539.73150722083
aF237495.12930415702
aF57006.658595641646
aF100029.53835766732
aF275247.6245683897
asS'Bacteria.Proteobacteria.Gammaproteobacteria.Enterobacterales'
p215
(lp216
F2025.2443299352171
aF4383.202760913922
aF10016.791152799491
aF15576.323987538937
aF9047.405413488861
aF27818.21122432476
aF6663.396288120348
aF18590.24012393493
aF409.8360655737706
aF2368.590593853034
aF432.2326937419486
aF3547.917392998503
aF5523.607748184019
aF7774.91771457507
aF9879.779217178717
asS'Bacteria.Proteobacteria.Alphaproteobacteria.Caulobacterales'
p217
(lp218
F0.0
aF0.0
aF0.0
aF0.0
aF972.0352923583074
aF0.0
aF633.6358433488675
aF0.0
aF0.0
aF0.0
aF0.0
aF0.0
aF0.0
aF0.0
aF0.0
asS'Bacteria.Firmicutes.Clostridia.Clostridia'
p219
(lp220
F0.0
aF0.0
aF0.0
aF0.0
aF0.0
aF0.0
aF0.0
aF0.0
aF178.18959372772636
aF113.69234850494561
aF0.0
aF0.0
aF0.0
aF0.0
aF0.0
asS'Bacteria.Cyanobacteria.Vampirivibrionia.Gastranaerophilales.Gastranaerophilales'
p221
(lp222
F501.6660266812006
aF188.93115348766904
aF0.0
aF519.2107995846312
aF0.0
aF0.0
aF0.0
aF0.0
aF294.0128296507485
aF0.0
aF745.8132754763035
aF287.11470232357823
aF0.0
aF0.0
aF2192.7061017718074
asS'Bacteria.Bacteroidota.Bacteroidia.Bacteroidales.Prevotellaceae'
p223
(lp224
F105771.01732915486
aF146043.78164596818
aF33032.2505934804
aF0.0
aF10168.984596979215
aF2506.873685912987
aF899.3541002371022
aF0.0
aF85067.71204561656
aF30299.010876568005
aF272166.7570682758
aF9238.940956912287
aF1520.8837772397094
aF263.7353363153009
aF4990.2966454116995
asS'Bacteria.Proteobacteria.Gammaproteobacteria.Burkholderiales.Alcaligenaceae'
p225
(lp226
F0.0
aF0.0
aF0.0
aF0.0
aF3514.2814416031115
aF0.0
aF1124.1926252963779
aF0.0
aF0.0
aF47.37181187706067
aF0.0
aF102.54096511556367
aF75.66585956416465
aF179.34002869440462
aF957.7336996244676
asS'Bacteria.Firmicutes.Clostridia.Eubacteriales'
p227
(lp228
F111.48133926248902
aF365.2668967428268
aF1186.9608013432921
aF0.0
aF0.0
aF404.3344654698367
aF0.0
aF0.0
aF0.0
aF75.79489900329709
aF0.0
aF328.1310883698037
aF75.66585956416465
aF189.88944214701664
aF0.0
asS'Bacteria.Bacteroidota.Bacteroidia.Flavobacteriales'
p229
(lp230
F0.0
aF0.0
aF0.0
aF0.0
aF0.0
aF0.0
aF1246.8318207832554
aF0.0
aF0.0
aF0.0
aF0.0
aF0.0
aF0.0
aF0.0
aF0.0
asS'Bacteria.Proteobacteria.Alphaproteobacteria.Rhodospirillales.uncultured'
p231
(lp232
F0.0
aF0.0
aF0.0
aF0.0
aF0.0
aF0.0
aF0.0
aF0.0
aF133.64219529579475
aF0.0
aF330.5308834497254
aF0.0
aF0.0
aF0.0
aF0.0
asS'Bacteria.Gemmatimonadota'
p233
(lp234
F0.0
aF0.0
aF0.0
aF0.0
aF0.0
aF0.0
aF0.0
aF2840.1755744900597
aF0.0
aF0.0
aF0.0
aF0.0
aF0.0
aF0.0
aF0.0
asS'Bacteria.Desulfobacterota.Desulfovibrionia.Desulfovibrionales'
p235
(lp236
F1827.055282357459
aF0.0
aF0.0
aF1869.1588785046724
aF4635.860625093466
aF0.0
aF0.0
aF0.0
aF0.0
aF0.0
aF0.0
aF0.0
aF0.0
aF0.0
aF0.0
asS'Bacteria.Proteobacteria.Gammaproteobacteria.Burkholderiales.Burkholderiaceae'
p237
(lp238
F247.7363094721978
aF982.441998135879
aF1968.6179144230214
aF4776.7393561786075
aF13010.318528488115
aF1617.3378618793467
aF4169.732646553838
aF0.0
aF106.9137562366358
aF378.9744950164854
aF241.54179944403012
aF1538.114476733455
aF4517.2518159806295
aF2278.6733057642
aF12626.96272399627
asS'Bacteria.Firmicutes.Bacilli'
p239
(lp240
F23671.2043700685
aF8653.046829735244
aF23478.663655839267
aF934.5794392523362
aF0.0
aF0.0
aF1430.7906140135717
aF0.0
aF0.0
aF900.0644256641529
aF2432.3682961556715
aF143.55735116178911
aF1422.5181598062954
aF654.0636340619462
aF4360.208685132445
asS'Bacteria.Verrucomicrobiota.Verrucomicrobiae'
p241
(lp242
F6701.267171222951
aF82600.70030480891
aF24607.723930287764
aF0.0
aF897.2633467922838
aF21187.125990619443
aF24425.639767803117
aF10069.713400464756
aF588.025659301497
aF11767.15807026187
aF37595.76920469184
aF91517.81136564058
aF3488.1961259079903
aF10992.488817621743
aF0.0
asS'Bacteria.Gemmatimonadota.Gemmatimonadetes.Gemmatimonadales.Gemmatimonadaceae'
p243
(lp244
F0.0
aF0.0
aF0.0
aF0.0
aF0.0
aF0.0
aF0.0
aF2840.1755744900597
aF0.0
aF0.0
aF0.0
aF0.0
aF0.0
aF0.0
aF0.0
asS'Bacteria.Actinobacteriota.Actinobacteria.Bifidobacteriales.Bifidobacteriaceae'
p245
(lp246
F0.0
aF0.0
aF4603.091888136182
aF7684.319833852543
aF10468.072379243311
aF4609.412906356138
aF163.51892731583678
aF0.0
aF0.0
aF0.0
aF3271.408231066513
aF19185.41457312196
aF10457.021791767555
aF5992.066841083636
aF1512.211104670212
asS'Bacteria.Firmicutes.Bacilli.Izemoplasmatales.Izemoplasmatales'
p247
(lp248
F117.67474699929396
aF0.0
aF0.0
aF0.0
aF0.0
aF0.0
aF0.0
aF0.0
aF0.0
aF104.21798612953349
aF0.0
aF0.0
aF0.0
aF0.0
aF0.0
asS'Bacteria.Proteobacteria.Alphaproteobacteria.Sphingomonadales'
p249
(lp250
F0.0
aF0.0
aF0.0
aF0.0
aF0.0
aF0.0
aF0.0
aF0.0
aF0.0
aF0.0
aF0.0
aF0.0
aF0.0
aF94.94472107350832
aF579.6809234569146
asS'Bacteria.Campilobacterota.Campylobacteria.Campylobacterales.Helicobacteraceae'
p251
(lp252
F0.0
aF0.0
aF0.0
aF0.0
aF0.0
aF0.0
aF0.0
aF0.0
aF0.0
aF66.32053662788493
aF0.0
aF0.0
aF0.0
aF0.0
aF0.0
asS'Bacteria.Verrucomicrobiota.Verrucomicrobiae.Verrucomicrobiales.Akkermansiaceae'
p253
(lp254
F6701.267171222951
aF82600.70030480891
aF24607.723930287764
aF0.0
aF897.2633467922838
aF21187.125990619443
aF24425.639767803117
aF10069.713400464756
aF588.025659301497
aF11767.15807026187
aF37595.76920469184
aF91517.81136564058
aF3488.1961259079903
aF10992.488817621743
aF0.0
asS'Bacteria.Firmicutes.Clostridia.Clostridia_vadinBB60_group.Clostridia_vadinBB60_group'
p255
(lp256
F12585.00452118765
aF0.0
aF0.0
aF0.0
aF0.0
aF566.0682516577713
aF0.0
aF0.0
aF739.4868139700643
aF947.4362375412135
aF402.5696657400502
aF307.622895346691
aF0.0
aF158.24120178918054
aF0.0
asS'Bacteria.Desulfobacterota.Desulfovibrionia.Desulfovibrionales.Desulfovibrionaceae'
p257
(lp258
F1827.055282357459
aF0.0
aF0.0
aF1869.1588785046724
aF4635.860625093466
aF0.0
aF0.0
aF0.0
aF0.0
aF0.0
aF0.0
aF0.0
aF0.0
aF0.0
aF0.0
asS'Bacteria.Proteobacteria.Gammaproteobacteria.Pseudomonadales'
p259
(lp260
F173.41541663053846
aF302.2898455802705
aF2026.5184413178158
aF0.0
aF28189.023478390915
aF970.402717127608
aF5416.5644673370925
aF0.0
aF0.0
aF0.0
aF84.75150857685267
aF389.6556674391419
aF756.6585956416465
aF3238.669929951895
aF7989.5153363409545
asS'Bacteria.Firmicutes.Clostridia.Christensenellales.Christensenellaceae'
p261
(lp262
F1635.0596425165056
aF3136.2571478953064
aF2547.623183370969
aF41536.8639667705
aF30133.09406310753
aF3719.8770823224972
aF3863.134657836644
aF0.0
aF1211.689237348539
aF1743.2826770758327
aF682.249644043664
aF4511.802465084801
aF575.0605326876513
aF2036.0367963541228
aF167275.7516949366
asS'Bacteria.Actinobacteriota.Actinobacteria.Micrococcales.Intrasporangiaceae'
p263
(lp264
F0.0
aF0.0
aF0.0
aF0.0
aF0.0
aF0.0
aF0.0
aF0.0
aF0.0
aF28.423087126236403
aF0.0
aF0.0
aF0.0
aF0.0
aF0.0
asS'Bacteria.Acidobacteriota.Blastocatellia'
p265
(lp266
F0.0
aF0.0
aF0.0
aF0.0
aF0.0
aF0.0
aF0.0
aF0.0
aF0.0
aF0.0
aF0.0
aF0.0
aF0.0
aF0.0
aF378.052776167553
asS'Bacteria.Actinobacteriota.Actinobacteria'
p267
(lp268
F0.0
aF0.0
aF4603.091888136182
aF13603.322949117339
aF10468.072379243311
aF4609.412906356138
aF163.51892731583678
aF0.0
aF0.0
aF28.423087126236403
aF3343.447013356838
aF19185.41457312196
aF10797.518159806295
aF5992.066841083636
aF3326.8644302744665
asS'Bacteria.Actinobacteriota.Coriobacteriia.Coriobacteriales.uncultured'
p269
(lp270
F575.9869195228599
aF806.1062548807213
aF1129.0602744484975
aF5295.950155763238
aF5981.755645281892
aF7924.955523208799
aF3904.014389665603
aF3356.571133488252
aF178.18959372772636
aF492.66684352143096
aF0.0
aF0.0
aF0.0
aF780.6565954932906
aF12022.078282128186
asS'Bacteria.Firmicutes.Clostridia.uncultured.uncultured'
p271
(lp272
F0.0
aF390.4577172078494
aF0.0
aF0.0
aF0.0
aF0.0
aF0.0
aF0.0
aF0.0
aF0.0
aF0.0
aF0.0
aF0.0
aF0.0
aF0.0
asS'Bacteria.Firmicutes.Clostridia.Oscillospirales.Ruminococcaceae'
p273
(lp274
F115643.30926162195
aF22848.074161775447
aF20728.388628336517
aF11111.11111111111
aF16823.687752355323
aF53533.883228206374
aF37691.11274630037
aF61451.07152078492
aF100151.46115466859
aF98144.9198468943
aF36985.55834293851
aF21943.766534730625
aF794.4915254237288
aF2447.4639210059922
aF41333.77019431913
asS'Bacteria.Bacteroidota.Bacteroidia.Flavobacteriales.Weeksellaceae'
p275
(lp276
F0.0
aF0.0
aF0.0
aF0.0
aF0.0
aF0.0
aF1246.8318207832554
aF0.0
aF0.0
aF0.0
aF0.0
aF0.0
aF0.0
aF0.0
aF0.0
asS'Bacteria.Gemmatimonadota.Gemmatimonadetes'
p277
(lp278
F0.0
aF0.0
aF0.0
aF0.0
aF0.0
aF0.0
aF0.0
aF2840.1755744900597
aF0.0
aF0.0
aF0.0
aF0.0
aF0.0
aF0.0
aF0.0
asS'Bacteria.Firmicutes.Clostridia.Lachnospirales.Lachnospiraceae'
p279
(lp280
F92554.28521881311
aF73393.45542484317
aF88848.35852006254
aF52128.76427829698
aF100867.35456856589
aF136341.5817564289
aF10444.771482299073
aF86754.45391169636
aF237954.38346400578
aF177293.74313108728
aF36375.34748118516
aF23522.897397510307
aF52020.27845036319
aF70501.73010380623
aF95521.33477833506
asS'Bacteria.Patescibacteria.Saccharimonadia'
p281
(lp282
F1486.417856833187
aF1234.3502027861043
aF9843.089572115106
aF3738.317757009345
aF15253.476895468824
aF32508.491023774863
aF551.8763796909491
aF12651.691195455718
aF507.8403421240201
aF1288.5132830560503
aF1178.0459692182521
aF3804.2698057874118
aF5614.406779661017
aF15349.396573550512
aF6351.28663961489
asS'Bacteria.Firmicutes.Clostridia.Peptostreptococcales_Tissierellales.Peptostreptococcaceae'
p283
(lp284
F1833.2486900942638
aF856.4878958107664
aF22320.653117943373
aF168120.4569055036
aF17048.00358905339
aF17871.58337376678
aF56168.75153298993
aF8262.32894397108
aF285.10334996436217
aF20426.72528138856
aF1343.3114109431149
aF14929.96452082607
aF150673.42615012106
aF211747.82682082878
aF9829.372180356379
asS'Bacteria.Deferribacterota.Deferribacteres'
p285
(lp286
F0.0
aF125.95410232511269
aF0.0
aF0.0
aF0.0
aF0.0
aF0.0
aF0.0
aF677.1204561653601
aF0.0
aF0.0
aF0.0
aF0.0
aF0.0
aF0.0
asS'Bacteria.Verrucomicrobiota.Verrucomicrobiae.Verrucomicrobiales'
p287
(lp288
F6701.267171222951
aF82600.70030480891
aF24607.723930287764
aF0.0
aF897.2633467922838
aF21187.125990619443
aF24425.639767803117
aF10069.713400464756
aF588.025659301497
aF11767.15807026187
aF37595.76920469184
aF91517.81136564058
aF3488.1961259079903
aF10992.488817621743
aF0.0
asS'Bacteria.Firmicutes.Clostridia.Clostridiales.Clostridiaceae'
p289
(lp290
F371.60446420829675
aF100.76328186009016
aF0.0
aF402284.5275181723
aF18842.53028263796
aF16982.04754973314
aF659390.0744011118
aF12651.691195455718
aF35.63791874554527
aF7437.374464698525
aF1491.626550952607
aF60519.677611205676
aF432907.0823244552
aF235220.27175289058
aF11845.653653249994
asS'Bacteria.Patescibacteria.Saccharimonadia.Saccharimonadales'
p291
(lp292
F1486.417856833187
aF1234.3502027861043
aF9843.089572115106
aF3738.317757009345
aF15253.476895468824
aF32508.491023774863
aF551.8763796909491
aF12651.691195455718
aF507.8403421240201
aF1288.5132830560503
aF1178.0459692182521
aF3804.2698057874118
aF5614.406779661017
aF15349.396573550512
aF6351.28663961489
asS'Bacteria.Firmicutes.Clostridia.uncultured'
p293
(lp294
F0.0
aF390.4577172078494
aF0.0
aF0.0
aF0.0
aF0.0
aF0.0
aF0.0
aF0.0
aF0.0
aF0.0
aF0.0
aF0.0
aF0.0
aF0.0
asS'Bacteria.Actinobacteriota.Coriobacteriia.Coriobacteriales.Coriobacteriales_Incertae_Sedis'
p295
(lp296
F0.0
aF0.0
aF0.0
aF0.0
aF448.6316733961419
aF0.0
aF388.3574523751123
aF0.0
aF0.0
aF0.0
aF0.0
aF0.0
aF0.0
aF0.0
aF1537.4146230813822
asS'Bacteria.Deferribacterota.Deferribacteres.Deferribacterales.Deferribacteraceae'
p297
(lp298
F0.0
aF125.95410232511269
aF0.0
aF0.0
aF0.0
aF0.0
aF0.0
aF0.0
aF677.1204561653601
aF0.0
aF0.0
aF0.0
aF0.0
aF0.0
aF0.0
asS'Bacteria.Actinobacteriota.Actinobacteria.Corynebacteriales.Corynebacteriaceae'
p299
(lp300
F0.0
aF0.0
aF0.0
aF5919.003115264796
aF0.0
aF0.0
aF0.0
aF0.0
aF0.0
aF0.0
aF0.0
aF0.0
aF0.0
aF0.0
aF0.0
asS'Bacteria.Firmicutes.Clostridia.Oscillospirales.Oscillospiraceae'
p301
(lp302
F91581.92020413473
aF26765.24674408645
aF8424.526663192635
aF7892.004153686395
aF18917.302228203982
aF204108.03816917352
aF1492.1102117570106
aF35114.89801187709
aF116224.1625089095
aF50593.0950847008
aF13674.655908875176
aF15350.38247779988
aF2095.944309927361
aF7036.458772892228
aF13912.34216296595
asS'Bacteria'
p303
(lp304
F998600.2898514821
aF1000000.0
aF1000000.0
aF1000000.0
aF1000000.0
aF1000000.0
aF1000000.0
aF1000000.0
aF1000000.0
aF1000000.0
aF1000000.0
aF1000000.0
aF998176.4527845037
aF1000000.0
aF1000000.0
assS'subclass_sl'
p305
(dp306
g12
(I0
I8
tp307
sg10
(I8
I15
tp308
ssS'norm'
p309
F1000000.0
sS'cls'
p310
(dp311
S'class'
p312
(S'HSD-NC'
p313
S'HSD-NC'
p314
S'HSD-NC'
p315
S'HSD-NC'
p316
S'HSD-NC'
p317
S'HSD-NC'
p318
S'HSD-NC'
p319
g5
S'STD-NC'
p320
S'STD-NC'
p321
S'STD-NC'
p322
S'STD-NC'
p323
S'STD-NC'
p324
S'STD-NC'
p325
g3
tp326
sS'subclass'
p327
(lp328
S'HSD-NC_subcl'
p329
aS'HSD-NC_subcl'
p330
aS'HSD-NC_subcl'
p331
aS'HSD-NC_subcl'
p332
aS'HSD-NC_subcl'
p333
aS'HSD-NC_subcl'
p334
aS'HSD-NC_subcl'
p335
ag12
aS'STD-NC_subcl'
p336
aS'STD-NC_subcl'
p337
aS'STD-NC_subcl'
p338
aS'STD-NC_subcl'
p339
aS'STD-NC_subcl'
p340
aS'STD-NC_subcl'
p341
ag10
asS'subject'
p342
(S'S210421121695'
p343
S'S210421121696'
p344
S'S210421121697'
p345
S'S210421121698'
p346
S'S210421121699'
p347
S'S210421121700'
p348
S'S210421121701'
p349
S'S210421121702'
p350
S'S210421121682'
p351
S'S210421121683'
p352
S'S210421121684'
p353
S'S210421121688'
p354
S'S210421121689'
p355
S'S210421121690'
p356
S'S210421121694'
p357
tp358
ss.