(dp0
S'class_sl'
p1
(dp2
S'STD-NC'
p3
(I8
I15
tp4
sS'HSD-NC'
p5
(I0
I8
tp6
ssS'class_hierarchy'
p7
(dp8
g3
(lp9
S'STD-NC_subcl'
p10
asg5
(lp11
S'HSD-NC_subcl'
p12
assS'feats'
p13
(dp14
S'Bacteria.Chloroflexi'
p15
(lp16
F179.6088243673434
aF0.0
aF0.0
aF0.0
aF0.0
aF0.0
aF0.0
aF0.0
aF0.0
aF0.0
aF0.0
aF0.0
aF0.0
aF0.0
aF0.0
asS'Bacteria.Chloroflexi.Chloroflexia'
p17
(lp18
F179.6088243673434
aF0.0
aF0.0
aF0.0
aF0.0
aF0.0
aF0.0
aF0.0
aF0.0
aF0.0
aF0.0
aF0.0
aF0.0
aF0.0
aF0.0
asS'Bacteria.Firmicutes.Bacilli.Acholeplasmatales'
p19
(lp20
F371.6044642082967
aF0.0
aF0.0
aF0.0
aF299.0877822640945
aF0.0
aF61.3195977434388
aF0.0
aF365.2886671418389
aF104.21798612953346
aF29.663028001898436
aF0.0
aF0.0
aF0.0
aF0.0
asS'Bacteria.Actinobacteriota.Actinobacteria.Micrococcales'
p21
(lp22
F0.0
aF0.0
aF0.0
aF0.0
aF0.0
aF0.0
aF0.0
aF0.0
aF0.0
aF28.423087126236396
aF72.03878229032476
aF0.0
aF340.4963680387408
aF0.0
aF1814.6533256042546
asS'Eukaryota'
p23
(lp24
F1399.7101485179176
aF0.0
aF0.0
aF0.0
aF0.0
aF0.0
aF0.0
aF0.0
aF0.0
aF0.0
aF0.0
aF0.0
aF1823.5472154963675
aF0.0
aF0.0
asS'Bacteria.Firmicutes'
p25
(lp26
F472953.3884133728
aF303310.073809104
aF572867.8130970992
aF941433.0218068536
aF614774.9364438463
aF853873.5241792011
aF908163.6824462432
aF371030.2091402014
aF499750.53456878127
aF611750.1042179859
aF234998.98298189705
aF479184.18408154056
aF928616.8280871671
aF901320.7865642671
aF854021.2213625022
asS'Bacteria.Actinobacteriota.Actinobacteria.Bifidobacteriales'
p27
(lp28
F0.0
aF0.0
aF4603.091888136182
aF7684.319833852545
aF10468.07237924331
aF4609.412906356139
aF163.5189273158368
aF0.0
aF0.0
aF0.0
aF3271.408231066513
aF19185.41457312196
aF10457.021791767553
aF5992.066841083636
aF1512.2111046702123
asS'Bacteria.Desulfobacterota.Desulfovibrionia.Desulfovibrionales'
p29
(lp30
F1827.0552823574587
aF0.0
aF0.0
aF1869.158878504673
aF4635.860625093465
aF0.0
aF0.0
aF0.0
aF0.0
aF0.0
aF0.0
aF0.0
aF0.0
aF0.0
aF0.0
asS'Bacteria.Proteobacteria.Gammaproteobacteria.Pseudomonadales'
p31
(lp32
F173.41541663053846
aF302.2898455802706
aF2026.5184413178158
aF0.0
aF28189.023478390907
aF970.4027171276082
aF5416.564467337094
aF0.0
aF0.0
aF0.0
aF84.75150857685267
aF389.6556674391419
aF756.6585956416463
aF3238.669929951895
aF7989.515336340954
asS'Bacteria.Firmicutes.Clostridia.Lachnospirales'
p33
(lp34
F93099.30509965193
aF75056.04957553468
aF88848.35852006254
aF52128.764278297
aF100867.35456856586
aF136341.58175642893
aF10444.771482299077
aF86754.45391169636
aF238061.29722024233
aF177947.47413499065
aF36489.76201776392
aF23522.897397510307
aF52020.278450363185
aF70501.73010380623
aF95521.33477833508
asS'Bacteria.Firmicutes.Clostridia'
p35
(lp36
F0.0
aF0.0
aF0.0
aF0.0
aF0.0
aF0.0
aF0.0
aF0.0
aF0.0
aF596.8848296509643
aF0.0
aF717.7867558089457
aF0.0
aF0.0
aF0.0
asS'Bacteria.Firmicutes.Clostridia.Clostridia_vadinBB60_group'
p37
(lp38
F12585.004521187648
aF0.0
aF0.0
aF0.0
aF0.0
aF566.0682516577715
aF0.0
aF0.0
aF739.4868139700641
aF947.4362375412132
aF402.5696657400502
aF307.622895346691
aF0.0
aF158.24120178918054
aF0.0
asS'Bacteria.Firmicutes.Bacilli.RF39'
p39
(lp40
F1690.80031214775
aF8010.680907877171
aF19715.129407677607
aF4257.528556593978
aF27067.444294900553
aF12210.90085718907
aF2084.8663232769195
aF2840.1755744900597
aF1033.4996436208125
aF1373.782544434759
aF1279.747779510475
aF3599.187875556285
aF1566.2832929782078
aF1793.400286944046
aF19356.302139778712
asS'Bacteria.Proteobacteria.Gammaproteobacteria.Pasteurellales'
p41
(lp42
F222.962678524978
aF0.0
aF0.0
aF0.0
aF672.9475100942127
aF1374.7371825974449
aF0.0
aF0.0
aF356.3791874554526
aF824.2695266608556
aF0.0
aF0.0
aF0.0
aF0.0
aF1789.4498071930843
asS'Bacteria.Actinobacteriota'
p43
(lp44
F780.369374837423
aF1058.014459530947
aF8858.780614903595
aF27622.014537902392
aF25572.00538358008
aF23532.2658903445
aF19376.992886926662
aF3356.571133488252
aF579.1161796151105
aF2131.73153446773
aF3546.8506339412843
aF27409.199975390165
aF14141.949152542371
aF12701.493796944891
aF42644.35315169999
asS'Bacteria.Proteobacteria.Alphaproteobacteria'
p45
(lp46
F247.73630947219777
aF0.0
aF0.0
aF934.5794392523366
aF7103.334828772245
aF646.9351447517388
aF1921.3473959610824
aF0.0
aF133.64219529579472
aF0.0
aF330.5308834497254
aF61.5245790693382
aF310.230024213075
aF316.4824035783611
aF579.6809234569147
asS'Bacteria.Proteobacteria.Gammaproteobacteria'
p47
(lp48
F7165.7727514833205
aF9534.725546011035
aF16733.25227259568
aF21910.695742471446
aF123373.710183939
aF35338.83228206373
aF23444.526203908103
aF31758.326878388845
aF2539.2017106200997
aF5248.796755978322
aF4826.598413451759
aF6644.654539488525
aF11448.244552058108
aF13735.33631530087
aF40980.92093656275
asS'Bacteria.Cyanobacteria.Cyanobacteriia.Chloroplast'
p49
(lp50
F0.0
aF0.0
aF0.0
aF0.0
aF0.0
aF0.0
aF0.0
aF0.0
aF0.0
aF0.0
aF0.0
aF0.0
aF0.0
aF0.0
aF352.8492577563828
asS'Bacteria.Acidobacteriota.Blastocatellia.Blastocatellales'
p51
(lp52
F0.0
aF0.0
aF0.0
aF0.0
aF0.0
aF0.0
aF0.0
aF0.0
aF0.0
aF0.0
aF0.0
aF0.0
aF0.0
aF0.0
aF378.0527761675531
asS'Bacteria.Patescibacteria.Saccharimonadia.Saccharimonadales'
p53
(lp54
F1486.4178568331868
aF1234.3502027861048
aF9843.089572115106
aF3738.317757009346
aF15253.47689546882
aF32508.491023774874
aF551.8763796909492
aF12651.691195455718
aF507.8403421240199
aF1288.51328305605
aF1178.0459692182521
aF3804.2698057874118
aF5614.406779661015
aF15349.396573550512
aF6351.286639614891
asS'Bacteria.Proteobacteria.Alphaproteobacteria.Rhodospirillales'
p55
(lp56
F0.0
aF0.0
aF0.0
aF0.0
aF0.0
aF0.0
aF0.0
aF0.0
aF133.64219529579472
aF0.0
aF330.5308834497254
aF0.0
aF0.0
aF0.0
aF0.0
asS'Bacteria.Proteobacteria.Gammaproteobacteria.Burkholderiales'
p57
(lp58
F4744.150326392587
aF4849.232939516841
aF4487.290834346592
aF6334.371754932504
aF85464.333781965
aF5175.48115801391
aF11364.56544845066
aF13168.086754453912
aF1772.9864575908766
aF2055.9366354644326
aF4309.614211132958
aF2707.0814790508807
aF5167.978208232445
aF2721.7486707739054
aF21322.17657584999
asS'Bacteria.Campilobacterota.Campylobacteria.Campylobacterales'
p59
(lp60
F0.0
aF0.0
aF0.0
aF0.0
aF0.0
aF0.0
aF0.0
aF0.0
aF0.0
aF66.32053662788492
aF0.0
aF0.0
aF0.0
aF0.0
aF327.64573934521263
asS'Bacteria.Actinobacteriota.Actinobacteria'
p61
(lp62
F0.0
aF0.0
aF4603.091888136182
aF13603.322949117342
aF10468.07237924331
aF4609.412906356139
aF163.5189273158368
aF0.0
aF0.0
aF28.423087126236396
aF3343.447013356838
aF19185.41457312196
aF10797.518159806294
aF5992.066841083636
aF3326.864430274467
asS'Bacteria.Patescibacteria'
p63
(lp64
F1486.4178568331868
aF1234.3502027861048
aF9843.089572115106
aF3738.317757009346
aF15253.47689546882
aF32508.491023774874
aF551.8763796909492
aF12651.691195455718
aF507.8403421240199
aF1288.51328305605
aF1178.0459692182521
aF3804.2698057874118
aF5614.406779661015
aF15349.396573550512
aF6351.286639614891
asS'Bacteria.Proteobacteria.Alphaproteobacteria.Rhizobiales'
p65
(lp66
F247.73630947219777
aF0.0
aF0.0
aF934.5794392523366
aF6131.299536413937
aF646.9351447517388
aF1287.711552612215
aF0.0
aF0.0
aF0.0
aF0.0
aF61.5245790693382
aF310.230024213075
aF221.53768250485277
aF0.0
asS'Bacteria.Firmicutes.Clostridia.Oscillospirales'
p67
(lp68
F222653.00813813775
aF74149.18003879387
aF87719.29824561403
aF29075.804776739362
aF48975.62434574548
aF275109.1703056769
aF41636.00686779495
aF166537.5677769171
aF223298.2893799002
aF238270.73937923973
aF73310.05491897756
aF77233.85492504256
aF119642.85714285712
aF146468.0563760655
aF58169.72049298082
asS'Bacteria.Campilobacterota.Campylobacteria'
p69
(lp70
F0.0
aF0.0
aF0.0
aF0.0
aF0.0
aF0.0
aF0.0
aF0.0
aF0.0
aF66.32053662788492
aF0.0
aF0.0
aF0.0
aF0.0
aF327.64573934521263
asS'Bacteria.Firmicutes.Clostridia.Clostridiales'
p71
(lp72
F371.6044642082967
aF100.76328186009019
aF0.0
aF402284.52751817246
aF18842.530282637956
aF16982.047549733143
aF659390.0744011119
aF12651.691195455718
aF35.637918745545264
aF7437.374464698523
aF1491.626550952607
aF60519.677611205676
aF432907.0823244551
aF235220.27175289058
aF11845.653653249994
asS'Bacteria.Acidobacteriota'
p73
(lp74
F0.0
aF0.0
aF0.0
aF0.0
aF0.0
aF0.0
aF0.0
aF0.0
aF0.0
aF0.0
aF0.0
aF0.0
aF0.0
aF0.0
aF378.0527761675531
asS'Bacteria.Firmicutes.Clostridia.Peptostreptococcales_Tissierellales'
p75
(lp76
F2917.095044035129
aF4181.676197193743
aF24173.469978576806
aF168120.45690550367
aF17048.003589053387
aF19165.453663270262
aF56373.150192134744
aF8262.32894397108
aF3145.0463292943696
aF22804.790237617002
aF2466.2688995864123
aF16898.751051044896
aF151013.9225181598
aF212380.7916279855
aF9829.37218035638
asS'Bacteria.Actinobacteriota.Actinobacteria.Corynebacteriales'
p77
(lp78
F0.0
aF0.0
aF0.0
aF5919.003115264798
aF0.0
aF0.0
aF0.0
aF0.0
aF0.0
aF0.0
aF0.0
aF0.0
aF0.0
aF0.0
aF0.0
asS'Bacteria.Verrucomicrobiota'
p79
(lp80
F6701.26717122295
aF82600.70030480894
aF24607.723930287764
aF0.0
aF897.2633467922835
aF21187.125990619446
aF24425.63976780312
aF10069.713400464756
aF588.0256593014968
aF11767.158070261868
aF37595.76920469184
aF91517.81136564058
aF3488.1961259079894
aF10992.488817621743
aF0.0
asS'Bacteria.Firmicutes.Bacilli.Staphylococcales'
p81
(lp82
F0.0
aF0.0
aF0.0
aF5711.318795430946
aF0.0
aF1617.337861879347
aF0.0
aF0.0
aF0.0
aF0.0
aF25.4254525730558
aF0.0
aF113.49878934624695
aF0.0
aF1360.989994203191
asS'Bacteria.Gemmatimonadota.Gemmatimonadetes'
p83
(lp84
F0.0
aF0.0
aF0.0
aF0.0
aF0.0
aF0.0
aF0.0
aF2840.1755744900597
aF0.0
aF0.0
aF0.0
aF0.0
aF0.0
aF0.0
aF0.0
asS'Bacteria.Verrucomicrobiota.Verrucomicrobiae.Verrucomicrobiales'
p85
(lp86
F6701.26717122295
aF82600.70030480894
aF24607.723930287764
aF0.0
aF897.2633467922835
aF21187.125990619446
aF24425.63976780312
aF10069.713400464756
aF588.0256593014968
aF11767.158070261868
aF37595.76920469184
aF91517.81136564058
aF3488.1961259079894
aF10992.488817621743
aF0.0
asS'Bacteria.Firmicutes.Clostridia.Christensenellales'
p87
(lp88
F1635.0596425165054
aF3136.2571478953073
aF2547.623183370969
aF41536.863966770514
aF30133.09406310752
aF3719.877082322498
aF3863.1346578366447
aF0.0
aF1211.6892373485389
aF1743.2826770758325
aF682.249644043664
aF4511.802465084801
aF575.0605326876512
aF2036.0367963541228
aF167275.75169493663
asS'Bacteria.Bacteroidota.Bacteroidia.Bacteroidales'
p89
(lp90
F506757.0078408542
aF601947.2504219463
aF367089.3405129987
aF1973.0010384215993
aF208389.41229250786
aF32912.82548924471
aF20869.103098683674
aF568293.3126775109
aF494930.5060584462
aF367747.3756016219
aF716777.4086378737
aF391091.2409507598
aF34556.59806295399
aF45584.01552873661
aF52171.28311112232
asS'Bacteria.Proteobacteria.Alphaproteobacteria.Sphingomonadales'
p91
(lp92
F0.0
aF0.0
aF0.0
aF0.0
aF0.0
aF0.0
aF0.0
aF0.0
aF0.0
aF0.0
aF0.0
aF0.0
aF0.0
aF94.94472107350832
aF579.6809234569147
asS'Bacteria.Actinobacteriota.Coriobacteriia'
p93
(lp94
F780.369374837423
aF1058.014459530947
aF4255.688726767413
aF14018.691588785048
aF15103.933004336772
aF18922.85298398836
aF19213.473959610827
aF3356.571133488252
aF579.1161796151105
aF2103.308447341494
aF203.4036205844464
aF8223.785402268206
aF3344.430992736077
aF6709.426955861255
aF39317.48872142552
asS'Bacteria.Firmicutes.Bacilli.Lactobacillales'
p95
(lp96
F55307.13108966816
aF5718.316245560119
aF43280.64385385907
aF32710.280373831778
aF16449.8280245252
aF1779.0716480672816
aF4823.808355817187
aF0.0
aF8579.828937990022
aF61858.11194906581
aF82916.63841616381
aF666.5162732511639
aF18908.898305084742
aF48801.58663178328
aF82995.18612798348
asS'Bacteria.Firmicutes.Clostridia.Clostridia_UCG_014'
p97
(lp98
F35853.63738836383
aF116205.25480514902
aF176972.96045394012
aF69989.61578400832
aF281890.23478390905
aF267912.0168203138
aF36546.480255089526
aF62225.66485928221
aF11519.957234497506
aF70820.8587562057
aF23539.73150722083
aF237495.12930415702
aF57006.65859564164
aF100029.53835766732
aF275247.6245683898
asS'Bacteria.Cyanobacteria'
p99
(lp100
F501.66602668120055
aF188.93115348766912
aF0.0
aF519.2107995846314
aF0.0
aF0.0
aF0.0
aF0.0
aF294.0128296507484
aF0.0
aF745.8132754763035
aF287.11470232357823
aF0.0
aF0.0
aF2545.555359528191
asS'Bacteria.Proteobacteria.Alphaproteobacteria.Caulobacterales'
p101
(lp102
F0.0
aF0.0
aF0.0
aF0.0
aF972.0352923583072
aF0.0
aF633.6358433488676
aF0.0
aF0.0
aF0.0
aF0.0
aF0.0
aF0.0
aF0.0
aF0.0
asS'Bacteria.Firmicutes.Clostridia.Clostridia'
p103
(lp104
F0.0
aF0.0
aF0.0
aF0.0
aF0.0
aF0.0
aF0.0
aF0.0
aF178.1895937277263
aF113.69234850494558
aF0.0
aF0.0
aF0.0
aF0.0
aF0.0
asS'Bacteria.Deferribacterota.Deferribacteres'
p105
(lp106
F0.0
aF125.95410232511273
aF0.0
aF0.0
aF0.0
aF0.0
aF0.0
aF0.0
aF677.12045616536
aF0.0
aF0.0
aF0.0
aF0.0
aF0.0
aF0.0
asS'Bacteria.Firmicutes.Bacilli.Izemoplasmatales'
p107
(lp108
F117.67474699929394
aF0.0
aF0.0
aF0.0
aF0.0
aF0.0
aF0.0
aF0.0
aF0.0
aF104.21798612953346
aF0.0
aF0.0
aF0.0
aF0.0
aF0.0
asS'Bacteria.Campilobacterota'
p109
(lp110
F0.0
aF0.0
aF0.0
aF0.0
aF0.0
aF0.0
aF0.0
aF0.0
aF0.0
aF66.32053662788492
aF0.0
aF0.0
aF0.0
aF0.0
aF327.64573934521263
asS'Bacteria.Bacteroidota.Bacteroidia'
p111
(lp112
F506757.0078408542
aF601947.2504219463
aF367089.3405129987
aF1973.0010384215993
aF208389.41229250786
aF32912.82548924471
aF22115.934919466927
aF568293.3126775109
aF494930.5060584462
aF367747.3756016219
aF716777.4086378737
aF391091.2409507598
aF34556.59806295399
aF45584.01552873661
aF52171.28311112232
asS'Bacteria.Firmicutes.Clostridia.Peptococcales'
p113
(lp114
F891.850714099912
aF579.3888706955186
aF434.25395171096056
aF0.0
aF0.0
aF0.0
aF81.7594636579184
aF0.0
aF3866.714183891661
aF4443.47595406829
aF7055.563089022984
aF153.8114476733455
aF242.13075060532682
aF210.98826905224072
aF226.83166570053183
asS'Bacteria.Desulfobacterota.Desulfovibrionia'
p115
(lp116
F1827.0552823574587
aF0.0
aF0.0
aF1869.158878504673
aF4635.860625093465
aF0.0
aF0.0
aF0.0
aF0.0
aF0.0
aF0.0
aF0.0
aF0.0
aF0.0
aF0.0
asS'Bacteria.Bacteroidota'
p117
(lp118
F506757.0078408542
aF601947.2504219463
aF367089.3405129987
aF1973.0010384215993
aF208389.41229250786
aF32912.82548924471
aF22115.934919466927
aF568293.3126775109
aF494930.5060584462
aF367747.3756016219
aF716777.4086378737
aF391091.2409507598
aF34556.59806295399
aF45584.01552873661
aF52171.28311112232
asS'Bacteria'
p119
(lp120
F998600.289851482
aF1000000.0
aF1000000.0
aF1000000.0
aF1000000.0
aF1000000.0
aF1000000.0
aF1000000.0
aF1000000.0
aF1000000.0
aF1000000.0
aF1000000.0
aF998176.4527845036
aF1000000.0
aF1000000.0
asS'Bacteria.Desulfobacterota'
p121
(lp122
F1827.0552823574587
aF0.0
aF0.0
aF1869.158878504673
aF4635.860625093465
aF0.0
aF0.0
aF0.0
aF0.0
aF0.0
aF0.0
aF0.0
aF0.0
aF0.0
aF0.0
asS'Bacteria.Firmicutes.Bacilli.Bacillales'
p123
(lp124
F0.0
aF0.0
aF0.0
aF0.0
aF0.0
aF0.0
aF0.0
aF0.0
aF0.0
aF0.0
aF0.0
aF0.0
aF0.0
aF0.0
aF932.5301812132975
asS'Bacteria.Patescibacteria.Saccharimonadia'
p125
(lp126
F1486.4178568331868
aF1234.3502027861048
aF9843.089572115106
aF3738.317757009346
aF15253.47689546882
aF32508.491023774874
aF551.8763796909492
aF12651.691195455718
aF507.8403421240199
aF1288.51328305605
aF1178.0459692182521
aF3804.2698057874118
aF5614.406779661015
aF15349.396573550512
aF6351.286639614891
asS'Bacteria.Cyanobacteria.Cyanobacteriia'
p127
(lp128
F0.0
aF0.0
aF0.0
aF0.0
aF0.0
aF0.0
aF0.0
aF0.0
aF0.0
aF0.0
aF0.0
aF0.0
aF0.0
aF0.0
aF352.8492577563828
asS'Bacteria.Gemmatimonadota.Gemmatimonadetes.Gemmatimonadales'
p129
(lp130
F0.0
aF0.0
aF0.0
aF0.0
aF0.0
aF0.0
aF0.0
aF2840.1755744900597
aF0.0
aF0.0
aF0.0
aF0.0
aF0.0
aF0.0
aF0.0
asS'Bacteria.Firmicutes.Clostridia.Eubacteriales'
p131
(lp132
F111.481339262489
aF365.26689674282693
aF1186.9608013432921
aF0.0
aF0.0
aF404.33446546983674
aF0.0
aF0.0
aF0.0
aF75.79489900329706
aF0.0
aF328.1310883698037
aF75.66585956416463
aF189.88944214701664
aF0.0
asS'Bacteria.Chloroflexi.Chloroflexia.Chloroflexales'
p133
(lp134
F179.6088243673434
aF0.0
aF0.0
aF0.0
aF0.0
aF0.0
aF0.0
aF0.0
aF0.0
aF0.0
aF0.0
aF0.0
aF0.0
aF0.0
aF0.0
asS'Bacteria.Bacteroidota.Bacteroidia.Flavobacteriales'
p135
(lp136
F0.0
aF0.0
aF0.0
aF0.0
aF0.0
aF0.0
aF1246.8318207832558
aF0.0
aF0.0
aF0.0
aF0.0
aF0.0
aF0.0
aF0.0
aF0.0
asS'Bacteria.Proteobacteria.Gammaproteobacteria.Enterobacterales'
p137
(lp138
F2025.244329935217
aF4383.202760913924
aF10016.791152799491
aF15576.323987538943
aF9047.40541348886
aF27818.21122432477
aF6663.39628812035
aF18590.24012393493
aF409.8360655737705
aF2368.590593853033
aF432.2326937419486
aF3547.917392998503
aF5523.607748184018
aF7774.91771457507
aF9879.779217178719
asS'Bacteria.Gemmatimonadota'
p139
(lp140
F0.0
aF0.0
aF0.0
aF0.0
aF0.0
aF0.0
aF0.0
aF2840.1755744900597
aF0.0
aF0.0
aF0.0
aF0.0
aF0.0
aF0.0
aF0.0
asS'Bacteria.Firmicutes.Clostridia.Monoglobales'
p141
(lp142
F16666.460219742108
aF340.0760762778044
aF1042.2094841063054
aF2284.527518172378
aF0.0
aF79087.82144590006
aF1962.2271277900415
aF26336.173508907825
aF5167.498218104063
aF9588.05472391708
aF55.08848057495423
aF7823.875638317508
aF4010.2905569007257
aF9294.033251751205
aF60286.81603951912
asS'Bacteria.Firmicutes.Bacilli'
p143
(lp144
F23671.2043700685
aF8653.046829735245
aF23478.663655839267
aF934.5794392523366
aF0.0
aF0.0
aF1430.7906140135722
aF0.0
aF0.0
aF900.0644256641526
aF2432.3682961556715
aF143.55735116178911
aF1422.518159806295
aF654.0636340619462
aF4360.208685132445
asS'Bacteria.Cyanobacteria.Vampirivibrionia'
p145
(lp146
F501.66602668120055
aF188.93115348766912
aF0.0
aF519.2107995846314
aF0.0
aF0.0
aF0.0
aF0.0
aF294.0128296507484
aF0.0
aF745.8132754763035
aF287.11470232357823
aF0.0
aF0.0
aF2192.706101771808
asS'Bacteria.Acidobacteriota.Blastocatellia'
p147
(lp148
F0.0
aF0.0
aF0.0
aF0.0
aF0.0
aF0.0
aF0.0
aF0.0
aF0.0
aF0.0
aF0.0
aF0.0
aF0.0
aF0.0
aF378.0527761675531
asS'Bacteria.Proteobacteria.Gammaproteobacteria.Xanthomonadales'
p149
(lp150
F0.0
aF0.0
aF202.6518441317816
aF0.0
aF0.0
aF0.0
aF0.0
aF0.0
aF0.0
aF0.0
aF0.0
aF0.0
aF0.0
aF0.0
aF0.0
asS'Bacteria.Cyanobacteria.Vampirivibrionia.Gastranaerophilales'
p151
(lp152
F501.66602668120055
aF188.93115348766912
aF0.0
aF519.2107995846314
aF0.0
aF0.0
aF0.0
aF0.0
aF294.0128296507484
aF0.0
aF745.8132754763035
aF287.11470232357823
aF0.0
aF0.0
aF2192.706101771808
asS'Bacteria.Deferribacterota.Deferribacteres.Deferribacterales'
p153
(lp154
F0.0
aF125.95410232511273
aF0.0
aF0.0
aF0.0
aF0.0
aF0.0
aF0.0
aF677.12045616536
aF0.0
aF0.0
aF0.0
aF0.0
aF0.0
aF0.0
asS'Bacteria.Verrucomicrobiota.Verrucomicrobiae'
p155
(lp156
F6701.26717122295
aF82600.70030480894
aF24607.723930287764
aF0.0
aF897.2633467922835
aF21187.125990619446
aF24425.63976780312
aF10069.713400464756
aF588.0256593014968
aF11767.158070261868
aF37595.76920469184
aF91517.81136564058
aF3488.1961259079894
aF10992.488817621743
aF0.0
asS'Bacteria.Proteobacteria'
p157
(lp158
F7413.509060955519
aF9534.725546011035
aF16733.25227259568
aF22845.275181723784
aF130477.04501271124
aF35985.767426815466
aF25365.87359986918
aF31758.326878388845
aF2672.8439059158945
aF5248.796755978322
aF5157.129296901485
aF6706.179118557864
aF11758.474576271185
aF14051.818718879233
aF41560.60186001966
asS'Bacteria.Deferribacterota'
p159
(lp160
F0.0
aF125.95410232511273
aF0.0
aF0.0
aF0.0
aF0.0
aF0.0
aF0.0
aF677.12045616536
aF0.0
aF0.0
aF0.0
aF0.0
aF0.0
aF0.0
asS'Bacteria.Actinobacteriota.Coriobacteriia.Coriobacteriales'
p161
(lp162
F780.369374837423
aF1058.014459530947
aF4255.688726767413
aF14018.691588785048
aF15103.933004336772
aF18922.85298398836
aF19213.473959610827
aF3356.571133488252
aF579.1161796151105
aF2103.308447341494
aF203.4036205844464
aF8223.785402268206
aF3344.430992736077
aF6709.426955861255
aF39317.48872142552
asS'Bacteria.Firmicutes.Clostridia.uncultured'
p163
(lp164
F0.0
aF390.4577172078495
aF0.0
aF0.0
aF0.0
aF0.0
aF0.0
aF0.0
aF0.0
aF0.0
aF0.0
aF0.0
aF0.0
aF0.0
aF0.0
asS'Bacteria.Firmicutes.Bacilli.Erysipelotrichales'
p165
(lp166
F5010.466859075201
aF6423.659218580749
aF103468.24156099821
aF132398.753894081
aF73201.73470913713
aF38977.842471292264
aF89465.29310767722
aF5422.153369481022
aF2548.1111903064857
aF12619.85068404896
aF2822.225235609194
aF45261.5820020098
aF89111.68280871668
aF73582.15883196896
aF66612.89916072285
assS'subclass_sl'
p167
(dp168
g12
(I0
I8
tp169
sg10
(I8
I15
tp170
ssS'norm'
p171
F1000000.0
sS'cls'
p172
(dp173
S'class'
p174
(S'HSD-NC'
p175
S'HSD-NC'
p176
S'HSD-NC'
p177
S'HSD-NC'
p178
S'HSD-NC'
p179
S'HSD-NC'
p180
S'HSD-NC'
p181
g5
S'STD-NC'
p182
S'STD-NC'
p183
S'STD-NC'
p184
S'STD-NC'
p185
S'STD-NC'
p186
S'STD-NC'
p187
g3
tp188
sS'subclass'
p189
(lp190
S'HSD-NC_subcl'
p191
aS'HSD-NC_subcl'
p192
aS'HSD-NC_subcl'
p193
aS'HSD-NC_subcl'
p194
aS'HSD-NC_subcl'
p195
aS'HSD-NC_subcl'
p196
aS'HSD-NC_subcl'
p197
ag12
aS'STD-NC_subcl'
p198
aS'STD-NC_subcl'
p199
aS'STD-NC_subcl'
p200
aS'STD-NC_subcl'
p201
aS'STD-NC_subcl'
p202
aS'STD-NC_subcl'
p203
ag10
asS'subject'
p204
(S'S210421121695'
p205
S'S210421121696'
p206
S'S210421121697'
p207
S'S210421121698'
p208
S'S210421121699'
p209
S'S210421121700'
p210
S'S210421121701'
p211
S'S210421121702'
p212
S'S210421121682'
p213
S'S210421121683'
p214
S'S210421121684'
p215
S'S210421121688'
p216
S'S210421121689'
p217
S'S210421121690'
p218
S'S210421121694'
p219
tp220
ss.