(dp0
S'class_sl'
p1
(dp2
S'STD-NC'
p3
(I8
I15
tp4
sS'HSD-NC'
p5
(I0
I8
tp6
ssS'class_hierarchy'
p7
(dp8
g3
(lp9
S'STD-NC_subcl'
p10
asg5
(lp11
S'HSD-NC_subcl'
p12
assS'feats'
p13
(dp14
S'Bacteria.Firmicutes.Clostridia.Lachnospirales.Lachnospiraceae._Eubacterium__ventriosum_group.uncultured_Clostridiales'
p15
(lp16
F0.0
aF0.0
aF0.0
aF0.0
aF0.0
aF1374.7371825974446
aF0.0
aF4905.757810482828
aF864.2195295794726
aF0.0
aF385.61936402467967
aF0.0
aF0.0
aF0.0
aF0.0
asS'Bacteria.Firmicutes.Bacilli.Acholeplasmatales'
p17
(lp18
F371.6044642082966
aF0.0
aF0.0
aF0.0
aF299.0877822640946
aF0.0
aF61.3195977434388
aF0.0
aF365.2886671418389
aF104.2179861295335
aF29.66302800189844
aF0.0
aF0.0
aF0.0
aF0.0
asS'Bacteria.Firmicutes.Bacilli.Lactobacillales.Streptococcaceae'
p19
(lp20
F0.0
aF503.8164093004509
aF0.0
aF4049.8442367601256
aF4262.000897263348
aF0.0
aF2207.5055187637968
aF0.0
aF0.0
aF0.0
aF203.40362058444643
aF0.0
aF158.89830508474577
aF0.0
aF5015.50016382287
asS'Bacteria.Cyanobacteria.Vampirivibrionia.Gastranaerophilales.Gastranaerophilales'
p21
(lp22
F501.66602668120044
aF188.93115348766912
aF0.0
aF519.2107995846314
aF0.0
aF0.0
aF0.0
aF0.0
aF294.0128296507484
aF0.0
aF745.8132754763036
aF287.1147023235783
aF0.0
aF0.0
aF2192.706101771808
asS'Bacteria.Firmicutes.Clostridia.Oscillospirales.Ruminococcaceae.uncultured.uncultured_bacterium'
p23
(lp24
F737.0155206797882
aF0.0
aF0.0
aF0.0
aF0.0
aF0.0
aF0.0
aF0.0
aF739.4868139700641
aF341.0770455148369
aF0.0
aF0.0
aF0.0
aF0.0
aF554.4774050457445
asS'Bacteria.Firmicutes.Clostridia.Clostridiales.Clostridiaceae.Candidatus_Arthromitus'
p25
(lp26
F260.1231249458076
aF0.0
aF0.0
aF0.0
aF0.0
aF0.0
aF0.0
aF0.0
aF0.0
aF0.0
aF0.0
aF0.0
aF0.0
aF0.0
aF0.0
asS'Bacteria.Firmicutes.Clostridia.Lachnospirales.Lachnospiraceae.Lachnospiraceae_UCG_006'
p27
(lp28
F2446.396056037953
aF0.0
aF1100.1100110011
aF3219.106957424715
aF0.0
aF0.0
aF0.0
aF0.0
aF2628.296507483963
aF4140.296358055104
aF80.51393314801005
aF2317.425811611739
aF529.6610169491526
aF2774.495738036964
aF0.0
asS'Bacteria.Firmicutes.Clostridia.Lachnospirales.Lachnospiraceae.Lachnospiraceae_UCG_001'
p29
(lp30
F452.1187647867609
aF0.0
aF0.0
aF0.0
aF0.0
aF0.0
aF0.0
aF0.0
aF0.0
aF0.0
aF0.0
aF0.0
aF0.0
aF0.0
aF0.0
asS'Bacteria.Actinobacteriota.Actinobacteria.Bifidobacteriales.Bifidobacteriaceae.Bifidobacterium.Bifidobacterium_animalis'
p31
(lp32
F0.0
aF0.0
aF4603.091888136182
aF7684.319833852545
aF0.0
aF4609.412906356138
aF163.5189273158368
aF0.0
aF0.0
aF0.0
aF974.6423486338058
aF502.45072906626206
aF3019.06779661017
aF1635.159085154865
aF1512.2111046702123
asS'Bacteria.Cyanobacteria.Vampirivibrionia.Gastranaerophilales'
p33
(lp34
F501.66602668120044
aF188.93115348766912
aF0.0
aF519.2107995846314
aF0.0
aF0.0
aF0.0
aF0.0
aF294.0128296507484
aF0.0
aF745.8132754763036
aF287.1147023235783
aF0.0
aF0.0
aF2192.706101771808
asS'Bacteria.Verrucomicrobiota.Verrucomicrobiae.Verrucomicrobiales.Akkermansiaceae.Akkermansia'
p35
(lp36
F6701.2671712229485
aF82600.70030480894
aF24607.723930287764
aF0.0
aF897.2633467922838
aF21187.125990619443
aF24425.63976780312
aF10069.713400464754
aF588.0256593014968
aF11767.158070261874
aF37595.769204691846
aF91517.81136564059
aF3488.196125907991
aF10992.48881762174
aF0.0
asS'Bacteria.Firmicutes.Clostridia.Oscillospirales.Oscillospiraceae.UCG_005.uncultured_rumen'
p37
(lp38
F470.69898799717566
aF0.0
aF0.0
aF0.0
aF0.0
aF0.0
aF0.0
aF0.0
aF0.0
aF0.0
aF0.0
aF0.0
aF0.0
aF0.0
aF0.0
asS'Bacteria.Firmicutes.Clostridia.Oscillospirales.Ruminococcaceae.Negativibacillus.uncultured_bacterium'
p39
(lp40
F309.67038684024715
aF0.0
aF0.0
aF0.0
aF0.0
aF0.0
aF0.0
aF0.0
aF0.0
aF151.5897980065942
aF0.0
aF0.0
aF0.0
aF0.0
aF0.0
asS'Bacteria.Firmicutes.Clostridia.Oscillospirales.Ruminococcaceae.Anaerofilum'
p41
(lp42
F0.0
aF0.0
aF0.0
aF0.0
aF0.0
aF0.0
aF0.0
aF0.0
aF712.7583749109052
aF0.0
aF0.0
aF0.0
aF0.0
aF0.0
aF0.0
asS'Bacteria.Firmicutes.Bacilli.Lactobacillales.Lactobacillaceae.Lactobacillus'
p43
(lp44
F45775.476582725336
aF3854.19553114845
aF29587.16924324011
aF27414.33021806854
aF11365.335726035595
aF1779.071648067281
aF2616.302837053389
aF0.0
aF4267.640769779045
aF50024.63334217608
aF73276.15431554682
aF666.5162732511639
aF18265.73849878935
aF48801.58663178326
aF64193.3613932505
asS'Bacteria.Actinobacteriota.Actinobacteria.Bifidobacteriales'
p45
(lp46
F0.0
aF0.0
aF4603.091888136182
aF7684.319833852545
aF10468.072379243311
aF4609.412906356138
aF163.5189273158368
aF0.0
aF0.0
aF0.0
aF3271.4082310665135
aF19185.414573121965
aF10457.021791767556
aF5992.066841083634
aF1512.2111046702123
asS'Bacteria.Firmicutes.Clostridia.uncultured'
p47
(lp48
F0.0
aF390.4577172078495
aF0.0
aF0.0
aF0.0
aF0.0
aF0.0
aF0.0
aF0.0
aF0.0
aF0.0
aF0.0
aF0.0
aF0.0
aF0.0
asS'Bacteria.Desulfobacterota.Desulfovibrionia'
p49
(lp50
F1827.0552823574583
aF0.0
aF0.0
aF1869.158878504673
aF4635.860625093466
aF0.0
aF0.0
aF0.0
aF0.0
aF0.0
aF0.0
aF0.0
aF0.0
aF0.0
aF0.0
asS'Bacteria.Firmicutes.Bacilli.Erysipelotrichales.Erysipelotrichaceae.Faecalibaculum'
p51
(lp52
F0.0
aF188.93115348766912
aF1013.2592206589079
aF0.0
aF0.0
aF0.0
aF1737.388602730766
aF0.0
aF0.0
aF180.0128851328306
aF88.98908400569532
aF5691.0235639137845
aF711.2590799031477
aF717.3601147776183
aF856.9196259797869
asS'Bacteria.Cyanobacteria.Vampirivibrionia'
p53
(lp54
F501.66602668120044
aF188.93115348766912
aF0.0
aF519.2107995846314
aF0.0
aF0.0
aF0.0
aF0.0
aF294.0128296507484
aF0.0
aF745.8132754763036
aF287.1147023235783
aF0.0
aF0.0
aF2192.706101771808
asS'Bacteria.Bacteroidota.Bacteroidia.Bacteroidales.Muribaculaceae.Muribaculaceae'
p55
(lp56
F43669.71795221166
aF28238.909741290277
aF48433.7907474958
aF0.0
aF26618.812621504418
aF0.0
aF4169.732646553839
aF40537.05138135811
aF61956.52173913044
aF51284.72353810589
aF45308.15648518544
aF9823.424458071
aF1316.585956416465
aF0.0
aF1814.6533256042546
asS'Bacteria.Firmicutes.Clostridia.Lachnospirales.Lachnospiraceae.Frisingicoccus'
p57
(lp58
F1040.4924997832304
aF0.0
aF0.0
aF0.0
aF7252.878719904294
aF1213.0033964095098
aF0.0
aF0.0
aF0.0
aF701.1028157804981
aF76.27635771916741
aF1281.762063944546
aF0.0
aF0.0
aF579.6809234569147
asS'Bacteria.Proteobacteria.Gammaproteobacteria.Pasteurellales'
p59
(lp60
F222.96267852497795
aF0.0
aF0.0
aF0.0
aF672.9475100942128
aF1374.7371825974446
aF0.0
aF0.0
aF356.3791874554526
aF824.269526660856
aF0.0
aF0.0
aF0.0
aF0.0
aF1789.4498071930843
asS'Bacteria.Proteobacteria.Gammaproteobacteria.Pseudomonadales.Moraxellaceae.Acinetobacter'
p61
(lp62
F49.54726189443954
aF0.0
aF0.0
aF0.0
aF0.0
aF0.0
aF2738.942032540266
aF0.0
aF0.0
aF0.0
aF0.0
aF0.0
aF0.0
aF0.0
aF1159.3618469138294
asS'Bacteria.Firmicutes.Clostridia.Clostridia_vadinBB60_group'
p63
(lp64
F12585.004521187644
aF0.0
aF0.0
aF0.0
aF0.0
aF566.0682516577713
aF0.0
aF0.0
aF739.4868139700641
aF947.4362375412138
aF402.56966574005025
aF307.62289534669105
aF0.0
aF158.24120178918048
aF0.0
asS'Bacteria.Firmicutes.Bacilli.Erysipelotrichales.Erysipelatoclostridiaceae.UCG_004'
p65
(lp66
F1263.4551783082086
aF0.0
aF0.0
aF0.0
aF0.0
aF0.0
aF0.0
aF0.0
aF329.65074839629364
aF729.5259029067346
aF0.0
aF0.0
aF0.0
aF0.0
aF252.035184111702
asS'Bacteria.Firmicutes.Clostridia.Oscillospirales.Oscillospiraceae.Oscillospira.uncultured_bacterium'
p67
(lp68
F0.0
aF0.0
aF0.0
aF0.0
aF5159.264244055631
aF0.0
aF0.0
aF0.0
aF0.0
aF0.0
aF0.0
aF0.0
aF0.0
aF0.0
aF0.0
asS'Bacteria.Firmicutes.Clostridia.Oscillospirales.Oscillospiraceae.Colidextribacter'
p69
(lp70
F1121.0068003616948
aF0.0
aF0.0
aF0.0
aF0.0
aF0.0
aF0.0
aF0.0
aF2788.667141838917
aF1335.8850949331113
aF682.249644043664
aF0.0
aF0.0
aF1002.194277998143
aF932.5301812132975
asS'Bacteria.Bacteroidota.Bacteroidia.Bacteroidales.Tannerellaceae'
p71
(lp72
F2464.9762792483675
aF2292.364662317052
aF839.5576399745238
aF0.0
aF1121.5791834903546
aF0.0
aF0.0
aF0.0
aF320.74126870990733
aF483.19248114601896
aF8631.941148552445
aF646.0080802280512
aF279.9636803874092
aF0.0
aF0.0
asS'Bacteria.Firmicutes.Clostridia.Peptostreptococcales_Tissierellales.Anaerovoracaceae.Family_XIII_UCG_001.uncultured_bacterium'
p73
(lp74
F148.64178568331863
aF0.0
aF0.0
aF0.0
aF0.0
aF0.0
aF0.0
aF0.0
aF267.28439059158944
aF208.435972259067
aF0.0
aF0.0
aF0.0
aF0.0
aF0.0
asS'Bacteria.Bacteroidota.Bacteroidia.Bacteroidales.Muribaculaceae'
p75
(lp76
F384053.2137592746
aF446759.2009471749
aF333014.88043541193
aF1973.0010384215993
aF164722.5960819501
aF30405.951803331718
aF19581.391546071456
aF568293.3126775108
aF391482.5374198147
aF332190.0936067003
aF390933.2836124483
aF375289.6782264515
aF32210.956416464895
aF45320.28019242129
aF47180.98646571062
asS'Bacteria.Proteobacteria.Alphaproteobacteria.Rhizobiales'
p77
(lp78
F247.73630947219772
aF0.0
aF0.0
aF934.5794392523366
aF6131.299536413939
aF646.9351447517387
aF1287.711552612215
aF0.0
aF0.0
aF0.0
aF0.0
aF61.52457906933821
aF310.23002421307507
aF221.53768250485268
aF0.0
asS'Bacteria.Bacteroidota.Bacteroidia.Bacteroidales.Muribaculaceae.Muribaculaceae.uncultured_Bacteroidales'
p79
(lp80
F464.5055802603708
aF2204.1967906894733
aF781.657113079729
aF0.0
aF0.0
aF0.0
aF0.0
aF0.0
aF980.0427655024947
aF1108.5003979232201
aF11636.382127601872
aF635.7539837164948
aF0.0
aF0.0
aF0.0
asS'Bacteria.Firmicutes.Clostridia.Lachnospirales.Defluviitaleaceae.Defluviitaleaceae_UCG_011'
p81
(lp82
F545.019880838835
aF1662.5941506914883
aF0.0
aF0.0
aF0.0
aF0.0
aF0.0
aF0.0
aF0.0
aF0.0
aF0.0
aF0.0
aF0.0
aF0.0
aF0.0
asS'Bacteria.Actinobacteriota.Actinobacteria.Corynebacteriales'
p83
(lp84
F0.0
aF0.0
aF0.0
aF5919.003115264798
aF0.0
aF0.0
aF0.0
aF0.0
aF0.0
aF0.0
aF0.0
aF0.0
aF0.0
aF0.0
aF0.0
asS'Bacteria.Verrucomicrobiota'
p85
(lp86
F6701.2671712229485
aF82600.70030480894
aF24607.723930287764
aF0.0
aF897.2633467922838
aF21187.125990619443
aF24425.63976780312
aF10069.713400464754
aF588.0256593014968
aF11767.158070261874
aF37595.769204691846
aF91517.81136564059
aF3488.196125907991
aF10992.48881762174
aF0.0
asS'Bacteria.Firmicutes.Clostridia.Lachnospirales.Lachnospiraceae.Tuzzerella'
p87
(lp88
F0.0
aF0.0
aF0.0
aF0.0
aF0.0
aF0.0
aF0.0
aF0.0
aF0.0
aF0.0
aF0.0
aF164.06554418490188
aF0.0
aF0.0
aF0.0
asS'Bacteria.Firmicutes.Bacilli.Bacillales.Bacillaceae.Anoxybacillus'
p89
(lp90
F0.0
aF0.0
aF0.0
aF0.0
aF0.0
aF0.0
aF0.0
aF0.0
aF0.0
aF0.0
aF0.0
aF0.0
aF0.0
aF0.0
aF932.5301812132975
asS'Bacteria.Bacteroidota.Bacteroidia.Bacteroidales.Muribaculaceae.Muribaculaceae.uncultured_Barnesiella'
p91
(lp92
F0.0
aF0.0
aF0.0
aF0.0
aF0.0
aF0.0
aF0.0
aF0.0
aF0.0
aF0.0
aF0.0
aF0.0
aF0.0
aF0.0
aF378.0527761675531
asS'Bacteria.Bacteroidota.Bacteroidia.Bacteroidales'
p93
(lp94
F506757.007840854
aF601947.2504219464
aF367089.34051299863
aF1973.0010384215993
aF208389.41229250788
aF32912.82548924471
aF20869.103098683674
aF568293.3126775108
aF494930.5060584462
aF367747.37560162204
aF716777.4086378738
aF391091.2409507599
aF34556.598062954
aF45584.01552873659
aF52171.28311112232
asS'Bacteria.Cyanobacteria'
p95
(lp96
F501.66602668120044
aF188.93115348766912
aF0.0
aF519.2107995846314
aF0.0
aF0.0
aF0.0
aF0.0
aF294.0128296507484
aF0.0
aF745.8132754763036
aF287.1147023235783
aF0.0
aF0.0
aF2545.555359528191
asS'Bacteria.Cyanobacteria.Cyanobacteriia.Chloroplast.Chloroplast.Chloroplast'
p97
(lp98
F0.0
aF0.0
aF0.0
aF0.0
aF0.0
aF0.0
aF0.0
aF0.0
aF0.0
aF0.0
aF0.0
aF0.0
aF0.0
aF0.0
aF352.8492577563828
asS'Bacteria.Firmicutes.Bacilli.Izemoplasmatales'
p99
(lp100
F117.67474699929392
aF0.0
aF0.0
aF0.0
aF0.0
aF0.0
aF0.0
aF0.0
aF0.0
aF104.2179861295335
aF0.0
aF0.0
aF0.0
aF0.0
aF0.0
asS'Bacteria.Firmicutes.Clostridia.Peptococcales'
p101
(lp102
F891.8507140999118
aF579.3888706955186
aF434.25395171096056
aF0.0
aF0.0
aF0.0
aF81.7594636579184
aF0.0
aF3866.714183891661
aF4443.475954068292
aF7055.563089022985
aF153.81144767334553
aF242.1307506053269
aF210.98826905224064
aF226.83166570053183
asS'Bacteria.Firmicutes.Bacilli.Staphylococcales.Staphylococcaceae.Jeotgalicoccus'
p103
(lp104
F0.0
aF0.0
aF0.0
aF3946.0020768431987
aF0.0
aF0.0
aF0.0
aF0.0
aF0.0
aF0.0
aF25.425452573055804
aF0.0
aF0.0
aF0.0
aF0.0
asS'Bacteria.Firmicutes.Clostridia.Oscillospirales.Ruminococcaceae.UBA1819'
p105
(lp106
F167.22200889373346
aF0.0
aF0.0
aF0.0
aF0.0
aF0.0
aF0.0
aF0.0
aF1568.0684248039913
aF331.6026831394248
aF0.0
aF953.6309755747423
aF0.0
aF168.79061524179252
aF781.3090707462762
asS'Bacteria.Firmicutes.Clostridia.Oscillospirales.UCG_010'
p107
(lp108
F1294.4222169922332
aF642.365921858075
aF0.0
aF0.0
aF0.0
aF0.0
aF0.0
aF0.0
aF490.02138275124736
aF1373.7825444347598
aF817.8520577666284
aF1538.1144767334551
aF45.39951573849879
aF0.0
aF0.0
asS'Bacteria.Proteobacteria.Gammaproteobacteria.Burkholderiales.Oxalobacteraceae'
p109
(lp110
F0.0
aF0.0
aF434.25395171096056
aF0.0
aF0.0
aF0.0
aF429.2371842040716
aF13168.086754453909
aF0.0
aF0.0
aF0.0
aF0.0
aF0.0
aF0.0
aF655.2914786904253
asS'Bacteria.Firmicutes.Clostridia.Oscillospirales.Ruminococcaceae.Anaerofilum.uncultured_bacterium'
p111
(lp112
F0.0
aF0.0
aF0.0
aF0.0
aF0.0
aF0.0
aF0.0
aF0.0
aF712.7583749109052
aF0.0
aF0.0
aF0.0
aF0.0
aF0.0
aF0.0
asS'Bacteria.Firmicutes.Clostridia.Clostridia_UCG_014.Clostridia_UCG_014.Clostridia_UCG_014.uncultured_bacterium'
p113
(lp114
F11414.450458931511
aF705.3429730206313
aF0.0
aF6334.371754932504
aF3439.5094960370875
aF81271.22755943716
aF0.0
aF0.0
aF1015.6806842480398
aF2690.7189146170467
aF0.0
aF16755.193699883108
aF2179.176755447942
aF6435.14220609334
aF0.0
asS'Bacteria.Bacteroidota.Bacteroidia.Flavobacteriales.Weeksellaceae.Chryseobacterium.Chryseobacterium_hominis'
p115
(lp116
F0.0
aF0.0
aF0.0
aF0.0
aF0.0
aF0.0
aF1246.8318207832558
aF0.0
aF0.0
aF0.0
aF0.0
aF0.0
aF0.0
aF0.0
aF0.0
asS'Bacteria.Gemmatimonadota.Gemmatimonadetes.Gemmatimonadales.Gemmatimonadaceae.Roseisolibacter.uncultured_bacterium'
p117
(lp118
F0.0
aF0.0
aF0.0
aF0.0
aF0.0
aF0.0
aF0.0
aF2840.175574490059
aF0.0
aF0.0
aF0.0
aF0.0
aF0.0
aF0.0
aF0.0
asS'Bacteria.Proteobacteria.Alphaproteobacteria.Sphingomonadales.Sphingomonadaceae.Sphingomonas'
p119
(lp120
F0.0
aF0.0
aF0.0
aF0.0
aF0.0
aF0.0
aF0.0
aF0.0
aF0.0
aF0.0
aF0.0
aF0.0
aF0.0
aF94.94472107350829
aF0.0
asS'Bacteria.Firmicutes.Clostridia.Eubacteriales.Anaerofustaceae'
p121
(lp122
F111.48133926248897
aF365.26689674282693
aF1186.9608013432921
aF0.0
aF0.0
aF404.3344654698367
aF0.0
aF0.0
aF0.0
aF75.7948990032971
aF0.0
aF328.13108836980376
aF75.66585956416466
aF189.88944214701658
aF0.0
asS'Bacteria.Proteobacteria.Gammaproteobacteria.Pseudomonadales.Pseudomonadaceae'
p123
(lp124
F123.86815473609886
aF302.2898455802706
aF2026.5184413178158
aF0.0
aF28189.023478390915
aF970.402717127608
aF2677.6224347968277
aF0.0
aF0.0
aF0.0
aF84.75150857685269
aF389.65566743914195
aF756.6585956416466
aF3238.6699299518937
aF6830.153489427124
asS'Bacteria.Firmicutes.Bacilli.Izemoplasmatales.Izemoplasmatales'
p125
(lp126
F117.67474699929392
aF0.0
aF0.0
aF0.0
aF0.0
aF0.0
aF0.0
aF0.0
aF0.0
aF104.2179861295335
aF0.0
aF0.0
aF0.0
aF0.0
aF0.0
asS'Bacteria.Firmicutes.Clostridia.Eubacteriales.Anaerofustaceae.Anaerofustis.Anaerofustis_stercorihominis'
p127
(lp128
F0.0
aF0.0
aF0.0
aF0.0
aF0.0
aF404.3344654698367
aF0.0
aF0.0
aF0.0
aF0.0
aF0.0
aF0.0
aF0.0
aF0.0
aF0.0
asS'Bacteria.Proteobacteria.Gammaproteobacteria.Pseudomonadales.Pseudomonadaceae.Pseudomonas'
p129
(lp130
F123.86815473609886
aF302.2898455802706
aF2026.5184413178158
aF0.0
aF28189.023478390915
aF970.402717127608
aF2677.6224347968277
aF0.0
aF0.0
aF0.0
aF84.75150857685269
aF389.65566743914195
aF756.6585956416466
aF3238.6699299518937
aF6830.153489427124
asS'Bacteria.Firmicutes.Clostridia.uncultured.uncultured.uncultured.uncultured_bacterium'
p131
(lp132
F0.0
aF390.4577172078495
aF0.0
aF0.0
aF0.0
aF0.0
aF0.0
aF0.0
aF0.0
aF0.0
aF0.0
aF0.0
aF0.0
aF0.0
aF0.0
asS'Bacteria.Firmicutes.Clostridia.Clostridia.Hungateiclostridiaceae.Ruminiclostridium'
p133
(lp134
F0.0
aF0.0
aF0.0
aF0.0
aF0.0
aF0.0
aF0.0
aF0.0
aF178.1895937277263
aF113.69234850494564
aF0.0
aF0.0
aF0.0
aF0.0
aF0.0
asS'Bacteria.Actinobacteriota.Actinobacteria.Micrococcales.Micrococcaceae'
p135
(lp136
F0.0
aF0.0
aF0.0
aF0.0
aF0.0
aF0.0
aF0.0
aF0.0
aF0.0
aF0.0
aF72.03878229032478
aF0.0
aF340.4963680387409
aF0.0
aF1814.6533256042546
asS'Bacteria.Gemmatimonadota.Gemmatimonadetes.Gemmatimonadales'
p137
(lp138
F0.0
aF0.0
aF0.0
aF0.0
aF0.0
aF0.0
aF0.0
aF2840.175574490059
aF0.0
aF0.0
aF0.0
aF0.0
aF0.0
aF0.0
aF0.0
asS'Bacteria.Proteobacteria.Gammaproteobacteria.Burkholderiales'
p139
(lp140
F4744.150326392587
aF4849.232939516841
aF4487.290834346593
aF6334.371754932504
aF85464.33378196502
aF5175.481158013909
aF11364.56544845066
aF13168.086754453909
aF1772.9864575908766
aF2055.9366354644335
aF4309.614211132959
aF2707.081479050881
aF5167.978208232446
aF2721.7486707739045
aF21322.17657584999
asS'Bacteria.Firmicutes.Clostridia.Oscillospirales.Ruminococcaceae.Ruminococcus'
p141
(lp142
F23361.533983228248
aF428.2439479053833
aF579.0052689479475
aF2284.527518172378
aF2766.561985942875
aF4932.880478732007
aF12958.874989780068
aF0.0
aF2405.5595153243053
aF28830.484708379132
aF31137.704251135674
aF0.0
aF0.0
aF411.42712465186924
aF12425.33457670691
asS'Bacteria.Firmicutes.Clostridia.Lachnospirales.Lachnospiraceae.ASF356'
p143
(lp144
F0.0
aF0.0
aF0.0
aF0.0
aF0.0
aF0.0
aF0.0
aF0.0
aF142.55167498218105
aF0.0
aF0.0
aF0.0
aF0.0
aF0.0
aF0.0
asS'Bacteria.Firmicutes.Clostridia.Lachnospirales.Lachnospiraceae.A2.unidentified'
p145
(lp146
F0.0
aF0.0
aF0.0
aF0.0
aF0.0
aF0.0
aF0.0
aF0.0
aF0.0
aF0.0
aF0.0
aF0.0
aF408.5956416464892
aF0.0
aF0.0
asS'Bacteria.Firmicutes.Clostridia.Christensenellales'
p147
(lp148
F1635.059642516505
aF3136.2571478953073
aF2547.623183370969
aF41536.863966770514
aF30133.09406310753
aF3719.8770823224972
aF3863.1346578366442
aF0.0
aF1211.6892373485389
aF1743.2826770758334
aF682.249644043664
aF4511.802465084802
aF575.0605326876514
aF2036.036796354122
aF167275.75169493663
asS'Bacteria.Patescibacteria.Saccharimonadia.Saccharimonadales.Saccharimonadaceae.Candidatus_Saccharimonas.uncultured_bacterium'
p149
(lp150
F1486.4178568331863
aF1234.3502027861048
aF9843.089572115106
aF3738.317757009346
aF15253.476895468824
aF32508.491023774863
aF551.8763796909492
aF12651.691195455716
aF507.8403421240199
aF1288.5132830560508
aF1178.0459692182521
aF3804.269805787412
aF5614.406779661018
aF15349.396573550506
aF6351.286639614891
asS'Bacteria.Firmicutes.Clostridia.Lachnospirales.Lachnospiraceae.Lachnospiraceae_NK4A136_group.Clostridiales_bacterium'
p151
(lp152
F0.0
aF0.0
aF0.0
aF0.0
aF0.0
aF0.0
aF1246.8318207832558
aF0.0
aF0.0
aF0.0
aF0.0
aF0.0
aF0.0
aF0.0
aF0.0
asS'Bacteria.Bacteroidota.Bacteroidia.Bacteroidales.Prevotellaceae.Prevotella'
p153
(lp154
F0.0
aF226.71738418520295
aF0.0
aF0.0
aF0.0
aF0.0
aF0.0
aF0.0
aF0.0
aF0.0
aF0.0
aF0.0
aF0.0
aF0.0
aF0.0
asS'Bacteria.Firmicutes.Bacilli.Lactobacillales.Streptococcaceae.Streptococcus'
p155
(lp156
F0.0
aF503.8164093004509
aF0.0
aF4049.8442367601256
aF4262.000897263348
aF0.0
aF2207.5055187637968
aF0.0
aF0.0
aF0.0
aF203.40362058444643
aF0.0
aF158.89830508474577
aF0.0
aF5015.50016382287
asS'Bacteria.Bacteroidota.Bacteroidia.Bacteroidales.Prevotellaceae'
p157
(lp158
F105771.01732915483
aF146043.78164596824
aF33032.2505934804
aF0.0
aF10168.984596979215
aF2506.873685912987
aF899.3541002371024
aF0.0
aF85067.71204561654
aF30299.010876568012
aF272166.7570682758
aF9238.940956912287
aF1520.8837772397096
aF263.7353363153008
aF4990.2966454117
asS'Bacteria.Firmicutes.Clostridia.Oscillospirales.Ruminococcaceae.Incertae_Sedis'
p159
(lp160
F0.0
aF0.0
aF1302.7618551328817
aF0.0
aF0.0
aF0.0
aF531.4365137764696
aF0.0
aF668.2109764789736
aF0.0
aF0.0
aF0.0
aF0.0
aF0.0
aF0.0
asS'Bacteria.Firmicutes.Clostridia.Lachnospirales.Lachnospiraceae.Lachnospiraceae_UCG_001.unidentified'
p161
(lp162
F0.0
aF0.0
aF0.0
aF0.0
aF0.0
aF0.0
aF0.0
aF0.0
aF0.0
aF0.0
aF974.6423486338058
aF0.0
aF938.2566585956417
aF0.0
aF0.0
asS'Bacteria.Proteobacteria.Gammaproteobacteria.Burkholderiales.Burkholderiaceae'
p163
(lp164
F247.73630947219772
aF982.4419981358793
aF1968.6179144230214
aF4776.739356178609
aF13010.318528488115
aF1617.3378618793467
aF4169.732646553839
aF0.0
aF106.91375623663578
aF378.9744950164855
aF241.54179944403015
aF1538.1144767334551
aF4517.2518159806295
aF2278.673305764199
aF12626.96272399627
asS'Bacteria.Firmicutes.Clostridia.Lachnospirales.Lachnospiraceae.Lachnospira'
p165
(lp166
F0.0
aF0.0
aF0.0
aF0.0
aF1719.7547480185438
aF0.0
aF0.0
aF0.0
aF0.0
aF0.0
aF0.0
aF0.0
aF0.0
aF0.0
aF0.0
asS'Bacteria.Firmicutes.Clostridia.Oscillospirales.Ruminococcaceae.uncultured._Clostridium__leptum'
p167
(lp168
F1350.1628866234778
aF0.0
aF0.0
aF0.0
aF0.0
aF0.0
aF0.0
aF0.0
aF320.74126870990733
aF0.0
aF0.0
aF0.0
aF0.0
aF0.0
aF0.0
asS'Bacteria.Firmicutes.Clostridia.Lachnospirales.Lachnospiraceae.Lachnospiraceae_NK4B4_group'
p169
(lp170
F0.0
aF314.88525581278185
aF0.0
aF0.0
aF0.0
aF0.0
aF0.0
aF0.0
aF0.0
aF0.0
aF0.0
aF0.0
aF0.0
aF0.0
aF0.0
asS'Bacteria.Desulfobacterota.Desulfovibrionia.Desulfovibrionales.Desulfovibrionaceae'
p171
(lp172
F1827.0552823574583
aF0.0
aF0.0
aF1869.158878504673
aF4635.860625093466
aF0.0
aF0.0
aF0.0
aF0.0
aF0.0
aF0.0
aF0.0
aF0.0
aF0.0
aF0.0
asS'Bacteria.Proteobacteria.Gammaproteobacteria.Pseudomonadales'
p173
(lp174
F173.4154166305384
aF302.2898455802706
aF2026.5184413178158
aF0.0
aF28189.023478390915
aF970.402717127608
aF5416.564467337094
aF0.0
aF0.0
aF0.0
aF84.75150857685269
aF389.65566743914195
aF756.6585956416466
aF3238.6699299518937
aF7989.515336340955
asS'Bacteria.Firmicutes.Clostridia.Oscillospirales.Butyricicoccaceae.UCG_009'
p175
(lp176
F532.6330653652251
aF1385.49512557624
aF579.0052689479475
aF0.0
aF0.0
aF0.0
aF0.0
aF0.0
aF1202.7797576621526
aF1032.7054989199228
aF0.0
aF512.7048255778184
aF174.03147699757872
aF706.8107013250061
aF0.0
asS'Bacteria.Proteobacteria.Alphaproteobacteria.Rhizobiales.Beijerinckiaceae'
p177
(lp178
F0.0
aF0.0
aF0.0
aF0.0
aF0.0
aF0.0
aF0.0
aF0.0
aF0.0
aF0.0
aF0.0
aF61.52457906933821
aF310.23002421307507
aF0.0
aF0.0
asS'Bacteria.Firmicutes.Bacilli.Lactobacillales.Lactobacillaceae.Lactobacillus.Lactobacillus_intestinalis'
p179
(lp180
F1288.2288092554281
aF1360.3043051112177
aF13693.474610618958
aF0.0
aF0.0
aF0.0
aF0.0
aF0.0
aF0.0
aF1212.7183840527537
aF2067.9368092752056
aF0.0
aF0.0
aF0.0
aF12223.706429417549
asS'Bacteria.Firmicutes.Clostridia.Monoglobales.Monoglobaceae.Monoglobus.uncultured_rumen'
p181
(lp182
F9246.757751049781
aF0.0
aF0.0
aF0.0
aF0.0
aF10917.03056768559
aF0.0
aF0.0
aF0.0
aF0.0
aF0.0
aF0.0
aF0.0
aF0.0
aF13005.015500163825
asS'Bacteria.Actinobacteriota.Actinobacteria.Corynebacteriales.Corynebacteriaceae.Corynebacterium'
p183
(lp184
F0.0
aF0.0
aF0.0
aF5919.003115264798
aF0.0
aF0.0
aF0.0
aF0.0
aF0.0
aF0.0
aF0.0
aF0.0
aF0.0
aF0.0
aF0.0
asS'Bacteria.Deferribacterota.Deferribacteres'
p185
(lp186
F0.0
aF125.95410232511273
aF0.0
aF0.0
aF0.0
aF0.0
aF0.0
aF0.0
aF677.12045616536
aF0.0
aF0.0
aF0.0
aF0.0
aF0.0
aF0.0
asS'Bacteria.Firmicutes.Clostridia.Oscillospirales.Oscillospiraceae.Colidextribacter.uncultured_bacterium'
p187
(lp188
F0.0
aF0.0
aF0.0
aF0.0
aF0.0
aF0.0
aF0.0
aF0.0
aF632.5730577334284
aF0.0
aF0.0
aF0.0
aF0.0
aF0.0
aF0.0
asS'Bacteria.Deferribacterota.Deferribacteres.Deferribacterales.Deferribacteraceae.Mucispirillum.Mucispirillum_schaedleri'
p189
(lp190
F0.0
aF0.0
aF0.0
aF0.0
aF0.0
aF0.0
aF0.0
aF0.0
aF677.12045616536
aF0.0
aF0.0
aF0.0
aF0.0
aF0.0
aF0.0
asS'Bacteria.Firmicutes.Clostridia.Lachnospirales.Lachnospiraceae.Lachnospiraceae_NK4A136_group.uncultured_bacterium'
p191
(lp192
F11352.51638156346
aF0.0
aF0.0
aF0.0
aF0.0
aF0.0
aF0.0
aF0.0
aF7011.76051318603
aF966.3849622920379
aF131.36483829412165
aF0.0
aF1815.980629539952
aF1265.9296143134438
aF0.0
asS'Bacteria.Verrucomicrobiota.Verrucomicrobiae.Verrucomicrobiales'
p193
(lp194
F6701.2671712229485
aF82600.70030480894
aF24607.723930287764
aF0.0
aF897.2633467922838
aF21187.125990619443
aF24425.63976780312
aF10069.713400464754
aF588.0256593014968
aF11767.158070261874
aF37595.769204691846
aF91517.81136564059
aF3488.196125907991
aF10992.48881762174
aF0.0
asS'Bacteria.Cyanobacteria.Vampirivibrionia.Gastranaerophilales.Gastranaerophilales.Gastranaerophilales.Acinetobacter_sp_'
p195
(lp196
F0.0
aF0.0
aF0.0
aF0.0
aF0.0
aF0.0
aF0.0
aF0.0
aF0.0
aF0.0
aF216.11634687097433
aF0.0
aF0.0
aF0.0
aF0.0
asS'Bacteria.Firmicutes.Clostridia.Lachnospirales.Lachnospiraceae.Lachnospiraceae_UCG_001.uncultured_bacterium'
p197
(lp198
F0.0
aF352.6714865103157
aF0.0
aF1557.6323987538942
aF0.0
aF0.0
aF0.0
aF0.0
aF160.37063435495367
aF0.0
aF0.0
aF0.0
aF0.0
aF0.0
aF428.45981298989346
asS'Bacteria.Firmicutes.Clostridia.Lachnospirales.Lachnospiraceae.Blautia'
p199
(lp200
F464.5055802603708
aF466.03017860291715
aF694.806322737537
aF3322.949117341641
aF55555.55555555556
aF18356.784732330583
aF0.0
aF0.0
aF0.0
aF0.0
aF406.80724116889286
aF256.3524127889092
aF0.0
aF0.0
aF3830.934798497871
asS'Bacteria.Firmicutes.Clostridia.Oscillospirales.Oscillospiraceae.NK4A214_group.unidentified'
p201
(lp202
F668.8880355749338
aF579.3888706955186
aF376.3534248161658
aF0.0
aF0.0
aF808.6689309396734
aF0.0
aF0.0
aF2387.7405559515323
aF1193.769659301929
aF584.7854091802835
aF2132.8520744037246
aF0.0
aF0.0
aF0.0
asS'Bacteria.Actinobacteriota.Coriobacteriia.Coriobacteriales.uncultured'
p203
(lp204
F575.9869195228597
aF806.1062548807215
aF1129.0602744484975
aF5295.95015576324
aF5981.755645281892
aF7924.955523208799
aF3904.014389665604
aF3356.5711334882512
aF178.1895937277263
aF492.6668435214311
aF0.0
aF0.0
aF0.0
aF780.6565954932904
aF12022.078282128186
asS'Bacteria.Proteobacteria.Alphaproteobacteria.Rhizobiales.Beijerinckiaceae.Methylobacterium_Methylorubrum'
p205
(lp206
F0.0
aF0.0
aF0.0
aF0.0
aF0.0
aF0.0
aF0.0
aF0.0
aF0.0
aF0.0
aF0.0
aF61.52457906933821
aF310.23002421307507
aF0.0
aF0.0
asS'Bacteria.Firmicutes.Clostridia.Oscillospirales.Oscillospiraceae.UCG_005'
p207
(lp208
F5400.651546493911
aF5453.812630677382
aF1679.1152799490476
aF4153.686396677052
aF0.0
aF0.0
aF0.0
aF0.0
aF1478.9736279401282
aF2217.0007958464403
aF1000.0678012068618
aF738.2949488320585
aF378.3292978208233
aF379.77888429403316
aF0.0
asS'Bacteria.Firmicutes.Clostridia.Christensenellales.Christensenellaceae.uncultured.uncultured_bacterium'
p209
(lp210
F0.0
aF0.0
aF0.0
aF0.0
aF0.0
aF0.0
aF0.0
aF0.0
aF0.0
aF0.0
aF0.0
aF164.06554418490188
aF0.0
aF0.0
aF0.0
asS'Bacteria.Firmicutes.Clostridia.Oscillospirales.UCG_010.UCG_010.metagenome'
p211
(lp212
F92.90111605207414
aF0.0
aF0.0
aF0.0
aF0.0
aF0.0
aF0.0
aF0.0
aF0.0
aF0.0
aF76.27635771916741
aF0.0
aF0.0
aF0.0
aF0.0
asS'Bacteria.Firmicutes.Clostridia.Peptostreptococcales_Tissierellales.Anaerovoracaceae'
p213
(lp214
F49.54726189443954
aF0.0
aF0.0
aF0.0
aF0.0
aF0.0
aF0.0
aF0.0
aF0.0
aF0.0
aF0.0
aF0.0
aF196.73123486682812
aF0.0
aF0.0
asS'Bacteria.Firmicutes.Bacilli.RF39'
p215
(lp216
F1690.8003121477495
aF8010.680907877169
aF19715.12940767761
aF4257.528556593978
aF27067.444294900557
aF12210.900857189066
aF2084.8663232769195
aF2840.175574490059
aF1033.4996436208125
aF1373.7825444347598
aF1279.7477795104753
aF3599.1878755562852
aF1566.2832929782085
aF1793.4002869440455
aF19356.302139778716
asS'Bacteria.Bacteroidota.Bacteroidia.Bacteroidales.Rikenellaceae.Alistipes.Alistipes_finegoldii'
p217
(lp218
F0.0
aF0.0
aF0.0
aF0.0
aF0.0
aF0.0
aF0.0
aF0.0
aF0.0
aF0.0
aF364.43148688046654
aF266.6065093004656
aF0.0
aF0.0
aF0.0
asS'Bacteria.Firmicutes.Clostridia.Oscillospirales.Oscillospiraceae.uncultured.uncultured_Clostridiales'
p219
(lp220
F0.0
aF0.0
aF0.0
aF0.0
aF4486.316733961418
aF0.0
aF0.0
aF0.0
aF0.0
aF0.0
aF0.0
aF533.2130186009312
aF0.0
aF0.0
aF0.0
asS'Bacteria.Proteobacteria.Alphaproteobacteria.Rhodospirillales.uncultured.uncultured'
p221
(lp222
F0.0
aF0.0
aF0.0
aF0.0
aF0.0
aF0.0
aF0.0
aF0.0
aF133.64219529579472
aF0.0
aF330.5308834497255
aF0.0
aF0.0
aF0.0
aF0.0
asS'Bacteria.Firmicutes.Clostridia.Peptostreptococcales_Tissierellales.Peptostreptococcaceae.Romboutsia'
p223
(lp224
F1833.248690094263
aF856.4878958107666
aF22320.653117943373
aF168120.45690550367
aF17048.00358905339
aF17871.58337376678
aF56168.75153298995
aF8262.328943971079
aF285.1033499643621
aF20426.725281388568
aF1343.311410943115
aF14929.964520826072
aF150673.42615012106
aF211747.82682082872
aF9829.37218035638
asS'Bacteria.Firmicutes.Bacilli.Lactobacillales.Aerococcaceae'
p225
(lp226
F0.0
aF0.0
aF0.0
aF1246.1059190031156
aF822.49140122626
aF0.0
aF0.0
aF0.0
aF0.0
aF0.0
aF0.0
aF0.0
aF0.0
aF0.0
aF0.0
asS'Bacteria.Firmicutes.Clostridia.Lachnospirales.Lachnospiraceae.Roseburia'
p227
(lp228
F997.1386456255958
aF0.0
aF0.0
aF0.0
aF0.0
aF0.0
aF0.0
aF0.0
aF0.0
aF1421.1543563118207
aF0.0
aF1015.1555546440803
aF0.0
aF0.0
aF529.2738866345742
asS'Bacteria.Firmicutes.Clostridia.Peptococcales.Peptococcaceae.Peptococcus'
p229
(lp230
F111.48133926248897
aF0.0
aF0.0
aF0.0
aF0.0
aF0.0
aF81.7594636579184
aF0.0
aF329.65074839629364
aF0.0
aF0.0
aF0.0
aF0.0
aF0.0
aF0.0
asS'Bacteria.Firmicutes.Clostridia.Lachnospirales.Lachnospiraceae.Roseburia.uncultured_bacterium'
p231
(lp232
F1405.9035562547222
aF188.93115348766912
aF0.0
aF0.0
aF0.0
aF0.0
aF0.0
aF0.0
aF0.0
aF3107.590859135181
aF961.9296223472779
aF0.0
aF408.5956416464892
aF0.0
aF0.0
asS'Bacteria.Acidobacteriota.Blastocatellia.Blastocatellales.Blastocatellaceae'
p233
(lp234
F0.0
aF0.0
aF0.0
aF0.0
aF0.0
aF0.0
aF0.0
aF0.0
aF0.0
aF0.0
aF0.0
aF0.0
aF0.0
aF0.0
aF378.0527761675531
asS'Bacteria.Firmicutes.Clostridia.Peptostreptococcales_Tissierellales.Anaerovoracaceae.Family_XIII_AD3011_group.uncultured_bacterium'
p235
(lp236
F247.73630947219772
aF327.4806660452931
aF0.0
aF0.0
aF0.0
aF0.0
aF0.0
aF0.0
aF712.7583749109052
aF388.4488573918976
aF343.24360973625335
aF543.4671151124875
aF0.0
aF137.14237488395642
aF0.0
asS'Bacteria.Firmicutes.Clostridia.Oscillospirales.Butyricicoccaceae.UCG_009.uncultured_organism'
p237
(lp238
F43.3538541576346
aF0.0
aF0.0
aF0.0
aF0.0
aF0.0
aF0.0
aF0.0
aF0.0
aF0.0
aF0.0
aF0.0
aF0.0
aF0.0
aF0.0
asS'Bacteria.Proteobacteria'
p239
(lp240
F7413.509060955518
aF9534.725546011035
aF16733.25227259568
aF22845.275181723784
aF130477.04501271127
aF35985.76742681546
aF25365.873599869185
aF31758.326878388838
aF2672.8439059158945
aF5248.796755978324
aF5157.129296901486
aF6706.179118557864
aF11758.474576271188
aF14051.818718879227
aF41560.60186001966
asS'Bacteria.Bacteroidota.Bacteroidia'
p241
(lp242
F506757.007840854
aF601947.2504219464
aF367089.34051299863
aF1973.0010384215993
aF208389.41229250788
aF32912.82548924471
aF22115.934919466927
aF568293.3126775108
aF494930.5060584462
aF367747.37560162204
aF716777.4086378738
aF391091.2409507599
aF34556.598062954
aF45584.01552873659
aF52171.28311112232
asS'Bacteria.Firmicutes.Clostridia.Clostridia_vadinBB60_group.Clostridia_vadinBB60_group.Clostridia_vadinBB60_group.unidentified'
p243
(lp244
F10881.817393566285
aF0.0
aF0.0
aF0.0
aF0.0
aF0.0
aF0.0
aF0.0
aF596.9351389878831
aF577.9361049001404
aF241.54179944403015
aF307.62289534669105
aF0.0
aF0.0
aF0.0
asS'Bacteria.Proteobacteria.Gammaproteobacteria.Xanthomonadales.Xanthomonadaceae.Stenotrophomonas'
p245
(lp246
F0.0
aF0.0
aF202.6518441317816
aF0.0
aF0.0
aF0.0
aF0.0
aF0.0
aF0.0
aF0.0
aF0.0
aF0.0
aF0.0
aF0.0
aF0.0
asS'Bacteria.Proteobacteria.Alphaproteobacteria.Rhizobiales.Rhizobiaceae'
p247
(lp248
F247.73630947219772
aF0.0
aF0.0
aF934.5794392523366
aF6131.299536413939
aF646.9351447517387
aF1287.711552612215
aF0.0
aF0.0
aF0.0
aF0.0
aF0.0
aF0.0
aF221.53768250485268
aF0.0
asS'Bacteria.Firmicutes.Bacilli.Erysipelotrichales.Erysipelotrichaceae.Dubosiella.uncultured_bacterium'
p249
(lp250
F0.0
aF0.0
aF318.4528979213711
aF18483.90446521288
aF17272.319425751462
aF14151.706291444281
aF2330.1447142506745
aF0.0
aF0.0
aF0.0
aF177.97816801139064
aF15565.718504542567
aF4131.35593220339
aF4989.8725630854915
aF23439.272122388287
asS'Bacteria.Firmicutes.Clostridia.Oscillospirales.Ruminococcaceae.Harryflintia.uncultured_bacterium'
p251
(lp252
F0.0
aF0.0
aF0.0
aF0.0
aF0.0
aF0.0
aF0.0
aF0.0
aF1202.7797576621526
aF0.0
aF0.0
aF0.0
aF0.0
aF0.0
aF0.0
asS'Bacteria.Actinobacteriota.Coriobacteriia.Coriobacteriales'
p253
(lp254
F780.3693748374229
aF1058.014459530947
aF4255.688726767414
aF14018.69158878505
aF15103.933004336777
aF18922.852983988352
aF19213.473959610823
aF3356.5711334882512
aF579.1161796151105
aF2103.3084473414947
aF203.40362058444643
aF8223.785402268206
aF3344.4309927360778
aF6709.426955861252
aF39317.48872142552
asS'Bacteria.Proteobacteria.Alphaproteobacteria.Rhizobiales.Rhizobiaceae.Allorhizobium_Neorhizobium_Pararhizobium_Rhizobium'
p255
(lp256
F247.73630947219772
aF0.0
aF0.0
aF934.5794392523366
aF6131.299536413939
aF646.9351447517387
aF1287.711552612215
aF0.0
aF0.0
aF0.0
aF0.0
aF0.0
aF0.0
aF221.53768250485268
aF0.0
asS'Bacteria.Bacteroidota.Bacteroidia.Bacteroidales.Bacteroidaceae.Bacteroides.Bacteroides_caecimuris'
p257
(lp258
F3387.794032032304
aF0.0
aF0.0
aF0.0
aF0.0
aF0.0
aF0.0
aF0.0
aF4214.183891660727
aF672.6797286542617
aF1233.1344497932064
aF0.0
aF189.16464891041164
aF0.0
aF0.0
asS'Bacteria.Firmicutes.Clostridia.Oscillospirales.Oscillospiraceae.NK4A214_group.Lachnospiraceae_bacterium'
p259
(lp260
F0.0
aF0.0
aF0.0
aF0.0
aF0.0
aF0.0
aF0.0
aF0.0
aF0.0
aF0.0
aF0.0
aF307.62289534669105
aF0.0
aF0.0
aF0.0
asS'Bacteria.Firmicutes.Bacilli.Acholeplasmatales.Acholeplasmataceae.Anaeroplasma.uncultured_bacterium'
p261
(lp262
F371.6044642082966
aF0.0
aF0.0
aF0.0
aF299.0877822640946
aF0.0
aF61.3195977434388
aF0.0
aF365.2886671418389
aF104.2179861295335
aF29.66302800189844
aF0.0
aF0.0
aF0.0
aF0.0
asS'Bacteria.Firmicutes.Bacilli.Erysipelotrichales.Erysipelotrichaceae.uncultured.uncultured_Allobaculum'
p263
(lp264
F0.0
aF0.0
aF0.0
aF2076.843198338526
aF21160.46059518469
aF0.0
aF531.4365137764696
aF0.0
aF124.73271560940842
aF388.4488573918976
aF567.835107464913
aF6316.523451118723
aF2391.0411622276033
aF2848.341632205249
aF6855.357007838295
asS'Bacteria.Firmicutes.Clostridia.Oscillospirales.Oscillospiraceae.UCG_005.uncultured_Clostridiales'
p265
(lp266
F303.47697910344226
aF0.0
aF0.0
aF0.0
aF0.0
aF0.0
aF0.0
aF0.0
aF222.7369921596579
aF0.0
aF0.0
aF0.0
aF90.79903147699758
aF0.0
aF0.0
asS'Bacteria.Firmicutes.Clostridia.Clostridia_UCG_014.Clostridia_UCG_014'
p267
(lp268
F35853.63738836382
aF116205.25480514903
aF176972.96045394012
aF69989.61578400832
aF281890.23478390917
aF267912.01682031376
aF36546.480255089526
aF62225.6648592822
aF11519.957234497506
aF70820.85875620572
aF23539.731507220833
aF237495.12930415705
aF57006.65859564165
aF100029.53835766729
aF275247.6245683897
asS'Bacteria.Firmicutes.Clostridia.Lachnospirales.Lachnospiraceae.Coprococcus'
p269
(lp270
F359.2176487346867
aF0.0
aF0.0
aF0.0
aF0.0
aF0.0
aF0.0
aF0.0
aF0.0
aF0.0
aF0.0
aF0.0
aF0.0
aF0.0
aF7384.63089447287
asS'Bacteria.Deferribacterota.Deferribacteres.Deferribacterales.Deferribacteraceae.Mucispirillum'
p271
(lp272
F0.0
aF125.95410232511273
aF0.0
aF0.0
aF0.0
aF0.0
aF0.0
aF0.0
aF0.0
aF0.0
aF0.0
aF0.0
aF0.0
aF0.0
aF0.0
asS'Bacteria.Firmicutes.Bacilli.RF39.RF39'
p273
(lp274
F1690.8003121477495
aF8010.680907877169
aF19715.12940767761
aF4257.528556593978
aF27067.444294900557
aF12210.900857189066
aF2084.8663232769195
aF2840.175574490059
aF1033.4996436208125
aF1373.7825444347598
aF1279.7477795104753
aF3599.1878755562852
aF1566.2832929782085
aF1793.4002869440455
aF19356.302139778716
asS'Bacteria.Proteobacteria.Gammaproteobacteria.Burkholderiales.Alcaligenaceae.Achromobacter'
p275
(lp276
F0.0
aF0.0
aF0.0
aF0.0
aF3514.2814416031115
aF0.0
aF715.3953070067861
aF0.0
aF0.0
aF47.371811877060686
aF0.0
aF102.54096511556368
aF75.66585956416466
aF179.34002869440457
aF957.7336996244677
asS'Bacteria.Proteobacteria.Gammaproteobacteria.Xanthomonadales.Xanthomonadaceae'
p277
(lp278
F0.0
aF0.0
aF202.6518441317816
aF0.0
aF0.0
aF0.0
aF0.0
aF0.0
aF0.0
aF0.0
aF0.0
aF0.0
aF0.0
aF0.0
aF0.0
asS'Bacteria.Firmicutes.Bacilli.Erysipelotrichales.Erysipelotrichaceae.Turicibacter.uncultured_bacterium'
p279
(lp280
F1127.2002080984996
aF5617.552963700028
aF100544.26495281108
aF109761.16303219108
aF20861.372812920596
aF5337.214944201844
aF83823.89011528084
aF5422.1533694810205
aF0.0
aF9597.529086292496
aF1606.0410875313582
aF16693.669120813767
aF81878.02663438258
aF65026.584521900564
aF7082.188673538827
asS'Bacteria.Firmicutes.Clostridia.Christensenellales.Christensenellaceae.Christensenellaceae_R_7_group.bacterium_YE57'
p281
(lp282
F179.60882436734335
aF0.0
aF0.0
aF0.0
aF0.0
aF0.0
aF0.0
aF0.0
aF730.5773342836778
aF85.26926137870923
aF0.0
aF604.9916941818258
aF0.0
aF0.0
aF0.0
asS'Bacteria.Firmicutes.Clostridia.Peptostreptococcales_Tissierellales.Anaerovoracaceae.Family_XIII_UCG_001'
p283
(lp284
F148.64178568331863
aF0.0
aF0.0
aF0.0
aF0.0
aF0.0
aF0.0
aF0.0
aF267.28439059158944
aF208.435972259067
aF0.0
aF0.0
aF0.0
aF0.0
aF0.0
asS'Bacteria.Firmicutes.Clostridia.Oscillospirales.Butyricicoccaceae'
p285
(lp286
F0.0
aF0.0
aF0.0
aF0.0
aF0.0
aF0.0
aF0.0
aF0.0
aF0.0
aF142.11543563118204
aF0.0
aF0.0
aF0.0
aF0.0
aF0.0
asS'Bacteria.Firmicutes.Clostridia.Oscillospirales._Eubacterium__coprostanoligenes_group._Eubacterium__coprostanoligenes_group.uncultured_Clostridium'
p287
(lp288
F495.47261894439544
aF214.12197395269166
aF550.05500550055
aF0.0
aF0.0
aF0.0
aF0.0
aF0.0
aF329.65074839629364
aF615.8335544017889
aF1275.5102040816328
aF0.0
aF0.0
aF0.0
aF0.0
asS'Bacteria.Firmicutes.Clostridia.Oscillospirales.Butyricicoccaceae.Butyricicoccus.uncultured_bacterium'
p289
(lp290
F117.67474699929392
aF0.0
aF0.0
aF0.0
aF0.0
aF0.0
aF286.1581228027144
aF0.0
aF374.1981468282252
aF0.0
aF0.0
aF112.79506162712005
aF446.42857142857144
aF0.0
aF0.0
asS'Bacteria.Firmicutes.Clostridia.Lachnospirales.Lachnospiraceae.Lachnospiraceae_NK4A136_group.Trichinella_pseudospiralis'
p291
(lp292
F2192.4663388289496
aF12028.616772048268
aF13461.872503039778
aF0.0
aF0.0
aF0.0
aF0.0
aF14717.273431448486
aF0.0
aF0.0
aF6288.561936402469
aF656.2621767396075
aF13839.285714285716
aF21267.617520465854
aF831.7161075686167
asS'Bacteria.Firmicutes.Clostridia.Oscillospirales.Oscillospiraceae.uncultured'
p293
(lp294
F12039.98464034881
aF0.0
aF0.0
aF0.0
aF1495.438911320473
aF0.0
aF0.0
aF20914.020139426797
aF13444.40484675695
aF1667.487778072536
aF673.7744931859788
aF153.81144767334553
aF0.0
aF1033.842518355979
aF0.0
asS'Bacteria.Proteobacteria.Gammaproteobacteria.Xanthomonadales'
p295
(lp296
F0.0
aF0.0
aF202.6518441317816
aF0.0
aF0.0
aF0.0
aF0.0
aF0.0
aF0.0
aF0.0
aF0.0
aF0.0
aF0.0
aF0.0
aF0.0
asS'Bacteria.Firmicutes.Clostridia.Clostridia_vadinBB60_group.Clostridia_vadinBB60_group.Clostridia_vadinBB60_group.uncultured_bacterium'
p297
(lp298
F1399.7101485179173
aF0.0
aF0.0
aF0.0
aF0.0
aF566.0682516577713
aF0.0
aF0.0
aF0.0
aF246.33342176071554
aF139.83998915180692
aF0.0
aF0.0
aF0.0
aF0.0
asS'Bacteria.Patescibacteria'
p299
(lp300
F1486.4178568331863
aF1234.3502027861048
aF9843.089572115106
aF3738.317757009346
aF15253.476895468824
aF32508.491023774863
aF551.8763796909492
aF12651.691195455716
aF507.8403421240199
aF1288.5132830560508
aF1178.0459692182521
aF3804.269805787412
aF5614.406779661018
aF15349.396573550506
aF6351.286639614891
asS'Bacteria.Firmicutes.Clostridia.Oscillospirales.Oscillospiraceae.Papillibacter.uncultured_bacterium'
p301
(lp302
F526.4396576284202
aF0.0
aF0.0
aF0.0
aF0.0
aF2345.1398997250526
aF0.0
aF0.0
aF8704.561653599429
aF1563.2697919430025
aF741.5757000474609
aF728.0408523205022
aF128.63196125907993
aF0.0
aF0.0
asS'Bacteria.Firmicutes.Clostridia.Oscillospirales.UCG_010.UCG_010'
p303
(lp304
F656.5012201013241
aF214.12197395269166
aF0.0
aF0.0
aF0.0
aF0.0
aF0.0
aF0.0
aF169.28011404134
aF577.9361049001404
aF741.5757000474609
aF102.54096511556368
aF0.0
aF0.0
aF0.0
asS'Bacteria.Bacteroidota.Bacteroidia.Bacteroidales.Bacteroidaceae'
p305
(lp306
F4700.796472234952
aF4194.271607426254
aF202.6518441317816
aF0.0
aF32376.252430088236
aF0.0
aF183.95879323031642
aF0.0
aF9542.052744119745
aF1108.50039792322
aF33290.39256898773
aF2625.04870695843
aF446.4285714285715
aF0.0
aF0.0
asS'Bacteria.Bacteroidota.Bacteroidia.Bacteroidales.Bacteroidaceae.Bacteroides.Bacteroides_fragilis'
p307
(lp308
F774.175967100618
aF0.0
aF202.6518441317816
aF0.0
aF0.0
aF0.0
aF0.0
aF0.0
aF757.3057733428368
aF0.0
aF2123.0252898501594
aF635.7539837164948
aF0.0
aF0.0
aF0.0
asS'Bacteria.Firmicutes.Bacilli.Erysipelotrichales'
p309
(lp310
F5010.466859075199
aF6423.659218580749
aF103468.24156099821
aF132398.75389408102
aF73201.73470913716
aF38977.84247129225
aF89465.29310767721
aF5422.1533694810205
aF2548.1111903064857
aF12619.850684048966
aF2822.2252356091944
aF45261.58200200981
aF89111.68280871671
aF73582.15883196892
aF66612.89916072284
asS'Bacteria.Proteobacteria.Alphaproteobacteria'
p311
(lp312
F247.73630947219772
aF0.0
aF0.0
aF934.5794392523366
aF7103.3348287722465
aF646.9351447517387
aF1921.3473959610824
aF0.0
aF133.64219529579472
aF0.0
aF330.5308834497255
aF61.52457906933821
aF310.23002421307507
aF316.48240357836096
aF579.6809234569147
asS'Bacteria.Acidobacteriota.Blastocatellia'
p313
(lp314
F0.0
aF0.0
aF0.0
aF0.0
aF0.0
aF0.0
aF0.0
aF0.0
aF0.0
aF0.0
aF0.0
aF0.0
aF0.0
aF0.0
aF378.0527761675531
asS'Bacteria.Actinobacteriota.Coriobacteriia.Coriobacteriales.Eggerthellaceae.Enterorhabdus.mouse_gut'
p315
(lp316
F0.0
aF0.0
aF405.3036882635632
aF0.0
aF0.0
aF0.0
aF0.0
aF0.0
aF0.0
aF0.0
aF0.0
aF0.0
aF0.0
aF0.0
aF1260.1759205585101
asS'Bacteria.Actinobacteriota.Coriobacteriia.Coriobacteriales.Eggerthellaceae.Enterorhabdus'
p317
(lp318
F161.02860115692852
aF0.0
aF2344.971339239187
aF0.0
aF5383.5800807537025
aF2749.4743651948893
aF9872.455236693648
aF0.0
aF0.0
aF151.5897980065942
aF0.0
aF604.9916941818258
aF1641.949152542373
aF2405.2662671955436
aF17264.41011165159
asS'Bacteria.Firmicutes.Clostridia.Oscillospirales.Ruminococcaceae.Ruminococcus.uncultured_Ruminococcus'
p319
(lp320
F792.7561903110327
aF6348.0867571856825
aF4139.887672977824
aF0.0
aF2990.877822640946
aF3962.4777616043993
aF19356.553021012183
aF7487.735605473791
aF0.0
aF0.0
aF0.0
aF2255.901232542401
aF0.0
aF0.0
aF8014.718854752125
asS'Bacteria.Firmicutes.Bacilli.Bacillales.Bacillaceae'
p321
(lp322
F0.0
aF0.0
aF0.0
aF0.0
aF0.0
aF0.0
aF0.0
aF0.0
aF0.0
aF0.0
aF0.0
aF0.0
aF0.0
aF0.0
aF932.5301812132975
asS'Bacteria.Firmicutes.Clostridia.Oscillospirales.UCG_010.UCG_010.uncultured_rumen'
p323
(lp324
F0.0
aF0.0
aF0.0
aF0.0
aF0.0
aF0.0
aF0.0
aF0.0
aF320.74126870990733
aF180.0128851328306
aF0.0
aF0.0
aF0.0
aF0.0
aF0.0
asS'Bacteria.Proteobacteria.Gammaproteobacteria.Burkholderiales.Oxalobacteraceae.Herminiimonas'
p325
(lp326
F0.0
aF0.0
aF434.25395171096056
aF0.0
aF0.0
aF0.0
aF429.2371842040716
aF0.0
aF0.0
aF0.0
aF0.0
aF0.0
aF0.0
aF0.0
aF655.2914786904253
asS'Bacteria.Firmicutes.Clostridia.Lachnospirales.Lachnospiraceae.ASF356.uncultured_bacterium'
p327
(lp328
F0.0
aF0.0
aF0.0
aF0.0
aF0.0
aF0.0
aF0.0
aF0.0
aF0.0
aF0.0
aF33.90060343074107
aF0.0
aF0.0
aF0.0
aF0.0
asS'Bacteria.Proteobacteria.Gammaproteobacteria.Pasteurellales.Pasteurellaceae.Rodentibacter'
p329
(lp330
F222.96267852497795
aF0.0
aF0.0
aF0.0
aF672.9475100942128
aF1374.7371825974446
aF0.0
aF0.0
aF356.3791874554526
aF824.269526660856
aF0.0
aF0.0
aF0.0
aF0.0
aF0.0
asS'Bacteria.Chloroflexi.Chloroflexia.Chloroflexales.Chloroflexaceae'
p331
(lp332
F179.60882436734335
aF0.0
aF0.0
aF0.0
aF0.0
aF0.0
aF0.0
aF0.0
aF0.0
aF0.0
aF0.0
aF0.0
aF0.0
aF0.0
aF0.0
asS'Bacteria.Proteobacteria.Alphaproteobacteria.Caulobacterales.Caulobacteraceae'
p333
(lp334
F0.0
aF0.0
aF0.0
aF0.0
aF972.0352923583074
aF0.0
aF633.6358433488676
aF0.0
aF0.0
aF0.0
aF0.0
aF0.0
aF0.0
aF0.0
aF0.0
asS'Bacteria.Firmicutes.Clostridia.Lachnospirales.Lachnospiraceae.Marvinbryantia'
p335
(lp336
F1814.6684668838484
aF0.0
aF0.0
aF0.0
aF0.0
aF1213.0033964095098
aF572.3162456054288
aF0.0
aF828.5816108339272
aF0.0
aF0.0
aF0.0
aF0.0
aF0.0
aF34226.37800236913
asS'Bacteria.Campilobacterota.Campylobacteria'
p337
(lp338
F0.0
aF0.0
aF0.0
aF0.0
aF0.0
aF0.0
aF0.0
aF0.0
aF0.0
aF66.32053662788495
aF0.0
aF0.0
aF0.0
aF0.0
aF327.64573934521263
asS'Bacteria.Patescibacteria.Saccharimonadia.Saccharimonadales.Saccharimonadaceae'
p339
(lp340
F1486.4178568331863
aF1234.3502027861048
aF9843.089572115106
aF3738.317757009346
aF15253.476895468824
aF32508.491023774863
aF551.8763796909492
aF12651.691195455716
aF507.8403421240199
aF1288.5132830560508
aF1178.0459692182521
aF3804.269805787412
aF5614.406779661018
aF15349.396573550506
aF6351.286639614891
asS'Bacteria.Firmicutes.Clostridia.Oscillospirales.UCG_010.UCG_010.uncultured_bacterium'
p341
(lp342
F167.22200889373346
aF0.0
aF0.0
aF0.0
aF0.0
aF0.0
aF0.0
aF0.0
aF0.0
aF142.11543563118204
aF0.0
aF0.0
aF45.39951573849879
aF0.0
aF0.0
asS'Bacteria.Firmicutes'
p343
(lp344
F472953.38841337274
aF303310.07380910404
aF572867.8130970993
aF941433.0218068536
aF614774.9364438461
aF853873.524179201
aF908163.6824462432
aF371030.2091402014
aF499750.53456878127
aF611750.1042179861
aF234998.98298189716
aF479184.1840815407
aF928616.8280871671
aF901320.7865642672
aF854021.2213625021
asS'Bacteria.Proteobacteria.Gammaproteobacteria.Burkholderiales.Alcaligenaceae.Alcaligenes'
p345
(lp346
F0.0
aF0.0
aF0.0
aF0.0
aF0.0
aF0.0
aF408.797318289592
aF0.0
aF0.0
aF0.0
aF0.0
aF0.0
aF0.0
aF0.0
aF0.0
asS'Bacteria.Firmicutes.Clostridia.Oscillospirales'
p347
(lp348
F210.57586305136806
aF0.0
aF0.0
aF0.0
aF0.0
aF0.0
aF0.0
aF0.0
aF641.4825374198147
aF0.0
aF0.0
aF164.06554418490188
aF0.0
aF0.0
aF0.0
asS'Bacteria.Actinobacteriota.Coriobacteriia.Coriobacteriales.Atopobiaceae'
p349
(lp350
F0.0
aF0.0
aF0.0
aF3219.106957424715
aF0.0
aF3800.7439754164648
aF531.4365137764696
aF0.0
aF0.0
aF634.7822791526131
aF0.0
aF6265.252968560942
aF741.5254237288136
aF1540.2143640813567
aF0.0
asS'Bacteria.Firmicutes.Bacilli.Erysipelotrichales.Erysipelatoclostridiaceae'
p351
(lp352
F2043.8245531456314
aF0.0
aF1244.861328238087
aF1557.6323987538942
aF747.7194556602365
aF1213.0033964095098
aF0.0
aF0.0
aF775.1247327156094
aF729.5259029067346
aF0.0
aF0.0
aF0.0
aF0.0
aF6653.728860548934
asS'Bacteria.Firmicutes.Bacilli.Acholeplasmatales.Acholeplasmataceae.Anaeroplasma'
p353
(lp354
F371.6044642082966
aF0.0
aF0.0
aF0.0
aF299.0877822640946
aF0.0
aF61.3195977434388
aF0.0
aF365.2886671418389
aF104.2179861295335
aF29.66302800189844
aF0.0
aF0.0
aF0.0
aF0.0
asS'Bacteria.Firmicutes.Clostridia.Lachnospirales.Lachnospiraceae.Lachnospiraceae_UCG_010.uncultured_bacterium'
p355
(lp356
F43.3538541576346
aF0.0
aF0.0
aF0.0
aF0.0
aF0.0
aF0.0
aF0.0
aF106.91375623663578
aF0.0
aF0.0
aF0.0
aF0.0
aF0.0
aF0.0
asS'Bacteria.Proteobacteria.Gammaproteobacteria.Burkholderiales.Sutterellaceae.Parasutterella'
p357
(lp358
F4180.550222343337
aF1725.5712018540446
aF0.0
aF0.0
aF2841.333931508899
aF0.0
aF0.0
aF0.0
aF1666.072701354241
aF1629.5903285708876
aF4068.0724116889287
aF1066.4260372018623
aF0.0
aF0.0
aF579.6809234569147
asS'Bacteria.Firmicutes.Bacilli.Erysipelotrichales.Erysipelotrichaceae.Dubosiella'
p359
(lp360
F0.0
aF0.0
aF318.4528979213711
aF18483.90446521288
aF17272.319425751462
aF14151.706291444281
aF2330.1447142506745
aF0.0
aF0.0
aF0.0
aF177.97816801139064
aF15565.718504542567
aF4131.35593220339
aF4989.8725630854915
aF23439.272122388287
asS'Bacteria.Proteobacteria.Alphaproteobacteria.Caulobacterales'
p361
(lp362
F0.0
aF0.0
aF0.0
aF0.0
aF972.0352923583074
aF0.0
aF633.6358433488676
aF0.0
aF0.0
aF0.0
aF0.0
aF0.0
aF0.0
aF0.0
aF0.0
asS'Bacteria.Firmicutes.Clostridia.Clostridia'
p363
(lp364
F0.0
aF0.0
aF0.0
aF0.0
aF0.0
aF0.0
aF0.0
aF0.0
aF178.1895937277263
aF113.69234850494564
aF0.0
aF0.0
aF0.0
aF0.0
aF0.0
asS'Bacteria.Firmicutes.Clostridia.Lachnospirales.Lachnospiraceae.A2'
p365
(lp366
F0.0
aF0.0
aF0.0
aF0.0
aF0.0
aF0.0
aF0.0
aF0.0
aF0.0
aF530.5642930230796
aF0.0
aF0.0
aF0.0
aF0.0
aF0.0
asS'Bacteria.Firmicutes.Clostridia.Lachnospirales.Lachnospiraceae._Eubacterium__hallii_group'
p367
(lp368
F260.1231249458076
aF0.0
aF0.0
aF0.0
aF0.0
aF0.0
aF0.0
aF0.0
aF0.0
aF0.0
aF0.0
aF0.0
aF0.0
aF0.0
aF0.0
asS'Bacteria.Gemmatimonadota'
p369
(lp370
F0.0
aF0.0
aF0.0
aF0.0
aF0.0
aF0.0
aF0.0
aF2840.175574490059
aF0.0
aF0.0
aF0.0
aF0.0
aF0.0
aF0.0
aF0.0
asS'Bacteria.Firmicutes.Clostridia.Oscillospirales.Ruminococcaceae.Negativibacillus'
p371
(lp372
F191.99563984095323
aF0.0
aF0.0
aF0.0
aF0.0
aF0.0
aF0.0
aF0.0
aF0.0
aF0.0
aF0.0
aF0.0
aF0.0
aF0.0
aF0.0
asS'Bacteria.Verrucomicrobiota.Verrucomicrobiae'
p373
(lp374
F6701.2671712229485
aF82600.70030480894
aF24607.723930287764
aF0.0
aF897.2633467922838
aF21187.125990619443
aF24425.63976780312
aF10069.713400464754
aF588.0256593014968
aF11767.158070261874
aF37595.769204691846
aF91517.81136564059
aF3488.196125907991
aF10992.48881762174
aF0.0
asS'Bacteria.Gemmatimonadota.Gemmatimonadetes.Gemmatimonadales.Gemmatimonadaceae'
p375
(lp376
F0.0
aF0.0
aF0.0
aF0.0
aF0.0
aF0.0
aF0.0
aF2840.175574490059
aF0.0
aF0.0
aF0.0
aF0.0
aF0.0
aF0.0
aF0.0
asS'Bacteria.Actinobacteriota.Actinobacteria.Bifidobacteriales.Bifidobacteriaceae'
p377
(lp378
F0.0
aF0.0
aF4603.091888136182
aF7684.319833852545
aF10468.072379243311
aF4609.412906356138
aF163.5189273158368
aF0.0
aF0.0
aF0.0
aF3271.4082310665135
aF19185.414573121965
aF10457.021791767556
aF5992.066841083634
aF1512.2111046702123
asS'Bacteria.Firmicutes.Clostridia.Monoglobales.Monoglobaceae.Monoglobus.uncultured_bacterium'
p379
(lp380
F4106.229329501677
aF340.0760762778044
aF0.0
aF0.0
aF0.0
aF0.0
aF265.7182568882348
aF3872.9666924864437
aF0.0
aF0.0
aF0.0
aF0.0
aF0.0
aF938.897797282471
aF1033.3442548579783
asS'Bacteria.Campilobacterota.Campylobacteria.Campylobacterales.Helicobacteraceae'
p381
(lp382
F0.0
aF0.0
aF0.0
aF0.0
aF0.0
aF0.0
aF0.0
aF0.0
aF0.0
aF66.32053662788495
aF0.0
aF0.0
aF0.0
aF0.0
aF0.0
asS'Bacteria.Firmicutes.Clostridia.Oscillospirales._Eubacterium__coprostanoligenes_group._Eubacterium__coprostanoligenes_group'
p383
(lp384
F12516.877036082791
aF21727.08265108195
aF57437.32267963639
aF10072.68951194185
aF2766.561985942875
aF0.0
aF1532.98994358597
aF28659.953524399683
aF2387.7405559515323
aF83952.32500852694
aF13547.528646009901
aF35766.28863230861
aF6908.292978208233
aF5158.663178327284
aF0.0
asS'Bacteria.Bacteroidota.Bacteroidia.Bacteroidales.Prevotellaceae.Prevotellaceae_UCG_001.uncultured_bacterium'
p385
(lp386
F19342.012362041838
aF27949.215305942518
aF12824.966707197036
aF0.0
aF8748.317631224765
aF0.0
aF592.7561115199084
aF0.0
aF16812.188168210974
aF4197.142532307576
aF54444.36910977016
aF2317.425811611739
aF438.861985472155
aF0.0
aF932.5301812132975
asS'Bacteria.Firmicutes.Clostridia.Oscillospirales.Ruminococcaceae.Subdoligranulum'
p387
(lp388
F0.0
aF0.0
aF0.0
aF0.0
aF8299.685957828626
aF33964.09509946628
aF0.0
aF0.0
aF0.0
aF0.0
aF0.0
aF0.0
aF0.0
aF179.34002869440457
aF0.0
asS'Bacteria.Proteobacteria.Gammaproteobacteria.Enterobacterales.Enterobacteriaceae.Escherichia_Shigella'
p389
(lp390
F2025.2443299352165
aF4244.6532483563
aF10016.791152799491
aF15576.323987538943
aF9047.405413488861
aF27818.21122432476
aF6663.39628812035
aF18590.240123934927
aF409.8360655737705
aF2368.5905938530345
aF432.23269374194865
aF3547.917392998503
aF5523.60774818402
aF7774.917714575067
aF9879.779217178719
asS'Bacteria.Bacteroidota.Bacteroidia.Bacteroidales.Bacteroidaceae.Bacteroides'
p391
(lp392
F538.82647310203
aF4194.271607426254
aF0.0
aF0.0
aF32376.252430088236
aF0.0
aF183.95879323031642
aF0.0
aF4570.563079116179
aF435.8206692689583
aF29934.232829344364
aF1989.2947232419353
aF257.26392251815986
aF0.0
aF0.0
asS'Bacteria.Firmicutes.Clostridia.Lachnospirales.Lachnospiraceae.Lachnospiraceae_UCG_006.uncultured_bacterium'
p393
(lp394
F2446.396056037953
aF0.0
aF1100.1100110011
aF3219.106957424715
aF0.0
aF0.0
aF0.0
aF0.0
aF2628.296507483963
aF4140.296358055104
aF80.51393314801005
aF2317.425811611739
aF529.6610169491526
aF2774.495738036964
aF0.0
asS'Bacteria.Actinobacteriota.Actinobacteria.Micrococcales.Intrasporangiaceae'
p395
(lp396
F0.0
aF0.0
aF0.0
aF0.0
aF0.0
aF0.0
aF0.0
aF0.0
aF0.0
aF28.42308712623641
aF0.0
aF0.0
aF0.0
aF0.0
aF0.0
asS'Bacteria.Actinobacteriota.Actinobacteria'
p397
(lp398
F0.0
aF0.0
aF4603.091888136182
aF13603.322949117342
aF10468.072379243311
aF4609.412906356138
aF163.5189273158368
aF0.0
aF0.0
aF28.42308712623641
aF3343.447013356838
aF19185.414573121965
aF10797.518159806297
aF5992.066841083634
aF3326.864430274467
asS'Bacteria.Deferribacterota.Deferribacteres.Deferribacterales.Deferribacteraceae'
p399
(lp400
F0.0
aF125.95410232511273
aF0.0
aF0.0
aF0.0
aF0.0
aF0.0
aF0.0
aF677.12045616536
aF0.0
aF0.0
aF0.0
aF0.0
aF0.0
aF0.0
asS'Bacteria.Firmicutes.Clostridia.uncultured.uncultured'
p401
(lp402
F0.0
aF390.4577172078495
aF0.0
aF0.0
aF0.0
aF0.0
aF0.0
aF0.0
aF0.0
aF0.0
aF0.0
aF0.0
aF0.0
aF0.0
aF0.0
asS'Bacteria.Bacteroidota.Bacteroidia.Bacteroidales.Muribaculaceae.Muribaculaceae.uncultured_bacterium'
p403
(lp404
F338959.01202759775
aF416316.09441519517
aF283799.4325748364
aF1973.0010384215993
aF138103.78346044567
aF30405.951803331718
aF15411.658899517619
aF527756.2612961527
aF326300.7840342124
aF278593.6256489939
aF327450.1661129568
aF364502.3686962942
aF30894.37046004843
aF45320.28019242129
aF44988.280363938815
asS'Bacteria.Firmicutes.Clostridia.Clostridia.Hungateiclostridiaceae.Ruminiclostridium.uncultured_organism'
p405
(lp406
F0.0
aF0.0
aF0.0
aF0.0
aF0.0
aF0.0
aF0.0
aF0.0
aF178.1895937277263
aF113.69234850494564
aF0.0
aF0.0
aF0.0
aF0.0
aF0.0
asS'Bacteria.Bacteroidota.Bacteroidia.Flavobacteriales.Weeksellaceae'
p407
(lp408
F0.0
aF0.0
aF0.0
aF0.0
aF0.0
aF0.0
aF1246.8318207832558
aF0.0
aF0.0
aF0.0
aF0.0
aF0.0
aF0.0
aF0.0
aF0.0
asS'Bacteria.Gemmatimonadota.Gemmatimonadetes'
p409
(lp410
F0.0
aF0.0
aF0.0
aF0.0
aF0.0
aF0.0
aF0.0
aF2840.175574490059
aF0.0
aF0.0
aF0.0
aF0.0
aF0.0
aF0.0
aF0.0
asS'Bacteria.Firmicutes.Clostridia.Oscillospirales.Oscillospiraceae.Oscillibacter'
p411
(lp412
F86.7077083152692
aF0.0
aF0.0
aF0.0
aF0.0
aF0.0
aF0.0
aF0.0
aF178.1895937277263
aF0.0
aF88.98908400569532
aF0.0
aF0.0
aF0.0
aF831.7161075686167
asS'Bacteria.Actinobacteriota.Coriobacteriia.Coriobacteriales.Coriobacteriales_Incertae_Sedis.uncultured'
p413
(lp414
F0.0
aF0.0
aF0.0
aF0.0
aF448.6316733961419
aF0.0
aF388.3574523751124
aF0.0
aF0.0
aF0.0
aF0.0
aF0.0
aF0.0
aF0.0
aF1537.4146230813824
asS'Bacteria.Firmicutes.Clostridia.Clostridia_UCG_014.Clostridia_UCG_014.Clostridia_UCG_014.unidentified_rumen'
p415
(lp416
F2353.4949399858783
aF0.0
aF0.0
aF0.0
aF0.0
aF0.0
aF0.0
aF5938.548928479214
aF0.0
aF0.0
aF216.11634687097433
aF0.0
aF0.0
aF0.0
aF0.0
asS'Bacteria.Firmicutes.Clostridia.Lachnospirales.Lachnospiraceae.Lachnospiraceae_FCS020_group'
p417
(lp418
F253.9297172090027
aF743.1292037181652
aF0.0
aF0.0
aF0.0
aF0.0
aF0.0
aF0.0
aF0.0
aF0.0
aF0.0
aF0.0
aF0.0
aF0.0
aF0.0
asS'Bacteria.Firmicutes.Clostridia.Lachnospirales.Lachnospiraceae'
p419
(lp420
F34689.27673384449
aF26085.094591530848
aF34161.31086792889
aF10176.531671858775
aF25871.093165844184
aF69788.12874009382
aF5743.602321968768
aF50864.96256132196
aF163275.1247327156
aF67192.17796642288
aF16242.626618753817
aF7567.5232255286
aF19226.694915254237
aF24137.05797957633
aF46374.47387655317
asS'Bacteria.Firmicutes.Clostridia.Peptostreptococcales_Tissierellales.Peptostreptococcaceae'
p421
(lp422
F1833.248690094263
aF856.4878958107666
aF22320.653117943373
aF168120.45690550367
aF17048.00358905339
aF17871.58337376678
aF56168.75153298995
aF8262.328943971079
aF285.1033499643621
aF20426.725281388568
aF1343.311410943115
aF14929.964520826072
aF150673.42615012106
aF211747.82682082872
aF9829.37218035638
asS'Bacteria.Firmicutes.Bacilli.Erysipelotrichales.Erysipelotrichaceae.Holdemania'
p423
(lp424
F0.0
aF0.0
aF0.0
aF0.0
aF0.0
aF1213.0033964095098
aF0.0
aF0.0
aF0.0
aF0.0
aF182.21574344023327
aF0.0
aF0.0
aF0.0
aF0.0
asS'Bacteria.Proteobacteria.Gammaproteobacteria.Burkholderiales.Sutterellaceae'
p425
(lp426
F4180.550222343337
aF1725.5712018540446
aF0.0
aF0.0
aF2841.333931508899
aF0.0
aF0.0
aF0.0
aF1666.072701354241
aF1629.5903285708876
aF4068.0724116889287
aF1066.4260372018623
aF0.0
aF0.0
aF579.6809234569147
asS'Bacteria.Firmicutes.Clostridia.Clostridiales.Clostridiaceae'
p427
(lp428
F371.6044642082966
aF100.76328186009019
aF0.0
aF402284.52751817246
aF18842.53028263796
aF16982.04754973314
aF659390.0744011119
aF12651.691195455716
aF35.637918745545264
aF7437.374464698527
aF1491.626550952607
aF60519.67761120568
aF432907.08232445526
aF235220.2717528905
aF11845.653653249994
asS'Bacteria.Firmicutes.Clostridia.Oscillospirales.Oscillospiraceae.Oscillibacter.uncultured_bacterium'
p429
(lp430
F6057.152766595234
aF466.03017860291715
aF0.0
aF0.0
aF0.0
aF0.0
aF0.0
aF0.0
aF14050.24946543122
aF2965.475423503999
aF419.5199674554208
aF410.1638604622547
aF121.06537530266345
aF833.4036627563505
aF0.0
asS'Bacteria.Firmicutes.Clostridia.Oscillospirales.Ruminococcaceae.UBA1819.uncultured_organism'
p431
(lp432
F0.0
aF0.0
aF0.0
aF0.0
aF0.0
aF0.0
aF0.0
aF0.0
aF0.0
aF0.0
aF0.0
aF0.0
aF0.0
aF0.0
aF781.3090707462762
asS'Bacteria.Firmicutes.Clostridia.Clostridia_vadinBB60_group.Clostridia_vadinBB60_group.Clostridia_vadinBB60_group'
p433
(lp434
F303.47697910344226
aF0.0
aF0.0
aF0.0
aF0.0
aF0.0
aF0.0
aF0.0
aF142.55167498218105
aF123.16671088035777
aF0.0
aF0.0
aF0.0
aF158.24120178918048
aF0.0
asS'Bacteria.Firmicutes.Clostridia.Eubacteriales.Anaerofustaceae.Anaerofustis'
p435
(lp436
F111.48133926248897
aF365.26689674282693
aF1186.9608013432921
aF0.0
aF0.0
aF404.3344654698367
aF0.0
aF0.0
aF0.0
aF75.7948990032971
aF0.0
aF328.13108836980376
aF75.66585956416466
aF189.88944214701658
aF0.0
asS'Bacteria.Firmicutes.Bacilli.RF39.RF39.RF39.uncultured_bacterium'
p437
(lp438
F154.83519342012357
aF1372.899715343729
aF5587.400845347693
aF4257.528556593978
aF16674.143861223274
aF3558.143296134562
aF306.597988717194
aF0.0
aF561.2972202423379
aF473.71811877060685
aF589.0229846091261
aF2020.0570127766048
aF0.0
aF263.7353363153008
aF2192.706101771808
asS'Bacteria.Firmicutes.Clostridia.Clostridia_UCG_014.Clostridia_UCG_014.Clostridia_UCG_014.uncultured_Clostridiales'
p439
(lp440
F291.0901636298324
aF1058.014459530947
aF1505.4136992646631
aF0.0
aF0.0
aF0.0
aF449.6770501185512
aF0.0
aF0.0
aF577.9361049001404
aF0.0
aF697.2785627858331
aF166.46489104116225
aF421.9765381044813
aF2797.5905436398925
asS'Bacteria.Firmicutes.Clostridia.Oscillospirales.Oscillospiraceae.UCG_005.uncultured_bacterium'
p441
(lp442
F38070.87735813999
aF0.0
aF0.0
aF0.0
aF7103.3348287722465
aF165938.86462882097
aF0.0
aF0.0
aF0.0
aF0.0
aF0.0
aF0.0
aF522.0944309927361
aF2014.9379694488985
aF2243.113138594148
asS'Bacteria.Firmicutes.Clostridia.Oscillospirales.Oscillospiraceae'
p443
(lp444
F21689.313894290914
aF19333.954706904806
aF6369.057958427422
aF3738.317757009346
aF672.9475100942128
aF23532.265890344494
aF1144.6324912108576
aF14200.877872450294
aF63310.762651461155
aF27750.40739758215
aF8623.46599769476
aF8162.260823198869
aF855.0242130750606
aF1772.3014600388215
aF7989.515336340954
asS'Bacteria.Firmicutes.Clostridia.Christensenellales.Christensenellaceae.uncultured'
p445
(lp446
F0.0
aF0.0
aF0.0
aF0.0
aF0.0
aF0.0
aF0.0
aF0.0
aF0.0
aF0.0
aF0.0
aF164.06554418490188
aF0.0
aF0.0
aF0.0
asS'Bacteria.Campilobacterota.Campylobacteria.Campylobacterales.Helicobacteraceae.Helicobacter'
p447
(lp448
F0.0
aF0.0
aF0.0
aF0.0
aF0.0
aF0.0
aF0.0
aF0.0
aF0.0
aF66.32053662788495
aF0.0
aF0.0
aF0.0
aF0.0
aF0.0
asS'Bacteria.Bacteroidota.Bacteroidia.Bacteroidales.Rikenellaceae.Alistipes.uncultured_bacterium'
p449
(lp450
F8540.709269054018
aF2657.631559059879
aF0.0
aF0.0
aF0.0
aF0.0
aF204.398659144796
aF0.0
aF8196.72131147541
aF3439.193542274606
aF9411.65502745949
aF2655.8109964930995
aF98.36561743341406
aF0.0
aF0.0
asS'Eukaryota'
p451
(lp452
F1399.7101485179173
aF0.0
aF0.0
aF0.0
aF0.0
aF0.0
aF0.0
aF0.0
aF0.0
aF0.0
aF0.0
aF0.0
aF1823.5472154963682
aF0.0
aF0.0
asS'Bacteria.Desulfobacterota.Desulfovibrionia.Desulfovibrionales.Desulfovibrionaceae.Desulfovibrio'
p453
(lp454
F1827.0552823574583
aF0.0
aF0.0
aF1869.158878504673
aF4635.860625093466
aF0.0
aF0.0
aF0.0
aF0.0
aF0.0
aF0.0
aF0.0
aF0.0
aF0.0
aF0.0
asS'Bacteria.Cyanobacteria.Vampirivibrionia.Gastranaerophilales.Gastranaerophilales.Gastranaerophilales.uncultured_bacterium'
p455
(lp456
F291.0901636298324
aF188.93115348766912
aF0.0
aF519.2107995846314
aF0.0
aF0.0
aF0.0
aF0.0
aF0.0
aF0.0
aF0.0
aF0.0
aF0.0
aF0.0
aF2192.706101771808
asS'Bacteria.Bacteroidota.Bacteroidia.Bacteroidales.Rikenellaceae.Alistipes.Alistipes_timonensis'
p457
(lp458
F173.4154166305384
aF0.0
aF0.0
aF0.0
aF0.0
aF0.0
aF0.0
aF0.0
aF0.0
aF0.0
aF135.6024137229643
aF0.0
aF0.0
aF0.0
aF0.0
asS'Bacteria.Firmicutes.Clostridia.Peptostreptococcales_Tissierellales.Anaerovoracaceae._Eubacterium__nodatum_group.uncultured_bacterium'
p459
(lp460
F0.0
aF0.0
aF0.0
aF0.0
aF0.0
aF0.0
aF0.0
aF0.0
aF374.1981468282252
aF0.0
aF279.67997830361384
aF594.7375976702693
aF0.0
aF0.0
aF0.0
asS'Bacteria.Bacteroidota.Bacteroidia.Bacteroidales.Prevotellaceae.Prevotellaceae_UCG_001'
p461
(lp462
F19342.012362041838
aF27949.215305942518
aF12824.966707197036
aF0.0
aF8748.317631224765
aF0.0
aF592.7561115199084
aF0.0
aF16812.188168210974
aF4197.142532307576
aF54444.36910977016
aF2317.425811611739
aF438.861985472155
aF0.0
aF932.5301812132975
asS'Bacteria.Proteobacteria.Gammaproteobacteria'
p463
(lp464
F7165.7727514833205
aF9534.725546011035
aF16733.25227259568
aF21910.695742471446
aF123373.710183939
aF35338.832282063726
aF23444.526203908103
aF31758.326878388838
aF2539.2017106201
aF5248.796755978324
aF4826.59841345176
aF6644.654539488526
aF11448.244552058111
aF13735.336315300867
aF40980.92093656275
asS'Bacteria.Bacteroidota'
p465
(lp466
F506757.007840854
aF601947.2504219464
aF367089.34051299863
aF1973.0010384215993
aF208389.41229250788
aF32912.82548924471
aF22115.934919466927
aF568293.3126775108
aF494930.5060584462
aF367747.37560162204
aF716777.4086378738
aF391091.2409507599
aF34556.598062954
aF45584.01552873659
aF52171.28311112232
asS'Bacteria.Bacteroidota.Bacteroidia.Bacteroidales.Rikenellaceae'
p467
(lp468
F9767.004000941397
aF2657.631559059879
aF0.0
aF0.0
aF0.0
aF0.0
aF204.398659144796
aF0.0
aF8517.462580185318
aF3666.578239284497
aF11755.034239609467
aF3291.564980209594
aF98.36561743341406
aF0.0
aF0.0
asS'Bacteria.Acidobacteriota'
p469
(lp470
F0.0
aF0.0
aF0.0
aF0.0
aF0.0
aF0.0
aF0.0
aF0.0
aF0.0
aF0.0
aF0.0
aF0.0
aF0.0
aF0.0
aF378.0527761675531
asS'Bacteria.Firmicutes.Clostridia.Oscillospirales.Butyricicoccaceae.UCG_009.uncultured_bacterium'
p471
(lp472
F489.2792112075905
aF1385.49512557624
aF579.0052689479475
aF0.0
aF0.0
aF0.0
aF0.0
aF0.0
aF1202.7797576621526
aF1032.7054989199228
aF0.0
aF512.7048255778184
aF174.03147699757872
aF706.8107013250061
aF0.0
asS'Bacteria.Bacteroidota.Bacteroidia.Bacteroidales.Muribaculaceae.Muribaculum'
p473
(lp474
F959.9781992047662
aF0.0
aF0.0
aF0.0
aF0.0
aF0.0
aF0.0
aF0.0
aF2245.1888809693514
aF1203.2440216773414
aF6538.578886704184
aF328.13108836980376
aF0.0
aF0.0
aF0.0
asS'Bacteria.Bacteroidota.Bacteroidia.Bacteroidales.Rikenellaceae.Alistipes'
p475
(lp476
F1052.8793152568403
aF0.0
aF0.0
aF0.0
aF0.0
aF0.0
aF0.0
aF0.0
aF320.74126870990733
aF227.38469700989128
aF1843.3453115465456
aF369.14747441602924
aF0.0
aF0.0
aF0.0
asS'Bacteria.Firmicutes.Clostridia.Lachnospirales.Lachnospiraceae.Lachnospiraceae_NK4A136_group'
p477
(lp478
F19094.27605256964
aF6070.9877320704345
aF694.806322737537
aF0.0
aF4262.000897263348
aF12291.767750283034
aF0.0
aF0.0
aF43433.713471133284
aF14344.184636373975
aF3517.1876059393862
aF4265.704148807449
aF3223.3656174334146
aF5759.979745126169
aF0.0
asS'Bacteria.Firmicutes.Clostridia.Eubacteriales.Anaerofustaceae.Anaerofustis.uncultured_bacterium'
p479
(lp480
F111.48133926248897
aF365.26689674282693
aF1186.9608013432921
aF0.0
aF0.0
aF0.0
aF0.0
aF0.0
aF0.0
aF75.7948990032971
aF0.0
aF328.13108836980376
aF75.66585956416466
aF189.88944214701658
aF0.0
asS'Bacteria.Firmicutes.Clostridia.Christensenellales.Christensenellaceae'
p481
(lp482
F1635.059642516505
aF3136.2571478953073
aF2547.623183370969
aF41536.863966770514
aF30133.09406310753
aF3719.8770823224972
aF3863.1346578366442
aF0.0
aF1211.6892373485389
aF1743.2826770758334
aF682.249644043664
aF4511.802465084802
aF575.0605326876514
aF2036.036796354122
aF167275.75169493663
asS'Bacteria.Actinobacteriota.Actinobacteria.Bifidobacteriales.Bifidobacteriaceae.Bifidobacterium'
p483
(lp484
F0.0
aF0.0
aF0.0
aF0.0
aF10468.072379243311
aF0.0
aF0.0
aF0.0
aF0.0
aF0.0
aF2296.7658824327077
aF18682.963844055703
aF7437.953995157386
aF4356.907755928769
aF0.0
asS'Bacteria.Firmicutes.Bacilli.Erysipelotrichales.Erysipelotrichaceae.Allobaculum'
p485
(lp486
F501.66602668120044
aF0.0
aF0.0
aF0.0
aF8000.59817556453
aF17062.914442827107
aF0.0
aF0.0
aF1167.1418389166072
aF369.5001326410733
aF0.0
aF0.0
aF0.0
aF0.0
aF16357.08344884946
asS'Bacteria.Desulfobacterota'
p487
(lp488
F1827.0552823574583
aF0.0
aF0.0
aF1869.158878504673
aF4635.860625093466
aF0.0
aF0.0
aF0.0
aF0.0
aF0.0
aF0.0
aF0.0
aF0.0
aF0.0
aF0.0
asS'Bacteria.Actinobacteriota.Coriobacteriia.Coriobacteriales.uncultured.uncultured'
p489
(lp490
F575.9869195228597
aF806.1062548807215
aF1129.0602744484975
aF5295.95015576324
aF5981.755645281892
aF7924.955523208799
aF3904.014389665604
aF3356.5711334882512
aF178.1895937277263
aF492.6668435214311
aF0.0
aF0.0
aF0.0
aF780.6565954932904
aF12022.078282128186
asS'Bacteria.Actinobacteriota.Coriobacteriia.Coriobacteriales.Eggerthellaceae.Gordonibacter'
p491
(lp492
F43.3538541576346
aF0.0
aF0.0
aF0.0
aF0.0
aF0.0
aF0.0
aF0.0
aF0.0
aF0.0
aF0.0
aF0.0
aF340.4963680387409
aF0.0
aF0.0
asS'Bacteria.Firmicutes.Bacilli.Staphylococcales.Staphylococcaceae'
p493
(lp494
F0.0
aF0.0
aF0.0
aF5711.318795430946
aF0.0
aF1617.3378618793467
aF0.0
aF0.0
aF0.0
aF0.0
aF25.425452573055804
aF0.0
aF113.498789346247
aF0.0
aF1360.989994203191
asS'Bacteria.Firmicutes.Clostridia.Oscillospirales.Ruminococcaceae.Incertae_Sedis.uncultured_Clostridiales'
p495
(lp496
F191.99563984095323
aF654.9613320905862
aF579.0052689479475
aF0.0
aF0.0
aF0.0
aF0.0
aF3098.373353989155
aF1274.0555951532428
aF322.1283207640127
aF105.93938572106585
aF235.84421976579645
aF0.0
aF369.2294708414212
aF0.0
asS'Bacteria.Bacteroidota.Bacteroidia.Bacteroidales.Prevotellaceae.Prevotellaceae_NK3B31_group'
p497
(lp498
F86429.00496711298
aF117867.8489558405
aF20207.283886283367
aF0.0
aF1420.6669657544494
aF2506.873685912987
aF306.597988717194
aF0.0
aF68255.52387740556
aF26101.868344260438
aF217722.3879585057
aF6921.515145300548
aF1082.0217917675548
aF263.7353363153008
aF4057.7664641984024
asS'Bacteria.Bacteroidota.Bacteroidia.Bacteroidales.Tannerellaceae.Parabacteroides'
p499
(lp500
F2464.9762792483675
aF2292.364662317052
aF839.5576399745238
aF0.0
aF1121.5791834903546
aF0.0
aF0.0
aF0.0
aF320.74126870990733
aF483.19248114601896
aF8631.941148552445
aF646.0080802280512
aF279.9636803874092
aF0.0
aF0.0
asS'Bacteria.Proteobacteria.Alphaproteobacteria.Rhizobiales.Beijerinckiaceae.Methylobacterium_Methylorubrum.Methylobacterium_hispanicum'
p501
(lp502
F0.0
aF0.0
aF0.0
aF0.0
aF0.0
aF0.0
aF0.0
aF0.0
aF0.0
aF0.0
aF0.0
aF61.52457906933821
aF0.0
aF0.0
aF0.0
asS'Bacteria.Actinobacteriota.Coriobacteriia.Coriobacteriales.Eggerthellaceae.Enterorhabdus.uncultured_bacterium'
p503
(lp504
F161.02860115692852
aF0.0
aF1939.667650975624
aF0.0
aF5383.5800807537025
aF2749.4743651948893
aF9872.455236693648
aF0.0
aF0.0
aF151.5897980065942
aF0.0
aF604.9916941818258
aF1641.949152542373
aF2405.2662671955436
aF16004.234191093079
asS'Bacteria.Actinobacteriota.Coriobacteriia.Coriobacteriales.Eggerthellaceae.Parvibacter.uncultured_bacterium'
p505
(lp506
F0.0
aF251.90820465022546
aF0.0
aF0.0
aF0.0
aF0.0
aF0.0
aF0.0
aF0.0
aF0.0
aF0.0
aF0.0
aF0.0
aF0.0
aF0.0
asS'Bacteria.Proteobacteria.Gammaproteobacteria.Burkholderiales.Oxalobacteraceae.Herminiimonas.uncultured_bacterium'
p507
(lp508
F0.0
aF0.0
aF434.25395171096056
aF0.0
aF0.0
aF0.0
aF429.2371842040716
aF0.0
aF0.0
aF0.0
aF0.0
aF0.0
aF0.0
aF0.0
aF655.2914786904253
asS'Bacteria.Firmicutes.Bacilli.Izemoplasmatales.Izemoplasmatales.Izemoplasmatales.gut_metagenome'
p509
(lp510
F117.67474699929392
aF0.0
aF0.0
aF0.0
aF0.0
aF0.0
aF0.0
aF0.0
aF0.0
aF104.2179861295335
aF0.0
aF0.0
aF0.0
aF0.0
aF0.0
asS'Bacteria.Firmicutes.Clostridia.Lachnospirales.Lachnospiraceae._Eubacterium__xylanophilum_group.uncultured_bacterium'
p511
(lp512
F9612.168807521273
aF25959.140489205736
aF37114.23773956343
aF0.0
aF2243.158366980709
aF14232.573184538249
aF2207.5055187637968
aF16266.460108443063
aF10833.92729864576
aF9559.631636790848
aF1805.207132686962
aF4973.236808104839
aF6416.464891041162
aF10232.931049033672
aF0.0
asS'Bacteria.Firmicutes.Bacilli.Izemoplasmatales.Izemoplasmatales.Izemoplasmatales'
p513
(lp514
F117.67474699929392
aF0.0
aF0.0
aF0.0
aF0.0
aF0.0
aF0.0
aF0.0
aF0.0
aF104.2179861295335
aF0.0
aF0.0
aF0.0
aF0.0
aF0.0
asS'Bacteria.Acidobacteriota.Blastocatellia.Blastocatellales'
p515
(lp516
F0.0
aF0.0
aF0.0
aF0.0
aF0.0
aF0.0
aF0.0
aF0.0
aF0.0
aF0.0
aF0.0
aF0.0
aF0.0
aF0.0
aF378.0527761675531
asS'Bacteria.Firmicutes.Bacilli.Erysipelotrichales.Erysipelotrichaceae.Allobaculum.uncultured_bacterium'
p517
(lp518
F0.0
aF0.0
aF0.0
aF0.0
aF0.0
aF0.0
aF0.0
aF0.0
aF0.0
aF606.3591920263768
aF0.0
aF338.38518488136015
aF0.0
aF0.0
aF0.0
asS'Bacteria.Campilobacterota.Campylobacteria.Campylobacterales'
p519
(lp520
F0.0
aF0.0
aF0.0
aF0.0
aF0.0
aF0.0
aF0.0
aF0.0
aF0.0
aF66.32053662788495
aF0.0
aF0.0
aF0.0
aF0.0
aF327.64573934521263
asS'Bacteria.Firmicutes.Clostridia.Peptostreptococcales_Tissierellales.Anaerovoracaceae.Anaerovorax'
p521
(lp522
F136.25497020970874
aF0.0
aF0.0
aF0.0
aF0.0
aF0.0
aF0.0
aF0.0
aF0.0
aF1136.9234850494563
aF0.0
aF0.0
aF0.0
aF0.0
aF0.0
asS'Bacteria.Firmicutes.Clostridia.Oscillospirales.Ruminococcaceae._Eubacterium__siraeum_group.uncultured_bacterium'
p523
(lp524
F66424.29797723303
aF3299.9974809179535
aF4921.544786057553
aF0.0
aF0.0
aF0.0
aF1553.4298095004497
aF14717.273431448486
aF46641.12615823236
aF615.8335544017889
aF516.9842023188014
aF15288.857898730545
aF37.83292978208233
aF0.0
aF0.0
asS'Bacteria.Firmicutes.Bacilli.Staphylococcales'
p525
(lp526
F0.0
aF0.0
aF0.0
aF5711.318795430946
aF0.0
aF1617.3378618793467
aF0.0
aF0.0
aF0.0
aF0.0
aF25.425452573055804
aF0.0
aF113.498789346247
aF0.0
aF1360.989994203191
asS'Bacteria.Firmicutes.Clostridia.Christensenellales.Christensenellaceae.Christensenellaceae_R_7_group'
p527
(lp528
F1145.7804313089143
aF1801.1436632491123
aF1968.6179144230214
aF41536.863966770514
aF30133.09406310753
aF3719.8770823224972
aF3004.660289428501
aF0.0
aF178.1895937277263
aF1070.6029484215715
aF682.249644043664
aF2091.8356883574993
aF348.06295399515744
aF1455.8190564604604
aF166267.61095848982
asS'Bacteria.Firmicutes.Clostridia.Clostridia.Hungateiclostridiaceae'
p529
(lp530
F0.0
aF0.0
aF0.0
aF0.0
aF0.0
aF0.0
aF0.0
aF0.0
aF178.1895937277263
aF113.69234850494564
aF0.0
aF0.0
aF0.0
aF0.0
aF0.0
asS'Bacteria.Deferribacterota.Deferribacteres.Deferribacterales'
p531
(lp532
F0.0
aF125.95410232511273
aF0.0
aF0.0
aF0.0
aF0.0
aF0.0
aF0.0
aF677.12045616536
aF0.0
aF0.0
aF0.0
aF0.0
aF0.0
aF0.0
asS'Bacteria.Proteobacteria.Gammaproteobacteria.Pseudomonadales.Moraxellaceae'
p533
(lp534
F49.54726189443954
aF0.0
aF0.0
aF0.0
aF0.0
aF0.0
aF2738.942032540266
aF0.0
aF0.0
aF0.0
aF0.0
aF0.0
aF0.0
aF0.0
aF1159.3618469138294
asS'Bacteria.Proteobacteria.Alphaproteobacteria.Sphingomonadales.Sphingomonadaceae'
p535
(lp536
F0.0
aF0.0
aF0.0
aF0.0
aF0.0
aF0.0
aF0.0
aF0.0
aF0.0
aF0.0
aF0.0
aF0.0
aF0.0
aF94.94472107350829
aF579.6809234569147
asS'Bacteria.Gemmatimonadota.Gemmatimonadetes.Gemmatimonadales.Gemmatimonadaceae.Roseisolibacter'
p537
(lp538
F0.0
aF0.0
aF0.0
aF0.0
aF0.0
aF0.0
aF0.0
aF2840.175574490059
aF0.0
aF0.0
aF0.0
aF0.0
aF0.0
aF0.0
aF0.0
asS'Bacteria.Campilobacterota.Campylobacteria.Campylobacterales.Campylobacteraceae'
p539
(lp540
F0.0
aF0.0
aF0.0
aF0.0
aF0.0
aF0.0
aF0.0
aF0.0
aF0.0
aF0.0
aF0.0
aF0.0
aF0.0
aF0.0
aF327.64573934521263
asS'Bacteria.Firmicutes.Clostridia.Lachnospirales.Defluviitaleaceae'
p541
(lp542
F545.019880838835
aF1662.5941506914883
aF0.0
aF0.0
aF0.0
aF0.0
aF0.0
aF0.0
aF106.91375623663578
aF653.7310039034375
aF114.41453657875111
aF0.0
aF0.0
aF0.0
aF0.0
asS'Bacteria.Firmicutes.Clostridia.Lachnospirales.Lachnospiraceae.Acetatifactor'
p543
(lp544
F92.90111605207414
aF0.0
aF0.0
aF0.0
aF0.0
aF0.0
aF0.0
aF0.0
aF614.7540983606558
aF123.16671088035777
aF0.0
aF0.0
aF0.0
aF443.07536500970537
aF0.0
asS'Bacteria.Proteobacteria.Alphaproteobacteria.Rhizobiales.Beijerinckiaceae.Methylobacterium_Methylorubrum.Methylobacterium_aerolatum'
p545
(lp546
F0.0
aF0.0
aF0.0
aF0.0
aF0.0
aF0.0
aF0.0
aF0.0
aF0.0
aF0.0
aF0.0
aF0.0
aF310.23002421307507
aF0.0
aF0.0
asS'Bacteria.Cyanobacteria.Cyanobacteriia.Chloroplast'
p547
(lp548
F0.0
aF0.0
aF0.0
aF0.0
aF0.0
aF0.0
aF0.0
aF0.0
aF0.0
aF0.0
aF0.0
aF0.0
aF0.0
aF0.0
aF352.8492577563828
asS'Bacteria.Firmicutes.Clostridia.Lachnospirales.Lachnospiraceae.Lachnospiraceae_NK4B4_group.uncultured_bacterium'
p549
(lp550
F0.0
aF314.88525581278185
aF0.0
aF0.0
aF0.0
aF0.0
aF0.0
aF0.0
aF0.0
aF0.0
aF0.0
aF0.0
aF0.0
aF0.0
aF0.0
asS'Bacteria.Actinobacteriota.Coriobacteriia.Coriobacteriales.uncultured.uncultured.uncultured_bacterium'
p551
(lp552
F575.9869195228597
aF806.1062548807215
aF1129.0602744484975
aF5295.95015576324
aF5981.755645281892
aF7924.955523208799
aF3904.014389665604
aF3356.5711334882512
aF178.1895937277263
aF492.6668435214311
aF0.0
aF0.0
aF0.0
aF780.6565954932904
aF12022.078282128186
asS'Bacteria.Firmicutes.Clostridia.Oscillospirales._Eubacterium__coprostanoligenes_group._Eubacterium__coprostanoligenes_group.uncultured_bacterium'
p553
(lp554
F260.1231249458076
aF566.7934604630074
aF0.0
aF0.0
aF1869.298639150591
aF13262.170467410642
aF633.6358433488676
aF41311.644719855394
aF1158.232359230221
aF2311.7444196005617
aF6708.08190385789
aF1845.7373720801463
aF143.76513317191285
aF411.42712465186924
aF1713.8392519595739
asS'Bacteria.Firmicutes.Bacilli.Acholeplasmatales.Acholeplasmataceae'
p555
(lp556
F371.6044642082966
aF0.0
aF0.0
aF0.0
aF299.0877822640946
aF0.0
aF61.3195977434388
aF0.0
aF365.2886671418389
aF104.2179861295335
aF29.66302800189844
aF0.0
aF0.0
aF0.0
aF0.0
asS'Bacteria.Firmicutes.Clostridia.Peptococcales.Peptococcaceae'
p557
(lp558
F891.8507140999118
aF579.3888706955186
aF434.25395171096056
aF0.0
aF0.0
aF0.0
aF81.7594636579184
aF0.0
aF3866.714183891661
aF4443.475954068292
aF7055.563089022985
aF153.81144767334553
aF242.1307506053269
aF210.98826905224064
aF226.83166570053183
asS'Bacteria.Firmicutes.Bacilli.RF39.RF39.RF39.unidentified'
p559
(lp560
F105.28793152568403
aF982.4419981358793
aF955.3586937641132
aF0.0
aF0.0
aF0.0
aF0.0
aF0.0
aF0.0
aF0.0
aF0.0
aF328.13108836980376
aF90.79903147699758
aF0.0
aF781.3090707462762
asS'Bacteria.Firmicutes.Clostridia.Clostridia_UCG_014.Clostridia_UCG_014.Clostridia_UCG_014'
p561
(lp562
F15848.93039848385
aF107338.08600146108
aF160239.70818134444
aF58463.1360332295
aF271272.6185135338
aF159873.84764677339
aF36096.80320497097
aF44668.21585334365
aF9069.850320741269
aF62833.97127373329
aF19268.25547494746
aF144910.89190131458
aF42743.64406779662
aF76820.82876192083
aF266779.2423822366
asS'Bacteria.Chloroflexi.Chloroflexia'
p563
(lp564
F179.60882436734335
aF0.0
aF0.0
aF0.0
aF0.0
aF0.0
aF0.0
aF0.0
aF0.0
aF0.0
aF0.0
aF0.0
aF0.0
aF0.0
aF0.0
asS'Bacteria.Acidobacteriota.Blastocatellia.Blastocatellales.Blastocatellaceae.Blastocatella'
p565
(lp566
F0.0
aF0.0
aF0.0
aF0.0
aF0.0
aF0.0
aF0.0
aF0.0
aF0.0
aF0.0
aF0.0
aF0.0
aF0.0
aF0.0
aF378.0527761675531
asS'Bacteria.Actinobacteriota.Coriobacteriia.Coriobacteriales.Atopobiaceae.Coriobacteriaceae_UCG_002'
p567
(lp568
F0.0
aF0.0
aF0.0
aF3219.106957424715
aF0.0
aF3800.7439754164648
aF0.0
aF0.0
aF0.0
aF634.7822791526131
aF0.0
aF6142.203810422265
aF741.5254237288136
aF1540.2143640813567
aF0.0
asS'Bacteria.Firmicutes.Clostridia.Oscillospirales.Oscillospiraceae.uncultured.uncultured_bacterium'
p569
(lp570
F0.0
aF377.86230697533824
aF0.0
aF0.0
aF0.0
aF0.0
aF347.47772054615325
aF0.0
aF516.7498218104063
aF180.0128851328306
aF245.77937487287275
aF0.0
aF0.0
aF0.0
aF0.0
asS'Bacteria.Actinobacteriota.Coriobacteriia.Coriobacteriales.Atopobiaceae.uncultured.uncultured_bacterium'
p571
(lp572
F0.0
aF0.0
aF0.0
aF0.0
aF0.0
aF0.0
aF531.4365137764696
aF0.0
aF0.0
aF0.0
aF0.0
aF123.04915813867642
aF0.0
aF0.0
aF0.0
asS'Bacteria.Campilobacterota.Campylobacteria.Campylobacterales.Campylobacteraceae.Campylobacter'
p573
(lp574
F0.0
aF0.0
aF0.0
aF0.0
aF0.0
aF0.0
aF0.0
aF0.0
aF0.0
aF0.0
aF0.0
aF0.0
aF0.0
aF0.0
aF327.64573934521263
asS'Bacteria.Patescibacteria.Saccharimonadia.Saccharimonadales'
p575
(lp576
F1486.4178568331863
aF1234.3502027861048
aF9843.089572115106
aF3738.317757009346
aF15253.476895468824
aF32508.491023774863
aF551.8763796909492
aF12651.691195455716
aF507.8403421240199
aF1288.5132830560508
aF1178.0459692182521
aF3804.269805787412
aF5614.406779661018
aF15349.396573550506
aF6351.286639614891
asS'Bacteria.Proteobacteria.Gammaproteobacteria.Pasteurellales.Pasteurellaceae'
p577
(lp578
F222.96267852497795
aF0.0
aF0.0
aF0.0
aF672.9475100942128
aF1374.7371825974446
aF0.0
aF0.0
aF356.3791874554526
aF824.269526660856
aF0.0
aF0.0
aF0.0
aF0.0
aF1789.4498071930843
asS'Bacteria.Firmicutes.Clostridia.Lachnospirales.Lachnospiraceae._Bacteroides__pectinophilus_group'
p579
(lp580
F898.0441218367168
aF0.0
aF926.4084303167158
aF0.0
aF1046.807237924331
aF1132.1365033155425
aF0.0
aF0.0
aF0.0
aF0.0
aF707.6750966167199
aF0.0
aF408.5956416464892
aF0.0
aF0.0
asS'Bacteria.Firmicutes.Clostridia.Monoglobales.Monoglobaceae.Monoglobus'
p581
(lp582
F3313.473139190645
aF0.0
aF1042.2094841063054
aF2284.527518172378
aF0.0
aF68170.79087821445
aF1696.5088709018069
aF22463.206816421374
aF5167.498218104063
aF9588.054723917083
aF55.08848057495424
aF1425.319415106335
aF4010.290556900727
aF7236.897628491854
aF46248.45628449732
asS'Bacteria.Firmicutes.Clostridia.Oscillospirales.Ruminococcaceae.Subdoligranulum.uncultured_bacterium'
p583
(lp584
F650.3078123645191
aF0.0
aF0.0
aF0.0
aF0.0
aF4447.679120168203
aF0.0
aF0.0
aF0.0
aF0.0
aF0.0
aF0.0
aF0.0
aF0.0
aF3478.085540741488
asS'Bacteria.Firmicutes.Bacilli.RF39.RF39.RF39.uncultured_Paenibacillaceae'
p585
(lp586
F458.3121725235658
aF0.0
aF0.0
aF0.0
aF0.0
aF0.0
aF0.0
aF0.0
aF0.0
aF0.0
aF0.0
aF0.0
aF0.0
aF0.0
aF0.0
asS'Bacteria.Firmicutes.Clostridia.Oscillospirales.Ruminococcaceae.UBA1819.uncultured_bacterium'
p587
(lp588
F167.22200889373346
aF0.0
aF0.0
aF0.0
aF0.0
aF0.0
aF0.0
aF0.0
aF1568.0684248039913
aF331.6026831394248
aF0.0
aF953.6309755747423
aF0.0
aF168.79061524179252
aF0.0
asS'Bacteria.Firmicutes.Clostridia.Lachnospirales.Lachnospiraceae.Acetatifactor.uncultured_bacterium'
p589
(lp590
F92.90111605207414
aF0.0
aF0.0
aF0.0
aF0.0
aF0.0
aF0.0
aF0.0
aF614.7540983606558
aF123.16671088035777
aF0.0
aF0.0
aF0.0
aF443.07536500970537
aF0.0
asS'Bacteria.Actinobacteriota.Coriobacteriia.Coriobacteriales.Eggerthellaceae'
p591
(lp592
F204.38245531456312
aF251.90820465022546
aF3126.628452318916
aF5503.634475597093
aF8673.545685658743
aF7197.153485363092
aF14389.66560379364
aF0.0
aF400.9265858873842
aF975.8593246674502
aF203.40362058444643
aF1958.5324337072664
aF2602.9055690072637
aF4388.555996286605
aF25757.99581621595
asS'Bacteria.Actinobacteriota.Coriobacteriia.Coriobacteriales.Coriobacteriales_Incertae_Sedis.uncultured.gut_metagenome'
p593
(lp594
F0.0
aF0.0
aF0.0
aF0.0
aF448.6316733961419
aF0.0
aF388.3574523751124
aF0.0
aF0.0
aF0.0
aF0.0
aF0.0
aF0.0
aF0.0
aF1537.4146230813824
asS'Bacteria.Proteobacteria.Gammaproteobacteria.Burkholderiales.Comamonadaceae.Comamonas'
p595
(lp596
F0.0
aF226.71738418520295
aF0.0
aF0.0
aF20113.65335726036
aF0.0
aF0.0
aF0.0
aF0.0
aF0.0
aF0.0
aF0.0
aF189.16464891041164
aF263.7353363153008
aF0.0
asS'Bacteria.Proteobacteria.Gammaproteobacteria.Burkholderiales.Alcaligenaceae'
p597
(lp598
F0.0
aF0.0
aF0.0
aF0.0
aF3514.2814416031115
aF0.0
aF1124.192625296378
aF0.0
aF0.0
aF47.371811877060686
aF0.0
aF102.54096511556368
aF75.66585956416466
aF179.34002869440457
aF957.7336996244677
asS'Bacteria.Firmicutes.Clostridia.Christensenellales.Christensenellaceae.Christensenellaceae_R_7_group.uncultured_prokaryote'
p599
(lp600
F309.67038684024715
aF1335.113484646195
aF579.0052689479475
aF0.0
aF0.0
aF0.0
aF858.4743684081432
aF0.0
aF302.9223093371347
aF587.4104672755525
aF0.0
aF1650.9095383605752
aF226.997578692494
aF580.2177398936618
aF1008.140736446808
asS'Bacteria.Bacteroidota.Bacteroidia.Flavobacteriales'
p601
(lp602
F0.0
aF0.0
aF0.0
aF0.0
aF0.0
aF0.0
aF1246.8318207832558
aF0.0
aF0.0
aF0.0
aF0.0
aF0.0
aF0.0
aF0.0
aF0.0
asS'Bacteria.Firmicutes.Bacilli'
p603
(lp604
F23671.20437006849
aF8653.046829735245
aF23478.663655839267
aF934.5794392523366
aF0.0
aF0.0
aF1430.7906140135722
aF0.0
aF0.0
aF900.064425664153
aF2432.368296155672
aF143.55735116178914
aF1422.5181598062954
aF654.063634061946
aF4360.208685132445
asS'Bacteria.Firmicutes.Clostridia.Peptostreptococcales_Tissierellales.Anaerovoracaceae._Eubacterium__nodatum_group'
p605
(lp606
F402.57150289232135
aF1498.8538176688417
aF1852.8168606334316
aF0.0
aF0.0
aF0.0
aF0.0
aF0.0
aF614.7540983606558
aF644.2566415280254
aF500.0339006034309
aF379.4015709275856
aF0.0
aF0.0
aF0.0
asS'Bacteria.Proteobacteria.Gammaproteobacteria.Burkholderiales.Oxalobacteraceae.Massilia'
p607
(lp608
F0.0
aF0.0
aF0.0
aF0.0
aF0.0
aF0.0
aF0.0
aF13168.086754453909
aF0.0
aF0.0
aF0.0
aF0.0
aF0.0
aF0.0
aF0.0
asS'Bacteria.Proteobacteria.Alphaproteobacteria.Sphingomonadales'
p609
(lp610
F0.0
aF0.0
aF0.0
aF0.0
aF0.0
aF0.0
aF0.0
aF0.0
aF0.0
aF0.0
aF0.0
aF0.0
aF0.0
aF94.94472107350829
aF579.6809234569147
asS'Bacteria.Actinobacteriota.Coriobacteriia.Coriobacteriales.Eggerthellaceae.Gordonibacter.uncultured_bacterium'
p611
(lp612
F43.3538541576346
aF0.0
aF0.0
aF0.0
aF0.0
aF0.0
aF0.0
aF0.0
aF0.0
aF0.0
aF0.0
aF0.0
aF340.4963680387409
aF0.0
aF0.0
asS'Bacteria.Actinobacteriota.Coriobacteriia.Coriobacteriales.Atopobiaceae.Coriobacteriaceae_UCG_002.uncultured_bacterium'
p613
(lp614
F0.0
aF0.0
aF0.0
aF3219.106957424715
aF0.0
aF3800.7439754164648
aF0.0
aF0.0
aF0.0
aF634.7822791526131
aF0.0
aF6142.203810422265
aF741.5254237288136
aF1540.2143640813567
aF0.0
asS'Bacteria.Campilobacterota.Campylobacteria.Campylobacterales.Campylobacteraceae.Campylobacter.Campylobacter_showae'
p615
(lp616
F0.0
aF0.0
aF0.0
aF0.0
aF0.0
aF0.0
aF0.0
aF0.0
aF0.0
aF0.0
aF0.0
aF0.0
aF0.0
aF0.0
aF327.64573934521263
asS'Bacteria.Bacteroidota.Bacteroidia.Bacteroidales.Muribaculaceae.Muribaculum.uncultured_bacterium'
p617
(lp618
F959.9781992047662
aF0.0
aF0.0
aF0.0
aF0.0
aF0.0
aF0.0
aF0.0
aF2245.1888809693514
aF1203.2440216773414
aF6538.578886704184
aF328.13108836980376
aF0.0
aF0.0
aF0.0
asS'Bacteria.Firmicutes.Bacilli.Erysipelotrichales.Erysipelotrichaceae.Faecalibaculum.uncultured_bacterium'
p619
(lp620
F0.0
aF188.93115348766912
aF1013.2592206589079
aF0.0
aF0.0
aF0.0
aF1737.388602730766
aF0.0
aF0.0
aF180.0128851328306
aF88.98908400569532
aF5691.0235639137845
aF711.2590799031477
aF717.3601147776183
aF856.9196259797869
asS'Bacteria.Bacteroidota.Bacteroidia.Flavobacteriales.Weeksellaceae.Chryseobacterium'
p621
(lp622
F0.0
aF0.0
aF0.0
aF0.0
aF0.0
aF0.0
aF1246.8318207832558
aF0.0
aF0.0
aF0.0
aF0.0
aF0.0
aF0.0
aF0.0
aF0.0
asS'Bacteria.Firmicutes.Clostridia.Clostridiales'
p623
(lp624
F371.6044642082966
aF100.76328186009019
aF0.0
aF402284.52751817246
aF18842.53028263796
aF16982.04754973314
aF659390.0744011119
aF12651.691195455716
aF35.637918745545264
aF7437.374464698527
aF1491.626550952607
aF60519.67761120568
aF432907.08232445526
aF235220.2717528905
aF11845.653653249994
asS'Bacteria.Firmicutes.Clostridia.Oscillospirales.Ruminococcaceae.Harryflintia'
p625
(lp626
F0.0
aF0.0
aF0.0
aF0.0
aF0.0
aF0.0
aF0.0
aF0.0
aF1202.7797576621526
aF0.0
aF0.0
aF0.0
aF0.0
aF0.0
aF0.0
asS'Bacteria.Firmicutes.Clostridia.Oscillospirales.Oscillospiraceae.UCG_005.uncultured_prokaryote'
p627
(lp628
F1461.6442258859668
aF0.0
aF0.0
aF0.0
aF0.0
aF5094.614264919942
aF0.0
aF0.0
aF0.0
aF0.0
aF0.0
aF0.0
aF0.0
aF0.0
aF0.0
asS'Bacteria.Firmicutes.Bacilli.Erysipelotrichales.Erysipelotrichaceae.uncultured'
p629
(lp630
F910.4309373103266
aF0.0
aF0.0
aF519.2107995846314
aF0.0
aF0.0
aF0.0
aF0.0
aF0.0
aF606.3591920263768
aF0.0
aF0.0
aF0.0
aF0.0
aF0.0
asS'Bacteria.Firmicutes.Clostridia.Lachnospirales.Lachnospiraceae.Lachnospiraceae_NC2004_group.uncultured_Clostridiaceae'
p631
(lp632
F0.0
aF780.915434415699
aF0.0
aF0.0
aF0.0
aF0.0
aF0.0
aF0.0
aF2868.8524590163934
aF16087.46731344981
aF0.0
aF0.0
aF0.0
aF0.0
aF0.0
asS'Bacteria.Proteobacteria.Gammaproteobacteria.Burkholderiales.Burkholderiaceae.Burkholderia_Caballeronia_Paraburkholderia'
p633
(lp634
F247.73630947219772
aF982.4419981358793
aF1968.6179144230214
aF4776.739356178609
aF13010.318528488115
aF1617.3378618793467
aF4169.732646553839
aF0.0
aF106.91375623663578
aF378.9744950164855
aF241.54179944403015
aF1538.1144767334551
aF4517.2518159806295
aF2278.673305764199
aF12626.96272399627
asS'Bacteria.Chloroflexi.Chloroflexia.Chloroflexales.Chloroflexaceae.FFCH7168.uncultured_bacterium'
p635
(lp636
F179.60882436734335
aF0.0
aF0.0
aF0.0
aF0.0
aF0.0
aF0.0
aF0.0
aF0.0
aF0.0
aF0.0
aF0.0
aF0.0
aF0.0
aF0.0
asS'Bacteria.Firmicutes.Clostridia.Oscillospirales.Ruminococcaceae.Incertae_Sedis.uncultured_bacterium'
p637
(lp638
F9506.880875995588
aF1977.47940650427
aF7527.068496323316
aF8826.583592938734
aF2766.561985942875
aF4609.412906356138
aF2943.3406916850627
aF25561.58017041053
aF6085.174625801854
aF6489.938227157314
aF105.93938572106585
aF379.4015709275856
aF0.0
aF0.0
aF15399.349749224994
asS'Bacteria.Firmicutes.Bacilli.Erysipelotrichales.Erysipelotrichaceae.uncultured.uncultured_bacterium'
p639
(lp640
F427.3451338395411
aF617.1751013930524
aF347.4031613687685
aF0.0
aF5159.264244055631
aF0.0
aF0.0
aF0.0
aF0.0
aF142.11543563118204
aF0.0
aF656.2621767396075
aF0.0
aF0.0
aF1184.5653653249997
asS'Bacteria.Firmicutes.Clostridia.Lachnospirales'
p641
(lp642
F93099.3050996519
aF75056.04957553468
aF88848.35852006254
aF52128.764278297
aF100867.35456856588
aF136341.5817564289
aF10444.771482299078
aF86754.45391169634
aF238061.2972202423
aF177947.47413499077
aF36489.76201776391
aF23522.89739751031
aF52020.2784503632
aF70501.73010380623
aF95521.33477833506
asS'Bacteria.Firmicutes.Clostridia.Peptococcales.Peptococcaceae.uncultured'
p643
(lp644
F0.0
aF0.0
aF0.0
aF0.0
aF0.0
aF0.0
aF0.0
aF0.0
aF1443.3357091945832
aF0.0
aF0.0
aF0.0
aF0.0
aF0.0
aF0.0
asS'Bacteria.Actinobacteriota.Actinobacteria.Corynebacteriales.Corynebacteriaceae.Corynebacterium.Corynebacterium_stationis'
p645
(lp646
F0.0
aF0.0
aF0.0
aF5919.003115264798
aF0.0
aF0.0
aF0.0
aF0.0
aF0.0
aF0.0
aF0.0
aF0.0
aF0.0
aF0.0
aF0.0
asS'Bacteria.Firmicutes.Clostridia.Oscillospirales.Oscillospiraceae.uncultured.Clostridium_sp_'
p647
(lp648
F2303.947678091439
aF0.0
aF0.0
aF0.0
aF0.0
aF0.0
aF0.0
aF0.0
aF0.0
aF293.70523363777625
aF614.4484371821819
aF0.0
aF0.0
aF0.0
aF0.0
asS'Bacteria.Firmicutes.Clostridia.Peptococcales.Peptococcaceae.uncultured.unidentified'
p649
(lp650
F588.3737349964696
aF579.3888706955186
aF434.25395171096056
aF0.0
aF0.0
aF0.0
aF0.0
aF0.0
aF1862.0812544547398
aF4197.142532307576
aF7055.563089022985
aF153.81144767334553
aF0.0
aF0.0
aF226.83166570053183
asS'Bacteria.Actinobacteriota.Coriobacteriia.Coriobacteriales.Atopobiaceae.uncultured'
p651
(lp652
F0.0
aF0.0
aF0.0
aF0.0
aF0.0
aF0.0
aF531.4365137764696
aF0.0
aF0.0
aF0.0
aF0.0
aF123.04915813867642
aF0.0
aF0.0
aF0.0
asS'Bacteria.Actinobacteriota.Actinobacteria.Corynebacteriales.Corynebacteriaceae'
p653
(lp654
F0.0
aF0.0
aF0.0
aF5919.003115264798
aF0.0
aF0.0
aF0.0
aF0.0
aF0.0
aF0.0
aF0.0
aF0.0
aF0.0
aF0.0
aF0.0
asS'Bacteria.Actinobacteriota.Coriobacteriia.Coriobacteriales.Eggerthellaceae.Adlercreutzia'
p655
(lp656
F0.0
aF0.0
aF781.657113079729
aF0.0
aF0.0
aF4447.679120168203
aF0.0
aF0.0
aF400.9265858873842
aF824.269526660856
aF203.40362058444643
aF0.0
aF620.4600484261501
aF1983.2897290910619
aF0.0
asS'Bacteria.Firmicutes.Clostridia.Oscillospirales.Ruminococcaceae.Ruminococcaceae'
p657
(lp658
F0.0
aF163.74033302264655
aF0.0
aF0.0
aF0.0
aF0.0
aF0.0
aF0.0
aF80.18531717747683
aF0.0
aF0.0
aF0.0
aF0.0
aF94.94472107350829
aF0.0
asS'Bacteria.Firmicutes.Clostridia.Peptostreptococcales_Tissierellales.Anaerovoracaceae._Eubacterium__brachy_group.uncultured_bacterium'
p659
(lp660
F0.0
aF0.0
aF0.0
aF0.0
aF0.0
aF1293.8702895034774
aF0.0
aF0.0
aF115.8232359230221
aF0.0
aF0.0
aF0.0
aF143.76513317191285
aF242.63650941007674
aF0.0
asS'Bacteria.Firmicutes.Clostridia.Peptococcales.Peptococcaceae.uncultured.uncultured_bacterium'
p661
(lp662
F191.99563984095323
aF0.0
aF0.0
aF0.0
aF0.0
aF0.0
aF0.0
aF0.0
aF231.6464718460442
aF246.33342176071554
aF0.0
aF0.0
aF242.1307506053269
aF210.98826905224064
aF0.0
asS'Bacteria.Firmicutes.Clostridia.Oscillospirales.UCG_010.UCG_010.unidentified'
p663
(lp664
F0.0
aF125.95410232511273
aF0.0
aF0.0
aF0.0
aF0.0
aF0.0
aF0.0
aF0.0
aF473.71811877060685
aF0.0
aF1435.5735116178917
aF0.0
aF0.0
aF0.0
asS'Bacteria.Proteobacteria.Alphaproteobacteria.Caulobacterales.Caulobacteraceae.Brevundimonas'
p665
(lp666
F0.0
aF0.0
aF0.0
aF0.0
aF972.0352923583074
aF0.0
aF633.6358433488676
aF0.0
aF0.0
aF0.0
aF0.0
aF0.0
aF0.0
aF0.0
aF0.0
asS'Bacteria.Firmicutes.Clostridia.Lachnospirales.Lachnospiraceae._Eubacterium__hallii_group.Clostridium_sp_'
p667
(lp668
F260.1231249458076
aF0.0
aF0.0
aF0.0
aF0.0
aF0.0
aF0.0
aF0.0
aF0.0
aF0.0
aF0.0
aF0.0
aF0.0
aF0.0
aF0.0
asS'Bacteria.Proteobacteria.Alphaproteobacteria.Rhodospirillales'
p669
(lp670
F0.0
aF0.0
aF0.0
aF0.0
aF0.0
aF0.0
aF0.0
aF0.0
aF133.64219529579472
aF0.0
aF330.5308834497255
aF0.0
aF0.0
aF0.0
aF0.0
asS'Bacteria.Actinobacteriota.Actinobacteria.Micrococcales.Micrococcaceae.Rothia'
p671
(lp672
F0.0
aF0.0
aF0.0
aF0.0
aF0.0
aF0.0
aF0.0
aF0.0
aF0.0
aF0.0
aF72.03878229032478
aF0.0
aF340.4963680387409
aF0.0
aF1814.6533256042546
asS'Bacteria.Proteobacteria.Gammaproteobacteria.Pasteurellales.Pasteurellaceae.Rodentibacter.Pasteurellaceae_bacterium'
p673
(lp674
F0.0
aF0.0
aF0.0
aF0.0
aF0.0
aF0.0
aF0.0
aF0.0
aF0.0
aF0.0
aF0.0
aF0.0
aF0.0
aF0.0
aF1789.4498071930843
asS'Bacteria.Firmicutes.Bacilli.Erysipelotrichales.Erysipelatoclostridiaceae.Erysipelotrichaceae_UCG_003'
p675
(lp676
F0.0
aF0.0
aF1244.861328238087
aF1557.6323987538942
aF0.0
aF0.0
aF0.0
aF0.0
aF0.0
aF0.0
aF0.0
aF0.0
aF0.0
aF0.0
aF0.0
asS'Bacteria.Firmicutes.Clostridia.Lachnospirales.Lachnospiraceae._Eubacterium__ruminantium_group.uncultured_bacterium'
p677
(lp678
F0.0
aF0.0
aF0.0
aF0.0
aF0.0
aF0.0
aF0.0
aF0.0
aF2040.270848182466
aF58030.46954939934
aF3644.314868804665
aF399.9097639506984
aF4048.123486682809
aF1856.6967676597176
aF0.0
asS'Bacteria.Firmicutes.Bacilli.RF39.RF39.RF39.uncultured_Lachnospiraceae'
p679
(lp680
F0.0
aF3551.9056855681793
aF723.7565861849342
aF0.0
aF7851.054284432483
aF0.0
aF1389.910882184613
aF2840.175574490059
aF0.0
aF0.0
aF97.46423486338057
aF338.38518488136015
aF446.42857142857144
aF253.18592286268878
aF2117.0955465382967
asS'Bacteria.Firmicutes.Clostridia.Lachnospirales.Defluviitaleaceae.Defluviitaleaceae_UCG_011.uncultured_bacterium'
p681
(lp682
F0.0
aF0.0
aF0.0
aF0.0
aF0.0
aF0.0
aF0.0
aF0.0
aF106.91375623663578
aF653.7310039034375
aF114.41453657875111
aF0.0
aF0.0
aF0.0
aF0.0
asS'Bacteria.Firmicutes.Clostridia.Oscillospirales.Ruminococcaceae'
p683
(lp684
F10918.977839987116
aF9585.107186941079
aF1244.861328238087
aF0.0
aF0.0
aF1617.3378618793467
aF245.2783909737552
aF10586.108959462947
aF36911.97434069851
aF60891.7269867738
aF4822.360838022918
aF1968.7865302188227
aF529.6610169491526
aF907.2495569246348
aF352.8492577563828
asS'Bacteria.Firmicutes.Bacilli.Erysipelotrichales.Erysipelatoclostridiaceae.UCG_004.uncultured_bacterium'
p685
(lp686
F1263.4551783082086
aF0.0
aF0.0
aF0.0
aF0.0
aF0.0
aF0.0
aF0.0
aF329.65074839629364
aF729.5259029067346
aF0.0
aF0.0
aF0.0
aF0.0
aF252.035184111702
asS'Bacteria.Firmicutes.Clostridia.Lachnospirales.Lachnospiraceae.Lachnospiraceae_NC2004_group'
p687
(lp688
F0.0
aF780.915434415699
aF0.0
aF0.0
aF0.0
aF0.0
aF0.0
aF0.0
aF2868.8524590163934
aF16087.46731344981
aF0.0
aF0.0
aF0.0
aF0.0
aF0.0
asS'Bacteria.Cyanobacteria.Cyanobacteriia.Chloroplast.Chloroplast'
p689
(lp690
F0.0
aF0.0
aF0.0
aF0.0
aF0.0
aF0.0
aF0.0
aF0.0
aF0.0
aF0.0
aF0.0
aF0.0
aF0.0
aF0.0
aF352.8492577563828
asS'Bacteria.Firmicutes.Bacilli.Erysipelotrichales.Erysipelatoclostridiaceae.Erysipelotrichaceae_UCG_003.uncultured_bacterium'
p691
(lp692
F0.0
aF0.0
aF1244.861328238087
aF1557.6323987538942
aF0.0
aF0.0
aF0.0
aF0.0
aF0.0
aF0.0
aF0.0
aF0.0
aF0.0
aF0.0
aF0.0
asS'Bacteria.Firmicutes.Bacilli.Staphylococcales.Staphylococcaceae.Staphylococcus'
p693
(lp694
F0.0
aF0.0
aF0.0
aF1765.316718587747
aF0.0
aF1617.3378618793467
aF0.0
aF0.0
aF0.0
aF0.0
aF0.0
aF0.0
aF113.498789346247
aF0.0
aF1360.989994203191
asS'Bacteria.Firmicutes.Bacilli.RF39.RF39.RF39'
p695
(lp696
F972.3650146783762
aF1045.4190492984358
aF7121.764808059754
aF0.0
aF2542.2461492448037
aF8652.757561054505
aF0.0
aF0.0
aF472.2024233784747
aF900.064425664153
aF593.2605600379687
aF912.6145895285168
aF1029.0556900726394
aF1276.4790277660559
aF14265.191420722334
asS'Bacteria.Firmicutes.Clostridia.Lachnospirales.Lachnospiraceae.Lachnospiraceae_UCG_010'
p697
(lp698
F43.3538541576346
aF0.0
aF0.0
aF0.0
aF0.0
aF0.0
aF0.0
aF0.0
aF106.91375623663578
aF0.0
aF0.0
aF0.0
aF0.0
aF0.0
aF0.0
asS'Bacteria.Firmicutes.Bacilli.Bacillales'
p699
(lp700
F0.0
aF0.0
aF0.0
aF0.0
aF0.0
aF0.0
aF0.0
aF0.0
aF0.0
aF0.0
aF0.0
aF0.0
aF0.0
aF0.0
aF932.5301812132975
asS'Bacteria.Firmicutes.Bacilli.Lactobacillales.Aerococcaceae.Aerococcus'
p701
(lp702
F0.0
aF0.0
aF0.0
aF1246.1059190031156
aF822.49140122626
aF0.0
aF0.0
aF0.0
aF0.0
aF0.0
aF0.0
aF0.0
aF0.0
aF0.0
aF0.0
asS'Bacteria.Chloroflexi.Chloroflexia.Chloroflexales'
p703
(lp704
F179.60882436734335
aF0.0
aF0.0
aF0.0
aF0.0
aF0.0
aF0.0
aF0.0
aF0.0
aF0.0
aF0.0
aF0.0
aF0.0
aF0.0
aF0.0
asS'Bacteria.Firmicutes.Clostridia.Monoglobales'
p705
(lp706
F16666.460219742105
aF340.0760762778044
aF1042.2094841063054
aF2284.527518172378
aF0.0
aF79087.82144590004
aF1962.2271277900415
aF26336.173508907817
aF5167.498218104063
aF9588.054723917083
aF55.08848057495424
aF7823.875638317509
aF4010.290556900727
aF9294.033251751202
aF60286.81603951912
asS'Bacteria.Firmicutes.Clostridia.Lachnospirales.Lachnospiraceae._Bacteroides__pectinophilus_group.uncultured_bacterium'
p707
(lp708
F898.0441218367168
aF0.0
aF926.4084303167158
aF0.0
aF1046.807237924331
aF1132.1365033155425
aF0.0
aF0.0
aF0.0
aF0.0
aF707.6750966167199
aF0.0
aF408.5956416464892
aF0.0
aF0.0
asS'Bacteria.Firmicutes.Clostridia.Monoglobales.Monoglobaceae.Monoglobus.unidentified'
p709
(lp710
F0.0
aF0.0
aF0.0
aF0.0
aF0.0
aF0.0
aF0.0
aF0.0
aF0.0
aF0.0
aF0.0
aF0.0
aF0.0
aF1118.2378259768755
aF0.0
asS'Bacteria.Actinobacteriota.Actinobacteria.Micrococcales'
p711
(lp712
F0.0
aF0.0
aF0.0
aF0.0
aF0.0
aF0.0
aF0.0
aF0.0
aF0.0
aF28.42308712623641
aF72.03878229032478
aF0.0
aF340.4963680387409
aF0.0
aF1814.6533256042546
asS'Bacteria.Firmicutes.Clostridia.Oscillospirales.Oscillospiraceae.NK4A214_group'
p713
(lp714
F1381.1299253075024
aF554.198050230496
aF0.0
aF0.0
aF0.0
aF6388.4845544234195
aF0.0
aF0.0
aF8508.55310049893
aF11426.081024747036
aF0.0
aF2184.1225569615062
aF0.0
aF0.0
aF1915.4673992489354
asS'Bacteria.Desulfobacterota.Desulfovibrionia.Desulfovibrionales'
p715
(lp716
F1827.0552823574583
aF0.0
aF0.0
aF1869.158878504673
aF4635.860625093466
aF0.0
aF0.0
aF0.0
aF0.0
aF0.0
aF0.0
aF0.0
aF0.0
aF0.0
aF0.0
asS'Bacteria.Firmicutes.Clostridia.Clostridiales.Clostridiaceae.Clostridium_sensu_stricto_1'
p717
(lp718
F111.48133926248897
aF100.76328186009019
aF0.0
aF402284.52751817246
aF18842.53028263796
aF16982.04754973314
aF659390.0744011119
aF12651.691195455716
aF35.637918745545264
aF7437.374464698527
aF1491.626550952607
aF60519.67761120568
aF432907.08232445526
aF235220.2717528905
aF11845.653653249994
asS'Bacteria.Bacteroidota.Bacteroidia.Bacteroidales.Prevotellaceae.Prevotellaceae_NK3B31_group.uncultured_bacterium'
p719
(lp720
F86429.00496711298
aF117867.8489558405
aF20207.283886283367
aF0.0
aF1420.6669657544494
aF2506.873685912987
aF306.597988717194
aF0.0
aF68255.52387740556
aF26101.868344260438
aF217722.3879585057
aF6921.515145300548
aF1082.0217917675548
aF263.7353363153008
aF4057.7664641984024
asS'Bacteria.Firmicutes.Clostridia.Peptostreptococcales_Tissierellales'
p721
(lp722
F0.0
aF0.0
aF0.0
aF0.0
aF0.0
aF0.0
aF0.0
aF0.0
aF0.0
aF0.0
aF0.0
aF0.0
aF0.0
aF253.18592286268878
aF0.0
asS'Bacteria.Proteobacteria.Gammaproteobacteria.Enterobacterales.Erwiniaceae'
p723
(lp724
F0.0
aF138.549512557624
aF0.0
aF0.0
aF0.0
aF0.0
aF0.0
aF0.0
aF0.0
aF0.0
aF0.0
aF0.0
aF0.0
aF0.0
aF0.0
asS'Bacteria.Proteobacteria.Gammaproteobacteria.Enterobacterales.Erwiniaceae.uncultured.Pantoea_sp_'
p725
(lp726
F0.0
aF138.549512557624
aF0.0
aF0.0
aF0.0
aF0.0
aF0.0
aF0.0
aF0.0
aF0.0
aF0.0
aF0.0
aF0.0
aF0.0
aF0.0
asS'Bacteria.Actinobacteriota.Coriobacteriia.Coriobacteriales.Eggerthellaceae.Parvibacter'
p727
(lp728
F0.0
aF251.90820465022546
aF0.0
aF0.0
aF0.0
aF0.0
aF0.0
aF0.0
aF0.0
aF0.0
aF0.0
aF0.0
aF0.0
aF0.0
aF0.0
asS'Bacteria.Actinobacteriota.Coriobacteriia'
p729
(lp730
F780.3693748374229
aF1058.014459530947
aF4255.688726767414
aF14018.69158878505
aF15103.933004336777
aF18922.852983988352
aF19213.473959610823
aF3356.5711334882512
aF579.1161796151105
aF2103.3084473414947
aF203.40362058444643
aF8223.785402268206
aF3344.4309927360778
aF6709.426955861252
aF39317.48872142552
asS'Bacteria.Firmicutes.Bacilli.Lactobacillales'
p731
(lp732
F55307.131089668146
aF5718.316245560119
aF43280.64385385907
aF32710.280373831778
aF16449.828024525206
aF1779.071648067281
aF4823.808355817186
aF0.0
aF8579.82893799002
aF61858.111949065846
aF82916.63841616383
aF666.5162732511639
aF18908.89830508475
aF48801.58663178326
aF82995.18612798347
asS'Bacteria.Firmicutes.Bacilli.Erysipelotrichales.Erysipelatoclostridiaceae.Erysipelatoclostridium'
p733
(lp734
F154.83519342012357
aF0.0
aF0.0
aF0.0
aF0.0
aF1213.0033964095098
aF0.0
aF0.0
aF0.0
aF0.0
aF0.0
aF0.0
aF0.0
aF0.0
aF0.0
asS'Bacteria.Proteobacteria.Alphaproteobacteria.Rhodospirillales.uncultured.uncultured.Azospirillum_sp_'
p735
(lp736
F0.0
aF0.0
aF0.0
aF0.0
aF0.0
aF0.0
aF0.0
aF0.0
aF133.64219529579472
aF0.0
aF330.5308834497255
aF0.0
aF0.0
aF0.0
aF0.0
asS'Bacteria.Firmicutes.Clostridia.Lachnospirales.Lachnospiraceae._Eubacterium__ventriosum_group'
p737
(lp738
F0.0
aF0.0
aF0.0
aF0.0
aF0.0
aF0.0
aF0.0
aF0.0
aF0.0
aF0.0
aF0.0
aF410.1638604622547
aF0.0
aF0.0
aF0.0
asS'Bacteria.Firmicutes.Clostridia.Lachnospirales.Lachnospiraceae.Lachnoclostridium'
p739
(lp740
F0.0
aF0.0
aF694.806322737537
aF0.0
aF0.0
aF0.0
aF674.5155751778268
aF0.0
aF819.672131147541
aF0.0
aF0.0
aF0.0
aF0.0
aF189.88944214701658
aF378.0527761675531
asS'Bacteria.Deferribacterota'
p741
(lp742
F0.0
aF125.95410232511273
aF0.0
aF0.0
aF0.0
aF0.0
aF0.0
aF0.0
aF677.12045616536
aF0.0
aF0.0
aF0.0
aF0.0
aF0.0
aF0.0
asS'Bacteria.Actinobacteriota'
p743
(lp744
F780.3693748374229
aF1058.014459530947
aF8858.780614903595
aF27622.014537902392
aF25572.00538358009
aF23532.265890344497
aF19376.99288692666
aF3356.5711334882512
aF579.1161796151105
aF2131.731534467731
aF3546.8506339412843
aF27409.199975390173
aF14141.949152542375
aF12701.49379694489
aF42644.35315169998
asS'Bacteria.Firmicutes.Clostridia.Oscillospirales._Eubacterium__coprostanoligenes_group._Eubacterium__coprostanoligenes_group.Clostridiales_bacterium'
p745
(lp746
F0.0
aF0.0
aF0.0
aF0.0
aF0.0
aF0.0
aF0.0
aF0.0
aF258.37491090520314
aF0.0
aF0.0
aF0.0
aF109034.50363196128
aF130707.23267786308
aF1209.7688837361695
asS'Bacteria.Cyanobacteria.Vampirivibrionia.Gastranaerophilales.Gastranaerophilales.Gastranaerophilales'
p747
(lp748
F210.57586305136806
aF0.0
aF0.0
aF0.0
aF0.0
aF0.0
aF0.0
aF0.0
aF115.8232359230221
aF0.0
aF529.6969286053293
aF287.1147023235783
aF0.0
aF0.0
aF0.0
asS'Bacteria.Proteobacteria.Gammaproteobacteria.Enterobacterales.Enterobacteriaceae'
p749
(lp750
F2025.2443299352165
aF4244.6532483563
aF10016.791152799491
aF15576.323987538943
aF9047.405413488861
aF27818.21122432476
aF6663.39628812035
aF18590.240123934927
aF409.8360655737705
aF2368.5905938530345
aF432.23269374194865
aF3547.917392998503
aF5523.60774818402
aF7774.917714575067
aF9879.779217178719
asS'Bacteria.Firmicutes.Clostridia.Oscillospirales.Oscillospiraceae.Oscillospira'
p751
(lp752
F0.0
aF0.0
aF0.0
aF0.0
aF5159.264244055631
aF0.0
aF0.0
aF0.0
aF0.0
aF0.0
aF0.0
aF0.0
aF0.0
aF0.0
aF0.0
asS'Bacteria.Cyanobacteria.Vampirivibrionia.Gastranaerophilales.Gastranaerophilales.Gastranaerophilales.uncultured_rumen'
p753
(lp754
F0.0
aF0.0
aF0.0
aF0.0
aF0.0
aF0.0
aF0.0
aF0.0
aF178.1895937277263
aF0.0
aF0.0
aF0.0
aF0.0
aF0.0
aF0.0
asS'Bacteria.Firmicutes.Clostridia.Monoglobales.Monoglobaceae'
p755
(lp756
F16666.460219742105
aF340.0760762778044
aF1042.2094841063054
aF2284.527518172378
aF0.0
aF79087.82144590004
aF1962.2271277900415
aF26336.173508907817
aF5167.498218104063
aF9588.054723917083
aF55.08848057495424
aF7823.875638317509
aF4010.290556900727
aF9294.033251751202
aF60286.81603951912
asS'Bacteria.Firmicutes.Clostridia.Oscillospirales.Butyricicoccaceae.uncultured'
p757
(lp758
F0.0
aF0.0
aF0.0
aF0.0
aF8598.773740092718
aF4205.078440886302
aF0.0
aF0.0
aF0.0
aF0.0
aF0.0
aF0.0
aF0.0
aF0.0
aF0.0
asS'Bacteria.Firmicutes.Clostridia.Oscillospirales.UCG_010.UCG_010.uncultured_organism'
p759
(lp760
F377.7978719451016
aF302.2898455802706
aF0.0
aF0.0
aF0.0
aF0.0
aF0.0
aF0.0
aF0.0
aF0.0
aF0.0
aF0.0
aF0.0
aF0.0
aF0.0
asS'Bacteria.Cyanobacteria.Cyanobacteriia'
p761
(lp762
F0.0
aF0.0
aF0.0
aF0.0
aF0.0
aF0.0
aF0.0
aF0.0
aF0.0
aF0.0
aF0.0
aF0.0
aF0.0
aF0.0
aF352.8492577563828
asS'Bacteria.Firmicutes.Bacilli.Lactobacillales.Lactobacillaceae'
p763
(lp764
F55307.131089668146
aF5214.499836259667
aF43280.64385385907
aF27414.33021806854
aF11365.335726035595
aF1779.071648067281
aF2616.302837053389
aF0.0
aF8579.82893799002
aF61858.111949065846
aF82713.23479557937
aF666.5162732511639
aF18750.0
aF48801.58663178326
aF77979.6859641606
asS'Bacteria.Chloroflexi'
p765
(lp766
F179.60882436734335
aF0.0
aF0.0
aF0.0
aF0.0
aF0.0
aF0.0
aF0.0
aF0.0
aF0.0
aF0.0
aF0.0
aF0.0
aF0.0
aF0.0
asS'Bacteria.Firmicutes.Bacilli.RF39.RF39.RF39.human_gut'
p767
(lp768
F0.0
aF1058.014459530947
aF5326.848474321117
aF0.0
aF0.0
aF0.0
aF388.3574523751124
aF0.0
aF0.0
aF0.0
aF0.0
aF0.0
aF0.0
aF0.0
aF0.0
asS'Bacteria.Firmicutes.Clostridia.Lachnospirales.Lachnospiraceae._Eubacterium__xylanophilum_group'
p769
(lp770
F4886.598704339101
aF0.0
aF0.0
aF0.0
aF0.0
aF0.0
aF0.0
aF0.0
aF0.0
aF0.0
aF389.8569394535223
aF0.0
aF438.861985472155
aF0.0
aF957.7336996244677
asS'Bacteria.Firmicutes.Clostridia.Lachnospirales.Lachnospiraceae.GCA_900066575.uncultured_bacterium'
p771
(lp772
F198.18904757775817
aF0.0
aF0.0
aF0.0
aF0.0
aF0.0
aF0.0
aF0.0
aF1755.1674982181041
aF682.1540910296739
aF656.8241914706083
aF215.3360267426837
aF242.1307506053269
aF0.0
aF0.0
asS'Bacteria.Firmicutes.Clostridia.Oscillospirales.Butyricicoccaceae.uncultured.uncultured_bacterium'
p773
(lp774
F0.0
aF0.0
aF0.0
aF0.0
aF8598.773740092718
aF4205.078440886302
aF0.0
aF0.0
aF0.0
aF0.0
aF0.0
aF0.0
aF0.0
aF0.0
aF0.0
asS'Bacteria.Firmicutes.Clostridia.Peptostreptococcales_Tissierellales.Anaerovoracaceae.Anaerovorax.uncultured_bacterium'
p775
(lp776
F0.0
aF0.0
aF0.0
aF0.0
aF0.0
aF0.0
aF204.398659144796
aF0.0
aF775.1247327156094
aF0.0
aF0.0
aF0.0
aF0.0
aF0.0
aF0.0
asS'Bacteria.Firmicutes.Clostridia'
p777
(lp778
F0.0
aF0.0
aF0.0
aF0.0
aF0.0
aF0.0
aF0.0
aF0.0
aF0.0
aF596.8848296509645
aF0.0
aF717.7867558089458
aF0.0
aF0.0
aF0.0
asS'Bacteria.Firmicutes.Clostridia.Lachnospirales.Lachnospiraceae.GCA_900066575'
p779
(lp780
F198.18904757775817
aF0.0
aF0.0
aF0.0
aF0.0
aF0.0
aF0.0
aF0.0
aF1755.1674982181041
aF682.1540910296739
aF656.8241914706083
aF215.3360267426837
aF242.1307506053269
aF0.0
aF0.0
asS'Bacteria.Firmicutes.Bacilli.Erysipelotrichales.Erysipelotrichaceae'
p781
(lp782
F0.0
aF0.0
aF0.0
aF0.0
aF0.0
aF0.0
aF0.0
aF0.0
aF481.111903064861
aF0.0
aF0.0
aF0.0
aF0.0
aF0.0
aF0.0
asS'Bacteria.Firmicutes.Clostridia.Lachnospirales.Lachnospiraceae.Lachnospiraceae_FCS020_group.uncultured_prokaryote'
p783
(lp784
F0.0
aF0.0
aF0.0
aF0.0
aF0.0
aF0.0
aF0.0
aF0.0
aF0.0
aF407.3975821427219
aF0.0
aF0.0
aF0.0
aF0.0
aF0.0
asS'Bacteria.Proteobacteria.Gammaproteobacteria.Burkholderiales.Comamonadaceae'
p785
(lp786
F0.0
aF0.0
aF376.3534248161658
aF0.0
aF0.0
aF0.0
aF0.0
aF0.0
aF0.0
aF0.0
aF0.0
aF0.0
aF0.0
aF0.0
aF0.0
asS'Bacteria.Firmicutes.Clostridia.Clostridia_vadinBB60_group.Clostridia_vadinBB60_group.Clostridia_vadinBB60_group.gut_metagenome'
p787
(lp788
F0.0
aF0.0
aF0.0
aF0.0
aF0.0
aF0.0
aF0.0
aF0.0
aF0.0
aF0.0
aF21.18787714421317
aF0.0
aF0.0
aF0.0
aF0.0
asS'Bacteria.Firmicutes.Clostridia.Oscillospirales._Eubacterium__coprostanoligenes_group'
p789
(lp790
F13272.472779972994
aF22507.99808549765
aF57987.37768513694
aF10072.68951194185
aF4635.860625093466
aF13262.170467410642
aF2166.625786934838
aF69971.59824425509
aF4133.99857448325
aF86879.9029825293
aF21531.120753949424
aF37612.026004388754
aF116086.56174334142
aF136277.3229808422
aF2923.6081356957434
asS'Bacteria.Firmicutes.Clostridia.uncultured.uncultured.uncultured'
p791
(lp792
F0.0
aF390.4577172078495
aF0.0
aF0.0
aF0.0
aF0.0
aF0.0
aF0.0
aF0.0
aF0.0
aF0.0
aF0.0
aF0.0
aF0.0
aF0.0
asS'Bacteria.Firmicutes.Clostridia.Lachnospirales.Lachnospiraceae.A2.uncultured_bacterium'
p793
(lp794
F0.0
aF403.05312744036075
aF0.0
aF0.0
aF0.0
aF0.0
aF0.0
aF0.0
aF570.2066999287242
aF0.0
aF72.03878229032478
aF0.0
aF0.0
aF1941.092075280614
aF0.0
asS'Bacteria.Firmicutes.Clostridia.Clostridia_UCG_014'
p795
(lp796
F35853.63738836382
aF116205.25480514903
aF176972.96045394012
aF69989.61578400832
aF281890.23478390917
aF267912.01682031376
aF36546.480255089526
aF62225.6648592822
aF11519.957234497506
aF70820.85875620572
aF23539.731507220833
aF237495.12930415705
aF57006.65859564165
aF100029.53835766729
aF275247.6245683897
asS'Bacteria.Firmicutes.Clostridia.Oscillospirales.Ruminococcaceae._Eubacterium__siraeum_group'
p797
(lp798
F66424.29797723303
aF3299.9974809179535
aF4921.544786057553
aF0.0
aF0.0
aF0.0
aF1553.4298095004497
aF14717.273431448486
aF46641.12615823236
aF615.8335544017889
aF516.9842023188014
aF15288.857898730545
aF37.83292978208233
aF0.0
aF0.0
asS'Bacteria.Firmicutes.Clostridia.Lachnospirales.Lachnospiraceae.Fusicatenibacter'
p799
(lp800
F0.0
aF0.0
aF0.0
aF33852.544132917974
aF0.0
aF16739.446870451236
aF0.0
aF0.0
aF0.0
aF0.0
aF0.0
aF0.0
aF0.0
aF0.0
aF0.0
asS'Bacteria.Firmicutes.Clostridia.Oscillospirales.Ruminococcaceae.Fournierella'
p801
(lp802
F154.83519342012357
aF0.0
aF0.0
aF0.0
aF0.0
aF0.0
aF0.0
aF0.0
aF1176.0513186029937
aF0.0
aF186.45331886907587
aF779.3113348782839
aF30.266343825665864
aF0.0
aF0.0
asS'Bacteria.Firmicutes.Bacilli.Erysipelotrichales.Erysipelatoclostridiaceae.Erysipelatoclostridium.uncultured_bacterium'
p803
(lp804
F625.5341814172994
aF0.0
aF0.0
aF0.0
aF747.7194556602365
aF0.0
aF0.0
aF0.0
aF445.4739843193158
aF0.0
aF0.0
aF0.0
aF0.0
aF0.0
aF6401.693676437231
asS'Bacteria.Firmicutes.Clostridia.Peptococcales.Peptococcaceae.Peptococcus.uncultured_bacterium'
p805
(lp806
F111.48133926248897
aF0.0
aF0.0
aF0.0
aF0.0
aF0.0
aF81.7594636579184
aF0.0
aF329.65074839629364
aF0.0
aF0.0
aF0.0
aF0.0
aF0.0
aF0.0
asS'Bacteria.Bacteroidota.Bacteroidia.Bacteroidales.Tannerellaceae.Parabacteroides.Parabacteroides_goldsteinii'
p807
(lp808
F2464.9762792483675
aF2292.364662317052
aF839.5576399745238
aF0.0
aF1121.5791834903546
aF0.0
aF0.0
aF0.0
aF320.74126870990733
aF483.19248114601896
aF8631.941148552445
aF646.0080802280512
aF279.9636803874092
aF0.0
aF0.0
asS'Bacteria.Firmicutes.Clostridia.Eubacteriales'
p809
(lp810
F111.48133926248897
aF365.26689674282693
aF1186.9608013432921
aF0.0
aF0.0
aF404.3344654698367
aF0.0
aF0.0
aF0.0
aF75.7948990032971
aF0.0
aF328.13108836980376
aF75.66585956416466
aF189.88944214701658
aF0.0
asS'Bacteria.Proteobacteria.Alphaproteobacteria.Rhodospirillales.uncultured'
p811
(lp812
F0.0
aF0.0
aF0.0
aF0.0
aF0.0
aF0.0
aF0.0
aF0.0
aF133.64219529579472
aF0.0
aF330.5308834497255
aF0.0
aF0.0
aF0.0
aF0.0
asS'Bacteria.Campilobacterota'
p813
(lp814
F0.0
aF0.0
aF0.0
aF0.0
aF0.0
aF0.0
aF0.0
aF0.0
aF0.0
aF66.32053662788495
aF0.0
aF0.0
aF0.0
aF0.0
aF327.64573934521263
asS'Bacteria.Firmicutes.Clostridia.Lachnospirales.Lachnospiraceae.Blautia.Lachnospiraceae_bacterium'
p815
(lp816
F0.0
aF0.0
aF0.0
aF0.0
aF0.0
aF0.0
aF0.0
aF0.0
aF0.0
aF0.0
aF0.0
aF0.0
aF75.66585956416466
aF632.9648071567219
aF0.0
asS'Bacteria.Chloroflexi.Chloroflexia.Chloroflexales.Chloroflexaceae.FFCH7168'
p817
(lp818
F179.60882436734335
aF0.0
aF0.0
aF0.0
aF0.0
aF0.0
aF0.0
aF0.0
aF0.0
aF0.0
aF0.0
aF0.0
aF0.0
aF0.0
aF0.0
asS'Bacteria.Firmicutes.Clostridia.Oscillospirales.Oscillospiraceae.Papillibacter'
p819
(lp820
F526.4396576284202
aF0.0
aF0.0
aF0.0
aF0.0
aF2345.1398997250526
aF0.0
aF0.0
aF8704.561653599429
aF1563.2697919430025
aF741.5757000474609
aF728.0408523205022
aF128.63196125907993
aF0.0
aF0.0
asS'Bacteria.Proteobacteria.Gammaproteobacteria.Enterobacterales'
p821
(lp822
F2025.2443299352165
aF4383.202760913924
aF10016.791152799491
aF15576.323987538943
aF9047.405413488861
aF27818.21122432476
aF6663.39628812035
aF18590.240123934927
aF409.8360655737705
aF2368.5905938530345
aF432.23269374194865
aF3547.917392998503
aF5523.60774818402
aF7774.917714575067
aF9879.779217178719
asS'Bacteria.Firmicutes.Bacilli.Erysipelotrichales.Erysipelotrichaceae.uncultured.unidentified'
p823
(lp824
F0.0
aF0.0
aF0.0
aF0.0
aF0.0
aF0.0
aF0.0
aF0.0
aF0.0
aF0.0
aF199.1660451556038
aF0.0
aF0.0
aF0.0
aF0.0
asS'Bacteria.Verrucomicrobiota.Verrucomicrobiae.Verrucomicrobiales.Akkermansiaceae'
p825
(lp826
F6701.2671712229485
aF82600.70030480894
aF24607.723930287764
aF0.0
aF897.2633467922838
aF21187.125990619443
aF24425.63976780312
aF10069.713400464754
aF588.0256593014968
aF11767.158070261874
aF37595.769204691846
aF91517.81136564059
aF3488.196125907991
aF10992.48881762174
aF0.0
asS'Bacteria.Firmicutes.Clostridia.Clostridia_vadinBB60_group.Clostridia_vadinBB60_group'
p827
(lp828
F12585.004521187644
aF0.0
aF0.0
aF0.0
aF0.0
aF566.0682516577713
aF0.0
aF0.0
aF739.4868139700641
aF947.4362375412138
aF402.56966574005025
aF307.62289534669105
aF0.0
aF158.24120178918048
aF0.0
asS'Bacteria.Firmicutes.Clostridia.Lachnospirales.Lachnospiraceae._Eubacterium__ruminantium_group'
p829
(lp830
F0.0
aF0.0
aF0.0
aF0.0
aF0.0
aF0.0
aF0.0
aF0.0
aF2040.270848182466
aF58030.46954939934
aF3644.314868804665
aF399.9097639506984
aF4048.123486682809
aF1856.6967676597176
aF0.0
asS'Bacteria.Firmicutes.Clostridia.Oscillospirales.Butyricicoccaceae.Butyricicoccus'
p831
(lp832
F0.0
aF0.0
aF0.0
aF0.0
aF0.0
aF0.0
aF0.0
aF0.0
aF80.18531717747683
aF104.2179861295335
aF300.86785544782697
aF0.0
aF0.0
aF0.0
aF0.0
asS'Bacteria.Firmicutes.Clostridia.Peptostreptococcales_Tissierellales.Anaerovoracaceae.Family_XIII_AD3011_group'
p833
(lp834
F99.09452378887909
aF1498.8538176688417
aF0.0
aF0.0
aF0.0
aF0.0
aF0.0
aF0.0
aF0.0
aF0.0
aF0.0
aF451.1802465084802
aF0.0
aF0.0
aF0.0
asS'Bacteria.Firmicutes.Clostridia.Oscillospirales.Ruminococcaceae.Ruminococcaceae.uncultured_bacterium'
p835
(lp836
F0.0
aF163.74033302264655
aF0.0
aF0.0
aF0.0
aF0.0
aF0.0
aF0.0
aF80.18531717747683
aF0.0
aF0.0
aF0.0
aF0.0
aF94.94472107350829
aF0.0
asS'Bacteria.Firmicutes.Clostridia.Clostridia_UCG_014.Clostridia_UCG_014.Clostridia_UCG_014.unidentified'
p837
(lp838
F5945.671427332745
aF7103.8113711363585
aF15227.838573331017
aF5192.107995846314
aF7178.10677433827
aF26766.941614103187
aF0.0
aF11618.900077459331
aF1434.4262295081967
aF4718.232462955244
aF4055.359685402401
aF75131.7651401735
aF11917.372881355934
aF16351.59085154865
aF5670.791642513295
asS'Bacteria.Firmicutes.Clostridia.Peptostreptococcales_Tissierellales.Anaerovoracaceae._Eubacterium__brachy_group'
p839
(lp840
F0.0
aF0.0
aF0.0
aF0.0
aF0.0
aF1293.8702895034774
aF0.0
aF0.0
aF115.8232359230221
aF0.0
aF0.0
aF0.0
aF143.76513317191285
aF242.63650941007674
aF0.0
asS'Bacteria.Firmicutes.Clostridia.Oscillospirales.Ruminococcaceae.Ruminococcus.unidentified'
p841
(lp842
F0.0
aF0.0
aF0.0
aF0.0
aF0.0
aF0.0
aF102.199329572398
aF0.0
aF0.0
aF0.0
aF110.17696114990848
aF0.0
aF196.73123486682812
aF316.48240357836096
aF0.0
asS'Bacteria.Firmicutes.Bacilli.Erysipelotrichales.Erysipelotrichaceae.Allobaculum.uncultured_Allobaculum'
p843
(lp844
F0.0
aF0.0
aF0.0
aF0.0
aF0.0
aF0.0
aF1042.4331616384598
aF0.0
aF0.0
aF0.0
aF0.0
aF0.0
aF0.0
aF0.0
aF4183.784056254254
asS'Bacteria.Firmicutes.Clostridia.Monoglobales.Monoglobaceae.Monoglobus.uncultured_organism'
p845
(lp846
F0.0
aF0.0
aF0.0
aF0.0
aF0.0
aF0.0
aF0.0
aF0.0
aF0.0
aF0.0
aF0.0
aF6398.556223211174
aF0.0
aF0.0
aF0.0
asS'Bacteria.Firmicutes.Clostridia.Lachnospirales.Lachnospiraceae.Dorea'
p847
(lp848
F0.0
aF0.0
aF0.0
aF0.0
aF2916.105877074922
aF0.0
aF0.0
aF0.0
aF0.0
aF0.0
aF0.0
aF0.0
aF0.0
aF0.0
aF0.0
asS'Bacteria.Firmicutes.Clostridia.Oscillospirales.Ruminococcaceae.uncultured'
p849
(lp850
F885.6573063631068
aF390.4577172078495
aF434.25395171096056
aF0.0
aF0.0
aF0.0
aF0.0
aF0.0
aF365.2886671418389
aF170.53852275741846
aF0.0
aF82.03277209245094
aF0.0
aF0.0
aF327.64573934521263
asS'Bacteria.Proteobacteria.Alphaproteobacteria.Sphingomonadales.Sphingomonadaceae.Sphingobium'
p851
(lp852
F0.0
aF0.0
aF0.0
aF0.0
aF0.0
aF0.0
aF0.0
aF0.0
aF0.0
aF0.0
aF0.0
aF0.0
aF0.0
aF0.0
aF579.6809234569147
asS'Bacteria.Patescibacteria.Saccharimonadia.Saccharimonadales.Saccharimonadaceae.Candidatus_Saccharimonas'
p853
(lp854
F1486.4178568331863
aF1234.3502027861048
aF9843.089572115106
aF3738.317757009346
aF15253.476895468824
aF32508.491023774863
aF551.8763796909492
aF12651.691195455716
aF507.8403421240199
aF1288.5132830560508
aF1178.0459692182521
aF3804.269805787412
aF5614.406779661018
aF15349.396573550506
aF6351.286639614891
asS'Bacteria.Firmicutes.Bacilli.Lactobacillales.Lactobacillaceae.Lactobacillus.Lactobacillus_faecis'
p855
(lp856
F8243.42569768738
aF0.0
aF0.0
aF0.0
aF0.0
aF0.0
aF0.0
aF0.0
aF4312.188168210976
aF10620.760222837005
aF7369.14367075734
aF0.0
aF484.2615012106538
aF0.0
aF1562.6181414925525
asS'Bacteria.Firmicutes.Bacilli.Erysipelotrichales.Erysipelotrichaceae.Turicibacter'
p857
(lp858
F1127.2002080984996
aF5617.552963700028
aF100544.26495281108
aF109761.16303219108
aF20861.372812920596
aF5337.214944201844
aF83823.89011528084
aF5422.1533694810205
aF0.0
aF9597.529086292496
aF1606.0410875313582
aF16693.669120813767
aF81878.02663438258
aF65026.584521900564
aF7082.188673538827
asS'Bacteria.Firmicutes.Clostridia.Lachnospirales.Lachnospiraceae.Tuzzerella.uncultured_bacterium'
p859
(lp860
F0.0
aF0.0
aF0.0
aF0.0
aF0.0
aF0.0
aF0.0
aF0.0
aF0.0
aF0.0
aF0.0
aF164.06554418490188
aF0.0
aF0.0
aF0.0
asS'Bacteria.Patescibacteria.Saccharimonadia'
p861
(lp862
F1486.4178568331863
aF1234.3502027861048
aF9843.089572115106
aF3738.317757009346
aF15253.476895468824
aF32508.491023774863
aF551.8763796909492
aF12651.691195455716
aF507.8403421240199
aF1288.5132830560508
aF1178.0459692182521
aF3804.269805787412
aF5614.406779661018
aF15349.396573550506
aF6351.286639614891
asS'Bacteria.Proteobacteria.Gammaproteobacteria.Enterobacterales.Erwiniaceae.uncultured'
p863
(lp864
F0.0
aF138.549512557624
aF0.0
aF0.0
aF0.0
aF0.0
aF0.0
aF0.0
aF0.0
aF0.0
aF0.0
aF0.0
aF0.0
aF0.0
aF0.0
asS'Bacteria.Campilobacterota.Campylobacteria.Campylobacterales.Helicobacteraceae.Helicobacter.Helicobacter_rodentium'
p865
(lp866
F0.0
aF0.0
aF0.0
aF0.0
aF0.0
aF0.0
aF0.0
aF0.0
aF0.0
aF66.32053662788495
aF0.0
aF0.0
aF0.0
aF0.0
aF0.0
asS'Bacteria.Actinobacteriota.Coriobacteriia.Coriobacteriales.Eggerthellaceae.Adlercreutzia.uncultured_bacterium'
p867
(lp868
F0.0
aF0.0
aF0.0
aF5503.634475597093
aF3289.96560490504
aF0.0
aF4517.210367099991
aF0.0
aF0.0
aF0.0
aF0.0
aF1353.5407395254406
aF0.0
aF0.0
aF8493.585704564359
asS'Bacteria.Actinobacteriota.Coriobacteriia.Coriobacteriales.Coriobacteriales_Incertae_Sedis'
p869
(lp870
F0.0
aF0.0
aF0.0
aF0.0
aF448.6316733961419
aF0.0
aF388.3574523751124
aF0.0
aF0.0
aF0.0
aF0.0
aF0.0
aF0.0
aF0.0
aF1537.4146230813824
asS'Bacteria.Proteobacteria.Gammaproteobacteria.Burkholderiales.Comamonadaceae.Delftia'
p871
(lp872
F315.86379457705215
aF1914.5023553417138
aF1708.065543396445
aF1557.6323987538942
aF45984.74652310454
aF3558.143296134562
aF5641.40299239637
aF0.0
aF0.0
aF0.0
aF0.0
aF0.0
aF385.89588377723976
aF0.0
aF6502.5077500819125
asS'Bacteria'
p873
(lp874
F998600.289851482
aF1000000.0
aF1000000.0
aF1000000.0
aF1000000.0
aF1000000.0
aF1000000.0
aF1000000.0
aF1000000.0
aF1000000.0
aF1000000.0
aF1000000.0
aF998176.4527845036
aF1000000.0
aF1000000.0
assS'subclass_sl'
p875
(dp876
g12
(I0
I8
tp877
sg10
(I8
I15
tp878
ssS'norm'
p879
F1000000.0
sS'cls'
p880
(dp881
S'class'
p882
(S'HSD-NC'
p883
S'HSD-NC'
p884
S'HSD-NC'
p885
S'HSD-NC'
p886
S'HSD-NC'
p887
S'HSD-NC'
p888
S'HSD-NC'
p889
g5
S'STD-NC'
p890
S'STD-NC'
p891
S'STD-NC'
p892
S'STD-NC'
p893
S'STD-NC'
p894
S'STD-NC'
p895
g3
tp896
sS'subclass'
p897
(lp898
S'HSD-NC_subcl'
p899
aS'HSD-NC_subcl'
p900
aS'HSD-NC_subcl'
p901
aS'HSD-NC_subcl'
p902
aS'HSD-NC_subcl'
p903
aS'HSD-NC_subcl'
p904
aS'HSD-NC_subcl'
p905
ag12
aS'STD-NC_subcl'
p906
aS'STD-NC_subcl'
p907
aS'STD-NC_subcl'
p908
aS'STD-NC_subcl'
p909
aS'STD-NC_subcl'
p910
aS'STD-NC_subcl'
p911
ag10
asS'subject'
p912
(S'S210421121695'
p913
S'S210421121696'
p914
S'S210421121697'
p915
S'S210421121698'
p916
S'S210421121699'
p917
S'S210421121700'
p918
S'S210421121701'
p919
S'S210421121702'
p920
S'S210421121682'
p921
S'S210421121683'
p922
S'S210421121684'
p923
S'S210421121688'
p924
S'S210421121689'
p925
S'S210421121690'
p926
S'S210421121694'
p927
tp928
ss.