(dp0
S'class_sl'
p1
(dp2
S'STD-NR'
p3
(I7
I14
tp4
sS'STD-NC'
p5
(I0
I7
tp6
ssS'class_hierarchy'
p7
(dp8
g3
(lp9
S'STD-NR_subcl'
p10
asg5
(lp11
S'STD-NC_subcl'
p12
assS'feats'
p13
(dp14
S'Bacteria.Chloroflexi'
p15
(lp16
F0.0
aF0.0
aF0.0
aF0.0
aF0.0
aF0.0
aF0.0
aF89.8444761137617
aF0.0
aF0.0
aF0.0
aF0.0
aF0.0
aF0.0
asS'Bacteria.Desulfobacterota'
p17
(lp18
F0.0
aF0.0
aF0.0
aF0.0
aF0.0
aF0.0
aF0.0
aF910.8371026705496
aF0.0
aF0.0
aF0.0
aF0.0
aF1861.7343591329459
aF1702.545661545724
asS'Bacteria.Actinobacteriota'
p19
(lp20
F289.5787297740395
aF1084.4138009414037
aF1774.553287481873
aF1853.3749450747548
aF788.9725219914752
aF2742.466283796864
aF21335.550013854256
aF390.35875828737835
aF528.9206241263365
aF4432.983716752623
aF13064.882605402676
aF0.0
aF298.79687245343575
aF2072.2115391290467
asS'Eukaryota'
p21
(lp22
F0.0
aF0.0
aF0.0
aF0.0
aF0.0
aF0.0
aF0.0
aF700.1672966106945
aF0.0
aF0.0
aF0.0
aF0.0
aF0.0
aF0.0
asS'Archaea'
p23
(lp24
F0.0
aF0.0
aF0.0
aF0.0
aF0.0
aF0.0
aF0.0
aF0.0
aF0.0
aF0.0
aF0.0
aF0.0
aF41.7897723711099
aF230.82423342057217
asS'Bacteria'
p25
(lp26
F500000.0
aF500000.0
aF500000.00000000006
aF499999.99999999994
aF500000.0
aF500000.0
aF500000.00000000006
aF499649.9163516947
aF500000.00000000006
aF499999.99999999994
aF500000.0
aF500000.0
aF499958.2102276289
aF499769.1757665794
asS'Bacteria.Cyanobacteria'
p27
(lp28
F147.0168935775893
aF0.0
aF373.14382150156473
aF2202.643171806168
aF3237.5079350684673
aF0.0
aF1246.8827930174564
aF250.9449160418861
aF94.45011145113153
aF0.0
aF536.480686695279
aF0.0
aF0.0
aF55.53665766510007
asS'Bacteria.Firmicutes'
p29
(lp30
F249795.0673604676
aF305927.81308305
aF117241.36468872175
aF210794.64154939895
aF141579.75877391853
aF393452.4961820567
aF426874.7323610167
aF236709.21370592972
aF151674.28564232375
aF286173.7266036971
aF444553.1431456703
aF396541.53118533845
aF107968.05589799953
aF221615.56137147776
asS'Bacteria.Bacteroidota'
p31
(lp32
F247545.2633829924
aF183805.77154384536
aF358623.0144932453
aF278245.6594972791
aF353151.3557631268
aF92189.88621453615
aF26071.18567218318
aF253494.64031228703
aF300955.8351278855
aF183693.5736222982
aF4733.65311789952
aF96364.1738102276
aF384499.3376321079
aF259652.9653104152
asS'Bacteria.Elusimicrobiota'
p33
(lp34
F0.0
aF0.0
aF0.0
aF0.0
aF0.0
aF0.0
aF0.0
aF0.0
aF0.0
aF0.0
aF0.0
aF0.0
aF45.96874960822088
aF95.45363036189075
asS'Bacteria.Campilobacterota'
p35
(lp36
F0.0
aF33.148020116112775
aF0.0
aF0.0
aF0.0
aF96.79292766341872
aF163.7320839315852
aF0.0
aF0.0
aF0.0
aF0.0
aF0.0
aF319.6917586389907
aF229.08871286853778
asS'Archaea.Euryarchaeota'
p37
(lp38
F0.0
aF0.0
aF0.0
aF0.0
aF0.0
aF0.0
aF0.0
aF0.0
aF0.0
aF0.0
aF0.0
aF0.0
aF41.7897723711099
aF230.82423342057217
asS'Bacteria.Proteobacteria'
p39
(lp40
F1336.5172143417208
aF2623.4290206180685
aF2588.6852616671054
aF2746.262266638125
aF1006.6201142649857
aF2107.9348691144523
aF20945.11196755586
aF3708.4082037300946
aF4772.878965330513
aF8460.33493654749
aF29222.418581166374
aF5616.316878510198
aF4964.624957687855
aF2943.442856250304
asS'Bacteria.Acidobacteriota'
p41
(lp42
F0.0
aF0.0
aF0.0
aF0.0
aF0.0
aF0.0
aF188.92163530567524
aF0.0
aF0.0
aF0.0
aF0.0
aF0.0
aF0.0
aF0.0
asS'Bacteria.Deferribacterota'
p43
(lp44
F338.58436096656925
aF0.0
aF0.0
aF33.800150974007686
aF0.0
aF0.0
aF0.0
aF0.0
aF62.966740967421025
aF0.0
aF0.0
aF0.0
aF0.0
aF0.0
asS'Bacteria.Verrucomicrobiota'
p45
(lp46
F294.0337871551786
aF5881.405854887439
aF18809.84082023797
aF3957.4343432067335
aF235.7848916296363
aF8345.70131853477
aF0.0
aF3352.128384658281
aF41293.588726434704
aF12313.843657646175
aF0.0
aF0.0
aF0.0
aF0.0
asS'Bacteria.Patescibacteria'
p47
(lp48
F253.93827072492695
aF644.0186765416197
aF589.3976271445171
aF166.18407562220446
aF0.0
aF1064.722204297606
aF3173.883473135344
aF743.5404919759588
aF617.0740614807261
aF4925.537463058469
aF7889.421863165868
aF1477.9781259237363
aF0.0
aF11402.37002686586
assS'subclass_sl'
p49
(dp50
g12
(I0
I7
tp51
sg10
(I7
I14
tp52
ssS'norm'
p53
F1000000.0
sS'cls'
p54
(dp55
S'class'
p56
(S'STD-NC'
p57
S'STD-NC'
p58
S'STD-NC'
p59
S'STD-NC'
p60
S'STD-NC'
p61
S'STD-NC'
p62
g5
S'STD-NR'
p63
S'STD-NR'
p64
S'STD-NR'
p65
S'STD-NR'
p66
S'STD-NR'
p67
S'STD-NR'
p68
g3
tp69
sS'subclass'
p70
(lp71
S'STD-NC_subcl'
p72
aS'STD-NC_subcl'
p73
aS'STD-NC_subcl'
p74
aS'STD-NC_subcl'
p75
aS'STD-NC_subcl'
p76
aS'STD-NC_subcl'
p77
ag12
aS'STD-NR_subcl'
p78
aS'STD-NR_subcl'
p79
aS'STD-NR_subcl'
p80
aS'STD-NR_subcl'
p81
aS'STD-NR_subcl'
p82
aS'STD-NR_subcl'
p83
ag10
asS'subject'
p84
(S'S210421121682'
p85
S'S210421121683'
p86
S'S210421121684'
p87
S'S210421121685'
p88
S'S210421121686'
p89
S'S210421121687'
p90
S'S210421121694'
p91
S'S210421121695'
p92
S'S210421121696'
p93
S'S210421121697'
p94
S'S210421121703'
p95
S'S210421121704'
p96
S'S210421121705'
p97
S'S210421121706'
p98
tp99
ss.