(dp0
S'class_sl'
p1
(dp2
S'STD-NR'
p3
(I7
I14
tp4
sS'STD-NC'
p5
(I0
I7
tp6
ssS'class_hierarchy'
p7
(dp8
g3
(lp9
S'STD-NR_subcl'
p10
asg5
(lp11
S'STD-NC_subcl'
p12
assS'feats'
p13
(dp14
S'Bacteria.Acidobacteriota.Blastocatellia.Blastocatellales'
p15
(lp16
F0.0
aF0.0
aF0.0
aF0.0
aF0.0
aF0.0
aF377.84327061135036
aF0.0
aF0.0
aF0.0
aF0.0
aF0.0
aF0.0
aF0.0
asS'Bacteria.Firmicutes.Clostridia.Oscillospirales.Ruminococcaceae.Ruminococcaceae'
p17
(lp18
F80.19103286050321
aF0.0
aF0.0
aF0.0
aF0.0
aF0.0
aF0.0
aF0.0
aF163.7135265152947
aF0.0
aF0.0
aF0.0
aF0.0
aF114.54435643426889
asS'Bacteria.Proteobacteria.Alphaproteobacteria.Rhizobiales.Beijerinckiaceae.Microvirga'
p19
(lp20
F0.0
aF0.0
aF0.0
aF0.0
aF0.0
aF0.0
aF0.0
aF0.0
aF0.0
aF0.0
aF883.6152486745772
aF0.0
aF0.0
aF0.0
asS'Bacteria.Firmicutes.Bacilli.Acholeplasmatales'
p21
(lp22
F365.3147052534036
aF104.1794917934973
aF29.681894892169918
aF0.0
aF217.6475922735105
aF0.0
aF0.0
aF371.5101267468716
aF0.0
aF0.0
aF1704.1151224438274
aF0.0
aF0.0
aF0.0
asS'Bacteria.Campilobacterota.Campylobacteria.Campylobacterales.Helicobacteraceae.Helicobacter'
p23
(lp24
F0.0
aF66.29604023222555
aF0.0
aF0.0
aF0.0
aF193.5858553268375
aF0.0
aF0.0
aF0.0
aF0.0
aF0.0
aF0.0
aF639.3835172779814
aF458.17742573707557
asS'Bacteria.Firmicutes.Clostridia.Lachnospirales.Lachnospiraceae.Lachnospiraceae'
p25
(lp26
F0.0
aF0.0
aF0.0
aF0.0
aF0.0
aF0.0
aF0.0
aF0.0
aF0.0
aF0.0
aF0.0
aF0.0
aF259.09658870088134
aF0.0
asS'Eukaryota'
p27
(lp28
F0.0
aF0.0
aF0.0
aF0.0
aF0.0
aF0.0
aF0.0
aF1399.3548107465494
aF0.0
aF0.0
aF0.0
aF0.0
aF0.0
aF0.0
asS'Bacteria.Desulfobacterota.Desulfovibrionia.Desulfovibrionales.Desulfovibrionaceae.Desulfovibrio'
p29
(lp30
F0.0
aF0.0
aF0.0
aF0.0
aF0.0
aF0.0
aF0.0
aF1820.3996210596708
aF0.0
aF0.0
aF0.0
aF0.0
aF1099.0710133601901
aF3196.8288568473226
asS'Bacteria.Firmicutes.Negativicutes.Veillonellales_Selenomonadales.Veillonellaceae.Veillonella'
p31
(lp32
F0.0
aF0.0
aF0.0
aF0.0
aF0.0
aF0.0
aF0.0
aF0.0
aF0.0
aF0.0
aF0.0
aF0.0
aF522.3721546388737
aF152.7258085790252
asS'Bacteria.Firmicutes.Bacilli.Erysipelotrichales'
p33
(lp34
F2548.292822011547
aF12615.189369903492
aF2824.0202854550234
aF10134.411933706637
aF1795.5926362564614
aF666.7957239035513
aF66575.98428171992
aF5015.386711082767
aF6410.014230483462
aF103552.18172335866
aF105718.25296642262
aF0.0
aF10798.4771806948
aF70087.26197335628
asS'Bacteria.Actinobacteriota.Actinobacteria.Bifidobacteriales'
p35
(lp36
F0.0
aF0.0
aF3273.488979536454
aF2827.9459648253096
aF1360.2974517094406
aF0.0
aF1511.3730824454015
aF0.0
aF0.0
aF4606.826215448804
aF883.6152486745772
aF0.0
aF0.0
aF1978.49342931919
asS'Bacteria.Bacteroidota.Bacteroidia'
p37
(lp38
F495090.5267659846
aF367611.54308769066
aF717246.0289864907
aF556491.3189945582
aF706302.7115262538
aF184379.77242907236
aF52142.371344366344
aF506634.5516801546
aF601911.6702557711
aF367387.14724459645
aF9467.306235799042
aF192728.3476204552
aF768998.6752642159
aF519305.9306208304
asS'Bacteria.Firmicutes.Clostridia.Clostridiales.Clostridiaceae.Candidatus_Arthromitus'
p39
(lp40
F0.0
aF0.0
aF0.0
aF0.0
aF0.0
aF0.0
aF0.0
aF260.0570887228101
aF0.0
aF0.0
aF0.0
aF0.0
aF0.0
aF0.0
asS'Bacteria.Bacteroidota.Bacteroidia.Bacteroidales'
p41
(lp42
F495090.5267659846
aF367611.54308769066
aF717246.0289864907
aF556491.3189945582
aF706302.7115262538
aF184379.77242907236
aF52142.371344366344
aF506634.5516801546
aF601911.6702557711
aF367387.14724459645
aF9467.306235799042
aF192728.3476204552
aF768998.6752642159
aF519305.9306208304
asS'Bacteria.Firmicutes.Clostridia.Lachnospirales.Lachnospiraceae.Lachnospiraceae_UCG_006'
p43
(lp44
F2628.48385487205
aF4138.7670830689385
aF80.56514327874692
aF1188.6386425859369
aF2303.437018227986
aF1183.024671441785
aF0.0
aF2445.775001083571
aF0.0
aF1216.8974908732691
aF0.0
aF0.0
aF0.0
aF298.5095349499129
asS'Bacteria.Proteobacteria.Alphaproteobacteria.Sphingomonadales.Sphingomonadaceae'
p45
(lp46
F0.0
aF0.0
aF0.0
aF0.0
aF0.0
aF0.0
aF604.5492329781605
aF0.0
aF0.0
aF0.0
aF0.0
aF0.0
aF0.0
aF65.94978097730633
asS'Bacteria.Firmicutes.Clostridia.Peptostreptococcales_Tissierellales.Anaerovoracaceae.Anaerovorax'
p47
(lp48
F775.1799843181979
aF1136.5035468381525
aF0.0
aF591.5026420451344
aF417.1578851908951
aF0.0
aF0.0
aF136.22037980718625
aF0.0
aF0.0
aF0.0
aF0.0
aF0.0
aF0.0
asS'Bacteria.Bacteroidota.Bacteroidia.Bacteroidales.Prevotellaceae.Prevotellaceae_UCG_003'
p49
(lp50
F0.0
aF0.0
aF0.0
aF0.0
aF0.0
aF0.0
aF0.0
aF0.0
aF0.0
aF0.0
aF0.0
aF0.0
aF105861.85137049558
aF19285.104374206
asS'Bacteria.Proteobacteria.Gammaproteobacteria.Xanthomonadales.Xanthomonadaceae.Stenotrophomonas'
p51
(lp52
F0.0
aF0.0
aF0.0
aF0.0
aF0.0
aF0.0
aF0.0
aF0.0
aF0.0
aF202.81624847887815
aF0.0
aF0.0
aF0.0
aF0.0
asS'Bacteria.Bacteroidota.Bacteroidia.Bacteroidales.Prevotellaceae.Prevotellaceae_UCG_001'
p53
(lp54
F16813.386556418845
aF4195.592260410846
aF54483.23820992733
aF2782.879096859966
aF16269.157522444912
aF559.2480264997528
aF932.0134008413308
aF19337.102097174666
aF28020.19973050236
aF12835.371153734717
aF631.1537490532694
aF0.0
aF40318.77238364683
aF933.710056994495
asS'Bacteria.Firmicutes.Clostridia.Lachnospirales.Lachnospiraceae.Lachnospiraceae_UCG_001'
p55
(lp56
F160.38206572100643
aF0.0
aF975.2622607427259
aF0.0
aF0.0
aF9421.178292572758
aF428.22237335953037
aF445.8121520962459
aF352.6137494175578
aF0.0
aF0.0
aF0.0
aF0.0
aF0.0
asS'Bacteria.Proteobacteria.Gammaproteobacteria'
p57
(lp58
F2539.3827072492686
aF5246.858041236137
aF4846.62940882146
aF5227.756683979856
aF2013.240228529972
aF4215.869738228906
aF41285.67470213355
aF7163.95361076884
aF9545.757930661028
aF16920.66987309498
aF56551.37591517294
aF11232.633757020396
aF8157.363566840651
aF5609.202424175107
asS'Bacteria.Firmicutes.Clostridia.Clostridiales'
p59
(lp60
F35.64045904911255
aF7434.62736889958
aF1492.575286006259
aF822.4703403675204
aF0.0
aF0.0
aF11839.08914582231
aF371.51012674687155
aF100.74678554787367
aF0.0
aF48472.60792729109
aF3251.55187703222
aF1028.0284003293034
aF20520.795007254477
asS'Bacteria.Proteobacteria.Alphaproteobacteria.Rhodospirillales'
p61
(lp62
F133.65172143417203
aF0.0
aF330.7411145127505
aF174.63411336570638
aF0.0
aF0.0
aF0.0
aF0.0
aF0.0
aF0.0
aF0.0
aF0.0
aF1771.8863485350596
aF0.0
asS'Bacteria.Bacteroidota.Bacteroidia.Bacteroidales.Muribaculaceae.Muribaculum'
p63
(lp64
F2245.3489200940903
aF1202.799587070378
aF6542.737688374027
aF1188.6386425859369
aF2085.7894259544755
aF817.3625002688694
aF0.0
aF959.7344940960849
aF0.0
aF0.0
aF0.0
aF0.0
aF0.0
aF0.0
asS'Bacteria.Firmicutes.Clostridia.Lachnospirales.Lachnospiraceae.Tyzzerella'
p65
(lp66
F0.0
aF0.0
aF0.0
aF0.0
aF0.0
aF150.56677636531805
aF0.0
aF0.0
aF0.0
aF0.0
aF0.0
aF0.0
aF0.0
aF0.0
asS'Bacteria.Proteobacteria.Alphaproteobacteria.Rhodospirillales.uncultured.uncultured'
p67
(lp68
F133.65172143417203
aF0.0
aF330.7411145127505
aF174.63411336570638
aF0.0
aF0.0
aF0.0
aF0.0
aF0.0
aF0.0
aF0.0
aF0.0
aF1771.8863485350596
aF0.0
asS'Bacteria.Firmicutes.Bacilli.Erysipelotrichales.Erysipelatoclostridiaceae.Erysipelotrichaceae_UCG_003'
p69
(lp70
F0.0
aF0.0
aF0.0
aF0.0
aF0.0
aF0.0
aF0.0
aF0.0
aF0.0
aF1245.8712406559657
aF0.0
aF0.0
aF0.0
aF0.0
asS'Bacteria.Actinobacteriota.Actinobacteria.Bifidobacteriales.Bifidobacteriaceae'
p71
(lp72
F0.0
aF0.0
aF3273.488979536454
aF2827.9459648253096
aF1360.2974517094406
aF0.0
aF1511.3730824454015
aF0.0
aF0.0
aF4606.826215448804
aF883.6152486745772
aF0.0
aF0.0
aF1978.49342931919
asS'Bacteria.Bacteroidota.Bacteroidia.Bacteroidales.Rikenellaceae'
p73
(lp74
F8518.069712737897
aF3665.2239385530415
aF11766.751189395933
aF5441.824306815237
aF3573.0479731567975
aF774.34342130735
aF0.0
aF9764.524497996941
aF2657.196468825168
aF0.0
aF0.0
aF0.0
aF906.8380604530847
aF0.0
asS'Bacteria.Bacteroidota.Bacteroidia.Bacteroidales.Marinifilaceae.Odoribacter'
p75
(lp76
F0.0
aF0.0
aF0.0
aF0.0
aF0.0
aF0.0
aF0.0
aF0.0
aF0.0
aF0.0
aF0.0
aF0.0
aF37.610795133998906
aF86.77602760171885
asS'Bacteria.Verrucomicrobiota.Verrucomicrobiae.Verrucomicrobiales.Akkermansiaceae.Akkermansia'
p77
(lp78
F588.067574310357
aF11762.811709774878
aF37619.68164047594
aF7914.868686413466
aF471.56978325927275
aF16691.402637069543
aF0.0
aF6699.565952335251
aF82587.17745286944
aF24627.68731529235
aF0.0
aF0.0
aF0.0
aF0.0
asS'Bacteria.Firmicutes.Clostridia.Eubacteriales.Eubacteriaceae.Eubacterium'
p79
(lp80
F0.0
aF0.0
aF0.0
aF0.0
aF0.0
aF0.0
aF0.0
aF0.0
aF0.0
aF0.0
aF0.0
aF0.0
aF91.93749921644176
aF0.0
asS'Bacteria.Firmicutes.Clostridia.Peptostreptococcales_Tissierellales.Peptostreptococcaceae.Romboutsia'
p81
(lp82
F285.1236723929004
aF20419.18039152547
aF1344.1658115454093
aF10359.746273533356
aF1940.6910311054687
aF0.0
aF9823.925035895109
aF1832.7832919512332
aF856.3476771569261
aF22338.761082459296
aF50870.992173693514
aF0.0
aF5052.383479667186
aF7542.572319141404
asS'Bacteria.Proteobacteria.Alphaproteobacteria.Sphingomonadales.Sphingomonadaceae.Sphingomonas'
p83
(lp84
F0.0
aF0.0
aF0.0
aF0.0
aF0.0
aF0.0
aF0.0
aF0.0
aF0.0
aF0.0
aF0.0
aF0.0
aF0.0
aF65.94978097730633
asS'Bacteria.Bacteroidota.Bacteroidia.Bacteroidales.Rikenellaceae.Alistipes'
p85
(lp86
F8518.069712737897
aF3665.2239385530415
aF11766.751189395933
aF5441.824306815237
aF3573.0479731567975
aF774.34342130735
aF0.0
aF9764.524497996941
aF2657.196468825168
aF0.0
aF0.0
aF0.0
aF476.40340503065283
aF0.0
asS'Bacteria.Firmicutes.Clostridia.Lachnospirales.Lachnospiraceae.Lachnospiraceae_NK4A136_group'
p87
(lp88
F50449.06978401881
aF15589.040317463325
aF9943.434788876923
aF30870.80455626035
aF31558.900879659024
aF17594.803295261452
aF831.2551953449707
aF32655.740141050013
aF18096.641354036805
aF14168.163643738775
aF4481.191618278212
aF12415.016257759386
aF0.0
aF7577.282730182091
asS'Bacteria.Firmicutes.Clostridia.Lachnospirales.Lachnospiraceae.Robinsoniella'
p89
(lp90
F0.0
aF0.0
aF0.0
aF0.0
aF0.0
aF0.0
aF0.0
aF0.0
aF0.0
aF0.0
aF0.0
aF0.0
aF117.0113626391077
aF0.0
asS'Bacteria.Firmicutes.Clostridia.Lachnospirales.Lachnospiraceae.Roseburia'
p91
(lp92
F0.0
aF4527.072461571974
aF962.5414486460817
aF4658.787475917393
aF0.0
aF3312.469080036997
aF528.9805788558905
aF2402.432152963103
aF188.90022290226312
aF0.0
aF0.0
aF0.0
aF0.0
aF4522.766558601587
asS'Bacteria.Firmicutes.Clostridia.Lachnospirales.Lachnospiraceae.Anaerostipes'
p93
(lp94
F0.0
aF0.0
aF0.0
aF0.0
aF0.0
aF0.0
aF0.0
aF0.0
aF0.0
aF0.0
aF0.0
aF0.0
aF1955.761346967943
aF0.0
asS'Bacteria.Firmicutes.Clostridia.Peptococcales.Peptococcaceae.Peptococcus'
p95
(lp96
F329.674246204291
aF0.0
aF0.0
aF123.93388690469484
aF0.0
aF0.0
aF0.0
aF105.26120257828028
aF0.0
aF0.0
aF0.0
aF0.0
aF0.0
aF0.0
asS'Bacteria.Firmicutes.Bacilli.Erysipelotrichales.Erysipelotrichaceae.uncultured'
p97
(lp98
F124.74160667189392
aF1136.5035468381525
aF767.4889964975365
aF1808.308077109411
aF779.9038723134126
aF172.0763158460778
aF8035.466888334716
aF1337.4364562887376
aF617.0740614807262
aF347.68499739236256
aF4039.383993940924
aF0.0
aF0.0
aF3686.2456525210173
asS'Bacteria.Acidobacteriota.Blastocatellia.Blastocatellales.Blastocatellaceae'
p99
(lp100
F0.0
aF0.0
aF0.0
aF0.0
aF0.0
aF0.0
aF377.84327061135036
aF0.0
aF0.0
aF0.0
aF0.0
aF0.0
aF0.0
aF0.0
asS'Bacteria.Firmicutes.Clostridia.Lachnospirales.Lachnospiraceae.Lachnospiraceae_NC2004_group'
p101
(lp102
F2869.05695345356
aF16081.525187759855
aF0.0
aF0.0
aF0.0
aF0.0
aF0.0
aF0.0
aF780.7875879960209
aF0.0
aF0.0
aF0.0
aF0.0
aF0.0
asS'Bacteria.Cyanobacteria.Cyanobacteriia.Chloroplast.Chloroplast'
p103
(lp104
F0.0
aF0.0
aF0.0
aF0.0
aF0.0
aF0.0
aF302.27461648908024
aF0.0
aF0.0
aF0.0
aF0.0
aF0.0
aF0.0
aF0.0
asS'Bacteria.Actinobacteriota.Actinobacteria.Bifidobacteriales.Bifidobacteriaceae.Bifidobacterium'
p105
(lp106
F0.0
aF0.0
aF3273.488979536454
aF2827.9459648253096
aF1360.2974517094406
aF0.0
aF1511.3730824454015
aF0.0
aF0.0
aF4606.826215448804
aF883.6152486745772
aF0.0
aF0.0
aF1978.49342931919
asS'Bacteria.Firmicutes.Clostridia.Oscillospirales.Ruminococcaceae.Anaerofilum'
p107
(lp108
F712.8091809822508
aF0.0
aF0.0
aF84.50037743501922
aF0.0
aF0.0
aF0.0
aF0.0
aF0.0
aF0.0
aF0.0
aF0.0
aF0.0
aF65.94978097730633
asS'Bacteria.Proteobacteria.Gammaproteobacteria.Burkholderiales'
p109
(lp110
F1773.112837693349
aF2055.177247198992
aF4329.316383557927
aF3408.181889879108
aF1759.3180375442098
aF430.19078961519443
aF21637.82463034333
aF4742.945951468394
aF4861.032402684905
aF4664.773715014198
aF20575.61221913658
aF0.0
aF5591.471543254504
aF2679.6437323410787
asS'Bacteria.Firmicutes.Bacilli.Lactobacillales.Lactobacillaceae.Lactobacillus'
p111
(lp112
F8580.440516073844
aF61835.26381088581
aF82765.84377146637
aF42785.357774598066
aF50040.80892355129
aF265879.4175216709
aF77936.47195143453
aF55299.28236627183
aF5213.646152102462
aF43315.75592513184
aF130711.94142893208
aF388117.0558675732
aF9114.349354139067
aF14765.808856708481
asS'Bacteria.Firmicutes.Bacilli.Staphylococcales.Staphylococcaceae.Staphylococcus'
p113
(lp114
F0.0
aF0.0
aF0.0
aF0.0
aF0.0
aF0.0
aF1360.235774200861
aF0.0
aF0.0
aF0.0
aF0.0
aF0.0
aF0.0
aF76.3629042895126
asS'Bacteria.Firmicutes.Bacilli.RF39.RF39.RF39'
p115
(lp116
F1033.5733124242638
aF1373.2751190961008
aF1280.561751062188
aF4929.1886837094535
aF870.590369094042
aF24692.951323912162
aF19370.76500667523
aF1696.562912144047
aF8009.369451055955
aF19789.07110158197
aF11865.690482201464
aF0.0
aF41.7897723711099
aF6119.445466473214
asS'Bacteria.Firmicutes.Clostridia.Lachnospirales.Lachnospiraceae.Lachnospiraceae_UCG_010'
p117
(lp118
F106.92137714733762
aF0.0
aF0.0
aF0.0
aF0.0
aF0.0
aF0.0
aF43.342848120468354
aF0.0
aF0.0
aF0.0
aF0.0
aF0.0
aF0.0
asS'Bacteria.Firmicutes.Bacilli.Erysipelotrichales.Erysipelotrichaceae.Allobaculum'
p119
(lp120
F1167.2250338584358
aF975.4988777027474
aF0.0
aF0.0
aF0.0
aF0.0
aF20529.484369883365
aF501.5386711082766
aF0.0
aF0.0
aF5112.345367331482
aF0.0
aF0.0
aF1266.9300029850954
asS'Bacteria.Firmicutes.Bacilli.Bacillales'
p121
(lp122
F0.0
aF0.0
aF0.0
aF0.0
aF0.0
aF0.0
aF932.0134008413308
aF0.0
aF0.0
aF0.0
aF0.0
aF0.0
aF0.0
aF79.83394539358135
asS'Bacteria.Proteobacteria.Alphaproteobacteria.Rhizobiales.Rhizobiaceae'
p123
(lp124
F0.0
aF0.0
aF0.0
aF0.0
aF0.0
aF0.0
aF0.0
aF247.6734178312477
aF0.0
aF0.0
aF1009.845998485231
aF0.0
aF0.0
aF211.73350734819402
asS'Bacteria.Desulfobacterota'
p125
(lp126
F0.0
aF0.0
aF0.0
aF0.0
aF0.0
aF0.0
aF0.0
aF1820.3996210596708
aF0.0
aF0.0
aF0.0
aF0.0
aF3723.4687182658913
aF3405.091323091448
asS'Bacteria.Actinobacteriota.Coriobacteriia.Coriobacteriales.uncultured.uncultured'
p127
(lp128
F178.2022952455627
aF492.48487029653273
aF0.0
aF146.4673208873666
aF0.0
aF623.7766449420319
aF12015.41600544094
aF575.840696457651
aF805.9742843829894
aF1129.9762415251782
aF5869.7298661954055
aF0.0
aF0.0
aF531.0692889225194
asS'Bacteria.Chloroflexi.Chloroflexia.Chloroflexales'
p129
(lp130
F0.0
aF0.0
aF0.0
aF0.0
aF0.0
aF0.0
aF0.0
aF179.5632279276546
aF0.0
aF0.0
aF0.0
aF0.0
aF0.0
aF0.0
asS'Bacteria.Firmicutes.Bacilli.Erysipelotrichales.Erysipelotrichaceae.Faecalibaculum'
p131
(lp132
F0.0
aF179.9463949160408
aF89.04568467650977
aF0.0
aF0.0
aF0.0
aF856.4447467190607
aF0.0
aF176.3068747087789
aF1014.0812423943908
aF1451.6536228225195
aF0.0
aF0.0
aF118.01539753833764
asS'Bacteria.Bacteroidota.Bacteroidia.Bacteroidales.Marinifilaceae'
p133
(lp134
F0.0
aF0.0
aF0.0
aF0.0
aF0.0
aF0.0
aF0.0
aF0.0
aF0.0
aF0.0
aF0.0
aF0.0
aF388.644883051322
aF86.77602760171885
asS'Bacteria.Firmicutes.Clostridia.Monoglobales'
p135
(lp136
F5167.866562121319
aF9584.513245001752
aF55.12351908545842
aF169.00075487003843
aF0.0
aF2086.425329633693
aF60253.40688682333
aF16686.996526380313
aF340.0204012240736
aF1043.0549921770876
aF35344.60994698309
aF23056.458764410287
aF0.0
aF2280.4740053731716
asS'Bacteria.Firmicutes.Bacilli.Staphylococcales'
p137
(lp138
F0.0
aF0.0
aF0.0
aF0.0
aF0.0
aF0.0
aF1360.235774200861
aF0.0
aF0.0
aF0.0
aF0.0
aF0.0
aF0.0
aF76.3629042895126
asS'Bacteria.Cyanobacteria.Vampirivibrionia'
p139
(lp140
F294.0337871551785
aF0.0
aF746.2876430031295
aF4405.286343612335
aF6475.015870136937
aF0.0
aF2191.490969545832
aF501.5386711082766
aF188.90022290226312
aF0.0
aF1072.961373390558
aF0.0
aF0.0
aF111.07331533020015
asS'Bacteria.Actinobacteriota.Coriobacteriia.Coriobacteriales.Eggerthellaceae.Gordonibacter'
p141
(lp142
F0.0
aF0.0
aF0.0
aF0.0
aF0.0
aF0.0
aF0.0
aF43.342848120468354
aF0.0
aF0.0
aF0.0
aF0.0
aF0.0
aF0.0
asS'Bacteria.Firmicutes.Clostridia.Oscillospirales.Ruminococcaceae.Candidatus_Soleaferrea'
p143
(lp144
F0.0
aF0.0
aF0.0
aF0.0
aF0.0
aF0.0
aF0.0
aF0.0
aF0.0
aF0.0
aF0.0
aF0.0
aF417.89772371109893
aF104.13123312206262
asS'Bacteria.Bacteroidota.Bacteroidia.Bacteroidales.Muribaculaceae.Muribaculaceae'
p145
(lp146
F389354.19488203
aF330864.5950732571
aF384643.4356369311
aF534160.6859177304
aF573156.7969529338
aF165623.45400184987
aF47154.84017229652
aF383002.1733342415
aF446673.4670746913
aF333285.0437503622
aF8836.152486745772
aF146319.8344664499
aF397888.7806998115
aF491381.4049385973
asS'Bacteria.Proteobacteria.Alphaproteobacteria.Rickettsiales'
p147
(lp148
F0.0
aF0.0
aF0.0
aF90.13373593068715
aF0.0
aF0.0
aF0.0
aF0.0
aF0.0
aF0.0
aF0.0
aF0.0
aF0.0
aF0.0
asS'Bacteria.Deferribacterota'
p149
(lp150
F677.1687219331384
aF0.0
aF0.0
aF67.60030194801537
aF0.0
aF0.0
aF0.0
aF0.0
aF125.93348193484208
aF0.0
aF0.0
aF0.0
aF0.0
aF0.0
asS'Bacteria.Actinobacteriota.Coriobacteriia.Coriobacteriales'
p151
(lp152
F579.1574595480789
aF2140.4150132118534
aF203.53299354630803
aF788.6701893935126
aF217.6475922735105
aF5484.932567593729
aF39346.07924632861
aF780.1712661684303
aF1057.8412482526735
aF4259.141218056441
aF23478.919464781622
aF0.0
aF476.40340503065283
aF2034.03008698429
asS'Bacteria.Proteobacteria.Alphaproteobacteria.Rhizobiales.Rhizobiaceae.Allorhizobium_Neorhizobium_Pararhizobium_Rhizobium'
p153
(lp154
F0.0
aF0.0
aF0.0
aF0.0
aF0.0
aF0.0
aF0.0
aF247.6734178312477
aF0.0
aF0.0
aF1009.845998485231
aF0.0
aF0.0
aF152.7258085790252
asS'Bacteria.Bacteroidota.Bacteroidia.Bacteroidales.Prevotellaceae.Prevotellaceae_NK3B31_group'
p155
(lp156
F68296.02965286191
aF26092.227262825916
aF217860.8682378283
aF3008.213436686684
aF93479.64088147276
aF11421.565464283412
aF4055.517771228493
aF86407.06364587655
aF117848.55239462522
aF20223.67734832242
aF0.0
aF46408.51315400532
aF171.33806672155055
aF4807.391929135225
asS'Bacteria.Bacteroidota.Bacteroidia.Bacteroidales.Tannerellaceae.Parabacteroides'
p157
(lp158
F320.76413144201285
aF483.0140074062148
aF8637.431413621447
aF946.4042272722152
aF2811.2814001995107
aF0.0
aF0.0
aF2464.3505074209147
aF2291.989371214126
aF840.2387436982095
aF0.0
aF0.0
aF27489.31226571609
aF492.8878367777631
asS'Bacteria.Actinobacteriota.Actinobacteria.Micrococcales'
p159
(lp160
F0.0
aF28.412588670953813
aF72.0846018809841
aF90.13373593068715
aF0.0
aF0.0
aF1813.6476989344815
aF0.0
aF0.0
aF0.0
aF1767.2304973491543
aF0.0
aF121.19033987621869
aF131.89956195461266
asS'Bacteria.Firmicutes.Clostridia.Lachnospirales.Lachnospiraceae.Frisingicoccus'
p161
(lp162
F0.0
aF700.8438538835273
aF76.3248725798655
aF422.50188717509604
aF0.0
aF0.0
aF579.3596816040705
aF1040.2283548912403
aF0.0
aF0.0
aF0.0
aF0.0
aF2081.1306640812727
aF0.0
asS'Bacteria.Desulfobacterota.Desulfovibrionia'
p163
(lp164
F0.0
aF0.0
aF0.0
aF0.0
aF0.0
aF0.0
aF0.0
aF1820.3996210596708
aF0.0
aF0.0
aF0.0
aF0.0
aF3723.4687182658913
aF3405.091323091448
asS'Bacteria.Firmicutes.Clostridia.Clostridia_UCG_014.Clostridia_UCG_014'
p165
(lp166
F11583.149190961576
aF70794.70010512658
aF22872.020149766366
aF70670.4823281544
aF52833.95302439468
aF71304.12337871848
aF275221.03831330757
aF35850.727231073106
aF116198.82378127878
aF175957.58243031817
aF166182.78212572582
aF80402.01005025125
aF8.35795447422198
aF175846.41337322717
asS'Bacteria.Proteobacteria.Alphaproteobacteria.Sphingomonadales.Sphingomonadaceae.Sphingobium'
p167
(lp168
F0.0
aF0.0
aF0.0
aF0.0
aF0.0
aF0.0
aF604.5492329781605
aF0.0
aF0.0
aF0.0
aF0.0
aF0.0
aF0.0
aF0.0
asS'Bacteria.Firmicutes.Clostridia.Oscillospirales.Oscillospiraceae.Flavonifractor'
p169
(lp170
F0.0
aF0.0
aF0.0
aF0.0
aF0.0
aF0.0
aF0.0
aF0.0
aF0.0
aF0.0
aF0.0
aF0.0
aF768.9318116284221
aF0.0
asS'Bacteria.Actinobacteriota.Coriobacteriia.Coriobacteriales.Coriobacteriales_Incertae_Sedis'
p171
(lp172
F0.0
aF0.0
aF0.0
aF0.0
aF0.0
aF0.0
aF1536.5626338194913
aF0.0
aF0.0
aF0.0
aF0.0
aF0.0
aF0.0
aF0.0
asS'Bacteria.Firmicutes.Clostridia.Oscillospirales.Oscillospiraceae.NK4A214_group'
p173
(lp174
F10897.070354266161
aF12605.718507013175
aF585.1573564456355
aF5768.559099563978
aF3609.3225718690487
aF3140.3927641909195
aF1914.4059044308417
aF2049.497532553575
aF1133.4013374135789
aF376.65874717505943
aF0.0
aF0.0
aF0.0
aF4866.399627904394
asS'Bacteria.Desulfobacterota.Desulfovibrionia.Desulfovibrionales'
p175
(lp176
F0.0
aF0.0
aF0.0
aF0.0
aF0.0
aF0.0
aF0.0
aF1820.3996210596708
aF0.0
aF0.0
aF0.0
aF0.0
aF3723.4687182658913
aF3405.091323091448
asS'Bacteria.Actinobacteriota.Coriobacteriia.Coriobacteriales.Coriobacteriales_Incertae_Sedis.uncultured'
p177
(lp178
F0.0
aF0.0
aF0.0
aF0.0
aF0.0
aF0.0
aF1536.5626338194913
aF0.0
aF0.0
aF0.0
aF0.0
aF0.0
aF0.0
aF0.0
asS'Bacteria.Deferribacterota.Deferribacteres.Deferribacterales.Deferribacteraceae.Mucispirillum'
p179
(lp180
F677.1687219331384
aF0.0
aF0.0
aF67.60030194801537
aF0.0
aF0.0
aF0.0
aF0.0
aF125.93348193484208
aF0.0
aF0.0
aF0.0
aF0.0
aF0.0
asS'Bacteria.Firmicutes.Bacilli.RF39.RF39'
p181
(lp182
F1033.5733124242638
aF1373.2751190961008
aF1280.561751062188
aF4929.1886837094535
aF870.590369094042
aF24692.951323912162
aF19370.76500667523
aF1696.562912144047
aF8009.369451055955
aF19789.07110158197
aF11865.690482201464
aF0.0
aF41.7897723711099
aF6119.445466473214
asS'Bacteria.Proteobacteria.Gammaproteobacteria.Pseudomonadales.Moraxellaceae.Acinetobacter'
p183
(lp184
F0.0
aF0.0
aF0.0
aF33.800150974007686
aF0.0
aF0.0
aF1158.719363208141
aF49.53468356624954
aF0.0
aF0.0
aF2082.8073718757887
aF0.0
aF0.0
aF0.0
asS'Bacteria.Firmicutes.Clostridia.Clostridia_vadinBB60_group'
p185
(lp186
F739.5395252690853
aF947.0862890317937
aF407.06598709261607
aF816.8369818718523
aF0.0
aF731.3243423458306
aF0.0
aF12588.001461273165
aF0.0
aF0.0
aF315.5768745266347
aF0.0
aF3752.7215589256684
aF173.5520552034377
asS'Bacteria.Firmicutes.Bacilli.Izemoplasmatales.Izemoplasmatales.Izemoplasmatales'
p187
(lp188
F0.0
aF104.1794917934973
aF0.0
aF236.6010568180538
aF0.0
aF0.0
aF0.0
aF117.64487346984266
aF0.0
aF0.0
aF0.0
aF0.0
aF0.0
aF0.0
asS'Bacteria.Firmicutes.Bacilli.Erysipelotrichales.Erysipelatoclostridiaceae.UCG_004'
p189
(lp190
F329.674246204291
aF729.2564425544812
aF0.0
aF219.70098133104995
aF217.6475922735105
aF494.7194080574736
aF251.8955137409002
aF1263.1344309393633
aF0.0
aF0.0
aF0.0
aF0.0
aF0.0
aF20.826246624412526
asS'Bacteria.Cyanobacteria.Vampirivibrionia.Gastranaerophilales.Gastranaerophilales'
p191
(lp192
F294.0337871551785
aF0.0
aF746.2876430031295
aF4405.286343612335
aF6475.015870136937
aF0.0
aF2191.490969545832
aF501.5386711082766
aF188.90022290226312
aF0.0
aF1072.961373390558
aF0.0
aF0.0
aF111.07331533020015
asS'Bacteria.Proteobacteria.Gammaproteobacteria.Burkholderiales.Alcaligenaceae.Achromobacter'
p193
(lp194
F0.0
aF47.35431445158969
aF0.0
aF0.0
aF0.0
aF0.0
aF957.2029522154209
aF0.0
aF0.0
aF0.0
aF0.0
aF0.0
aF0.0
aF284.62537053363786
asS'Bacteria.Firmicutes.Clostridia.Oscillospirales.Oscillospiraceae.Colidextribacter'
p195
(lp196
F3421.484068714804
aF1335.3916675348291
aF682.6835825199082
aF1599.873812769697
aF0.0
aF0.0
aF932.0134008413308
aF1238.3670891562385
aF0.0
aF0.0
aF0.0
aF0.0
aF0.0
aF142.31268526681893
asS'Bacteria.Bacteroidota.Bacteroidia.Bacteroidales.Tannerellaceae'
p197
(lp198
F320.76413144201285
aF483.0140074062148
aF8637.431413621447
aF946.4042272722152
aF2811.2814001995107
aF0.0
aF0.0
aF2464.3505074209147
aF2291.989371214126
aF840.2387436982095
aF0.0
aF0.0
aF27489.31226571609
aF492.8878367777631
asS'Bacteria.Firmicutes.Negativicutes.Veillonellales_Selenomonadales.Veillonellaceae'
p199
(lp200
F0.0
aF0.0
aF0.0
aF0.0
aF0.0
aF0.0
aF0.0
aF0.0
aF0.0
aF0.0
aF0.0
aF0.0
aF522.3721546388737
aF152.7258085790252
asS'Bacteria.Firmicutes.Clostridia.Oscillospirales.Ruminococcaceae.Pygmaiobacter'
p201
(lp202
F0.0
aF0.0
aF0.0
aF332.3681512444089
aF0.0
aF0.0
aF0.0
aF0.0
aF0.0
aF0.0
aF0.0
aF0.0
aF0.0
aF0.0
asS'Bacteria.Firmicutes.Clostridia.Clostridiales.Clostridiaceae.Clostridium_sensu_stricto_1'
p203
(lp204
F35.64045904911255
aF7434.62736889958
aF1492.575286006259
aF822.4703403675204
aF0.0
aF0.0
aF11839.08914582231
aF111.45303802406147
aF100.74678554787367
aF0.0
aF48472.60792729109
aF3251.55187703222
aF1028.0284003293034
aF20520.795007254477
asS'Bacteria.Proteobacteria.Gammaproteobacteria.Pseudomonadales.Moraxellaceae'
p205
(lp206
F0.0
aF0.0
aF0.0
aF33.800150974007686
aF0.0
aF0.0
aF1158.719363208141
aF49.53468356624954
aF0.0
aF0.0
aF2082.8073718757887
aF0.0
aF0.0
aF0.0
asS'Bacteria.Firmicutes.Negativicutes.Veillonellales_Selenomonadales.Selenomonadaceae'
p207
(lp208
F0.0
aF0.0
aF0.0
aF0.0
aF0.0
aF0.0
aF0.0
aF0.0
aF0.0
aF0.0
aF0.0
aF0.0
aF7095.90334861446
aF1044.783372324695
asS'Bacteria.Elusimicrobiota.Elusimicrobia.Elusimicrobiales'
p209
(lp210
F0.0
aF0.0
aF0.0
aF0.0
aF0.0
aF0.0
aF0.0
aF0.0
aF0.0
aF0.0
aF0.0
aF0.0
aF91.93749921644176
aF190.9072607237815
asS'Bacteria.Campilobacterota.Campylobacteria.Campylobacterales'
p211
(lp212
F0.0
aF66.29604023222555
aF0.0
aF0.0
aF0.0
aF193.5858553268375
aF327.4641678631703
aF0.0
aF0.0
aF0.0
aF0.0
aF0.0
aF639.3835172779814
aF458.17742573707557
asS'Bacteria.Proteobacteria.Gammaproteobacteria.Xanthomonadales.Xanthomonadaceae'
p213
(lp214
F0.0
aF0.0
aF0.0
aF0.0
aF0.0
aF0.0
aF0.0
aF0.0
aF0.0
aF202.81624847887815
aF0.0
aF0.0
aF0.0
aF0.0
asS'Bacteria.Firmicutes.Clostridia.Lachnospirales.Lachnospiraceae.GCA_900066575'
p215
(lp216
F1755.2926081687929
aF681.9021281028914
aF648.7614169288569
aF732.3366044368331
aF0.0
aF0.0
aF0.0
aF198.13873426499816
aF0.0
aF0.0
aF0.0
aF0.0
aF0.0
aF354.0461926150129
asS'Bacteria.Proteobacteria.Alphaproteobacteria.Rhizobiales'
p217
(lp218
F0.0
aF0.0
aF0.0
aF0.0
aF0.0
aF0.0
aF0.0
aF247.6734178312477
aF0.0
aF0.0
aF1893.4612471598082
aF0.0
aF0.0
aF211.73350734819402
asS'Bacteria.Firmicutes.Clostridia.Lachnospirales.Defluviitaleaceae.Defluviitaleaceae_UCG_011'
p219
(lp220
F106.92137714733762
aF653.4895394319376
aF114.48730886979826
aF783.0368308978447
aF0.0
aF0.0
aF0.0
aF544.881519228745
aF1662.3219615399153
aF0.0
aF0.0
aF0.0
aF0.0
aF45.12353435289381
asS'Bacteria.Firmicutes.Bacilli.RF39'
p221
(lp222
F1033.5733124242638
aF1373.2751190961008
aF1280.561751062188
aF4929.1886837094535
aF870.590369094042
aF24692.951323912162
aF19370.76500667523
aF1696.562912144047
aF8009.369451055955
aF19789.07110158197
aF11865.690482201464
aF0.0
aF41.7897723711099
aF6119.445466473214
asS'Bacteria.Campilobacterota.Campylobacteria.Campylobacterales.Campylobacteraceae'
p223
(lp224
F0.0
aF0.0
aF0.0
aF0.0
aF0.0
aF0.0
aF327.4641678631703
aF0.0
aF0.0
aF0.0
aF0.0
aF0.0
aF0.0
aF0.0
asS'Bacteria.Firmicutes.Clostridia.Peptostreptococcales_Tissierellales'
p225
(lp226
F3145.270511084182
aF22796.366976995276
aF2467.837546748985
aF11615.985218067308
aF2357.8489162963638
aF3635.1121722483927
aF9823.925035895109
aF2916.354494962942
aF4180.991600236756
aF24193.081068551895
aF54468.568543297144
aF0.0
aF5052.383479667186
aF8590.826732570169
asS'Bacteria.Firmicutes.Clostridia.Peptococcales'
p227
(lp228
F3866.989806828711
aF4441.834695559112
aF7060.05071363756
aF6855.797289227892
aF2829.4186995556365
aF516.2289475382333
aF226.70596236681018
aF885.4324687467105
aF579.2940169002735
aF434.6062467404532
aF1325.4228730118657
aF0.0
aF0.0
aF142.31268526681893
asS'Bacteria.Proteobacteria.Gammaproteobacteria.Enterobacterales.Erwiniaceae'
p229
(lp230
F0.0
aF0.0
aF0.0
aF0.0
aF0.0
aF0.0
aF0.0
aF0.0
aF138.52683012832628
aF0.0
aF0.0
aF0.0
aF0.0
aF0.0
asS'Bacteria.Firmicutes.Clostridia.Peptostreptococcales_Tissierellales.Anaerovoracaceae.Family_XIII_UCG_001'
p231
(lp232
F267.30344286834406
aF208.3589835869946
aF0.0
aF84.50037743501922
aF0.0
aF1269.0628293648238
aF0.0
aF148.60405069874864
aF0.0
aF0.0
aF0.0
aF0.0
aF0.0
aF62.47873987323758
asS'Bacteria.Firmicutes.Clostridia.Christensenellales.Christensenellaceae.Christensenellaceae_R_7_group'
p233
(lp234
F1220.6857224321047
aF1742.6387718185003
aF682.6835825199082
aF4016.5846074112465
aF1958.8283304615948
aF1333.5914478071027
aF167183.05246983547
aF1634.6445576862347
aF3135.743700177568
aF2549.6899808773255
aF177543.54960868467
aF0.0
aF0.0
aF2589.3966636352907
asS'Bacteria.Cyanobacteria.Vampirivibrionia.Gastranaerophilales'
p235
(lp236
F294.0337871551785
aF0.0
aF746.2876430031295
aF4405.286343612335
aF6475.015870136937
aF0.0
aF2191.490969545832
aF501.5386711082766
aF188.90022290226312
aF0.0
aF1072.961373390558
aF0.0
aF0.0
aF111.07331533020015
asS'Bacteria.Actinobacteriota.Coriobacteriia.Coriobacteriales.Eggerthellaceae.Parvibacter'
p237
(lp238
F0.0
aF0.0
aF0.0
aF0.0
aF0.0
aF0.0
aF0.0
aF0.0
aF251.86696386968416
aF0.0
aF0.0
aF0.0
aF0.0
aF0.0
asS'Bacteria.Firmicutes.Bacilli.Bacillales.Bacillaceae.Anoxybacillus'
p239
(lp240
F0.0
aF0.0
aF0.0
aF0.0
aF0.0
aF0.0
aF932.0134008413308
aF0.0
aF0.0
aF0.0
aF0.0
aF0.0
aF0.0
aF0.0
asS'Bacteria.Deferribacterota.Deferribacteres.Deferribacterales'
p241
(lp242
F677.1687219331384
aF0.0
aF0.0
aF67.60030194801537
aF0.0
aF0.0
aF0.0
aF0.0
aF125.93348193484208
aF0.0
aF0.0
aF0.0
aF0.0
aF0.0
asS'Bacteria.Firmicutes.Clostridia.Lachnospirales.Lachnospiraceae.A2'
p243
(lp244
F570.2473447858008
aF530.3683218578044
aF72.0846018809841
aF0.0
aF0.0
aF0.0
aF0.0
aF0.0
aF402.9871421914947
aF0.0
aF0.0
aF0.0
aF0.0
aF0.0
asS'Bacteria.Actinobacteriota.Coriobacteriia'
p245
(lp246
F579.1574595480789
aF2140.4150132118534
aF203.53299354630803
aF788.6701893935126
aF217.6475922735105
aF5484.932567593729
aF39346.07924632861
aF780.1712661684303
aF1057.8412482526735
aF4259.141218056441
aF23478.919464781622
aF0.0
aF476.40340503065283
aF2034.03008698429
asS'Bacteria.Firmicutes.Clostridia.Lachnospirales.Lachnospiraceae.Tuzzerella'
p247
(lp248
F0.0
aF0.0
aF0.0
aF422.50188717509604
aF0.0
aF0.0
aF0.0
aF0.0
aF0.0
aF0.0
aF0.0
aF0.0
aF0.0
aF138.84164416275016
asS'Bacteria.Firmicutes.Clostridia.Clostridia.Hungateiclostridiaceae'
p249
(lp250
F0.0
aF0.0
aF0.0
aF112.66716991335895
aF0.0
aF0.0
aF0.0
aF0.0
aF0.0
aF0.0
aF0.0
aF0.0
aF0.0
aF76.3629042895126
asS'Bacteria.Cyanobacteria'
p251
(lp252
F294.0337871551785
aF0.0
aF746.2876430031295
aF4405.286343612335
aF6475.015870136937
aF0.0
aF2493.765586034912
aF501.5386711082766
aF188.90022290226312
aF0.0
aF1072.961373390558
aF0.0
aF0.0
aF111.07331533020015
asS'Bacteria.Firmicutes.Clostridia.Oscillospirales.Oscillospiraceae.uncultured'
p253
(lp254
F13962.14983248984
aF2140.4150132118534
aF1556.1793464894802
aF30887.704631747354
aF15053.958465584476
aF3678.1312512099125
aF0.0
aF14340.290892429242
aF377.80044580452625
aF0.0
aF0.0
aF0.0
aF296.7073838348802
aF853.8761116009135
asS'Bacteria.Firmicutes.Clostridia.Oscillospirales.Ruminococcaceae.Paludicola'
p255
(lp256
F0.0
aF0.0
aF0.0
aF0.0
aF0.0
aF301.1335527306361
aF0.0
aF0.0
aF0.0
aF0.0
aF0.0
aF0.0
aF0.0
aF0.0
asS'Bacteria.Verrucomicrobiota'
p257
(lp258
F588.067574310357
aF11762.811709774878
aF37619.68164047594
aF7914.868686413466
aF471.56978325927275
aF16691.402637069543
aF0.0
aF6699.565952335251
aF82587.17745286944
aF24627.68731529235
aF0.0
aF0.0
aF0.0
aF0.0
asS'Bacteria.Cyanobacteria.Cyanobacteriia.Chloroplast.Chloroplast.Chloroplast'
p259
(lp260
F0.0
aF0.0
aF0.0
aF0.0
aF0.0
aF0.0
aF302.27461648908024
aF0.0
aF0.0
aF0.0
aF0.0
aF0.0
aF0.0
aF0.0
asS'Bacteria.Firmicutes.Clostridia.Lachnospirales.Lachnospiraceae._Eubacterium__ventriosum_group'
p261
(lp262
F864.2811319409792
aF0.0
aF385.86463359820897
aF0.0
aF0.0
aF0.0
aF0.0
aF0.0
aF0.0
aF0.0
aF0.0
aF0.0
aF0.0
aF0.0
asS'Bacteria.Campilobacterota'
p263
(lp264
F0.0
aF66.29604023222555
aF0.0
aF0.0
aF0.0
aF193.5858553268375
aF327.4641678631703
aF0.0
aF0.0
aF0.0
aF0.0
aF0.0
aF639.3835172779814
aF458.17742573707557
asS'Bacteria.Firmicutes.Clostridia.Lachnospirales.Lachnospiraceae.Lachnoclostridium'
p265
(lp266
F864.2811319409792
aF0.0
aF0.0
aF546.4357740797909
aF0.0
aF1204.5342109225444
aF377.84327061135036
aF0.0
aF0.0
aF695.3699947847251
aF2777.0764958343852
aF0.0
aF42809.44281696498
aF548.4244944428632
asS'Bacteria.Patescibacteria'
p267
(lp268
F507.8765414498538
aF1288.0373530832394
aF1178.7952542890341
aF332.3681512444089
aF0.0
aF2129.4444085952123
aF6347.766946270685
aF1486.0405069874864
aF1234.1481229614524
aF9851.074926116939
aF15778.843726331736
aF2955.9562518474727
aF0.0
aF22804.74005373172
asS'Bacteria.Firmicutes.Clostridia.Lachnospirales.Defluviitaleaceae'
p269
(lp270
F106.92137714733762
aF653.4895394319376
aF114.48730886979826
aF783.0368308978447
aF0.0
aF0.0
aF0.0
aF544.881519228745
aF1662.3219615399153
aF0.0
aF0.0
aF0.0
aF0.0
aF45.12353435289381
asS'Bacteria.Firmicutes.Clostridia.Lachnospirales.Lachnospiraceae.Acetatifactor'
p271
(lp272
F614.7979185971914
aF123.12121757413318
aF0.0
aF338.00150974007687
aF0.0
aF0.0
aF0.0
aF92.8775316867179
aF0.0
aF0.0
aF0.0
aF0.0
aF0.0
aF0.0
asS'Bacteria.Firmicutes.Clostridia.Lachnospirales.Lachnospiraceae.Hungatella'
p273
(lp274
F0.0
aF0.0
aF0.0
aF0.0
aF0.0
aF0.0
aF0.0
aF0.0
aF0.0
aF0.0
aF0.0
aF0.0
aF14396.576581847357
aF0.0
asS'Bacteria.Firmicutes.Negativicutes.Veillonellales_Selenomonadales'
p275
(lp276
F0.0
aF0.0
aF0.0
aF0.0
aF0.0
aF0.0
aF0.0
aF0.0
aF0.0
aF0.0
aF0.0
aF0.0
aF7618.275503253334
aF1197.50918090372
asS'Bacteria.Firmicutes.Clostridia.Oscillospirales.UCG_010.UCG_010'
p277
(lp278
F490.05631192529745
aF1373.2751190961008
aF818.3722448841135
aF4286.9858152033075
aF888.7276684501679
aF0.0
aF0.0
aF1294.0936081682694
aF642.2607578676946
aF0.0
aF0.0
aF0.0
aF121.19033987621869
aF2231.879429916209
asS'Bacteria.Bacteroidota.Bacteroidia.Bacteroidales.Bacteroidaceae'
p279
(lp280
F9542.732910399884
aF1108.0909581671986
aF33311.56661041241
aF8962.673366607703
aF14926.997370091596
aF5183.799014863093
aF0.0
aF4699.603103347926
aF4193.584948430241
aF202.81624847887815
aF0.0
aF0.0
aF40795.17578867748
aF315.8647404702566
asS'Bacteria.Proteobacteria.Alphaproteobacteria.Rickettsiales.Mitochondria.Mitochondria'
p281
(lp282
F0.0
aF0.0
aF0.0
aF90.13373593068715
aF0.0
aF0.0
aF0.0
aF0.0
aF0.0
aF0.0
aF0.0
aF0.0
aF0.0
aF0.0
asS'Bacteria.Firmicutes.Clostridia.Oscillospirales.Ruminococcaceae.UBA1819'
p283
(lp284
F1568.180198160952
aF331.4802011611278
aF0.0
aF1521.0067938303457
aF3300.9884828149093
aF2021.896711191414
aF780.8760925967906
aF167.1795570360922
aF0.0
aF0.0
aF0.0
aF0.0
aF5846.389154718274
aF72.89186318544385
asS'Bacteria.Firmicutes.Clostridia.Oscillospirales.UCG_010'
p285
(lp286
F490.05631192529745
aF1373.2751190961008
aF818.3722448841135
aF4286.9858152033075
aF888.7276684501679
aF0.0
aF0.0
aF1294.0936081682694
aF642.2607578676946
aF0.0
aF0.0
aF0.0
aF121.19033987621869
aF2231.879429916209
asS'Bacteria.Cyanobacteria.Vampirivibrionia.Gastranaerophilales.Gastranaerophilales.Gastranaerophilales'
p287
(lp288
F294.0337871551785
aF0.0
aF746.2876430031295
aF4405.286343612335
aF6475.015870136937
aF0.0
aF2191.490969545832
aF501.5386711082766
aF188.90022290226312
aF0.0
aF1072.961373390558
aF0.0
aF0.0
aF111.07331533020015
asS'Bacteria.Proteobacteria.Gammaproteobacteria.Enterobacterales.Enterobacteriaceae'
p289
(lp290
F409.86527906479427
aF2367.7157225794845
aF432.50761128590455
aF1785.7746431267394
aF253.92219098576223
aF2581.1447376911665
aF9874.304138643287
aF2024.73019077045
aF4243.9583412041775
aF10024.91742481312
aF27896.995708154507
aF11232.633757020396
aF936.0909011128616
aF1690.3970176814835
asS'Bacteria.Elusimicrobiota.Elusimicrobia'
p291
(lp292
F0.0
aF0.0
aF0.0
aF0.0
aF0.0
aF0.0
aF0.0
aF0.0
aF0.0
aF0.0
aF0.0
aF0.0
aF91.93749921644176
aF190.9072607237815
asS'Bacteria.Proteobacteria.Alphaproteobacteria'
p293
(lp294
F133.65172143417203
aF0.0
aF330.7411145127505
aF264.76784929639354
aF0.0
aF0.0
aF604.5492329781605
aF247.6734178312477
aF0.0
aF0.0
aF1893.4612471598082
aF0.0
aF1771.8863485350596
aF277.6832883255003
asS'Bacteria.Proteobacteria.Gammaproteobacteria.Pasteurellales.Pasteurellaceae'
p295
(lp296
F356.4045904911254
aF823.9650714576605
aF0.0
aF0.0
aF0.0
aF1204.5342109225444
aF1788.4581475603916
aF222.90607604812294
aF0.0
aF0.0
aF0.0
aF0.0
aF1391.5994199579595
aF666.4398919812008
asS'Bacteria.Acidobacteriota.Blastocatellia'
p297
(lp298
F0.0
aF0.0
aF0.0
aF0.0
aF0.0
aF0.0
aF377.84327061135036
aF0.0
aF0.0
aF0.0
aF0.0
aF0.0
aF0.0
aF0.0
asS'Bacteria.Elusimicrobiota.Elusimicrobia.Elusimicrobiales.Elusimicrobiaceae.Elusimicrobium'
p299
(lp300
F0.0
aF0.0
aF0.0
aF0.0
aF0.0
aF0.0
aF0.0
aF0.0
aF0.0
aF0.0
aF0.0
aF0.0
aF91.93749921644176
aF190.9072607237815
asS'Bacteria.Firmicutes.Clostridia.Monoglobales.Monoglobaceae'
p301
(lp302
F5167.866562121319
aF9584.513245001752
aF55.12351908545842
aF169.00075487003843
aF0.0
aF2086.425329633693
aF60253.40688682333
aF16686.996526380313
aF340.0204012240736
aF1043.0549921770876
aF35344.60994698309
aF23056.458764410287
aF0.0
aF2280.4740053731716
asS'Bacteria.Cyanobacteria.Cyanobacteriia'
p303
(lp304
F0.0
aF0.0
aF0.0
aF0.0
aF0.0
aF0.0
aF302.27461648908024
aF0.0
aF0.0
aF0.0
aF0.0
aF0.0
aF0.0
aF0.0
asS'Bacteria.Firmicutes.Bacilli.Bacillales.Bacillaceae'
p305
(lp306
F0.0
aF0.0
aF0.0
aF0.0
aF0.0
aF0.0
aF932.0134008413308
aF0.0
aF0.0
aF0.0
aF0.0
aF0.0
aF0.0
aF79.83394539358135
asS'Bacteria.Firmicutes.Clostridia.Peptococcales.Peptococcaceae'
p307
(lp308
F3866.989806828711
aF4441.834695559112
aF7060.05071363756
aF6855.797289227892
aF2829.4186995556365
aF516.2289475382333
aF226.70596236681018
aF885.4324687467105
aF579.2940169002735
aF434.6062467404532
aF1325.4228730118657
aF0.0
aF0.0
aF142.31268526681893
asS'Bacteria.Firmicutes.Bacilli.Lactobacillales.Lactobacillaceae'
p309
(lp310
F8580.440516073844
aF61835.26381088581
aF82765.84377146637
aF42785.357774598066
aF50040.80892355129
aF265879.4175216709
aF77936.47195143453
aF55299.28236627183
aF5213.646152102462
aF43315.75592513184
aF130711.94142893208
aF388117.0558675732
aF9114.349354139067
aF14765.808856708481
asS'Bacteria.Firmicutes.Bacilli.Izemoplasmatales'
p311
(lp312
F0.0
aF104.1794917934973
aF0.0
aF236.6010568180538
aF0.0
aF0.0
aF0.0
aF117.64487346984266
aF0.0
aF0.0
aF0.0
aF0.0
aF0.0
aF0.0
asS'Bacteria.Chloroflexi'
p313
(lp314
F0.0
aF0.0
aF0.0
aF0.0
aF0.0
aF0.0
aF0.0
aF179.5632279276546
aF0.0
aF0.0
aF0.0
aF0.0
aF0.0
aF0.0
asS'Bacteria.Firmicutes.Clostridia.Clostridia_UCG_014.Clostridia_UCG_014.Clostridia_UCG_014'
p315
(lp316
F11583.149190961576
aF70794.70010512658
aF22872.020149766366
aF70670.4823281544
aF52833.95302439468
aF71304.12337871848
aF275221.03831330757
aF35850.727231073106
aF116198.82378127878
aF175957.58243031817
aF166182.78212572582
aF80402.01005025125
aF8.35795447422198
aF175846.41337322717
asS'Bacteria.Proteobacteria.Gammaproteobacteria.Burkholderiales.Oxalobacteraceae.Herminiimonas'
p317
(lp318
F0.0
aF0.0
aF0.0
aF0.0
aF0.0
aF0.0
aF654.9283357263406
aF0.0
aF0.0
aF434.6062467404532
aF0.0
aF0.0
aF0.0
aF0.0
asS'Bacteria.Chloroflexi.Chloroflexia'
p319
(lp320
F0.0
aF0.0
aF0.0
aF0.0
aF0.0
aF0.0
aF0.0
aF179.5632279276546
aF0.0
aF0.0
aF0.0
aF0.0
aF0.0
aF0.0
asS'Bacteria.Acidobacteriota.Blastocatellia.Blastocatellales.Blastocatellaceae.Blastocatella'
p321
(lp322
F0.0
aF0.0
aF0.0
aF0.0
aF0.0
aF0.0
aF377.84327061135036
aF0.0
aF0.0
aF0.0
aF0.0
aF0.0
aF0.0
aF0.0
asS'Bacteria.Proteobacteria.Alphaproteobacteria.Rickettsiales.Mitochondria'
p323
(lp324
F0.0
aF0.0
aF0.0
aF90.13373593068715
aF0.0
aF0.0
aF0.0
aF0.0
aF0.0
aF0.0
aF0.0
aF0.0
aF0.0
aF0.0
asS'Bacteria.Firmicutes.Clostridia.Lachnospirales.Lachnospiraceae._Eubacterium__xylanophilum_group'
p325
(lp326
F10861.429895217048
aF9556.100656330798
aF2196.460222020574
aF17345.11080816161
aF2049.514827242224
aF40287.367447462966
aF957.2029522154209
aF14495.086778573772
aF26030.450715931856
aF37144.347221417396
aF2840.191870739712
aF0.0
aF0.0
aF8587.355691466097
asS'Archaea.Euryarchaeota.Methanobacteria.Methanobacteriales.Methanobacteriaceae.Methanosphaera'
p327
(lp328
F0.0
aF0.0
aF0.0
aF0.0
aF0.0
aF0.0
aF0.0
aF0.0
aF0.0
aF0.0
aF0.0
aF0.0
aF83.5795447422198
aF461.64846684114434
asS'Bacteria.Proteobacteria.Gammaproteobacteria.Pasteurellales.Pasteurellaceae.Rodentibacter'
p329
(lp330
F356.4045904911254
aF823.9650714576605
aF0.0
aF0.0
aF0.0
aF1204.5342109225444
aF1788.4581475603916
aF222.90607604812294
aF0.0
aF0.0
aF0.0
aF0.0
aF1391.5994199579595
aF666.4398919812008
asS'Bacteria.Bacteroidota'
p331
(lp332
F495090.5267659846
aF367611.54308769066
aF717246.0289864907
aF556491.3189945582
aF706302.7115262538
aF184379.77242907236
aF52142.371344366344
aF506634.5516801546
aF601911.6702557711
aF367387.14724459645
aF9467.306235799042
aF192728.3476204552
aF768998.6752642159
aF519305.9306208304
asS'Bacteria.Firmicutes.Clostridia.Eubacteriales.Anaerofustaceae'
p333
(lp334
F0.0
aF75.7669031225435
aF0.0
aF0.0
aF0.0
aF0.0
aF0.0
aF111.45303802406147
aF365.207097611042
aF1187.923741090572
aF0.0
aF0.0
aF0.0
aF0.0
asS'Bacteria.Actinobacteriota.Actinobacteria.Micrococcales.Micrococcaceae.Rothia'
p335
(lp336
F0.0
aF0.0
aF72.0846018809841
aF90.13373593068715
aF0.0
aF0.0
aF1813.6476989344815
aF0.0
aF0.0
aF0.0
aF1767.2304973491543
aF0.0
aF121.19033987621869
aF131.89956195461266
asS'Bacteria.Elusimicrobiota'
p337
(lp338
F0.0
aF0.0
aF0.0
aF0.0
aF0.0
aF0.0
aF0.0
aF0.0
aF0.0
aF0.0
aF0.0
aF0.0
aF91.93749921644176
aF190.9072607237815
asS'Bacteria.Actinobacteriota.Coriobacteriia.Coriobacteriales.Atopobiaceae.Coriobacteriaceae_UCG_002'
p339
(lp340
F0.0
aF634.5478136513018
aF0.0
aF281.6679247833974
aF0.0
aF0.0
aF0.0
aF0.0
aF0.0
aF0.0
aF0.0
aF0.0
aF41.7897723711099
aF770.5711251032634
asS'Bacteria.Proteobacteria.Gammaproteobacteria.Pseudomonadales.Pseudomonadaceae'
p341
(lp342
F0.0
aF0.0
aF84.80541397762833
aF0.0
aF0.0
aF0.0
aF6826.368422378396
aF123.83670891562384
aF302.240356643621
aF2028.1624847887815
aF5995.960616006059
aF0.0
aF0.0
aF572.7217821713446
asS'Bacteria.Campilobacterota.Campylobacteria.Campylobacterales.Campylobacteraceae.Campylobacter'
p343
(lp344
F0.0
aF0.0
aF0.0
aF0.0
aF0.0
aF0.0
aF327.4641678631703
aF0.0
aF0.0
aF0.0
aF0.0
aF0.0
aF0.0
aF0.0
asS'Bacteria.Firmicutes.Clostridia.Oscillospirales.Ruminococcaceae.Ruminococcus'
p345
(lp346
F2405.7309858150966
aF28819.83577523748
aF31267.75613355157
aF13914.39548429983
aF12405.912759590099
aF20003.87171710654
aF20428.726164387008
aF24141.96640310087
aF6775.221328094504
aF4722.721214579592
aF15778.843726331736
aF11232.633757020396
aF2026.8039599988297
aF39375.49028455595
asS'Bacteria.Proteobacteria.Gammaproteobacteria.Enterobacterales.Erwiniaceae.uncultured'
p347
(lp348
F0.0
aF0.0
aF0.0
aF0.0
aF0.0
aF0.0
aF0.0
aF0.0
aF138.52683012832628
aF0.0
aF0.0
aF0.0
aF0.0
aF0.0
asS'Bacteria.Proteobacteria.Alphaproteobacteria.Rhizobiales.Rhizobiaceae.uncultured'
p349
(lp350
F0.0
aF0.0
aF0.0
aF0.0
aF0.0
aF0.0
aF0.0
aF0.0
aF0.0
aF0.0
aF0.0
aF0.0
aF0.0
aF59.00769876916882
asS'Bacteria.Proteobacteria.Gammaproteobacteria.Pseudomonadales.Pseudomonadaceae.Pseudomonas'
p351
(lp352
F0.0
aF0.0
aF84.80541397762833
aF0.0
aF0.0
aF0.0
aF6826.368422378396
aF123.83670891562384
aF302.240356643621
aF2028.1624847887815
aF5995.960616006059
aF0.0
aF0.0
aF572.7217821713446
asS'Bacteria.Firmicutes.Clostridia'
p353
(lp354
F0.0
aF596.6643620900301
aF0.0
aF0.0
aF0.0
aF0.0
aF0.0
aF0.0
aF0.0
aF0.0
aF0.0
aF0.0
aF0.0
aF0.0
asS'Bacteria.Firmicutes.Clostridia.Clostridia.Hungateiclostridiaceae.Ruminiclostridium'
p355
(lp356
F178.2022952455627
aF113.65035468381525
aF0.0
aF0.0
aF0.0
aF0.0
aF0.0
aF0.0
aF0.0
aF0.0
aF0.0
aF0.0
aF0.0
aF0.0
asS'Bacteria.Firmicutes.Clostridia.Lachnospirales.Lachnospiraceae.Marvinbryantia'
p357
(lp358
F793.0002138427541
aF0.0
aF0.0
aF0.0
aF0.0
aF1333.5914478071027
aF34207.410766014254
aF1814.2077856138894
aF0.0
aF0.0
aF0.0
aF0.0
aF0.0
aF0.0
asS'Bacteria.Campilobacterota.Campylobacteria'
p359
(lp360
F0.0
aF66.29604023222555
aF0.0
aF0.0
aF0.0
aF193.5858553268375
aF327.4641678631703
aF0.0
aF0.0
aF0.0
aF0.0
aF0.0
aF639.3835172779814
aF458.17742573707557
asS'Bacteria.Patescibacteria.Saccharimonadia.Saccharimonadales.Saccharimonadaceae'
p361
(lp362
F507.8765414498538
aF1288.0373530832394
aF1178.7952542890341
aF332.3681512444089
aF0.0
aF2129.4444085952123
aF6347.766946270685
aF1486.0405069874864
aF1234.1481229614524
aF9851.074926116939
aF15778.843726331736
aF2955.9562518474727
aF0.0
aF22804.74005373172
asS'Bacteria.Firmicutes.Negativicutes'
p363
(lp364
F0.0
aF0.0
aF0.0
aF0.0
aF0.0
aF0.0
aF0.0
aF0.0
aF0.0
aF0.0
aF0.0
aF0.0
aF7618.275503253334
aF1197.50918090372
asS'Bacteria.Firmicutes.Bacilli.Erysipelotrichales.Erysipelotrichaceae'
p365
(lp366
F481.14619716301934
aF0.0
aF0.0
aF0.0
aF0.0
aF0.0
aF0.0
aF0.0
aF0.0
aF0.0
aF0.0
aF0.0
aF0.0
aF0.0
asS'Bacteria.Cyanobacteria.Cyanobacteriia.Chloroplast'
p367
(lp368
F0.0
aF0.0
aF0.0
aF0.0
aF0.0
aF0.0
aF302.27461648908024
aF0.0
aF0.0
aF0.0
aF0.0
aF0.0
aF0.0
aF0.0
asS'Bacteria.Actinobacteriota'
p369
(lp370
F579.1574595480789
aF2168.8276018828074
aF3549.1065749637455
aF3706.749890149509
aF1577.9450439829511
aF5484.932567593729
aF42671.1000277085
aF780.1712661684303
aF1057.8412482526735
aF8865.967433505246
aF26129.76521080535
aF0.0
aF597.5937449068714
aF4144.4230782580935
asS'Bacteria.Bacteroidota.Bacteroidia.Bacteroidales.Marinifilaceae.Butyricimonas'
p371
(lp372
F0.0
aF0.0
aF0.0
aF0.0
aF0.0
aF0.0
aF0.0
aF0.0
aF0.0
aF0.0
aF0.0
aF0.0
aF351.0340879173231
aF0.0
asS'Bacteria.Actinobacteriota.Coriobacteriia.Coriobacteriales.Eggerthellaceae.Enterorhabdus'
p373
(lp374
F0.0
aF151.533806245087
aF0.0
aF0.0
aF217.6475922735105
aF365.6621711729153
aF17305.221793999845
aF160.98772159031103
aF0.0
aF2346.8737323984474
aF14137.843978793235
aF0.0
aF0.0
aF468.59054904928183
asS'Bacteria.Firmicutes.Clostridia.Lachnospirales.Lachnospiraceae._Bacteroides__pectinophilus_group'
p375
(lp376
F0.0
aF0.0
aF708.1252067131967
aF0.0
aF0.0
aF817.3625002688694
aF0.0
aF897.8161396382731
aF0.0
aF927.1599930463001
aF820.4998737692503
aF4729.530002955957
aF0.0
aF1173.211893175239
asS'Bacteria.Proteobacteria.Gammaproteobacteria.Xanthomonadales'
p377
(lp378
F0.0
aF0.0
aF0.0
aF0.0
aF0.0
aF0.0
aF0.0
aF0.0
aF0.0
aF202.81624847887815
aF0.0
aF0.0
aF0.0
aF0.0
asS'Bacteria.Firmicutes.Clostridia.Peptostreptococcales_Tissierellales.Anaerovoracaceae'
p379
(lp380
F0.0
aF0.0
aF0.0
aF118.3005284090269
aF0.0
aF1032.4578950764667
aF0.0
aF49.53468356624954
aF0.0
aF0.0
aF1893.4612471598082
aF0.0
aF0.0
aF0.0
asS'Bacteria.Firmicutes'
p381
(lp382
F499590.134720935
aF611855.6261660999
aF234482.72937744347
aF421589.2830987979
aF283159.5175478373
aF786904.9923641136
aF853749.4647220334
aF473087.18723491207
aF303348.5712846475
aF572347.4532073942
aF889106.2862913406
aF793083.062370677
aF215936.111795999
aF443231.12274295546
asS'Bacteria.Desulfobacterota.Desulfovibrionia.Desulfovibrionales.Desulfovibrionaceae.uncultured'
p383
(lp384
F0.0
aF0.0
aF0.0
aF0.0
aF0.0
aF0.0
aF0.0
aF0.0
aF0.0
aF0.0
aF0.0
aF0.0
aF2624.397704905701
aF208.26246624412525
asS'Bacteria.Firmicutes.Clostridia.Monoglobales.Monoglobaceae.Monoglobus'
p385
(lp386
F5167.866562121319
aF9584.513245001752
aF55.12351908545842
aF169.00075487003843
aF0.0
aF2086.425329633693
aF60253.40688682333
aF16686.996526380313
aF340.0204012240736
aF1043.0549921770876
aF35344.60994698309
aF23056.458764410287
aF0.0
aF2280.4740053731716
asS'Bacteria.Proteobacteria'
p387
(lp388
F2673.0344286834406
aF5246.858041236137
aF5177.37052333421
aF5492.524533276249
aF2013.240228529972
aF4215.869738228906
aF41890.2239351117
aF7411.627028600087
aF9545.757930661028
aF16920.66987309498
aF58444.83716233275
aF11232.633757020396
aF9929.24991537571
aF5886.885712500608
asS'Bacteria.Firmicutes.Clostridia.Oscillospirales'
p389
(lp390
F641.5282628840257
aF0.0
aF0.0
aF0.0
aF0.0
aF0.0
aF0.0
aF210.52240515656055
aF0.0
aF0.0
aF0.0
aF0.0
aF0.0
aF0.0
asS'Bacteria.Actinobacteriota.Coriobacteriia.Coriobacteriales.Atopobiaceae'
p391
(lp392
F0.0
aF634.5478136513018
aF0.0
aF281.6679247833974
aF0.0
aF0.0
aF0.0
aF0.0
aF0.0
aF0.0
aF0.0
aF0.0
aF41.7897723711099
aF770.5711251032634
asS'Bacteria.Campilobacterota.Campylobacteria.Campylobacterales.Helicobacteraceae'
p393
(lp394
F0.0
aF66.29604023222555
aF0.0
aF0.0
aF0.0
aF193.5858553268375
aF0.0
aF0.0
aF0.0
aF0.0
aF0.0
aF0.0
aF639.3835172779814
aF458.17742573707557
asS'Bacteria.Proteobacteria.Gammaproteobacteria.Burkholderiales.Comamonadaceae'
p395
(lp396
F0.0
aF0.0
aF16.96108279552567
aF0.0
aF0.0
aF0.0
aF327.4641678631703
aF0.0
aF12.593348193484209
aF550.5012458712407
aF63.11537490532694
aF0.0
aF25.073863422665937
aF17.35520552034377
asS'Bacteria.Firmicutes.Bacilli.Erysipelotrichales.Erysipelatoclostridiaceae'
p397
(lp398
F775.179984318198
aF729.2564425544812
aF0.0
aF242.23441531372174
aF217.6475922735105
aF494.7194080574736
aF6650.041562759765
aF2049.497532553575
aF0.0
aF1245.8712406559657
aF2272.15349659177
aF0.0
aF3936.596557358552
aF20.826246624412526
asS'Bacteria.Chloroflexi.Chloroflexia.Chloroflexales.Chloroflexaceae'
p399
(lp400
F0.0
aF0.0
aF0.0
aF0.0
aF0.0
aF0.0
aF0.0
aF179.5632279276546
aF0.0
aF0.0
aF0.0
aF0.0
aF0.0
aF0.0
asS'Bacteria.Firmicutes.Clostridia.Lachnospirales.Lachnospiraceae.ASF356'
p401
(lp402
F142.5618361964502
aF0.0
aF33.92216559105134
aF152.10067938303456
aF0.0
aF0.0
aF0.0
aF0.0
aF0.0
aF0.0
aF0.0
aF0.0
aF0.0
aF0.0
asS'Bacteria.Firmicutes.Bacilli.Acholeplasmatales.Acholeplasmataceae.Anaeroplasma'
p403
(lp404
F365.3147052534036
aF104.1794917934973
aF29.681894892169918
aF0.0
aF217.6475922735105
aF0.0
aF0.0
aF371.5101267468716
aF0.0
aF0.0
aF1704.1151224438274
aF0.0
aF0.0
aF0.0
asS'Bacteria.Actinobacteriota.Coriobacteriia.Coriobacteriales.Eggerthellaceae'
p405
(lp406
F400.95516430251615
aF1013.3823292640192
aF203.53299354630803
aF360.5349437227486
aF217.6475922735105
aF4861.155922651697
aF25794.100607068183
aF204.33056971077937
aF251.86696386968416
aF3129.164976531263
aF17609.189598586217
aF0.0
aF434.6136326595429
aF732.3896729585073
asS'Bacteria.Firmicutes.Bacilli.Lactobacillales.Enterococcaceae'
p407
(lp408
F0.0
aF0.0
aF0.0
aF0.0
aF0.0
aF0.0
aF0.0
aF0.0
aF0.0
aF0.0
aF0.0
aF0.0
aF79.4005675051088
aF0.0
asS'Bacteria.Firmicutes.Clostridia.Lachnospirales.Lachnospiraceae._Eubacterium__ruminantium_group'
p409
(lp410
F2040.416280561693
aF58018.506066087684
aF3646.632801038019
aF0.0
aF0.0
aF98105.0095717451
aF0.0
aF0.0
aF0.0
aF0.0
aF0.0
aF0.0
aF0.0
aF0.0
asS'Bacteria.Firmicutes.Clostridia.Christensenellales'
p411
(lp412
F1220.6857224321047
aF1742.6387718185003
aF682.6835825199082
aF4016.5846074112465
aF1958.8283304615948
aF1333.5914478071027
aF167183.05246983547
aF1634.6445576862347
aF3135.743700177568
aF2549.6899808773255
aF177543.54960868467
aF0.0
aF0.0
aF2887.906198585204
asS'Bacteria.Proteobacteria.Gammaproteobacteria.Burkholderiales.Sutterellaceae.Parasutterella'
p413
(lp414
F1666.1914605460113
aF1628.988417134685
aF4070.6598709261607
aF3329.314870939757
aF1759.3180375442098
aF430.19078961519443
aF579.3596816040705
aF4179.488925902306
aF1725.2887025073364
aF0.0
aF0.0
aF0.0
aF5395.0596131102875
aF1596.6789078716272
asS'Bacteria.Firmicutes.Clostridia.uncultured.uncultured.uncultured'
p415
(lp416
F0.0
aF0.0
aF0.0
aF0.0
aF0.0
aF0.0
aF0.0
aF0.0
aF390.39379399801044
aF0.0
aF0.0
aF0.0
aF0.0
aF114.54435643426889
asS'Bacteria.Firmicutes.Bacilli.Erysipelotrichales.Erysipelotrichaceae.Dubosiella'
p417
(lp418
F0.0
aF0.0
aF178.09136935301953
aF0.0
aF0.0
aF0.0
aF23426.28277790372
aF0.0
aF0.0
aF318.7112476096657
aF24867.45771269881
aF0.0
aF75.22159026799781
aF56036.48758408597
asS'Bacteria.Proteobacteria.Gammaproteobacteria.Burkholderiales.Comamonadaceae.Comamonas'
p419
(lp420
F0.0
aF0.0
aF0.0
aF0.0
aF0.0
aF0.0
aF0.0
aF0.0
aF226.68026748271572
aF0.0
aF1640.9997475385005
aF0.0
aF0.0
aF0.0
asS'Bacteria.Acidobacteriota'
p421
(lp422
F0.0
aF0.0
aF0.0
aF0.0
aF0.0
aF0.0
aF377.84327061135036
aF0.0
aF0.0
aF0.0
aF0.0
aF0.0
aF0.0
aF0.0
asS'Bacteria.Proteobacteria.Gammaproteobacteria.Burkholderiales.Sutterellaceae'
p423
(lp424
F1666.1914605460113
aF1628.988417134685
aF4070.6598709261607
aF3329.314870939757
aF1759.3180375442098
aF430.19078961519443
aF579.3596816040705
aF4179.488925902306
aF1725.2887025073364
aF0.0
aF0.0
aF0.0
aF5395.0596131102875
aF1596.6789078716272
asS'Bacteria.Firmicutes.Clostridia.Oscillospirales.Ruminococcaceae._Eubacterium__siraeum_group'
p425
(lp426
F46653.36089528832
aF615.6060878706659
aF517.313025263533
aF0.0
aF0.0
aF17035.5552687617
aF0.0
aF66413.62699144908
aF3299.457226692862
aF4925.537463058469
aF0.0
aF0.0
aF0.0
aF3727.8981457698424
asS'Bacteria.Firmicutes.Bacilli.Erysipelotrichales.Erysipelatoclostridiaceae.Erysipelatoclostridiaceae'
p427
(lp428
F0.0
aF0.0
aF0.0
aF22.533433982671788
aF0.0
aF0.0
aF0.0
aF0.0
aF0.0
aF0.0
aF0.0
aF0.0
aF0.0
aF0.0
asS'Bacteria.Firmicutes.Clostridia.Oscillospirales.Ruminococcaceae.Fournierella'
p429
(lp430
F1185.045263382992
aF0.0
aF186.57191075078237
aF6253.027930191422
aF1450.98394849007
aF0.0
aF0.0
aF154.79588614452982
aF0.0
aF0.0
aF0.0
aF0.0
aF0.0
aF281.1543294295691
asS'Bacteria.Firmicutes.Clostridia.Clostridia'
p431
(lp432
F178.2022952455627
aF113.65035468381525
aF0.0
aF112.66716991335895
aF0.0
aF0.0
aF0.0
aF0.0
aF0.0
aF0.0
aF0.0
aF0.0
aF0.0
aF76.3629042895126
asS'Bacteria.Firmicutes.Bacilli.Erysipelotrichales.Erysipelotrichaceae.Turicibacter'
p433
(lp434
F0.0
aF9593.98410789207
aF1607.0625948760571
aF8083.869441283505
aF798.0411716695385
aF0.0
aF7078.263936119296
aF1126.9140511321773
aF5616.633294293956
aF100625.83299530626
aF67975.25877303712
aF0.0
aF2891.852248080805
aF8958.757089601455
asS'Bacteria.Firmicutes.Clostridia.Clostridia_vadinBB60_group.Clostridia_vadinBB60_group'
p435
(lp436
F739.5395252690853
aF947.0862890317937
aF407.06598709261607
aF816.8369818718523
aF0.0
aF731.3243423458306
aF0.0
aF12588.001461273165
aF0.0
aF0.0
aF315.5768745266347
aF0.0
aF3752.7215589256684
aF173.5520552034377
asS'Bacteria.Firmicutes.Bacilli.Lactobacillales.Streptococcaceae.Streptococcus'
p437
(lp438
F0.0
aF0.0
aF203.53299354630803
aF180.2674718613743
aF0.0
aF0.0
aF5063.099826192094
aF0.0
aF503.7339277393683
aF0.0
aF4354.960868467559
aF0.0
aF894.3011287417518
aF787.9263306236072
asS'Bacteria.Firmicutes.Bacilli.Lactobacillales.Streptococcaceae'
p439
(lp440
F0.0
aF0.0
aF203.53299354630803
aF180.2674718613743
aF0.0
aF0.0
aF5063.099826192094
aF0.0
aF503.7339277393683
aF0.0
aF4354.960868467559
aF0.0
aF894.3011287417518
aF787.9263306236072
asS'Bacteria.Bacteroidota.Bacteroidia.Bacteroidales.Prevotellaceae'
p441
(lp442
F0.0
aF0.0
aF0.0
aF0.0
aF0.0
aF0.0
aF0.0
aF0.0
aF0.0
aF0.0
aF0.0
aF0.0
aF4350.31530383254
aF1197.50918090372
asS'Bacteria.Proteobacteria.Gammaproteobacteria.Burkholderiales.Alcaligenaceae'
p443
(lp444
F0.0
aF47.35431445158969
aF0.0
aF0.0
aF0.0
aF0.0
aF957.2029522154209
aF0.0
aF0.0
aF0.0
aF0.0
aF0.0
aF0.0
aF284.62537053363786
asS'Bacteria.Firmicutes.Clostridia.Lachnospirales.Lachnospiraceae._Eubacterium__hallii_group'
p445
(lp446
F0.0
aF0.0
aF0.0
aF0.0
aF0.0
aF0.0
aF0.0
aF260.0570887228101
aF0.0
aF0.0
aF0.0
aF0.0
aF0.0
aF0.0
asS'Bacteria.Firmicutes.Bacilli.Lactobacillales.Enterococcaceae.Enterococcus'
p447
(lp448
F0.0
aF0.0
aF0.0
aF0.0
aF0.0
aF0.0
aF0.0
aF0.0
aF0.0
aF0.0
aF0.0
aF0.0
aF79.4005675051088
aF0.0
asS'Bacteria.Firmicutes.Clostridia.Lachnospirales'
p449
(lp450
F238158.4574809323
aF178203.75614422228
aF36517.21125876676
aF129263.04404159672
aF73564.88618844654
aF210255.7484244263
aF95468.39970780119
aF93131.39693999494
aF75119.3219741333
aF89036.3330822275
aF59454.68316081798
aF142477.09133904817
aF108507.14396158684
aF31385.153662989676
asS'Bacteria.Firmicutes.Clostridia.Eubacteriales'
p451
(lp452
F0.0
aF75.7669031225435
aF0.0
aF0.0
aF0.0
aF0.0
aF0.0
aF111.45303802406147
aF365.207097611042
aF1187.923741090572
aF0.0
aF0.0
aF91.93749921644176
aF0.0
asS'Bacteria.Firmicutes.Clostridia.Oscillospirales.Ruminococcaceae.Incertae_Sedis'
p453
(lp454
F8010.193171288045
aF6809.550418138597
aF212.01353494407084
aF1413.9729824126548
aF326.4713884102657
aF2796.2401324987636
aF15390.815889569003
aF9696.414308093348
aF2632.0097724381994
aF9416.468679376485
aF18808.381721787428
aF19509.31126219332
aF631.0255628037595
aF1718.1653465140334
asS'Bacteria.Firmicutes.Clostridia.Clostridia_vadinBB60_group.Clostridia_vadinBB60_group.Clostridia_vadinBB60_group'
p455
(lp456
F739.5395252690853
aF947.0862890317937
aF407.06598709261607
aF816.8369818718523
aF0.0
aF731.3243423458306
aF0.0
aF12588.001461273165
aF0.0
aF0.0
aF315.5768745266347
aF0.0
aF3752.7215589256684
aF173.5520552034377
asS'Bacteria.Firmicutes.Bacilli.Erysipelotrichales.Erysipelatoclostridiaceae.Coprobacillus'
p457
(lp458
F0.0
aF0.0
aF0.0
aF0.0
aF0.0
aF0.0
aF0.0
aF0.0
aF0.0
aF0.0
aF0.0
aF0.0
aF3280.497131132127
aF0.0
asS'Bacteria.Proteobacteria.Alphaproteobacteria.Rhodospirillales.uncultured'
p459
(lp460
F133.65172143417203
aF0.0
aF330.7411145127505
aF174.63411336570638
aF0.0
aF0.0
aF0.0
aF0.0
aF0.0
aF0.0
aF0.0
aF0.0
aF1771.8863485350596
aF0.0
asS'Bacteria.Proteobacteria.Gammaproteobacteria.Pasteurellales'
p461
(lp462
F356.4045904911254
aF823.9650714576605
aF0.0
aF0.0
aF0.0
aF1204.5342109225444
aF1788.4581475603916
aF222.90607604812294
aF0.0
aF0.0
aF0.0
aF0.0
aF1391.5994199579595
aF666.4398919812008
asS'Bacteria.Proteobacteria.Gammaproteobacteria.Burkholderiales.Burkholderiaceae'
p463
(lp464
F106.92137714733762
aF378.8345156127175
aF241.69542983624075
aF78.86701893935125
aF0.0
aF0.0
aF12619.965238419101
aF247.6734178312477
aF982.2811590917682
aF1970.2149852233879
aF5932.845241100732
aF0.0
aF171.33806672155055
aF267.2701650132941
asS'Bacteria.Firmicutes.Bacilli'
p465
(lp466
F0.0
aF899.731974580204
aF2433.915381157933
aF6850.163930732224
aF3990.2058583476924
aF3376.997698479276
aF4357.7923877175745
aF23665.195073775718
aF8651.63020892365
aF23497.71107376717
aF27960.111083059834
aF10937.03813183565
aF1721.7386216897278
aF1756.3467986587898
asS'Archaea.Euryarchaeota'
p467
(lp468
F0.0
aF0.0
aF0.0
aF0.0
aF0.0
aF0.0
aF0.0
aF0.0
aF0.0
aF0.0
aF0.0
aF0.0
aF83.5795447422198
aF461.64846684114434
asS'Bacteria.Firmicutes.Clostridia.Oscillospirales.Ruminococcaceae.Negativibacillus'
p469
(lp470
F0.0
aF151.533806245087
aF0.0
aF0.0
aF0.0
aF0.0
aF0.0
aF501.5386711082766
aF0.0
aF0.0
aF0.0
aF0.0
aF0.0
aF0.0
asS'Bacteria.Proteobacteria.Gammaproteobacteria.Enterobacterales.Morganellaceae.Proteus'
p471
(lp472
F0.0
aF0.0
aF0.0
aF0.0
aF0.0
aF0.0
aF0.0
aF0.0
aF0.0
aF0.0
aF0.0
aF0.0
aF238.20170251532642
aF0.0
asS'Bacteria.Verrucomicrobiota.Verrucomicrobiae'
p473
(lp474
F588.067574310357
aF11762.811709774878
aF37619.68164047594
aF7914.868686413466
aF471.56978325927275
aF16691.402637069543
aF0.0
aF6699.565952335251
aF82587.17745286944
aF24627.68731529235
aF0.0
aF0.0
aF0.0
aF0.0
asS'Bacteria.Firmicutes.Clostridia.Peptostreptococcales_Tissierellales.Anaerovoracaceae._Eubacterium__nodatum_group'
p475
(lp476
F989.0227386128731
aF644.0186765416197
aF780.2098085941808
aF0.0
aF0.0
aF1333.5914478071027
aF0.0
aF402.4693039757775
aF1498.6084350246208
aF1854.3199860926002
aF0.0
aF0.0
aF0.0
aF479.0036723614881
asS'Bacteria.Chloroflexi.Chloroflexia.Chloroflexales.Chloroflexaceae.FFCH7168'
p477
(lp478
F0.0
aF0.0
aF0.0
aF0.0
aF0.0
aF0.0
aF0.0
aF179.5632279276546
aF0.0
aF0.0
aF0.0
aF0.0
aF0.0
aF0.0
asS'Bacteria.Firmicutes.Clostridia.Oscillospirales.Oscillospiraceae.Papillibacter'
p479
(lp480
F8705.182122745739
aF1562.6923769024597
aF742.047372304248
aF1278.7723785166243
aF1070.1006620114265
aF5162.289475382333
aF0.0
aF526.3060128914015
aF0.0
aF0.0
aF0.0
aF0.0
aF0.0
aF177.02309630750645
asS'Bacteria.Firmicutes.Clostridia.Lachnospirales.Lachnospiraceae.Eisenbergiella'
p481
(lp482
F0.0
aF0.0
aF0.0
aF0.0
aF0.0
aF0.0
aF0.0
aF0.0
aF0.0
aF0.0
aF0.0
aF0.0
aF1913.9715745968333
aF0.0
asS'Bacteria.Firmicutes.Bacilli.Izemoplasmatales.Izemoplasmatales'
p483
(lp484
F0.0
aF104.1794917934973
aF0.0
aF236.6010568180538
aF0.0
aF0.0
aF0.0
aF117.64487346984266
aF0.0
aF0.0
aF0.0
aF0.0
aF0.0
aF0.0
asS'Bacteria.Bacteroidota.Bacteroidia.Bacteroidales.Rikenellaceae.Rikenella'
p485
(lp486
F0.0
aF0.0
aF0.0
aF0.0
aF0.0
aF0.0
aF0.0
aF0.0
aF0.0
aF0.0
aF0.0
aF0.0
aF430.43465542243194
aF0.0
asS'Bacteria.Proteobacteria.Alphaproteobacteria.Sphingomonadales'
p487
(lp488
F0.0
aF0.0
aF0.0
aF0.0
aF0.0
aF0.0
aF604.5492329781605
aF0.0
aF0.0
aF0.0
aF0.0
aF0.0
aF0.0
aF65.94978097730633
asS'Bacteria.Deferribacterota.Deferribacteres.Deferribacterales.Deferribacteraceae'
p489
(lp490
F677.1687219331384
aF0.0
aF0.0
aF67.60030194801537
aF0.0
aF0.0
aF0.0
aF0.0
aF125.93348193484208
aF0.0
aF0.0
aF0.0
aF0.0
aF0.0
asS'Bacteria.Firmicutes.Bacilli.Bacillales.Bacillaceae.Bacillus'
p491
(lp492
F0.0
aF0.0
aF0.0
aF0.0
aF0.0
aF0.0
aF0.0
aF0.0
aF0.0
aF0.0
aF0.0
aF0.0
aF0.0
aF79.83394539358135
asS'Bacteria.Firmicutes.Clostridia.Lachnospirales.Lachnospiraceae.Lachnospiraceae_NK4B4_group'
p493
(lp494
F0.0
aF0.0
aF0.0
aF0.0
aF0.0
aF0.0
aF0.0
aF0.0
aF314.8337048371052
aF0.0
aF0.0
aF0.0
aF0.0
aF0.0
asS'Bacteria.Firmicutes.Clostridia.Clostridia_UCG_014'
p495
(lp496
F11583.149190961576
aF70794.70010512658
aF22872.020149766366
aF70670.4823281544
aF52833.95302439468
aF71304.12337871848
aF275221.03831330757
aF35850.727231073106
aF116198.82378127878
aF175957.58243031817
aF166182.78212572582
aF80402.01005025125
aF8.35795447422198
aF175846.41337322717
asS'Bacteria.Proteobacteria.Gammaproteobacteria.Enterobacterales.Enterobacteriaceae.Escherichia_Shigella'
p497
(lp498
F409.86527906479427
aF2367.7157225794845
aF432.50761128590455
aF1785.7746431267394
aF253.92219098576223
aF2581.1447376911665
aF9874.304138643287
aF2024.73019077045
aF4243.9583412041775
aF10024.91742481312
aF27896.995708154507
aF11232.633757020396
aF936.0909011128616
aF1690.3970176814835
asS'Bacteria.Verrucomicrobiota.Verrucomicrobiae.Verrucomicrobiales.Akkermansiaceae'
p499
(lp500
F588.067574310357
aF11762.811709774878
aF37619.68164047594
aF7914.868686413466
aF471.56978325927275
aF16691.402637069543
aF0.0
aF6699.565952335251
aF82587.17745286944
aF24627.68731529235
aF0.0
aF0.0
aF0.0
aF0.0
asS'Bacteria.Firmicutes.Clostridia.Oscillospirales._Eubacterium__coprostanoligenes_group._Eubacterium__coprostanoligenes_group'
p501
(lp502
F4134.293249697055
aF86857.2835671058
aF21553.295962414246
aF18640.783262165238
aF32193.70635712343
aF105955.9914822224
aF2921.9879593944424
aF13269.103360309096
aF22516.906569949766
aF58034.420814741854
aF7384.498863923252
aF90747.85693171741
aF50005.6416192701
aF38584.09291282827
asS'Bacteria.Actinobacteriota.Coriobacteriia.Coriobacteriales.uncultured'
p503
(lp504
F178.2022952455627
aF492.48487029653273
aF0.0
aF146.4673208873666
aF0.0
aF623.7766449420319
aF12015.41600544094
aF575.840696457651
aF805.9742843829894
aF1129.9762415251782
aF5869.7298661954055
aF0.0
aF0.0
aF531.0692889225194
asS'Bacteria.Desulfobacterota.Desulfovibrionia.Desulfovibrionales.Desulfovibrionaceae'
p505
(lp506
F0.0
aF0.0
aF0.0
aF0.0
aF0.0
aF0.0
aF0.0
aF1820.3996210596708
aF0.0
aF0.0
aF0.0
aF0.0
aF3723.4687182658913
aF3405.091323091448
asS'Bacteria.Proteobacteria.Gammaproteobacteria.Pseudomonadales'
p507
(lp508
F0.0
aF0.0
aF84.80541397762833
aF33.800150974007686
aF0.0
aF0.0
aF7985.0877855865365
aF173.3713924818734
aF302.240356643621
aF2028.1624847887815
aF8078.767987881848
aF0.0
aF0.0
aF572.7217821713446
asS'Bacteria.Firmicutes.Clostridia.Oscillospirales.Butyricicoccaceae.UCG_008'
p509
(lp510
F0.0
aF0.0
aF0.0
aF0.0
aF0.0
aF1935.858553268375
aF0.0
aF0.0
aF0.0
aF0.0
aF0.0
aF0.0
aF0.0
aF0.0
asS'Bacteria.Firmicutes.Clostridia.Oscillospirales.Butyricicoccaceae.UCG_009'
p511
(lp512
F1202.8654929075483
aF1032.324055044655
aF0.0
aF529.5356985927871
aF0.0
aF1527.17730313394
aF0.0
aF532.4978483371825
aF1385.2683012832629
aF579.4749956539375
aF0.0
aF0.0
aF0.0
aF138.84164416275016
asS'Bacteria.Firmicutes.Clostridia.Oscillospirales.Butyricicoccaceae.Butyricicoccus'
p513
(lp514
F454.41585287618494
aF104.1794917934973
aF301.0592196205806
aF0.0
aF0.0
aF365.6621711729153
aF0.0
aF117.64487346984266
aF0.0
aF0.0
aF0.0
aF0.0
aF2904.389179792138
aF0.0
asS'Bacteria.Firmicutes.Clostridia.Peptostreptococcales_Tissierellales.Anaerovoracaceae.Family_XIII_AD3011_group'
p515
(lp516
F712.8091809822508
aF388.3053785030354
aF343.46192660939477
aF383.0683777054204
aF0.0
aF0.0
aF0.0
aF346.74278496374683
aF1826.0354880552102
aF0.0
aF0.0
aF0.0
aF0.0
aF447.7643024248693
asS'Bacteria.Proteobacteria.Alphaproteobacteria.Rhizobiales.Beijerinckiaceae'
p517
(lp518
F0.0
aF0.0
aF0.0
aF0.0
aF0.0
aF0.0
aF0.0
aF0.0
aF0.0
aF0.0
aF883.6152486745772
aF0.0
aF0.0
aF0.0
asS'Bacteria.Bacteroidota.Bacteroidia.Bacteroidales.Bacteroidaceae.Bacteroides'
p519
(lp520
F9542.732910399884
aF1108.0909581671986
aF33311.56661041241
aF8962.673366607703
aF14926.997370091596
aF5183.799014863093
aF0.0
aF4699.603103347926
aF4193.584948430241
aF202.81624847887815
aF0.0
aF0.0
aF40795.17578867748
aF315.8647404702566
asS'Bacteria.Firmicutes.Bacilli.Erysipelotrichales.Erysipelotrichaceae._Clostridium__innocuum_group'
p521
(lp522
F0.0
aF0.0
aF0.0
aF0.0
aF0.0
aF0.0
aF0.0
aF0.0
aF0.0
aF0.0
aF0.0
aF0.0
aF2461.417592658373
aF0.0
asS'Bacteria.Firmicutes.Clostridia.Christensenellales.Christensenellaceae'
p523
(lp524
F1220.6857224321047
aF1742.6387718185003
aF682.6835825199082
aF4016.5846074112465
aF1958.8283304615948
aF1333.5914478071027
aF167183.05246983547
aF1634.6445576862347
aF3135.743700177568
aF2549.6899808773255
aF177543.54960868467
aF0.0
aF0.0
aF2887.906198585204
asS'Bacteria.Actinobacteriota.Actinobacteria.Micrococcales.Intrasporangiaceae'
p525
(lp526
F0.0
aF28.412588670953813
aF0.0
aF0.0
aF0.0
aF0.0
aF0.0
aF0.0
aF0.0
aF0.0
aF0.0
aF0.0
aF0.0
aF0.0
asS'Archaea.Euryarchaeota.Methanobacteria.Methanobacteriales.Methanobacteriaceae'
p527
(lp528
F0.0
aF0.0
aF0.0
aF0.0
aF0.0
aF0.0
aF0.0
aF0.0
aF0.0
aF0.0
aF0.0
aF0.0
aF83.5795447422198
aF461.64846684114434
asS'Bacteria.Firmicutes.Clostridia.Eubacteriales.Anaerofustaceae.Anaerofustis'
p529
(lp530
F0.0
aF75.7669031225435
aF0.0
aF0.0
aF0.0
aF0.0
aF0.0
aF111.45303802406147
aF365.207097611042
aF1187.923741090572
aF0.0
aF0.0
aF0.0
aF0.0
asS'Bacteria.Firmicutes.Bacilli.Lactobacillales'
p531
(lp532
F8580.440516073844
aF61835.26381088581
aF82969.37676501268
aF42965.625246459436
aF50040.80892355129
aF265879.4175216709
aF82999.57177762664
aF55299.28236627183
aF5717.380079841831
aF43315.75592513184
aF135066.90229739965
aF388117.0558675732
aF10088.05105038593
aF15553.73518733209
asS'Bacteria.Firmicutes.Clostridia.Oscillospirales.Oscillospiraceae.Intestinimonas'
p533
(lp534
F0.0
aF0.0
aF0.0
aF0.0
aF0.0
aF0.0
aF0.0
aF0.0
aF0.0
aF0.0
aF0.0
aF0.0
aF62.68465855666485
aF0.0
asS'Bacteria.Actinobacteriota.Actinobacteria'
p535
(lp536
F0.0
aF28.412588670953813
aF3345.5735814174377
aF2918.079700755997
aF1360.2974517094406
aF0.0
aF3325.020781379883
aF0.0
aF0.0
aF4606.826215448804
aF2650.8457460237314
aF0.0
aF121.19033987621869
aF2110.3929912738026
asS'Bacteria.Firmicutes.Clostridia.Peptostreptococcales_Tissierellales.Anaerovoracaceae._Eubacterium__brachy_group'
p537
(lp538
F115.83149190961576
aF0.0
aF0.0
aF78.86701893935125
aF0.0
aF0.0
aF0.0
aF0.0
aF0.0
aF0.0
aF1704.1151224438274
aF0.0
aF0.0
aF59.00769876916882
asS'Bacteria.Proteobacteria.Gammaproteobacteria.Burkholderiales.Oxalobacteraceae'
p539
(lp540
F0.0
aF0.0
aF0.0
aF0.0
aF0.0
aF0.0
aF654.9283357263406
aF0.0
aF0.0
aF434.6062467404532
aF0.0
aF0.0
aF0.0
aF0.0
asS'Bacteria.Firmicutes.Clostridia.uncultured.uncultured'
p541
(lp542
F0.0
aF0.0
aF0.0
aF0.0
aF0.0
aF0.0
aF0.0
aF0.0
aF390.39379399801044
aF0.0
aF0.0
aF0.0
aF0.0
aF114.54435643426889
asS'Bacteria.Firmicutes.Clostridia.Oscillospirales.Ruminococcaceae'
p543
(lp544
F36914.60546011832
aF60869.23579607338
aF4829.668326025934
aF5853.0594769989975
aF7672.077627641244
aF4215.869738228906
aF352.6537192372603
aF10916.205890912242
aF9583.537975241481
aF1245.8712406559657
aF820.4998737692503
aF14484.185634052616
aF292.5284065977693
aF999.6598379718013
asS'Bacteria.Verrucomicrobiota.Verrucomicrobiae.Verrucomicrobiales'
p545
(lp546
F588.067574310357
aF11762.811709774878
aF37619.68164047594
aF7914.868686413466
aF471.56978325927275
aF16691.402637069543
aF0.0
aF6699.565952335251
aF82587.17745286944
aF24627.68731529235
aF0.0
aF0.0
aF0.0
aF0.0
asS'Bacteria.Firmicutes.Clostridia.Oscillospirales.Ruminococcaceae.uncultured'
p547
(lp548
F1425.6183619645017
aF511.4265960771686
aF0.0
aF918.2374347938754
aF0.0
aF129.05723688455834
aF881.6342980931507
aF2978.272849420754
aF390.39379399801044
aF434.6062467404532
aF0.0
aF0.0
aF534.9090863502067
aF59.00769876916882
asS'Archaea.Euryarchaeota.Methanobacteria.Methanobacteriales'
p549
(lp550
F0.0
aF0.0
aF0.0
aF0.0
aF0.0
aF0.0
aF0.0
aF0.0
aF0.0
aF0.0
aF0.0
aF0.0
aF83.5795447422198
aF461.64846684114434
asS'Bacteria.Firmicutes.Clostridia.Oscillospirales.Oscillospiraceae.Oscillibacter'
p551
(lp552
F13792.857652006554
aF2964.3800846695144
aF508.8324838657701
aF4861.5883817614385
aF1251.4736555726854
aF1118.4960529995055
aF831.2551953449707
aF6142.3007622149435
aF478.5472313523999
aF0.0
aF0.0
aF0.0
aF317.6022700204352
aF1086.4358655735202
asS'Bacteria.Firmicutes.Clostridia.Lachnospirales.Lachnospiraceae.Coprococcus'
p553
(lp554
F0.0
aF0.0
aF0.0
aF0.0
aF0.0
aF0.0
aF7380.538552608376
aF359.1264558553092
aF0.0
aF0.0
aF5617.268366574097
aF0.0
aF0.0
aF0.0
asS'Bacteria.Patescibacteria.Saccharimonadia.Saccharimonadales.Saccharimonadaceae.Candidatus_Saccharimonas'
p555
(lp556
F507.8765414498538
aF1288.0373530832394
aF1178.7952542890341
aF332.3681512444089
aF0.0
aF2129.4444085952123
aF6347.766946270685
aF1486.0405069874864
aF1234.1481229614524
aF9851.074926116939
aF15778.843726331736
aF2955.9562518474727
aF0.0
aF22804.74005373172
asS'Bacteria.Firmicutes.Clostridia.Lachnospirales.Lachnospiraceae.Lachnospiraceae_FCS020_group'
p557
(lp558
F0.0
aF426.1888300643071
aF0.0
aF0.0
aF0.0
aF0.0
aF0.0
aF253.8652532770289
aF743.0075434155683
aF0.0
aF0.0
aF0.0
aF0.0
aF0.0
asS'Bacteria.Firmicutes.Clostridia.Lachnospirales.Lachnospiraceae'
p559
(lp560
F163331.3137073205
aF67176.83048102513
aF16261.438130210234
aF70878.9165924941
aF37653.03346331731
aF36845.841130541405
aF46348.77452832564
aF34717.62134449515
aF26080.824108705794
aF34189.02474358232
aF42918.454935622314
aF125332.54507833283
aF22315.738446172683
aF8059.757443647647
asS'Bacteria.Firmicutes.Bacilli.Erysipelotrichales.Erysipelatoclostridiaceae.Erysipelatoclostridium'
p561
(lp562
F445.50573811390683
aF0.0
aF0.0
aF0.0
aF0.0
aF0.0
aF6398.146049018865
aF786.3631016142115
aF0.0
aF0.0
aF2272.15349659177
aF0.0
aF656.0994262264253
aF0.0
asS'Bacteria.Proteobacteria.Gammaproteobacteria.Burkholderiales.Burkholderiaceae.Burkholderia_Caballeronia_Paraburkholderia'
p563
(lp564
F106.92137714733762
aF378.8345156127175
aF241.69542983624075
aF78.86701893935125
aF0.0
aF0.0
aF12619.965238419101
aF247.6734178312477
aF982.2811590917682
aF1970.2149852233879
aF5932.845241100732
aF0.0
aF171.33806672155055
aF267.2701650132941
asS'Bacteria.Patescibacteria.Saccharimonadia'
p565
(lp566
F507.8765414498538
aF1288.0373530832394
aF1178.7952542890341
aF332.3681512444089
aF0.0
aF2129.4444085952123
aF6347.766946270685
aF1486.0405069874864
aF1234.1481229614524
aF9851.074926116939
aF15778.843726331736
aF2955.9562518474727
aF0.0
aF22804.74005373172
asS'Bacteria.Firmicutes.Clostridia.Peptostreptococcales_Tissierellales.Peptostreptococcaceae'
p567
(lp568
F285.1236723929004
aF20419.18039152547
aF1344.1658115454093
aF10359.746273533356
aF1940.6910311054687
aF0.0
aF9823.925035895109
aF1832.7832919512332
aF856.3476771569261
aF22338.761082459296
aF50870.992173693514
aF0.0
aF5052.383479667186
aF7542.572319141404
asS'Bacteria.Firmicutes.Bacilli.Erysipelotrichales.Erysipelotrichaceae.Holdemania'
p569
(lp570
F0.0
aF0.0
aF182.33164005190093
aF0.0
aF0.0
aF0.0
aF0.0
aF0.0
aF0.0
aF0.0
aF0.0
aF0.0
aF1433.3891923290694
aF0.0
asS'Bacteria.Firmicutes.Clostridia.Oscillospirales._Eubacterium__coprostanoligenes_group'
p571
(lp572
F4134.293249697055
aF86857.2835671058
aF21553.295962414246
aF18640.783262165238
aF32193.70635712343
aF105955.9914822224
aF2921.9879593944424
aF13269.103360309096
aF22516.906569949766
aF58034.420814741854
aF7384.498863923252
aF90747.85693171741
aF50005.6416192701
aF38584.09291282827
asS'Bacteria.Firmicutes.Negativicutes.Veillonellales_Selenomonadales.Selenomonadaceae.Quinella'
p573
(lp574
F0.0
aF0.0
aF0.0
aF0.0
aF0.0
aF0.0
aF0.0
aF0.0
aF0.0
aF0.0
aF0.0
aF0.0
aF7095.90334861446
aF1044.783372324695
asS'Bacteria.Firmicutes.Clostridia.Peptococcales.Peptococcaceae.uncultured'
p575
(lp576
F3537.31556062442
aF4441.834695559112
aF7060.05071363756
aF6731.863402323197
aF2829.4186995556365
aF516.2289475382333
aF226.70596236681018
aF780.1712661684303
aF579.2940169002735
aF434.6062467404532
aF1325.4228730118657
aF0.0
aF0.0
aF142.31268526681893
asS'Bacteria.Bacteroidota.Bacteroidia.Bacteroidales.Prevotellaceae.Prevotellaceae_Ga6A1_group'
p577
(lp578
F0.0
aF0.0
aF0.0
aF0.0
aF0.0
aF0.0
aF0.0
aF0.0
aF0.0
aF0.0
aF0.0
aF0.0
aF20443.55664394696
aF0.0
asS'Bacteria.Firmicutes.Clostridia.Oscillospirales.Butyricicoccaceae'
p579
(lp580
F0.0
aF151.533806245087
aF0.0
aF0.0
aF0.0
aF0.0
aF0.0
aF0.0
aF0.0
aF0.0
aF0.0
aF0.0
aF0.0
aF0.0
asS'Bacteria.Deferribacterota.Deferribacteres'
p581
(lp582
F677.1687219331384
aF0.0
aF0.0
aF67.60030194801537
aF0.0
aF0.0
aF0.0
aF0.0
aF125.93348193484208
aF0.0
aF0.0
aF0.0
aF0.0
aF0.0
asS'Bacteria.Firmicutes.Clostridia.Clostridiales.Clostridiaceae'
p583
(lp584
F35.64045904911255
aF7434.62736889958
aF1492.575286006259
aF822.4703403675204
aF0.0
aF0.0
aF11839.08914582231
aF371.51012674687155
aF100.74678554787367
aF0.0
aF48472.60792729109
aF3251.55187703222
aF1028.0284003293034
aF20520.795007254477
asS'Bacteria.Elusimicrobiota.Elusimicrobia.Elusimicrobiales.Elusimicrobiaceae'
p585
(lp586
F0.0
aF0.0
aF0.0
aF0.0
aF0.0
aF0.0
aF0.0
aF0.0
aF0.0
aF0.0
aF0.0
aF0.0
aF91.93749921644176
aF190.9072607237815
asS'Bacteria.Proteobacteria.Gammaproteobacteria.Enterobacterales.Morganellaceae'
p587
(lp588
F0.0
aF0.0
aF0.0
aF0.0
aF0.0
aF0.0
aF0.0
aF0.0
aF0.0
aF0.0
aF0.0
aF0.0
aF238.20170251532642
aF0.0
asS'Bacteria.Bacteroidota.Bacteroidia.Bacteroidales.Muribaculaceae'
p589
(lp590
F391599.5438021241
aF332067.39466032747
aF391186.1733253051
aF535349.3245603164
aF575242.5863788883
aF166440.81650211875
aF47154.84017229652
aF383961.9078283376
aF446673.4670746913
aF333285.0437503622
aF8836.152486745772
aF146319.8344664499
aF397888.7806998115
aF491381.4049385973
asS'Archaea'
p591
(lp592
F0.0
aF0.0
aF0.0
aF0.0
aF0.0
aF0.0
aF0.0
aF0.0
aF0.0
aF0.0
aF0.0
aF0.0
aF83.5795447422198
aF461.64846684114434
asS'Bacteria.Firmicutes.Clostridia.Lachnospirales.Lachnospiraceae.Blautia'
p593
(lp594
F0.0
aF0.0
aF411.30625779149744
aF923.8707932895434
aF0.0
aF0.0
aF3828.8118088616834
aF464.3876584335895
aF465.9538831589157
aF695.3699947847251
aF0.0
aF0.0
aF22658.414579615783
aF79.83394539358135
asS'Bacteria.Patescibacteria.Saccharimonadia.Saccharimonadales'
p595
(lp596
F507.8765414498538
aF1288.0373530832394
aF1178.7952542890341
aF332.3681512444089
aF0.0
aF2129.4444085952123
aF6347.766946270685
aF1486.0405069874864
aF1234.1481229614524
aF9851.074926116939
aF15778.843726331736
aF2955.9562518474727
aF0.0
aF22804.74005373172
asS'Archaea.Euryarchaeota.Methanobacteria'
p597
(lp598
F0.0
aF0.0
aF0.0
aF0.0
aF0.0
aF0.0
aF0.0
aF0.0
aF0.0
aF0.0
aF0.0
aF0.0
aF83.5795447422198
aF461.64846684114434
asS'Bacteria.Proteobacteria.Gammaproteobacteria.Enterobacterales'
p599
(lp600
F409.86527906479427
aF2367.7157225794845
aF432.50761128590455
aF1785.7746431267394
aF253.92219098576223
aF2581.1447376911665
aF9874.304138643287
aF2024.73019077045
aF4382.485171332504
aF10024.91742481312
aF27896.995708154507
aF11232.633757020396
aF1174.2926036281879
aF1690.3970176814835
asS'Bacteria.Bacteroidota.Bacteroidia.Bacteroidales.Prevotellaceae.Prevotella'
p601
(lp602
F0.0
aF0.0
aF0.0
aF0.0
aF0.0
aF0.0
aF0.0
aF0.0
aF226.68026748271572
aF0.0
aF0.0
aF0.0
aF130384.08979786286
aF805.281536143951
asS'Bacteria.Firmicutes.Clostridia.Oscillospirales.Ruminococcaceae.Subdoligranulum'
p603
(lp604
F0.0
aF0.0
aF0.0
aF0.0
aF0.0
aF0.0
aF3476.158089624423
aF650.1427218070252
aF0.0
aF0.0
aF0.0
aF0.0
aF0.0
aF48.59457545696256
asS'Bacteria.Firmicutes.Bacilli.Staphylococcales.Staphylococcaceae'
p605
(lp606
F0.0
aF0.0
aF0.0
aF0.0
aF0.0
aF0.0
aF1360.235774200861
aF0.0
aF0.0
aF0.0
aF0.0
aF0.0
aF0.0
aF76.3629042895126
asS'Bacteria.Firmicutes.Clostridia.uncultured'
p607
(lp608
F0.0
aF0.0
aF0.0
aF0.0
aF0.0
aF0.0
aF0.0
aF0.0
aF390.39379399801044
aF0.0
aF0.0
aF0.0
aF0.0
aF114.54435643426889
asS'Bacteria.Proteobacteria.Gammaproteobacteria.Burkholderiales.Comamonadaceae.Delftia'
p609
(lp610
F0.0
aF0.0
aF0.0
aF0.0
aF0.0
aF0.0
aF6498.904254515226
aF315.7836077348408
aF1914.1889254095995
aF1709.451237179116
aF12938.651855592021
aF0.0
aF0.0
aF513.7140834021757
asS'Bacteria.Firmicutes.Clostridia.Oscillospirales.Ruminococcaceae.Harryflintia'
p611
(lp612
F1202.8654929075483
aF0.0
aF0.0
aF0.0
aF0.0
aF0.0
aF0.0
aF0.0
aF0.0
aF0.0
aF0.0
aF0.0
aF0.0
aF0.0
asS'Bacteria.Actinobacteriota.Actinobacteria.Micrococcales.Micrococcaceae'
p613
(lp614
F0.0
aF0.0
aF72.0846018809841
aF90.13373593068715
aF0.0
aF0.0
aF1813.6476989344815
aF0.0
aF0.0
aF0.0
aF1767.2304973491543
aF0.0
aF121.19033987621869
aF131.89956195461266
asS'Bacteria.Firmicutes.Clostridia.Eubacteriales.Eubacteriaceae'
p615
(lp616
F0.0
aF0.0
aF0.0
aF0.0
aF0.0
aF0.0
aF0.0
aF0.0
aF0.0
aF0.0
aF0.0
aF0.0
aF91.93749921644176
aF0.0
asS'Bacteria.Actinobacteriota.Coriobacteriia.Coriobacteriales.Eggerthellaceae.Adlercreutzia'
p617
(lp618
F400.95516430251615
aF861.8485230189323
aF203.53299354630803
aF360.5349437227486
aF0.0
aF4495.493751478782
aF8488.878813068337
aF0.0
aF0.0
aF782.2912441328158
aF3471.3456197929813
aF0.0
aF434.6136326595429
aF263.79912390922533
asS'Bacteria.Firmicutes.Bacilli.Acholeplasmatales.Acholeplasmataceae'
p619
(lp620
F365.3147052534036
aF104.1794917934973
aF29.681894892169918
aF0.0
aF217.6475922735105
aF0.0
aF0.0
aF371.5101267468716
aF0.0
aF0.0
aF1704.1151224438274
aF0.0
aF0.0
aF0.0
asS'Bacteria.Firmicutes.Clostridia.Oscillospirales.Oscillospiraceae'
p621
(lp622
F63404.37664837122
aF27740.157405741236
aF8628.950872223682
aF32690.3793503611
aF13476.013421601525
aF18390.656256049562
aF7985.0877855865365
aF21696.191402017303
aF19318.196128804775
aF6374.224952193314
aF20196.91996970462
aF8867.868755542419
aF3000.5056562456903
aF10916.424272296234
asS'Bacteria.Firmicutes.Clostridia.Christensenellales.Christensenellaceae.uncultured'
p623
(lp624
F0.0
aF0.0
aF0.0
aF0.0
aF0.0
aF0.0
aF0.0
aF0.0
aF0.0
aF0.0
aF0.0
aF0.0
aF0.0
aF298.5095349499129
asS'Bacteria.Firmicutes.Clostridia.Oscillospirales.Oscillospiraceae.UCG_005'
p625
(lp626
F1701.831919595124
aF2216.181916334397
aF1000.7038849360144
aF1166.105208603265
aF0.0
aF14647.99638639737
aF2241.8700722940116
aF45708.12926075677
aF5452.919767778662
aF1680.477487396419
aF694.2691239585963
aF0.0
aF0.0
aF520.6561656103132
asS'Bacteria'
p627
(lp628
F1000000.0
aF1000000.0
aF1000000.0
aF1000000.0
aF1000000.0
aF1000000.0
aF1000000.0
aF998600.6451892534
aF1000000.0
aF1000000.0
aF1000000.0
aF1000000.0
aF999916.4204552578
aF999538.3515331589
asS'Bacteria.Firmicutes.Clostridia.Oscillospirales.Oscillospiraceae.UCG_007'
p629
(lp630
F0.0
aF0.0
aF0.0
aF129.5672454003628
aF0.0
aF0.0
aF0.0
aF0.0
aF0.0
aF0.0
aF0.0
aF0.0
aF0.0
aF256.85704170108784
assS'subclass_sl'
p631
(dp632
g12
(I0
I7
tp633
sg10
(I7
I14
tp634
ssS'norm'
p635
F1000000.0
sS'cls'
p636
(dp637
S'class'
p638
(S'STD-NC'
p639
S'STD-NC'
p640
S'STD-NC'
p641
S'STD-NC'
p642
S'STD-NC'
p643
S'STD-NC'
p644
g5
S'STD-NR'
p645
S'STD-NR'
p646
S'STD-NR'
p647
S'STD-NR'
p648
S'STD-NR'
p649
S'STD-NR'
p650
g3
tp651
sS'subclass'
p652
(lp653
S'STD-NC_subcl'
p654
aS'STD-NC_subcl'
p655
aS'STD-NC_subcl'
p656
aS'STD-NC_subcl'
p657
aS'STD-NC_subcl'
p658
aS'STD-NC_subcl'
p659
ag12
aS'STD-NR_subcl'
p660
aS'STD-NR_subcl'
p661
aS'STD-NR_subcl'
p662
aS'STD-NR_subcl'
p663
aS'STD-NR_subcl'
p664
aS'STD-NR_subcl'
p665
ag10
asS'subject'
p666
(S'S210421121682'
p667
S'S210421121683'
p668
S'S210421121684'
p669
S'S210421121685'
p670
S'S210421121686'
p671
S'S210421121687'
p672
S'S210421121694'
p673
S'S210421121695'
p674
S'S210421121696'
p675
S'S210421121697'
p676
S'S210421121703'
p677
S'S210421121704'
p678
S'S210421121705'
p679
S'S210421121706'
p680
tp681
ss.