(dp0
S'class_sl'
p1
(dp2
S'STD-NR'
p3
(I7
I14
tp4
sS'STD-NC'
p5
(I0
I7
tp6
ssS'class_hierarchy'
p7
(dp8
g3
(lp9
S'STD-NR_subcl'
p10
asg5
(lp11
S'STD-NC_subcl'
p12
assS'feats'
p13
(dp14
S'Bacteria.Chloroflexi'
p15
(lp16
F0.0
aF0.0
aF0.0
aF0.0
aF0.0
aF0.0
aF0.0
aF179.56322792765457
aF0.0
aF0.0
aF0.0
aF0.0
aF0.0
aF0.0
asS'Bacteria.Chloroflexi.Chloroflexia'
p17
(lp18
F0.0
aF0.0
aF0.0
aF0.0
aF0.0
aF0.0
aF0.0
aF179.56322792765457
aF0.0
aF0.0
aF0.0
aF0.0
aF0.0
aF0.0
asS'Eukaryota'
p19
(lp20
F0.0
aF0.0
aF0.0
aF0.0
aF0.0
aF0.0
aF0.0
aF1399.3548107465492
aF0.0
aF0.0
aF0.0
aF0.0
aF0.0
aF0.0
asS'Bacteria.Elusimicrobiota'
p21
(lp22
F0.0
aF0.0
aF0.0
aF0.0
aF0.0
aF0.0
aF0.0
aF0.0
aF0.0
aF0.0
aF0.0
aF0.0
aF91.93749921644176
aF190.90726072378152
asS'Bacteria.Campilobacterota'
p23
(lp24
F0.0
aF66.29604023222555
aF0.0
aF0.0
aF0.0
aF193.58585532683745
aF327.46416786317036
aF0.0
aF0.0
aF0.0
aF0.0
aF0.0
aF639.3835172779814
aF458.1774257370756
asS'Bacteria.Firmicutes.Clostridia'
p25
(lp26
F487062.51336517214
aF534923.8069080474
aF144945.17329986347
aF356473.29224737204
aF226244.67216831414
aF492288.83009614766
aF678153.1020932518
aF386921.6051714209
aF274560.1773143426
aF382192.7333835545
aF606791.2143398132
aF394028.9683712681
aF185667.77966760413
aF348360.6272865484
asS'Archaea'
p27
(lp28
F0.0
aF0.0
aF0.0
aF0.0
aF0.0
aF0.0
aF0.0
aF0.0
aF0.0
aF0.0
aF0.0
aF0.0
aF83.5795447422198
aF461.6484668411444
asS'Bacteria.Campilobacterota.Campylobacteria'
p29
(lp30
F0.0
aF66.29604023222555
aF0.0
aF0.0
aF0.0
aF193.58585532683745
aF327.46416786317036
aF0.0
aF0.0
aF0.0
aF0.0
aF0.0
aF639.3835172779814
aF458.1774257370756
asS'Bacteria.Proteobacteria.Alphaproteobacteria'
p31
(lp32
F133.65172143417206
aF0.0
aF330.7411145127505
aF264.76784929639354
aF0.0
aF0.0
aF604.5492329781606
aF247.67341783124763
aF0.0
aF0.0
aF1893.4612471598082
aF0.0
aF1771.8863485350596
aF277.68328832550037
asS'Bacteria.Proteobacteria.Gammaproteobacteria'
p33
(lp34
F2539.3827072492695
aF5246.858041236137
aF4846.62940882146
aF5227.756683979856
aF2013.2402285299718
aF4215.869738228905
aF41285.674702133554
aF7163.953610768838
aF9545.757930661024
aF16920.66987309498
aF56551.37591517294
aF11232.633757020396
aF8157.363566840651
aF5609.202424175108
asS'Bacteria.Deferribacterota.Deferribacteres'
p35
(lp36
F677.1687219331385
aF0.0
aF0.0
aF67.60030194801537
aF0.0
aF0.0
aF0.0
aF0.0
aF125.93348193484202
aF0.0
aF0.0
aF0.0
aF0.0
aF0.0
asS'Bacteria.Actinobacteriota'
p37
(lp38
F579.157459548079
aF2168.8276018828074
aF3549.106574963746
aF3706.749890149509
aF1577.945043982951
aF5484.932567593728
aF42671.100027708504
aF780.1712661684301
aF1057.8412482526728
aF8865.967433505244
aF26129.76521080535
aF0.0
aF597.5937449068715
aF4144.423078258093
asS'Bacteria.Firmicutes'
p39
(lp40
F499590.1347209352
aF611855.6261661
aF234482.72937744347
aF421589.28309879784
aF283159.5175478371
aF786904.9923641135
aF853749.4647220334
aF473087.18723491195
aF303348.57128464745
aF572347.4532073941
aF889106.2862913406
aF793083.0623706769
aF215936.11179599902
aF443231.1227429556
asS'Bacteria.Actinobacteriota.Actinobacteria'
p41
(lp42
F0.0
aF28.412588670953813
aF3345.573581417438
aF2918.079700755997
aF1360.2974517094403
aF0.0
aF3325.020781379884
aF0.0
aF0.0
aF4606.826215448803
aF2650.8457460237314
aF0.0
aF121.19033987621869
aF2110.392991273803
asS'Bacteria.Patescibacteria'
p43
(lp44
F507.8765414498539
aF1288.0373530832394
aF1178.7952542890341
aF332.3681512444089
aF0.0
aF2129.444408595212
aF6347.766946270687
aF1486.040506987486
aF1234.1481229614517
aF9851.074926116939
aF15778.843726331736
aF2955.9562518474727
aF0.0
aF22804.74005373172
asS'Bacteria.Acidobacteriota'
p45
(lp46
F0.0
aF0.0
aF0.0
aF0.0
aF0.0
aF0.0
aF377.8432706113504
aF0.0
aF0.0
aF0.0
aF0.0
aF0.0
aF0.0
aF0.0
asS'Bacteria.Elusimicrobiota.Elusimicrobia'
p47
(lp48
F0.0
aF0.0
aF0.0
aF0.0
aF0.0
aF0.0
aF0.0
aF0.0
aF0.0
aF0.0
aF0.0
aF0.0
aF91.93749921644176
aF190.90726072378152
asS'Bacteria.Actinobacteriota.Coriobacteriia'
p49
(lp50
F579.157459548079
aF2140.4150132118534
aF203.53299354630803
aF788.6701893935126
aF217.64759227351047
aF5484.932567593728
aF39346.07924632862
aF780.1712661684301
aF1057.8412482526728
aF4259.141218056441
aF23478.919464781622
aF0.0
aF476.40340503065283
aF2034.0300869842902
asS'Bacteria.Cyanobacteria'
p51
(lp52
F294.0337871551786
aF0.0
aF746.2876430031295
aF4405.286343612335
aF6475.015870136936
aF0.0
aF2493.7655860349128
aF501.5386711082765
aF188.90022290226304
aF0.0
aF1072.961373390558
aF0.0
aF0.0
aF111.07331533020016
asS'Bacteria.Patescibacteria.Saccharimonadia'
p53
(lp54
F507.8765414498539
aF1288.0373530832394
aF1178.7952542890341
aF332.3681512444089
aF0.0
aF2129.444408595212
aF6347.766946270687
aF1486.040506987486
aF1234.1481229614517
aF9851.074926116939
aF15778.843726331736
aF2955.9562518474727
aF0.0
aF22804.74005373172
asS'Bacteria.Proteobacteria'
p55
(lp56
F2673.0344286834415
aF5246.858041236137
aF5177.370523334211
aF5492.524533276249
aF2013.2402285299718
aF4215.869738228905
aF41890.22393511172
aF7411.627028600085
aF9545.757930661024
aF16920.66987309498
aF58444.83716233275
aF11232.633757020396
aF9929.24991537571
aF5886.885712500608
asS'Bacteria.Bacteroidota.Bacteroidia'
p57
(lp58
F495090.5267659848
aF367611.5430876907
aF717246.0289864906
aF556491.3189945582
aF706302.7115262538
aF184379.7724290723
aF52142.37134436636
aF506634.55168015446
aF601911.6702557709
aF367387.1472445964
aF9467.30623579904
aF192728.3476204552
aF768998.6752642158
aF519305.93062083045
asS'Bacteria.Bacteroidota'
p59
(lp60
F495090.5267659848
aF367611.5430876907
aF717246.0289864906
aF556491.3189945582
aF706302.7115262538
aF184379.7724290723
aF52142.37134436636
aF506634.55168015446
aF601911.6702557709
aF367387.1472445964
aF9467.30623579904
aF192728.3476204552
aF768998.6752642158
aF519305.93062083045
asS'Bacteria.Firmicutes.Negativicutes'
p61
(lp62
F0.0
aF0.0
aF0.0
aF0.0
aF0.0
aF0.0
aF0.0
aF0.0
aF0.0
aF0.0
aF0.0
aF0.0
aF7618.275503253334
aF1197.5091809037203
asS'Bacteria.Desulfobacterota'
p63
(lp64
F0.0
aF0.0
aF0.0
aF0.0
aF0.0
aF0.0
aF0.0
aF1820.3996210596704
aF0.0
aF0.0
aF0.0
aF0.0
aF3723.4687182658918
aF3405.0913230914484
asS'Bacteria.Desulfobacterota.Desulfovibrionia'
p65
(lp66
F0.0
aF0.0
aF0.0
aF0.0
aF0.0
aF0.0
aF0.0
aF1820.3996210596704
aF0.0
aF0.0
aF0.0
aF0.0
aF3723.4687182658918
aF3405.0913230914484
asS'Bacteria.Verrucomicrobiota'
p67
(lp68
F588.0675743103571
aF11762.811709774878
aF37619.68164047594
aF7914.868686413466
aF471.5697832592727
aF16691.40263706954
aF0.0
aF6699.56595233525
aF82587.1774528694
aF24627.687315292347
aF0.0
aF0.0
aF0.0
aF0.0
asS'Archaea.Euryarchaeota.Methanobacteria'
p69
(lp70
F0.0
aF0.0
aF0.0
aF0.0
aF0.0
aF0.0
aF0.0
aF0.0
aF0.0
aF0.0
aF0.0
aF0.0
aF83.5795447422198
aF461.6484668411444
asS'Bacteria.Firmicutes.Bacilli'
p71
(lp72
F12527.621355763062
aF76931.81925805261
aF89537.55607758
aF65115.990851425806
aF56914.84537952299
aF294616.16226796585
aF175596.3626287816
aF86165.58206349106
aF28788.393970304885
aF190154.7198238396
aF282315.0719515274
aF399054.0939994088
aF22650.056625141562
aF93672.98627550348
asS'Bacteria.Cyanobacteria.Vampirivibrionia'
p73
(lp74
F294.0337871551786
aF0.0
aF746.2876430031295
aF4405.286343612335
aF6475.015870136936
aF0.0
aF2191.4909695458323
aF501.5386711082765
aF188.90022290226304
aF0.0
aF1072.961373390558
aF0.0
aF0.0
aF111.07331533020016
asS'Bacteria.Acidobacteriota.Blastocatellia'
p75
(lp76
F0.0
aF0.0
aF0.0
aF0.0
aF0.0
aF0.0
aF377.8432706113504
aF0.0
aF0.0
aF0.0
aF0.0
aF0.0
aF0.0
aF0.0
asS'Archaea.Euryarchaeota'
p77
(lp78
F0.0
aF0.0
aF0.0
aF0.0
aF0.0
aF0.0
aF0.0
aF0.0
aF0.0
aF0.0
aF0.0
aF0.0
aF83.5795447422198
aF461.6484668411444
asS'Bacteria.Verrucomicrobiota.Verrucomicrobiae'
p79
(lp80
F588.0675743103571
aF11762.811709774878
aF37619.68164047594
aF7914.868686413466
aF471.5697832592727
aF16691.40263706954
aF0.0
aF6699.56595233525
aF82587.1774528694
aF24627.687315292347
aF0.0
aF0.0
aF0.0
aF0.0
asS'Bacteria.Deferribacterota'
p81
(lp82
F677.1687219331385
aF0.0
aF0.0
aF67.60030194801537
aF0.0
aF0.0
aF0.0
aF0.0
aF125.93348193484202
aF0.0
aF0.0
aF0.0
aF0.0
aF0.0
asS'Bacteria.Cyanobacteria.Cyanobacteriia'
p83
(lp84
F0.0
aF0.0
aF0.0
aF0.0
aF0.0
aF0.0
aF302.2746164890803
aF0.0
aF0.0
aF0.0
aF0.0
aF0.0
aF0.0
aF0.0
asS'Bacteria'
p85
(lp86
F1000000.0
aF1000000.0
aF1000000.0
aF1000000.0
aF1000000.0
aF1000000.0
aF1000000.0
aF998600.6451892534
aF1000000.0
aF1000000.0
aF1000000.0
aF1000000.0
aF999916.4204552579
aF999538.3515331588
assS'subclass_sl'
p87
(dp88
g12
(I0
I7
tp89
sg10
(I7
I14
tp90
ssS'norm'
p91
F1000000.0
sS'cls'
p92
(dp93
S'class'
p94
(S'STD-NC'
p95
S'STD-NC'
p96
S'STD-NC'
p97
S'STD-NC'
p98
S'STD-NC'
p99
S'STD-NC'
p100
g5
S'STD-NR'
p101
S'STD-NR'
p102
S'STD-NR'
p103
S'STD-NR'
p104
S'STD-NR'
p105
S'STD-NR'
p106
g3
tp107
sS'subclass'
p108
(lp109
S'STD-NC_subcl'
p110
aS'STD-NC_subcl'
p111
aS'STD-NC_subcl'
p112
aS'STD-NC_subcl'
p113
aS'STD-NC_subcl'
p114
aS'STD-NC_subcl'
p115
ag12
aS'STD-NR_subcl'
p116
aS'STD-NR_subcl'
p117
aS'STD-NR_subcl'
p118
aS'STD-NR_subcl'
p119
aS'STD-NR_subcl'
p120
aS'STD-NR_subcl'
p121
ag10
asS'subject'
p122
(S'S210421121682'
p123
S'S210421121683'
p124
S'S210421121684'
p125
S'S210421121685'
p126
S'S210421121686'
p127
S'S210421121687'
p128
S'S210421121694'
p129
S'S210421121695'
p130
S'S210421121696'
p131
S'S210421121697'
p132
S'S210421121703'
p133
S'S210421121704'
p134
S'S210421121705'
p135
S'S210421121706'
p136
tp137
ss.