(dp0
S'class_sl'
p1
(dp2
S'STD-NR'
p3
(I7
I14
tp4
sS'STD-NC'
p5
(I0
I7
tp6
ssS'class_hierarchy'
p7
(dp8
g3
(lp9
S'STD-NR_subcl'
p10
asg5
(lp11
S'STD-NC_subcl'
p12
assS'feats'
p13
(dp14
S'Bacteria.Firmicutes.Clostridia.Lachnospirales.Lachnospiraceae._Eubacterium__ventriosum_group.uncultured_Clostridiales'
p15
(lp16
F864.2811319409795
aF0.0
aF385.8646335982089
aF0.0
aF0.0
aF0.0
aF0.0
aF0.0
aF0.0
aF0.0
aF0.0
aF0.0
aF0.0
aF0.0
asS'Bacteria.Firmicutes.Bacilli.Acholeplasmatales'
p17
(lp18
F365.31470525340376
aF104.17949179349728
aF29.681894892169915
aF0.0
aF217.6475922735105
aF0.0
aF0.0
aF371.5101267468715
aF0.0
aF0.0
aF1704.1151224438279
aF0.0
aF0.0
aF0.0
asS'Bacteria.Firmicutes.Bacilli.Lactobacillales.Streptococcaceae'
p19
(lp20
F0.0
aF0.0
aF203.532993546308
aF180.2674718613744
aF0.0
aF0.0
aF5063.099826192094
aF0.0
aF503.73392773936797
aF0.0
aF4354.9608684675595
aF0.0
aF894.3011287417518
aF787.9263306236076
asS'Bacteria.Cyanobacteria.Vampirivibrionia.Gastranaerophilales.Gastranaerophilales'
p21
(lp22
F294.03378715517863
aF0.0
aF746.2876430031292
aF4405.286343612337
aF6475.015870136938
aF0.0
aF2191.490969545832
aF501.5386711082765
aF188.90022290226298
aF0.0
aF1072.9613733905583
aF0.0
aF0.0
aF111.07331533020017
asS'Bacteria.Firmicutes.Clostridia.Oscillospirales.Ruminococcaceae.uncultured.uncultured_bacterium'
p23
(lp24
F739.5395252690856
aF340.95106405144566
aF0.0
aF614.0360760278065
aF0.0
aF0.0
aF554.1701302299805
aF736.8284180479618
aF0.0
aF0.0
aF0.0
aF0.0
aF401.181814762655
aF0.0
asS'Bacteria.Firmicutes.Clostridia.Clostridiales.Clostridiaceae.Candidatus_Arthromitus'
p25
(lp26
F0.0
aF0.0
aF0.0
aF0.0
aF0.0
aF0.0
aF0.0
aF260.05708872281
aF0.0
aF0.0
aF0.0
aF0.0
aF0.0
aF0.0
asS'Bacteria.Firmicutes.Clostridia.Lachnospirales.Lachnospiraceae.Lachnospiraceae_UCG_006'
p27
(lp28
F2628.4838548720513
aF4138.767083068938
aF80.56514327874692
aF1188.6386425859373
aF2303.437018227986
aF1183.0246714417844
aF0.0
aF2445.7750010835703
aF0.0
aF1216.8974908732691
aF0.0
aF0.0
aF0.0
aF298.509534949913
asS'Bacteria.Firmicutes.Clostridia.Lachnospirales.Lachnospiraceae.Lachnospiraceae_UCG_001'
p29
(lp30
F0.0
aF0.0
aF0.0
aF0.0
aF0.0
aF3871.7171065367493
aF0.0
aF445.81215209624577
aF0.0
aF0.0
aF0.0
aF0.0
aF0.0
aF0.0
asS'Bacteria.Actinobacteriota.Actinobacteria.Bifidobacteriales.Bifidobacteriaceae.Bifidobacterium.Bifidobacterium_animalis'
p31
(lp32
F0.0
aF0.0
aF975.2622607427257
aF2518.1112475635737
aF1360.2974517094406
aF0.0
aF1511.3730824454015
aF0.0
aF0.0
aF4606.826215448805
aF883.6152486745774
aF0.0
aF0.0
aF1978.4934293191907
asS'Bacteria.Bacteroidota.Bacteroidia.Bacteroidales.Prevotellaceae.Prevotellaceae_Ga6A1_group.uncultured_bacterium'
p33
(lp34
F0.0
aF0.0
aF0.0
aF0.0
aF0.0
aF0.0
aF0.0
aF0.0
aF0.0
aF0.0
aF0.0
aF0.0
aF20443.55664394696
aF0.0
asS'Archaea.Euryarchaeota.Methanobacteria.Methanobacteriales'
p35
(lp36
F0.0
aF0.0
aF0.0
aF0.0
aF0.0
aF0.0
aF0.0
aF0.0
aF0.0
aF0.0
aF0.0
aF0.0
aF83.5795447422198
aF461.6484668411445
asS'Bacteria.Cyanobacteria.Vampirivibrionia.Gastranaerophilales'
p37
(lp38
F294.03378715517863
aF0.0
aF746.2876430031292
aF4405.286343612337
aF6475.015870136938
aF0.0
aF2191.490969545832
aF501.5386711082765
aF188.90022290226298
aF0.0
aF1072.9613733905583
aF0.0
aF0.0
aF111.07331533020017
asS'Bacteria.Bacteroidota.Bacteroidia.Bacteroidales.Marinifilaceae.Odoribacter'
p39
(lp40
F0.0
aF0.0
aF0.0
aF0.0
aF0.0
aF0.0
aF0.0
aF0.0
aF0.0
aF0.0
aF0.0
aF0.0
aF37.610795133998906
aF86.77602760171888
asS'Bacteria.Verrucomicrobiota.Verrucomicrobiae.Verrucomicrobiales.Akkermansiaceae.Akkermansia'
p41
(lp42
F588.0675743103573
aF11762.811709774875
aF37619.68164047593
aF7914.86868641347
aF471.56978325927275
aF16691.40263706954
aF0.0
aF6699.56595233525
aF82587.17745286938
aF24627.68731529235
aF0.0
aF0.0
aF0.0
aF0.0
asS'Bacteria.Firmicutes.Clostridia.Oscillospirales.Oscillospiraceae.UCG_005.uncultured_rumen'
p43
(lp44
F0.0
aF0.0
aF0.0
aF236.6010568180539
aF0.0
aF0.0
aF0.0
aF470.57949387937055
aF0.0
aF0.0
aF0.0
aF0.0
aF0.0
aF0.0
asS'Bacteria.Firmicutes.Bacilli.Bacillales.Bacillaceae.Bacillus'
p45
(lp46
F0.0
aF0.0
aF0.0
aF0.0
aF0.0
aF0.0
aF0.0
aF0.0
aF0.0
aF0.0
aF0.0
aF0.0
aF0.0
aF79.83394539358137
asS'Bacteria.Firmicutes.Clostridia.Christensenellales.Christensenellaceae.Christensenellaceae_R_7_group.uncultured_prokaryote'
p47
(lp48
F302.94390191745674
aF587.1934991997119
aF0.0
aF366.1683022184167
aF544.1189806837763
aF1333.5914478071024
aF1007.5820549636009
aF309.5917722890596
aF1334.894908509325
aF579.4749956539376
aF0.0
aF0.0
aF0.0
aF1332.8797839624021
asS'Bacteria.Firmicutes.Clostridia.Oscillospirales.Ruminococcaceae.Negativibacillus.uncultured_bacterium'
p49
(lp50
F0.0
aF151.53380624508696
aF0.0
aF0.0
aF0.0
aF0.0
aF0.0
aF309.5917722890596
aF0.0
aF0.0
aF0.0
aF0.0
aF0.0
aF0.0
asS'Bacteria.Firmicutes.Negativicutes.Veillonellales_Selenomonadales.Veillonellaceae'
p51
(lp52
F0.0
aF0.0
aF0.0
aF0.0
aF0.0
aF0.0
aF0.0
aF0.0
aF0.0
aF0.0
aF0.0
aF0.0
aF522.3721546388737
aF152.72580857902526
asS'Bacteria.Firmicutes.Clostridia.Oscillospirales.Ruminococcaceae.Anaerofilum'
p53
(lp54
F712.8091809822512
aF0.0
aF0.0
aF84.50037743501926
aF0.0
aF0.0
aF0.0
aF0.0
aF0.0
aF0.0
aF0.0
aF0.0
aF0.0
aF65.94978097730636
asS'Bacteria.Firmicutes.Bacilli.Lactobacillales.Lactobacillaceae.Lactobacillus'
p55
(lp56
F4267.944971131229
aF50006.1560608787
aF73322.76092505746
aF32538.278670978078
aF28185.36319941961
aF265879.41752167087
aF64157.78734980729
aF45770.047615214564
aF3853.5645472061647
aF29611.172277916216
aF112724.05958091395
aF363287.02335205436
aF8708.9885621393
aF6178.453165242385
asS'Bacteria.Actinobacteriota.Actinobacteria.Bifidobacteriales'
p57
(lp58
F0.0
aF0.0
aF3273.4889795364534
aF2827.945964825311
aF1360.2974517094406
aF0.0
aF1511.3730824454015
aF0.0
aF0.0
aF4606.826215448805
aF883.6152486745774
aF0.0
aF0.0
aF1978.4934293191907
asS'Bacteria.Firmicutes.Clostridia.uncultured'
p59
(lp60
F0.0
aF0.0
aF0.0
aF0.0
aF0.0
aF0.0
aF0.0
aF0.0
aF390.39379399801015
aF0.0
aF0.0
aF0.0
aF0.0
aF114.54435643426893
asS'Bacteria.Desulfobacterota.Desulfovibrionia'
p61
(lp62
F0.0
aF0.0
aF0.0
aF0.0
aF0.0
aF0.0
aF0.0
aF1820.3996210596704
aF0.0
aF0.0
aF0.0
aF0.0
aF3723.4687182658913
aF3405.0913230914493
asS'Bacteria.Firmicutes.Bacilli.Erysipelotrichales.Erysipelotrichaceae.Faecalibaculum'
p63
(lp64
F0.0
aF179.94639491604076
aF89.04568467650975
aF0.0
aF0.0
aF0.0
aF856.4447467190607
aF0.0
aF176.30687470877876
aF1014.0812423943909
aF1451.6536228225198
aF0.0
aF0.0
aF118.01539753833768
asS'Bacteria.Bacteroidota.Bacteroidia.Bacteroidales.Marinifilaceae'
p65
(lp66
F0.0
aF0.0
aF0.0
aF0.0
aF0.0
aF0.0
aF0.0
aF0.0
aF0.0
aF0.0
aF0.0
aF0.0
aF388.644883051322
aF86.77602760171888
asS'Bacteria.Cyanobacteria.Vampirivibrionia'
p67
(lp68
F294.03378715517863
aF0.0
aF746.2876430031292
aF4405.286343612337
aF6475.015870136938
aF0.0
aF2191.490969545832
aF501.5386711082765
aF188.90022290226298
aF0.0
aF1072.9613733905583
aF0.0
aF0.0
aF111.07331533020017
asS'Bacteria.Bacteroidota.Bacteroidia.Bacteroidales.Muribaculaceae.Muribaculaceae'
p69
(lp70
F61978.758286406744
aF51265.78082529098
aF45366.65620733227
aF108842.11949480046
aF93008.07109821349
aF7205.695726054505
aF1813.6476989344815
aF43677.207234540525
aF28234.28664979157
aF48473.083386451886
aF0.0
aF5911.912503694945
aF117725.96774665368
aF68639.83783295963
asS'Bacteria.Firmicutes.Clostridia.Lachnospirales.Lachnospiraceae.Frisingicoccus'
p71
(lp72
F0.0
aF700.8438538835271
aF76.3248725798655
aF422.5018871750963
aF0.0
aF0.0
aF579.3596816040705
aF1040.22835489124
aF0.0
aF0.0
aF0.0
aF0.0
aF2081.1306640812727
aF0.0
asS'Bacteria.Proteobacteria.Gammaproteobacteria.Pasteurellales'
p73
(lp74
F356.4045904911256
aF823.9650714576603
aF0.0
aF0.0
aF0.0
aF1204.5342109225442
aF1788.4581475603916
aF222.90607604812288
aF0.0
aF0.0
aF0.0
aF0.0
aF1391.5994199579595
aF666.4398919812011
asS'Bacteria.Firmicutes.Clostridia.Oscillospirales.Oscillospiraceae.UCG_007'
p75
(lp76
F0.0
aF0.0
aF0.0
aF129.56724540036285
aF0.0
aF0.0
aF0.0
aF0.0
aF0.0
aF0.0
aF0.0
aF0.0
aF0.0
aF256.8570417010879
asS'Bacteria.Proteobacteria.Gammaproteobacteria.Pseudomonadales.Moraxellaceae.Acinetobacter'
p77
(lp78
F0.0
aF0.0
aF0.0
aF33.8001509740077
aF0.0
aF0.0
aF1158.719363208141
aF49.53468356624953
aF0.0
aF0.0
aF2082.807371875789
aF0.0
aF0.0
aF0.0
asS'Bacteria.Firmicutes.Clostridia.Clostridia_vadinBB60_group'
p79
(lp80
F739.5395252690856
aF947.0862890317936
aF407.065987092616
aF816.8369818718528
aF0.0
aF731.3243423458304
aF0.0
aF12588.001461273163
aF0.0
aF0.0
aF315.57687452663475
aF0.0
aF3752.7215589256684
aF173.55205520343776
asS'Bacteria.Firmicutes.Bacilli.Erysipelotrichales.Erysipelatoclostridiaceae.UCG_004'
p81
(lp82
F329.6742462042912
aF729.256442554481
aF0.0
aF219.70098133105006
aF217.6475922735105
aF494.71940805747346
aF251.8955137409002
aF1263.134430939363
aF0.0
aF0.0
aF0.0
aF0.0
aF0.0
aF20.826246624412533
asS'Bacteria.Firmicutes.Clostridia.Oscillospirales.Oscillospiraceae.Colidextribacter'
p83
(lp84
F2788.865920593058
aF1335.3916675348287
aF682.6835825199081
aF1599.8738127696977
aF0.0
aF0.0
aF932.0134008413308
aF1238.3670891562383
aF0.0
aF0.0
aF0.0
aF0.0
aF0.0
aF142.31268526681896
asS'Bacteria.Bacteroidota.Bacteroidia.Bacteroidales.Tannerellaceae'
p85
(lp86
F320.764131442013
aF483.01400740621466
aF8637.431413621445
aF946.4042272722156
aF2811.2814001995107
aF0.0
aF0.0
aF2464.3505074209143
aF2291.9893712141243
aF840.2387436982096
aF0.0
aF0.0
aF27489.31226571609
aF492.88783677776325
asS'Bacteria.Firmicutes.Clostridia.Peptostreptococcales_Tissierellales.Anaerovoracaceae.Family_XIII_UCG_001.uncultured_bacterium'
p87
(lp88
F267.3034428683442
aF208.35898358699455
aF0.0
aF84.50037743501926
aF0.0
aF1269.0628293648233
aF0.0
aF148.60405069874858
aF0.0
aF0.0
aF0.0
aF0.0
aF0.0
aF62.4787398732376
asS'Bacteria.Bacteroidota.Bacteroidia.Bacteroidales.Muribaculaceae'
p89
(lp90
F391599.5438021242
aF332067.39466032747
aF391186.1733253051
aF535349.3245603166
aF575242.5863788883
aF166440.81650211866
aF47154.84017229651
aF383961.90782833745
aF446673.467074691
aF333285.0437503623
aF8836.152486745774
aF146319.8344664499
aF397888.78069981147
aF491381.40493859746
asS'Bacteria.Proteobacteria.Alphaproteobacteria.Rhizobiales'
p91
(lp92
F0.0
aF0.0
aF0.0
aF0.0
aF0.0
aF0.0
aF0.0
aF247.67341783124763
aF0.0
aF0.0
aF1893.4612471598086
aF0.0
aF0.0
aF211.7335073481941
asS'Bacteria.Bacteroidota.Bacteroidia.Bacteroidales.Muribaculaceae.Muribaculaceae.uncultured_Bacteroidales'
p93
(lp94
F980.1126238505954
aF1108.0909581671983
aF11643.783339128371
aF7368.432912333678
aF2738.732202775007
aF2495.106579768127
aF0.0
aF464.38765843358937
aF2203.8359338597347
aF782.2912441328159
aF0.0
aF0.0
aF0.0
aF0.0
asS'Bacteria.Firmicutes.Clostridia.Lachnospirales.Defluviitaleaceae.Defluviitaleaceae_UCG_011'
p95
(lp96
F0.0
aF0.0
aF0.0
aF281.6679247833975
aF0.0
aF0.0
aF0.0
aF544.8815192287449
aF1662.3219615399141
aF0.0
aF0.0
aF0.0
aF0.0
aF45.12353435289383
asS'Bacteria.Verrucomicrobiota'
p97
(lp98
F588.0675743103573
aF11762.811709774875
aF37619.68164047593
aF7914.86868641347
aF471.56978325927275
aF16691.40263706954
aF0.0
aF6699.56595233525
aF82587.17745286938
aF24627.68731529235
aF0.0
aF0.0
aF0.0
aF0.0
asS'Bacteria.Firmicutes.Clostridia.Lachnospirales.Lachnospiraceae.Tuzzerella'
p99
(lp100
F0.0
aF0.0
aF0.0
aF422.5018871750963
aF0.0
aF0.0
aF0.0
aF0.0
aF0.0
aF0.0
aF0.0
aF0.0
aF0.0
aF138.8416441627502
asS'Bacteria.Firmicutes.Clostridia.Oscillospirales.Ruminococcaceae.Candidatus_Soleaferrea'
p101
(lp102
F0.0
aF0.0
aF0.0
aF0.0
aF0.0
aF0.0
aF0.0
aF0.0
aF0.0
aF0.0
aF0.0
aF0.0
aF417.89772371109893
aF104.13123312206267
asS'Bacteria.Firmicutes.Clostridia.Oscillospirales.Oscillospiraceae.UCG_007.uncultured_bacterium'
p103
(lp104
F0.0
aF0.0
aF0.0
aF129.56724540036285
aF0.0
aF0.0
aF0.0
aF0.0
aF0.0
aF0.0
aF0.0
aF0.0
aF0.0
aF256.8570417010879
asS'Bacteria.Firmicutes.Bacilli.Bacillales.Bacillaceae.Anoxybacillus'
p105
(lp106
F0.0
aF0.0
aF0.0
aF0.0
aF0.0
aF0.0
aF932.0134008413308
aF0.0
aF0.0
aF0.0
aF0.0
aF0.0
aF0.0
aF0.0
asS'Bacteria.Bacteroidota.Bacteroidia.Bacteroidales.Muribaculaceae.Muribaculaceae.uncultured_Barnesiella'
p107
(lp108
F0.0
aF0.0
aF0.0
aF0.0
aF0.0
aF0.0
aF377.84327061135036
aF0.0
aF0.0
aF0.0
aF0.0
aF3842.7431274017144
aF1132.5028312570782
aF6563.738727794017
asS'Bacteria.Acidobacteriota.Blastocatellia.Blastocatellales'
p109
(lp110
F0.0
aF0.0
aF0.0
aF0.0
aF0.0
aF0.0
aF377.84327061135036
aF0.0
aF0.0
aF0.0
aF0.0
aF0.0
aF0.0
aF0.0
asS'Bacteria.Firmicutes.Clostridia.Oscillospirales.Oscillospiraceae.Intestinimonas.Intestinimonas_butyriciproducens'
p111
(lp112
F0.0
aF0.0
aF0.0
aF0.0
aF0.0
aF0.0
aF0.0
aF0.0
aF0.0
aF0.0
aF0.0
aF0.0
aF62.68465855666485
aF0.0
asS'Bacteria.Cyanobacteria'
p113
(lp114
F294.03378715517863
aF0.0
aF746.2876430031292
aF4405.286343612337
aF6475.015870136938
aF0.0
aF2493.765586034912
aF501.5386711082765
aF188.90022290226298
aF0.0
aF1072.9613733905583
aF0.0
aF0.0
aF111.07331533020017
asS'Bacteria.Cyanobacteria.Cyanobacteriia.Chloroplast.Chloroplast.Chloroplast'
p115
(lp116
F0.0
aF0.0
aF0.0
aF0.0
aF0.0
aF0.0
aF302.27461648908024
aF0.0
aF0.0
aF0.0
aF0.0
aF0.0
aF0.0
aF0.0
asS'Bacteria.Firmicutes.Bacilli.RF39.RF39.RF39.unidentified'
p117
(lp118
F0.0
aF0.0
aF0.0
aF338.00150974007704
aF0.0
aF473.2098685767138
aF780.8760925967906
aF105.26120257828025
aF982.2811590917676
aF956.1337428289971
aF0.0
aF0.0
aF0.0
aF142.31268526681896
asS'Bacteria.Firmicutes.Clostridia.Peptococcales'
p119
(lp120
F3866.989806828713
aF4441.834695559111
aF7060.050713637559
aF6855.797289227895
aF2829.4186995556365
aF516.2289475382332
aF226.70596236681018
aF885.4324687467105
aF579.294016900273
aF434.60624674045323
aF1325.422873011866
aF0.0
aF0.0
aF142.31268526681896
asS'Bacteria.Firmicutes.Clostridia.Lachnospirales.Lachnospiraceae.Hungatella'
p121
(lp122
F0.0
aF0.0
aF0.0
aF0.0
aF0.0
aF0.0
aF0.0
aF0.0
aF0.0
aF0.0
aF0.0
aF0.0
aF14396.576581847357
aF0.0
asS'Bacteria.Firmicutes.Clostridia.Oscillospirales.Ruminococcaceae.UBA1819'
p123
(lp124
F0.0
aF0.0
aF0.0
aF0.0
aF0.0
aF774.3434213073498
aF0.0
aF0.0
aF0.0
aF0.0
aF0.0
aF0.0
aF0.0
aF0.0
asS'Bacteria.Proteobacteria.Gammaproteobacteria.Burkholderiales.Oxalobacteraceae'
p125
(lp126
F0.0
aF0.0
aF0.0
aF0.0
aF0.0
aF0.0
aF654.9283357263406
aF0.0
aF0.0
aF434.60624674045323
aF0.0
aF0.0
aF0.0
aF0.0
asS'Bacteria.Firmicutes.Clostridia.Oscillospirales.Ruminococcaceae.Anaerofilum.uncultured_bacterium'
p127
(lp128
F712.8091809822512
aF0.0
aF0.0
aF84.50037743501926
aF0.0
aF0.0
aF0.0
aF0.0
aF0.0
aF0.0
aF0.0
aF0.0
aF0.0
aF65.94978097730636
asS'Bacteria.Firmicutes.Clostridia.Clostridia_UCG_014.Clostridia_UCG_014.Clostridia_UCG_014.uncultured_bacterium'
p129
(lp130
F1015.753082899708
aF2689.725060850293
aF0.0
aF13993.262503239188
aF7925.999818627007
aF4753.608225247897
aF0.0
aF11411.552726574735
aF705.2274988351151
aF0.0
aF14832.113102751833
aF0.0
aF0.0
aF7782.074155322151
asS'Bacteria.Firmicutes.Clostridia.Oscillospirales.UCG_010'
p131
(lp132
F490.0563119252977
aF1373.2751190961005
aF818.3722448841133
aF4286.985815203309
aF888.7276684501679
aF0.0
aF0.0
aF1294.0936081682692
aF642.2607578676942
aF0.0
aF0.0
aF0.0
aF121.19033987621869
aF2231.8794299162096
asS'Bacteria.Firmicutes.Negativicutes.Veillonellales_Selenomonadales.Selenomonadaceae'
p133
(lp134
F0.0
aF0.0
aF0.0
aF0.0
aF0.0
aF0.0
aF0.0
aF0.0
aF0.0
aF0.0
aF0.0
aF0.0
aF7095.90334861446
aF1044.7833723246954
asS'Bacteria.Firmicutes.Clostridia.Oscillospirales.UCG_010.UCG_010.unidentified'
p135
(lp136
F0.0
aF473.54314451589676
aF0.0
aF2056.1758509188016
aF634.8054774644056
aF0.0
aF0.0
aF0.0
aF125.93348193484199
aF0.0
aF0.0
aF0.0
aF0.0
aF267.2701650132942
asS'Bacteria.Proteobacteria.Alphaproteobacteria.Rickettsiales.Mitochondria'
p137
(lp138
F0.0
aF0.0
aF0.0
aF90.1337359306872
aF0.0
aF0.0
aF0.0
aF0.0
aF0.0
aF0.0
aF0.0
aF0.0
aF0.0
aF0.0
asS'Bacteria.Proteobacteria.Alphaproteobacteria.Sphingomonadales.Sphingomonadaceae.Sphingomonas'
p139
(lp140
F0.0
aF0.0
aF0.0
aF0.0
aF0.0
aF0.0
aF0.0
aF0.0
aF0.0
aF0.0
aF0.0
aF0.0
aF0.0
aF65.94978097730636
asS'Bacteria.Firmicutes.Clostridia.Eubacteriales.Anaerofustaceae'
p141
(lp142
F0.0
aF75.76690312254348
aF0.0
aF0.0
aF0.0
aF0.0
aF0.0
aF111.45303802406144
aF365.2070976110418
aF1187.9237410905723
aF0.0
aF0.0
aF0.0
aF0.0
asS'Bacteria.Elusimicrobiota'
p143
(lp144
F0.0
aF0.0
aF0.0
aF0.0
aF0.0
aF0.0
aF0.0
aF0.0
aF0.0
aF0.0
aF0.0
aF0.0
aF91.93749921644176
aF190.90726072378155
asS'Bacteria.Proteobacteria.Gammaproteobacteria.Pseudomonadales.Pseudomonadaceae'
p145
(lp146
F0.0
aF0.0
aF84.80541397762832
aF0.0
aF0.0
aF0.0
aF6826.368422378396
aF123.83670891562382
aF302.24035664362077
aF2028.1624847887817
aF5995.960616006061
aF0.0
aF0.0
aF572.7217821713447
asS'Bacteria.Firmicutes.Bacilli.Izemoplasmatales.Izemoplasmatales'
p147
(lp148
F0.0
aF104.17949179349728
aF0.0
aF236.6010568180539
aF0.0
aF0.0
aF0.0
aF117.64487346984264
aF0.0
aF0.0
aF0.0
aF0.0
aF0.0
aF0.0
asS'Bacteria.Proteobacteria.Gammaproteobacteria.Pseudomonadales.Pseudomonadaceae.Pseudomonas'
p149
(lp150
F0.0
aF0.0
aF84.80541397762832
aF0.0
aF0.0
aF0.0
aF6826.368422378396
aF123.83670891562382
aF302.24035664362077
aF2028.1624847887817
aF5995.960616006061
aF0.0
aF0.0
aF572.7217821713447
asS'Bacteria.Firmicutes.Clostridia.uncultured.uncultured.uncultured.uncultured_bacterium'
p151
(lp152
F0.0
aF0.0
aF0.0
aF0.0
aF0.0
aF0.0
aF0.0
aF0.0
aF390.39379399801015
aF0.0
aF0.0
aF0.0
aF0.0
aF114.54435643426893
asS'Bacteria.Firmicutes.Clostridia.Clostridia.Hungateiclostridiaceae.Ruminiclostridium'
p153
(lp154
F178.2022952455628
aF113.65035468381522
aF0.0
aF0.0
aF0.0
aF0.0
aF0.0
aF0.0
aF0.0
aF0.0
aF0.0
aF0.0
aF0.0
aF0.0
asS'Bacteria.Actinobacteriota.Actinobacteria.Micrococcales.Micrococcaceae'
p155
(lp156
F0.0
aF0.0
aF72.08460188098408
aF90.1337359306872
aF0.0
aF0.0
aF1813.6476989344815
aF0.0
aF0.0
aF0.0
aF1767.2304973491548
aF0.0
aF121.19033987621869
aF131.89956195461272
asS'Bacteria.Bacteroidota.Bacteroidia.Bacteroidales.Marinifilaceae.Odoribacter.uncultured_bacterium'
p157
(lp158
F0.0
aF0.0
aF0.0
aF0.0
aF0.0
aF0.0
aF0.0
aF0.0
aF0.0
aF0.0
aF0.0
aF0.0
aF37.610795133998906
aF86.77602760171888
asS'Bacteria.Proteobacteria.Gammaproteobacteria.Burkholderiales'
p159
(lp160
F1773.1128376933498
aF2055.1772471989916
aF4329.316383557926
aF3408.18188987911
aF1759.3180375442098
aF430.1907896151944
aF21637.82463034333
aF4742.945951468393
aF4861.032402684901
aF4664.773715014198
aF20575.612219136587
aF0.0
aF5591.471543254504
aF2679.6437323410796
asS'Bacteria.Firmicutes.Clostridia.Oscillospirales.Ruminococcaceae.Ruminococcus'
p161
(lp162
F2405.7309858150975
aF28819.835775237472
aF31157.509095380647
aF7114.931780028621
aF4643.148635168224
aF0.0
aF12418.44882742638
aF23349.411466040874
aF428.1738385784628
aF579.4749956539376
aF4607.422368088868
aF0.0
aF0.0
aF39375.49028455596
asS'Archaea.Euryarchaeota.Methanobacteria.Methanobacteriales.Methanobacteriaceae'
p163
(lp164
F0.0
aF0.0
aF0.0
aF0.0
aF0.0
aF0.0
aF0.0
aF0.0
aF0.0
aF0.0
aF0.0
aF0.0
aF83.5795447422198
aF461.6484668411445
asS'Bacteria.Firmicutes.Clostridia.Lachnospirales.Lachnospiraceae.ASF356'
p165
(lp166
F142.56183619645026
aF0.0
aF0.0
aF152.10067938303465
aF0.0
aF0.0
aF0.0
aF0.0
aF0.0
aF0.0
aF0.0
aF0.0
aF0.0
aF0.0
asS'Bacteria.Firmicutes.Clostridia.Christensenellales'
p167
(lp168
F1220.6857224321052
aF1742.6387718185
aF682.6835825199081
aF4016.5846074112483
aF1958.8283304615948
aF1333.5914478071024
aF167183.05246983547
aF1634.6445576862345
aF3135.743700177565
aF2549.689980877326
aF177543.54960868473
aF0.0
aF0.0
aF2887.906198585205
asS'Bacteria.Bacteroidota.Bacteroidia.Bacteroidales.Prevotellaceae.Prevotellaceae_Ga6A1_group'
p169
(lp170
F0.0
aF0.0
aF0.0
aF0.0
aF0.0
aF0.0
aF0.0
aF0.0
aF0.0
aF0.0
aF0.0
aF0.0
aF20443.55664394696
aF0.0
asS'Bacteria.Patescibacteria.Saccharimonadia.Saccharimonadales.Saccharimonadaceae.Candidatus_Saccharimonas.uncultured_bacterium'
p171
(lp172
F507.876541449854
aF1288.0373530832392
aF1178.795254289034
aF332.3681512444091
aF0.0
aF2129.444408595212
aF6347.766946270685
aF1486.040506987486
aF1234.1481229614515
aF9851.07492611694
aF15778.84372633174
aF2955.9562518474727
aF0.0
aF22804.740053731726
asS'Bacteria.Bacteroidota.Bacteroidia.Bacteroidales.Prevotellaceae.Prevotella'
p173
(lp174
F0.0
aF0.0
aF0.0
aF0.0
aF0.0
aF0.0
aF0.0
aF0.0
aF226.68026748271558
aF0.0
aF0.0
aF0.0
aF130384.08979786286
aF805.2815361439513
asS'Bacteria.Firmicutes.Bacilli.Lactobacillales.Streptococcaceae.Streptococcus'
p175
(lp176
F0.0
aF0.0
aF203.532993546308
aF180.2674718613744
aF0.0
aF0.0
aF5063.099826192094
aF0.0
aF503.73392773936797
aF0.0
aF4354.9608684675595
aF0.0
aF221.48579356688245
aF0.0
asS'Bacteria.Bacteroidota.Bacteroidia.Bacteroidales.Prevotellaceae'
p177
(lp178
F0.0
aF0.0
aF0.0
aF0.0
aF0.0
aF0.0
aF0.0
aF0.0
aF0.0
aF0.0
aF0.0
aF0.0
aF4350.31530383254
aF1197.5091809037206
asS'Bacteria.Firmicutes.Clostridia.Oscillospirales.Ruminococcaceae.Incertae_Sedis'
p179
(lp180
F668.2586071708605
aF0.0
aF0.0
aF332.3681512444091
aF0.0
aF0.0
aF0.0
aF0.0
aF0.0
aF1303.8187402213598
aF0.0
aF0.0
aF631.0255628037595
aF152.72580857902526
asS'Bacteria.Firmicutes.Clostridia.Lachnospirales.Lachnospiraceae.Lachnospiraceae_UCG_001.unidentified'
p181
(lp182
F0.0
aF0.0
aF975.2622607427257
aF0.0
aF0.0
aF5549.461186036007
aF0.0
aF0.0
aF0.0
aF0.0
aF0.0
aF0.0
aF0.0
aF0.0
asS'Bacteria.Proteobacteria.Gammaproteobacteria.Burkholderiales.Burkholderiaceae'
p183
(lp184
F106.92137714733768
aF378.8345156127174
aF241.69542983624072
aF78.8670189393513
aF0.0
aF0.0
aF12619.965238419101
aF247.67341783124763
aF982.2811590917676
aF1970.214985223388
aF5932.845241100734
aF0.0
aF171.33806672155055
aF267.2701650132942
asS'Bacteria.Proteobacteria.Gammaproteobacteria.Enterobacterales.Morganellaceae.Proteus'
p185
(lp186
F0.0
aF0.0
aF0.0
aF0.0
aF0.0
aF0.0
aF0.0
aF0.0
aF0.0
aF0.0
aF0.0
aF0.0
aF238.20170251532642
aF0.0
asS'Bacteria.Firmicutes.Clostridia.Lachnospirales.Lachnospiraceae.Eisenbergiella'
p187
(lp188
F0.0
aF0.0
aF0.0
aF0.0
aF0.0
aF0.0
aF0.0
aF0.0
aF0.0
aF0.0
aF0.0
aF0.0
aF1913.9715745968333
aF0.0
asS'Bacteria.Firmicutes.Clostridia.Oscillospirales.Ruminococcaceae.uncultured._Clostridium__leptum'
p189
(lp190
F320.764131442013
aF0.0
aF0.0
aF78.8670189393513
aF0.0
aF0.0
aF0.0
aF1349.8201271802998
aF0.0
aF0.0
aF0.0
aF0.0
aF0.0
aF0.0
asS'Bacteria.Firmicutes.Clostridia.Lachnospirales.Lachnospiraceae.Lachnospiraceae_NK4B4_group'
p191
(lp192
F0.0
aF0.0
aF0.0
aF0.0
aF0.0
aF0.0
aF0.0
aF0.0
aF314.83370483710496
aF0.0
aF0.0
aF0.0
aF0.0
aF0.0
asS'Bacteria.Desulfobacterota.Desulfovibrionia.Desulfovibrionales.Desulfovibrionaceae'
p193
(lp194
F0.0
aF0.0
aF0.0
aF0.0
aF0.0
aF0.0
aF0.0
aF1820.3996210596704
aF0.0
aF0.0
aF0.0
aF0.0
aF3723.4687182658913
aF3405.0913230914493
asS'Bacteria.Proteobacteria.Gammaproteobacteria.Pseudomonadales'
p195
(lp196
F0.0
aF0.0
aF84.80541397762832
aF33.8001509740077
aF0.0
aF0.0
aF7985.0877855865365
aF173.37139248187333
aF302.24035664362077
aF2028.1624847887817
aF8078.76798788185
aF0.0
aF0.0
aF572.7217821713447
asS'Bacteria.Firmicutes.Clostridia.Oscillospirales.Butyricicoccaceae.UCG_008'
p197
(lp198
F0.0
aF0.0
aF0.0
aF0.0
aF0.0
aF1935.8585532683746
aF0.0
aF0.0
aF0.0
aF0.0
aF0.0
aF0.0
aF0.0
aF0.0
asS'Bacteria.Firmicutes.Clostridia.Oscillospirales.Butyricicoccaceae.UCG_009'
p199
(lp200
F1202.8654929075487
aF1032.3240550446549
aF0.0
aF529.5356985927873
aF0.0
aF1527.1773031339399
aF0.0
aF532.4978483371824
aF1385.268301283262
aF579.4749956539376
aF0.0
aF0.0
aF0.0
aF138.8416441627502
asS'Bacteria.Proteobacteria.Alphaproteobacteria.Rhizobiales.Beijerinckiaceae'
p201
(lp202
F0.0
aF0.0
aF0.0
aF0.0
aF0.0
aF0.0
aF0.0
aF0.0
aF0.0
aF0.0
aF883.6152486745774
aF0.0
aF0.0
aF0.0
asS'Bacteria.Firmicutes.Bacilli.Lactobacillales.Lactobacillaceae.Lactobacillus.Lactobacillus_intestinalis'
p203
(lp204
F0.0
aF1212.2704499606957
aF2069.2521010541313
aF3109.613889608708
aF0.0
aF0.0
aF12216.932416433661
aF1287.9017727224877
aF1360.0816048962936
aF13704.583647215626
aF17987.88184801818
aF0.0
aF405.360791999766
aF329.7489048865318
asS'Bacteria.Firmicutes.Clostridia.Monoglobales.Monoglobaceae.Monoglobus.uncultured_rumen'
p205
(lp206
F0.0
aF0.0
aF0.0
aF0.0
aF0.0
aF0.0
aF12997.808509030452
aF9269.177662334443
aF0.0
aF0.0
aF5869.729866195406
aF0.0
aF0.0
aF0.0
asS'Bacteria.Deferribacterota.Deferribacteres'
p207
(lp208
F677.1687219331386
aF0.0
aF0.0
aF67.6003019480154
aF0.0
aF0.0
aF0.0
aF0.0
aF125.93348193484199
aF0.0
aF0.0
aF0.0
aF0.0
aF0.0
asS'Bacteria.Firmicutes.Clostridia.Oscillospirales.Oscillospiraceae.Colidextribacter.uncultured_bacterium'
p209
(lp210
F632.6181481217479
aF0.0
aF0.0
aF0.0
aF0.0
aF0.0
aF0.0
aF0.0
aF0.0
aF0.0
aF0.0
aF0.0
aF0.0
aF0.0
asS'Bacteria.Deferribacterota.Deferribacteres.Deferribacterales.Deferribacteraceae.Mucispirillum.Mucispirillum_schaedleri'
p211
(lp212
F677.1687219331386
aF0.0
aF0.0
aF67.6003019480154
aF0.0
aF0.0
aF0.0
aF0.0
aF0.0
aF0.0
aF0.0
aF0.0
aF0.0
aF0.0
asS'Bacteria.Firmicutes.Clostridia.Lachnospirales.Lachnospiraceae.Lachnoclostridium.Extibacter_muris'
p213
(lp214
F0.0
aF0.0
aF0.0
aF0.0
aF0.0
aF0.0
aF0.0
aF0.0
aF0.0
aF0.0
aF0.0
aF0.0
aF1203.545444287965
aF0.0
asS'Bacteria.Firmicutes.Clostridia.Lachnospirales.Lachnospiraceae.Lachnospiraceae_NK4A136_group.uncultured_bacterium'
p215
(lp216
F7012.260317912896
aF966.0280148124293
aF131.44839166532392
aF816.8369818718527
aF0.0
aF2817.7496719795226
aF0.0
aF11368.209878454267
aF0.0
aF0.0
aF0.0
aF0.0
aF0.0
aF0.0
asS'Bacteria.Verrucomicrobiota.Verrucomicrobiae.Verrucomicrobiales'
p217
(lp218
F588.0675743103573
aF11762.811709774875
aF37619.68164047593
aF7914.86868641347
aF471.56978325927275
aF16691.40263706954
aF0.0
aF6699.56595233525
aF82587.17745286938
aF24627.68731529235
aF0.0
aF0.0
aF0.0
aF0.0
asS'Bacteria.Firmicutes.Negativicutes.Veillonellales_Selenomonadales.Selenomonadaceae.Quinella'
p219
(lp220
F0.0
aF0.0
aF0.0
aF0.0
aF0.0
aF0.0
aF0.0
aF0.0
aF0.0
aF0.0
aF0.0
aF0.0
aF7095.90334861446
aF1044.7833723246954
asS'Bacteria.Cyanobacteria.Vampirivibrionia.Gastranaerophilales.Gastranaerophilales.Gastranaerophilales.Acinetobacter_sp_'
p221
(lp222
F0.0
aF0.0
aF216.25380564295224
aF0.0
aF1886.279133037091
aF0.0
aF0.0
aF0.0
aF0.0
aF0.0
aF0.0
aF0.0
aF0.0
aF0.0
asS'Bacteria.Firmicutes.Clostridia.Lachnospirales.Lachnospiraceae.Lachnospiraceae_UCG_001.uncultured_bacterium'
p223
(lp224
F160.3820657210065
aF0.0
aF0.0
aF0.0
aF0.0
aF0.0
aF428.22237335953037
aF0.0
aF352.61374941755753
aF0.0
aF0.0
aF0.0
aF0.0
aF0.0
asS'Bacteria.Firmicutes.Clostridia.Oscillospirales.Butyricicoccaceae.Butyricicoccus.bacterium_NLAE_zl_H60'
p225
(lp226
F0.0
aF0.0
aF0.0
aF0.0
aF0.0
aF0.0
aF0.0
aF0.0
aF0.0
aF0.0
aF0.0
aF0.0
aF2904.389179792138
aF0.0
asS'Bacteria.Firmicutes.Clostridia.Lachnospirales.Lachnospiraceae.Blautia'
p227
(lp228
F0.0
aF0.0
aF411.3062577914974
aF0.0
aF0.0
aF0.0
aF3828.8118088616834
aF464.38765843358937
aF465.95388315891535
aF695.3699947847251
aF0.0
aF0.0
aF22658.414579615783
aF79.83394539358137
asS'Bacteria.Firmicutes.Clostridia.Oscillospirales.Oscillospiraceae.NK4A214_group.unidentified'
p229
(lp230
F2387.9107562905415
aF1193.32872418006
aF585.1573564456355
aF2371.6439266762072
aF399.02058583476924
aF2086.4253296336924
aF0.0
aF668.7182281443687
aF579.294016900273
aF376.6587471750595
aF0.0
aF0.0
aF0.0
aF256.8570417010879
asS'Bacteria.Actinobacteriota.Coriobacteriia.Coriobacteriales.uncultured'
p231
(lp232
F178.2022952455628
aF492.4848702965326
aF0.0
aF146.4673208873667
aF0.0
aF623.7766449420318
aF12015.41600544094
aF575.8406964576509
aF805.9742843829888
aF1129.9762415251785
aF5869.729866195406
aF0.0
aF0.0
aF531.0692889225196
asS'Bacteria.Firmicutes.Clostridia.Oscillospirales.Oscillospiraceae.UCG_005'
p233
(lp234
F1479.0790505381713
aF2216.1819163343966
aF1000.7038849360143
aF332.3681512444091
aF0.0
aF344.15263169215547
aF0.0
aF5405.472344166979
aF5452.919767778659
aF1680.4774873964193
aF0.0
aF0.0
aF0.0
aF520.6561656103133
asS'Bacteria.Firmicutes.Clostridia.Christensenellales.Christensenellaceae.uncultured.uncultured_bacterium'
p235
(lp236
F0.0
aF0.0
aF0.0
aF0.0
aF0.0
aF0.0
aF0.0
aF0.0
aF0.0
aF0.0
aF0.0
aF0.0
aF0.0
aF298.509534949913
asS'Bacteria.Firmicutes.Clostridia.Oscillospirales.UCG_010.UCG_010.metagenome'
p237
(lp238
F0.0
aF0.0
aF76.3248725798655
aF0.0
aF0.0
aF0.0
aF0.0
aF92.87753168671787
aF0.0
aF0.0
aF0.0
aF0.0
aF0.0
aF0.0
asS'Bacteria.Firmicutes.Clostridia.Peptostreptococcales_Tissierellales.Anaerovoracaceae'
p239
(lp240
F0.0
aF0.0
aF0.0
aF118.30052840902695
aF0.0
aF1032.4578950764665
aF0.0
aF49.53468356624953
aF0.0
aF0.0
aF1893.4612471598086
aF0.0
aF0.0
aF0.0
asS'Bacteria.Firmicutes.Bacilli.RF39'
p241
(lp242
F1033.573312424264
aF1373.2751190961005
aF1280.5617510621878
aF4929.188683709456
aF870.590369094042
aF24692.95132391215
aF19370.76500667523
aF1696.5629121440465
aF8009.36945105595
aF19789.071101581972
aF11865.690482201468
aF0.0
aF41.7897723711099
aF6119.445466473216
asS'Bacteria.Bacteroidota.Bacteroidia.Bacteroidales.Rikenellaceae.Rikenella.uncultured_bacterium'
p243
(lp244
F0.0
aF0.0
aF0.0
aF0.0
aF0.0
aF0.0
aF0.0
aF0.0
aF0.0
aF0.0
aF0.0
aF0.0
aF430.43465542243194
aF0.0
asS'Bacteria.Bacteroidota.Bacteroidia.Bacteroidales.Rikenellaceae.Alistipes.Alistipes_finegoldii'
p245
(lp246
F0.0
aF0.0
aF364.66328010380187
aF377.4350192097526
aF0.0
aF0.0
aF0.0
aF0.0
aF0.0
aF0.0
aF0.0
aF0.0
aF0.0
aF0.0
asS'Bacteria.Firmicutes.Clostridia.Lachnospirales.Lachnospiraceae.Tyzzerella'
p247
(lp248
F0.0
aF0.0
aF0.0
aF0.0
aF0.0
aF150.56677636531802
aF0.0
aF0.0
aF0.0
aF0.0
aF0.0
aF0.0
aF0.0
aF0.0
asS'Bacteria.Proteobacteria.Alphaproteobacteria.Rhodospirillales.uncultured.uncultured'
p249
(lp250
F133.6517214341721
aF0.0
aF330.74111451275047
aF174.63411336570644
aF0.0
aF0.0
aF0.0
aF0.0
aF0.0
aF0.0
aF0.0
aF0.0
aF1771.8863485350594
aF0.0
asS'Bacteria.Firmicutes.Clostridia.Peptostreptococcales_Tissierellales.Peptostreptococcaceae.Romboutsia'
p251
(lp252
F285.1236723929005
aF20419.180391525464
aF1344.165811545409
aF10359.74627353336
aF1940.6910311054687
aF0.0
aF9823.925035895109
aF1832.7832919512327
aF856.3476771569256
aF22338.761082459296
aF50870.99217369353
aF0.0
aF5052.383479667186
aF7542.572319141406
asS'Bacteria.Firmicutes.Clostridia.Lachnospirales.Lachnospiraceae.Roseburia'
p253
(lp254
F0.0
aF1420.62943354769
aF0.0
aF2140.676228353821
aF0.0
aF2688.692435094965
aF528.9805788558905
aF996.8855067707719
aF0.0
aF0.0
aF0.0
aF0.0
aF0.0
aF3842.4425022041123
asS'Bacteria.Firmicutes.Clostridia.Peptococcales.Peptococcaceae.Peptococcus'
p255
(lp256
F329.6742462042912
aF0.0
aF0.0
aF123.9338869046949
aF0.0
aF0.0
aF0.0
aF105.26120257828025
aF0.0
aF0.0
aF0.0
aF0.0
aF0.0
aF0.0
asS'Bacteria.Firmicutes.Clostridia.Lachnospirales.Lachnospiraceae.Roseburia.uncultured_bacterium'
p257
(lp258
F0.0
aF3106.4430280242827
aF962.5414486460816
aF2518.1112475635737
aF0.0
aF623.7766449420318
aF0.0
aF1405.5466461923304
aF188.90022290226298
aF0.0
aF0.0
aF0.0
aF0.0
aF680.324056397476
asS'Bacteria.Acidobacteriota.Blastocatellia.Blastocatellales.Blastocatellaceae'
p259
(lp260
F0.0
aF0.0
aF0.0
aF0.0
aF0.0
aF0.0
aF377.84327061135036
aF0.0
aF0.0
aF0.0
aF0.0
aF0.0
aF0.0
aF0.0
asS'Bacteria.Firmicutes.Clostridia.Peptostreptococcales_Tissierellales.Anaerovoracaceae.Family_XIII_AD3011_group.uncultured_bacterium'
p261
(lp262
F712.8091809822512
aF388.30537850303534
aF343.4619266093947
aF383.0683777054206
aF0.0
aF0.0
aF0.0
aF247.67341783124763
aF327.42705303058915
aF0.0
aF0.0
aF0.0
aF0.0
aF225.61767176446912
asS'Bacteria.Firmicutes.Clostridia.Oscillospirales.Butyricicoccaceae.UCG_009.uncultured_organism'
p263
(lp264
F0.0
aF0.0
aF0.0
aF123.9338869046949
aF0.0
aF0.0
aF0.0
aF43.34284812046834
aF0.0
aF0.0
aF0.0
aF0.0
aF0.0
aF0.0
asS'Bacteria.Proteobacteria'
p265
(lp266
F2673.0344286834415
aF5246.858041236136
aF5177.370523334209
aF5492.5245332762515
aF2013.240228529972
aF4215.869738228905
aF41890.2239351117
aF7411.627028600085
aF9545.757930661024
aF16920.669873094983
aF58444.837162332755
aF11232.633757020396
aF9929.24991537571
aF5886.88571250061
asS'Bacteria.Bacteroidota.Bacteroidia'
p267
(lp268
F495090.52676598483
aF367611.5430876906
aF717246.0289864904
aF556491.3189945583
aF706302.7115262538
aF184379.77242907227
aF52142.371344366344
aF506634.55168015434
aF601911.6702557708
aF367387.1472445965
aF9467.306235799044
aF192728.3476204552
aF768998.6752642157
aF519305.9306208306
asS'Bacteria.Firmicutes.Clostridia.Clostridia_vadinBB60_group.Clostridia_vadinBB60_group.Clostridia_vadinBB60_group.unidentified'
p269
(lp270
F596.9776890726354
aF577.722636309394
aF241.69542983624072
aF202.80090584404618
aF0.0
aF0.0
aF0.0
aF10885.246713683335
aF0.0
aF0.0
aF0.0
aF0.0
aF96.11647645355276
aF0.0
asS'Bacteria.Proteobacteria.Gammaproteobacteria.Xanthomonadales.Xanthomonadaceae.Stenotrophomonas'
p271
(lp272
F0.0
aF0.0
aF0.0
aF0.0
aF0.0
aF0.0
aF0.0
aF0.0
aF0.0
aF202.81624847887818
aF0.0
aF0.0
aF0.0
aF0.0
asS'Bacteria.Proteobacteria.Alphaproteobacteria.Rhizobiales.Rhizobiaceae'
p273
(lp274
F0.0
aF0.0
aF0.0
aF0.0
aF0.0
aF0.0
aF0.0
aF247.67341783124763
aF0.0
aF0.0
aF1009.8459984852312
aF0.0
aF0.0
aF211.7335073481941
asS'Bacteria.Firmicutes.Bacilli.Erysipelotrichales.Erysipelotrichaceae.Dubosiella.uncultured_bacterium'
p275
(lp276
F0.0
aF0.0
aF178.0913693530195
aF0.0
aF0.0
aF0.0
aF23426.28277790372
aF0.0
aF0.0
aF318.7112476096657
aF24867.45771269882
aF0.0
aF75.22159026799781
aF56036.48758408599
asS'Bacteria.Chloroflexi.Chloroflexia.Chloroflexales.Chloroflexaceae'
p277
(lp278
F0.0
aF0.0
aF0.0
aF0.0
aF0.0
aF0.0
aF0.0
aF179.56322792765457
aF0.0
aF0.0
aF0.0
aF0.0
aF0.0
aF0.0
asS'Bacteria.Firmicutes.Clostridia.Oscillospirales.Ruminococcaceae.Harryflintia.uncultured_bacterium'
p279
(lp280
F1202.8654929075487
aF0.0
aF0.0
aF0.0
aF0.0
aF0.0
aF0.0
aF0.0
aF0.0
aF0.0
aF0.0
aF0.0
aF0.0
aF0.0
asS'Bacteria.Actinobacteriota.Coriobacteriia.Coriobacteriales'
p281
(lp282
F579.1574595480791
aF2140.415013211853
aF203.532993546308
aF788.6701893935129
aF217.6475922735105
aF5484.932567593728
aF39346.07924632861
aF780.1712661684302
aF1057.8412482526728
aF4259.141218056442
aF23478.919464781626
aF0.0
aF476.40340503065283
aF2034.0300869842908
asS'Bacteria.Proteobacteria.Alphaproteobacteria.Rhizobiales.Rhizobiaceae.Allorhizobium_Neorhizobium_Pararhizobium_Rhizobium'
p283
(lp284
F0.0
aF0.0
aF0.0
aF0.0
aF0.0
aF0.0
aF0.0
aF247.67341783124763
aF0.0
aF0.0
aF1009.8459984852312
aF0.0
aF0.0
aF152.72580857902526
asS'Bacteria.Bacteroidota.Bacteroidia.Bacteroidales.Bacteroidaceae.Bacteroides.Bacteroides_caecimuris'
p285
(lp286
F4214.48428255756
aF672.4312652125733
aF1233.918773374492
aF377.4350192097526
aF2031.3775278860978
aF1269.0628293648233
aF0.0
aF3386.933988842312
aF0.0
aF0.0
aF0.0
aF0.0
aF7647.528343913111
aF0.0
asS'Bacteria.Firmicutes.Bacilli.Acholeplasmatales.Acholeplasmataceae.Anaeroplasma.uncultured_bacterium'
p287
(lp288
F365.31470525340376
aF104.17949179349728
aF29.681894892169915
aF0.0
aF217.6475922735105
aF0.0
aF0.0
aF371.5101267468715
aF0.0
aF0.0
aF1704.1151224438279
aF0.0
aF0.0
aF0.0
asS'Bacteria.Firmicutes.Bacilli.Erysipelotrichales.Erysipelotrichaceae.uncultured.uncultured_Allobaculum'
p289
(lp290
F124.74160667189398
aF388.30537850303534
aF568.1962736501098
aF1047.8046801942387
aF779.9038723134126
aF0.0
aF6851.557973752486
aF0.0
aF0.0
aF0.0
aF4039.383993940925
aF0.0
aF0.0
aF2592.8677047393603
asS'Bacteria.Firmicutes.Clostridia.Oscillospirales.Oscillospiraceae.UCG_005.uncultured_Clostridiales'
p291
(lp292
F222.7528690569535
aF0.0
aF0.0
aF597.1360005408027
aF0.0
aF731.3243423458304
aF0.0
aF303.3999368432784
aF0.0
aF0.0
aF0.0
aF0.0
aF0.0
aF0.0
asS'Bacteria.Firmicutes.Clostridia.Clostridia_UCG_014.Clostridia_UCG_014'
p293
(lp294
F11583.149190961582
aF70794.70010512655
aF22872.020149766362
aF70670.48232815442
aF52833.95302439468
aF71304.12337871848
aF275221.0383133076
aF35850.7272310731
aF116198.8237812787
aF175957.58243031817
aF166182.78212572588
aF80402.01005025125
aF8.35795447422198
aF175846.4133732272
asS'Bacteria.Firmicutes.Clostridia.Lachnospirales.Lachnospiraceae.Coprococcus'
p295
(lp296
F0.0
aF0.0
aF0.0
aF0.0
aF0.0
aF0.0
aF7380.538552608376
aF359.12645585530913
aF0.0
aF0.0
aF5617.268366574099
aF0.0
aF0.0
aF0.0
asS'Bacteria.Firmicutes.Clostridia.Oscillospirales.Oscillospiraceae.Flavonifractor'
p297
(lp298
F0.0
aF0.0
aF0.0
aF0.0
aF0.0
aF0.0
aF0.0
aF0.0
aF0.0
aF0.0
aF0.0
aF0.0
aF768.9318116284221
aF0.0
asS'Bacteria.Deferribacterota.Deferribacteres.Deferribacterales.Deferribacteraceae.Mucispirillum'
p299
(lp300
F0.0
aF0.0
aF0.0
aF0.0
aF0.0
aF0.0
aF0.0
aF0.0
aF125.93348193484199
aF0.0
aF0.0
aF0.0
aF0.0
aF0.0
asS'Bacteria.Firmicutes.Bacilli.RF39.RF39'
p301
(lp302
F1033.573312424264
aF1373.2751190961005
aF1280.5617510621878
aF4929.188683709456
aF870.590369094042
aF24692.95132391215
aF19370.76500667523
aF1696.5629121440465
aF8009.36945105595
aF19789.071101581972
aF11865.690482201468
aF0.0
aF41.7897723711099
aF6119.445466473216
asS'Bacteria.Proteobacteria.Gammaproteobacteria.Burkholderiales.Alcaligenaceae.Achromobacter'
p303
(lp304
F0.0
aF47.35431445158967
aF0.0
aF0.0
aF0.0
aF0.0
aF957.2029522154209
aF0.0
aF0.0
aF0.0
aF0.0
aF0.0
aF0.0
aF284.6253705336379
asS'Bacteria.Elusimicrobiota.Elusimicrobia.Elusimicrobiales'
p305
(lp306
F0.0
aF0.0
aF0.0
aF0.0
aF0.0
aF0.0
aF0.0
aF0.0
aF0.0
aF0.0
aF0.0
aF0.0
aF91.93749921644176
aF190.90726072378155
asS'Bacteria.Proteobacteria.Gammaproteobacteria.Xanthomonadales.Xanthomonadaceae'
p307
(lp308
F0.0
aF0.0
aF0.0
aF0.0
aF0.0
aF0.0
aF0.0
aF0.0
aF0.0
aF202.81624847887818
aF0.0
aF0.0
aF0.0
aF0.0
asS'Bacteria.Firmicutes.Bacilli.Erysipelotrichales.Erysipelotrichaceae.Turicibacter.uncultured_bacterium'
p309
(lp310
F0.0
aF9593.984107892067
aF1607.062594876057
aF8083.869441283508
aF798.0411716695385
aF0.0
aF7078.263936119296
aF1126.9140511321768
aF5616.6332942939525
aF100625.83299530628
aF67975.25877303713
aF0.0
aF2891.852248080805
aF8958.757089601457
asS'Bacteria.Firmicutes.Clostridia.Christensenellales.Christensenellaceae.Christensenellaceae_R_7_group.bacterium_YE57'
p311
(lp312
F739.5395252690856
aF85.23776601286141
aF0.0
aF349.2682267314129
aF0.0
aF0.0
aF0.0
aF179.56322792765457
aF0.0
aF0.0
aF0.0
aF0.0
aF0.0
aF118.01539753833768
asS'Bacteria.Firmicutes.Clostridia.Peptostreptococcales_Tissierellales.Anaerovoracaceae.Family_XIII_UCG_001'
p313
(lp314
F267.3034428683442
aF208.35898358699455
aF0.0
aF84.50037743501926
aF0.0
aF1269.0628293648233
aF0.0
aF148.60405069874858
aF0.0
aF0.0
aF0.0
aF0.0
aF0.0
aF62.4787398732376
asS'Bacteria.Firmicutes.Clostridia.Oscillospirales.Butyricicoccaceae'
p315
(lp316
F0.0
aF151.53380624508696
aF0.0
aF0.0
aF0.0
aF0.0
aF0.0
aF0.0
aF0.0
aF0.0
aF0.0
aF0.0
aF0.0
aF0.0
asS'Bacteria.Firmicutes.Clostridia.Oscillospirales._Eubacterium__coprostanoligenes_group._Eubacterium__coprostanoligenes_group.uncultured_Clostridium'
p317
(lp318
F329.6742462042912
aF615.6060878706658
aF1276.3214803633064
aF1211.172076568609
aF707.3546748889091
aF666.7957239035512
aF0.0
aF495.34683566249527
aF214.0869192892314
aF550.5012458712408
aF0.0
aF0.0
aF0.0
aF0.0
asS'Bacteria.Firmicutes.Clostridia.Oscillospirales.Butyricicoccaceae.Butyricicoccus.uncultured_bacterium'
p319
(lp320
F374.22482001568187
aF0.0
aF0.0
aF0.0
aF0.0
aF365.6621711729152
aF0.0
aF117.64487346984264
aF0.0
aF0.0
aF0.0
aF0.0
aF0.0
aF0.0
asS'Bacteria.Firmicutes.Clostridia.Oscillospirales.Ruminococcaceae.Pygmaiobacter'
p321
(lp322
F0.0
aF0.0
aF0.0
aF332.3681512444091
aF0.0
aF0.0
aF0.0
aF0.0
aF0.0
aF0.0
aF0.0
aF0.0
aF0.0
aF0.0
asS'Bacteria.Firmicutes.Clostridia.Lachnospirales.Lachnospiraceae.Lachnospiraceae_NK4A136_group.Trichinella_pseudospiralis'
p323
(lp324
F0.0
aF0.0
aF6292.561717140022
aF15497.36922158253
aF7563.25383150449
aF0.0
aF831.2551953449707
aF2191.9097478065414
aF12026.647524777409
aF13472.79364895405
aF0.0
aF12415.016257759386
aF0.0
aF4585.245298474826
asS'Bacteria.Firmicutes.Clostridia.Oscillospirales.Oscillospiraceae.uncultured'
p325
(lp326
F13445.363176277715
aF1666.8718686959564
aF674.2030411221452
aF30200.43489527588
aF15053.958465584476
aF3678.1312512099116
aF0.0
aF12036.928106598636
aF0.0
aF0.0
aF0.0
aF0.0
aF296.7073838348802
aF853.8761116009139
asS'Bacteria.Firmicutes.Clostridia.Oscillospirales.Ruminococcaceae.Paludicola'
p327
(lp328
F0.0
aF0.0
aF0.0
aF0.0
aF0.0
aF301.13355273063604
aF0.0
aF0.0
aF0.0
aF0.0
aF0.0
aF0.0
aF0.0
aF0.0
asS'Bacteria.Proteobacteria.Gammaproteobacteria.Xanthomonadales'
p329
(lp330
F0.0
aF0.0
aF0.0
aF0.0
aF0.0
aF0.0
aF0.0
aF0.0
aF0.0
aF202.81624847887818
aF0.0
aF0.0
aF0.0
aF0.0
asS'Bacteria.Firmicutes.Clostridia.Clostridia_vadinBB60_group.Clostridia_vadinBB60_group.Clostridia_vadinBB60_group.uncultured_bacterium'
p331
(lp332
F0.0
aF246.2424351482663
aF144.16920376196816
aF433.76860416643217
aF0.0
aF473.2098685767138
aF0.0
aF1399.3548107465492
aF0.0
aF0.0
aF315.57687452663475
aF0.0
aF3468.551106802121
aF163.13893189123152
asS'Bacteria.Patescibacteria'
p333
(lp334
F507.876541449854
aF1288.0373530832392
aF1178.795254289034
aF332.3681512444091
aF0.0
aF2129.444408595212
aF6347.766946270685
aF1486.040506987486
aF1234.1481229614515
aF9851.07492611694
aF15778.84372633174
aF2955.9562518474727
aF0.0
aF22804.740053731726
asS'Bacteria.Firmicutes.Clostridia.Oscillospirales.Oscillospiraceae.Papillibacter.uncultured_bacterium'
p335
(lp336
F8705.182122745744
aF1562.6923769024593
aF742.0473723042479
aF1278.7723785166247
aF1070.1006620114265
aF5162.289475382332
aF0.0
aF526.3060128914013
aF0.0
aF0.0
aF0.0
aF0.0
aF0.0
aF177.02309630750653
asS'Bacteria.Firmicutes.Clostridia.Oscillospirales.UCG_010.UCG_010'
p337
(lp338
F169.29218048328465
aF577.722636309394
aF742.0473723042479
aF1813.94143560508
aF253.92219098576223
aF0.0
aF0.0
aF656.3345572528063
aF214.0869192892314
aF0.0
aF0.0
aF0.0
aF121.19033987621869
aF728.9186318544387
asS'Bacteria.Bacteroidota.Bacteroidia.Bacteroidales.Bacteroidaceae'
p339
(lp340
F9542.732910399887
aF1108.0909581671983
aF33311.56661041241
aF8962.673366607707
aF14926.997370091596
aF5183.799014863092
aF0.0
aF4699.603103347924
aF4193.584948430238
aF202.81624847887818
aF0.0
aF0.0
aF40795.17578867748
aF315.8647404702567
asS'Bacteria.Bacteroidota.Bacteroidia.Bacteroidales.Bacteroidaceae.Bacteroides.Bacteroides_fragilis'
p341
(lp342
F757.359754793642
aF0.0
aF2115.895078741827
aF422.5018871750963
aF725.491974245035
aF0.0
aF0.0
aF773.9794307226489
aF0.0
aF202.81624847887818
aF0.0
aF0.0
aF342.6761334431011
aF0.0
asS'Bacteria.Firmicutes.Bacilli.Erysipelotrichales'
p343
(lp344
F2548.292822011548
aF12615.18936990349
aF2824.0202854550234
aF10134.411933706644
aF1795.5926362564614
aF666.7957239035512
aF66575.98428171992
aF5015.386711082765
aF6410.014230483457
aF103552.18172335866
aF105718.25296642265
aF0.0
aF10798.4771806948
aF70087.26197335629
asS'Bacteria.Proteobacteria.Alphaproteobacteria'
p345
(lp346
F133.6517214341721
aF0.0
aF330.74111451275047
aF264.76784929639365
aF0.0
aF0.0
aF604.5492329781605
aF247.67341783124763
aF0.0
aF0.0
aF1893.4612471598086
aF0.0
aF1771.8863485350594
aF277.6832883255004
asS'Bacteria.Acidobacteriota.Blastocatellia'
p347
(lp348
F0.0
aF0.0
aF0.0
aF0.0
aF0.0
aF0.0
aF377.84327061135036
aF0.0
aF0.0
aF0.0
aF0.0
aF0.0
aF0.0
aF0.0
asS'Bacteria.Actinobacteriota.Coriobacteriia.Coriobacteriales.Eggerthellaceae.Enterorhabdus.mouse_gut'
p349
(lp350
F0.0
aF0.0
aF0.0
aF0.0
aF0.0
aF0.0
aF1309.8566714526812
aF0.0
aF0.0
aF405.63249695775636
aF0.0
aF0.0
aF0.0
aF0.0
asS'Bacteria.Firmicutes.Clostridia.Oscillospirales.Ruminococcaceae.Candidatus_Soleaferrea.Ruminococcaceae_bacterium'
p351
(lp352
F0.0
aF0.0
aF0.0
aF0.0
aF0.0
aF0.0
aF0.0
aF0.0
aF0.0
aF0.0
aF0.0
aF0.0
aF417.89772371109893
aF104.13123312206267
asS'Bacteria.Firmicutes.Clostridia.Oscillospirales.UCG_010.UCG_010.uncultured_bacterium'
p353
(lp354
F0.0
aF142.06294335476903
aF0.0
aF416.8685286794283
aF0.0
aF0.0
aF0.0
aF167.17955703609218
aF0.0
aF0.0
aF0.0
aF0.0
aF0.0
aF163.13893189123152
asS'Bacteria.Firmicutes.Clostridia.Oscillospirales.Ruminococcaceae.Ruminococcus.uncultured_Ruminococcus'
p355
(lp356
F0.0
aF0.0
aF0.0
aF0.0
aF0.0
aF2215.4825665182507
aF8010.2773369606275
aF792.5549370599924
aF6347.047489516036
aF4143.246218925654
aF9530.42161070437
aF4138.338752586462
aF2026.8039599988297
aF0.0
asS'Bacteria.Firmicutes.Bacilli.Bacillales.Bacillaceae'
p357
(lp358
F0.0
aF0.0
aF0.0
aF0.0
aF0.0
aF0.0
aF932.0134008413308
aF0.0
aF0.0
aF0.0
aF0.0
aF0.0
aF0.0
aF79.83394539358137
asS'Bacteria.Firmicutes.Clostridia.Oscillospirales.UCG_010.UCG_010.uncultured_rumen'
p359
(lp360
F320.764131442013
aF179.94639491604076
aF0.0
aF0.0
aF0.0
aF0.0
aF0.0
aF0.0
aF0.0
aF0.0
aF0.0
aF0.0
aF0.0
aF55.53665766510009
asS'Bacteria.Proteobacteria.Gammaproteobacteria.Burkholderiales.Oxalobacteraceae.Herminiimonas'
p361
(lp362
F0.0
aF0.0
aF0.0
aF0.0
aF0.0
aF0.0
aF654.9283357263406
aF0.0
aF0.0
aF434.60624674045323
aF0.0
aF0.0
aF0.0
aF0.0
asS'Bacteria.Firmicutes.Clostridia.Lachnospirales.Lachnospiraceae.ASF356.uncultured_bacterium'
p363
(lp364
F0.0
aF0.0
aF33.92216559105133
aF0.0
aF0.0
aF0.0
aF0.0
aF0.0
aF0.0
aF0.0
aF0.0
aF0.0
aF0.0
aF0.0
asS'Bacteria.Proteobacteria.Gammaproteobacteria.Pasteurellales.Pasteurellaceae.Rodentibacter'
p365
(lp366
F356.4045904911256
aF823.9650714576603
aF0.0
aF0.0
aF0.0
aF1204.5342109225442
aF0.0
aF222.90607604812288
aF0.0
aF0.0
aF0.0
aF0.0
aF1391.5994199579595
aF666.4398919812011
asS'Bacteria.Actinobacteriota.Coriobacteriia.Coriobacteriales.Eggerthellaceae.Enterorhabdus'
p367
(lp368
F0.0
aF151.53380624508696
aF0.0
aF0.0
aF217.6475922735105
aF365.6621711729152
aF17305.221793999845
aF160.98772159031097
aF0.0
aF2346.873732398448
aF14137.843978793238
aF0.0
aF0.0
aF468.590549049282
asS'Bacteria.Proteobacteria.Alphaproteobacteria.Rhodospirillales.uncultured.uncultured.unidentified_rumen'
p369
(lp370
F0.0
aF0.0
aF0.0
aF0.0
aF0.0
aF0.0
aF0.0
aF0.0
aF0.0
aF0.0
aF0.0
aF0.0
aF91.93749921644176
aF0.0
asS'Archaea'
p371
(lp372
F0.0
aF0.0
aF0.0
aF0.0
aF0.0
aF0.0
aF0.0
aF0.0
aF0.0
aF0.0
aF0.0
aF0.0
aF83.5795447422198
aF461.6484668411445
asS'Bacteria.Firmicutes.Clostridia.Lachnospirales.Lachnospiraceae.Marvinbryantia'
p373
(lp374
F793.0002138427544
aF0.0
aF0.0
aF0.0
aF0.0
aF1333.5914478071024
aF34207.410766014254
aF1814.207785613889
aF0.0
aF0.0
aF0.0
aF0.0
aF0.0
aF0.0
asS'Bacteria.Campilobacterota.Campylobacteria'
p375
(lp376
F0.0
aF66.29604023222554
aF0.0
aF0.0
aF0.0
aF193.58585532683745
aF327.4641678631703
aF0.0
aF0.0
aF0.0
aF0.0
aF0.0
aF639.3835172779814
aF458.17742573707574
asS'Bacteria.Patescibacteria.Saccharimonadia.Saccharimonadales.Saccharimonadaceae'
p377
(lp378
F507.876541449854
aF1288.0373530832392
aF1178.795254289034
aF332.3681512444091
aF0.0
aF2129.444408595212
aF6347.766946270685
aF1486.040506987486
aF1234.1481229614515
aF9851.07492611694
aF15778.84372633174
aF2955.9562518474727
aF0.0
aF22804.740053731726
asS'Bacteria.Firmicutes.Clostridia.Oscillospirales.Ruminococcaceae.Pygmaiobacter.uncultured_bacterium'
p379
(lp380
F0.0
aF0.0
aF0.0
aF332.3681512444091
aF0.0
aF0.0
aF0.0
aF0.0
aF0.0
aF0.0
aF0.0
aF0.0
aF0.0
aF0.0
asS'Bacteria.Firmicutes'
p381
(lp382
F499590.13472093525
aF611855.6261661
aF234482.72937744344
aF421589.28309879807
aF283159.5175478372
aF786904.9923641136
aF853749.4647220334
aF473087.18723491195
aF303348.57128464733
aF572347.4532073941
aF889106.2862913407
aF793083.0623706769
aF215936.111795999
aF443231.12274295563
asS'Bacteria.Firmicutes.Clostridia.Oscillospirales'
p383
(lp384
F641.528262884026
aF0.0
aF0.0
aF0.0
aF0.0
aF0.0
aF0.0
aF210.5224051565605
aF0.0
aF0.0
aF0.0
aF0.0
aF0.0
aF0.0
asS'Bacteria.Actinobacteriota.Coriobacteriia.Coriobacteriales.Atopobiaceae'
p385
(lp386
F0.0
aF634.5478136513017
aF0.0
aF281.6679247833975
aF0.0
aF0.0
aF0.0
aF0.0
aF0.0
aF0.0
aF0.0
aF0.0
aF41.7897723711099
aF770.5711251032637
asS'Bacteria.Firmicutes.Bacilli.Erysipelotrichales.Erysipelatoclostridiaceae'
p387
(lp388
F775.1799843181983
aF729.256442554481
aF0.0
aF242.23441531372185
aF217.6475922735105
aF494.71940805747346
aF6650.041562759765
aF2049.4975325535743
aF0.0
aF1245.871240655966
aF2272.1534965917704
aF0.0
aF3936.596557358552
aF20.826246624412533
asS'Bacteria.Firmicutes.Bacilli.Acholeplasmatales.Acholeplasmataceae.Anaeroplasma'
p389
(lp390
F365.31470525340376
aF104.17949179349728
aF29.681894892169915
aF0.0
aF217.6475922735105
aF0.0
aF0.0
aF371.5101267468715
aF0.0
aF0.0
aF1704.1151224438279
aF0.0
aF0.0
aF0.0
asS'Bacteria.Firmicutes.Clostridia.Lachnospirales.Lachnospiraceae.Lachnospiraceae_UCG_010.uncultured_bacterium'
p391
(lp392
F106.92137714733768
aF0.0
aF0.0
aF0.0
aF0.0
aF0.0
aF0.0
aF43.34284812046834
aF0.0
aF0.0
aF0.0
aF0.0
aF0.0
aF0.0
asS'Bacteria.Actinobacteriota.Coriobacteriia.Coriobacteriales.Eggerthellaceae.Parvibacter.uncultured_bacterium'
p393
(lp394
F0.0
aF0.0
aF0.0
aF0.0
aF0.0
aF0.0
aF0.0
aF0.0
aF251.86696386968399
aF0.0
aF0.0
aF0.0
aF0.0
aF0.0
asS'Bacteria.Proteobacteria.Gammaproteobacteria.Burkholderiales.Sutterellaceae.Parasutterella'
p395
(lp396
F1666.1914605460122
aF1628.9884171346848
aF4070.6598709261602
aF3329.3148709397583
aF1759.3180375442098
aF430.1907896151944
aF579.3596816040705
aF4179.488925902305
aF1725.2887025073353
aF0.0
aF0.0
aF0.0
aF5395.0596131102875
aF1596.6789078716276
asS'Bacteria.Firmicutes.Bacilli.Erysipelotrichales.Erysipelotrichaceae.Dubosiella'
p397
(lp398
F0.0
aF0.0
aF178.0913693530195
aF0.0
aF0.0
aF0.0
aF23426.28277790372
aF0.0
aF0.0
aF318.7112476096657
aF24867.45771269882
aF0.0
aF75.22159026799781
aF56036.48758408599
asS'Bacteria.Firmicutes.Clostridia.Clostridia'
p399
(lp400
F178.2022952455628
aF113.65035468381522
aF0.0
aF112.667169913359
aF0.0
aF0.0
aF0.0
aF0.0
aF0.0
aF0.0
aF0.0
aF0.0
aF0.0
aF76.36290428951263
asS'Bacteria.Firmicutes.Clostridia.Lachnospirales.Lachnospiraceae.A2'
p401
(lp402
F0.0
aF530.3683218578043
aF0.0
aF0.0
aF0.0
aF0.0
aF0.0
aF0.0
aF0.0
aF0.0
aF0.0
aF0.0
aF0.0
aF0.0
asS'Bacteria.Firmicutes.Clostridia.Lachnospirales.Lachnospiraceae._Eubacterium__hallii_group'
p403
(lp404
F0.0
aF0.0
aF0.0
aF0.0
aF0.0
aF0.0
aF0.0
aF260.05708872281
aF0.0
aF0.0
aF0.0
aF0.0
aF0.0
aF0.0
asS'Bacteria.Firmicutes.Negativicutes'
p405
(lp406
F0.0
aF0.0
aF0.0
aF0.0
aF0.0
aF0.0
aF0.0
aF0.0
aF0.0
aF0.0
aF0.0
aF0.0
aF7618.275503253334
aF1197.5091809037206
asS'Bacteria.Firmicutes.Clostridia.Oscillospirales.Ruminococcaceae.Negativibacillus'
p407
(lp408
F0.0
aF0.0
aF0.0
aF0.0
aF0.0
aF0.0
aF0.0
aF191.94689881921695
aF0.0
aF0.0
aF0.0
aF0.0
aF0.0
aF0.0
asS'Bacteria.Verrucomicrobiota.Verrucomicrobiae'
p409
(lp410
F588.0675743103573
aF11762.811709774875
aF37619.68164047593
aF7914.86868641347
aF471.56978325927275
aF16691.40263706954
aF0.0
aF6699.56595233525
aF82587.17745286938
aF24627.68731529235
aF0.0
aF0.0
aF0.0
aF0.0
asS'Bacteria.Cyanobacteria.Cyanobacteriia.Chloroplast'
p411
(lp412
F0.0
aF0.0
aF0.0
aF0.0
aF0.0
aF0.0
aF302.27461648908024
aF0.0
aF0.0
aF0.0
aF0.0
aF0.0
aF0.0
aF0.0
asS'Bacteria.Actinobacteriota.Actinobacteria.Bifidobacteriales.Bifidobacteriaceae'
p413
(lp414
F0.0
aF0.0
aF3273.4889795364534
aF2827.945964825311
aF1360.2974517094406
aF0.0
aF1511.3730824454015
aF0.0
aF0.0
aF4606.826215448805
aF883.6152486745774
aF0.0
aF0.0
aF1978.4934293191907
asS'Bacteria.Firmicutes.Clostridia.Monoglobales.Monoglobaceae.Monoglobus.uncultured_bacterium'
p415
(lp416
F0.0
aF0.0
aF0.0
aF0.0
aF0.0
aF0.0
aF1032.7716063376909
aF4105.18690055293
aF340.0204012240734
aF0.0
aF0.0
aF0.0
aF0.0
aF1010.0729612840079
asS'Bacteria.Campilobacterota.Campylobacteria.Campylobacterales.Helicobacteraceae'
p417
(lp418
F0.0
aF66.29604023222554
aF0.0
aF0.0
aF0.0
aF193.58585532683745
aF0.0
aF0.0
aF0.0
aF0.0
aF0.0
aF0.0
aF639.3835172779814
aF458.17742573707574
asS'Bacteria.Firmicutes.Clostridia.Oscillospirales._Eubacterium__coprostanoligenes_group._Eubacterium__coprostanoligenes_group'
p419
(lp420
F2387.9107562905415
aF83930.78693399753
aF13560.38569502277
aF14150.996541117891
aF31486.35168223452
aF105289.19575831882
aF0.0
aF12513.699435923789
aF21723.52563376024
aF57483.91956887062
aF7384.498863923254
aF90747.85693171741
aF25.073863422665937
aF30968.628730501438
asS'Bacteria.Bacteroidota.Bacteroidia.Bacteroidales.Prevotellaceae.Prevotellaceae_UCG_001.uncultured_bacterium'
p421
(lp422
F16813.386556418853
aF4195.5922604108455
aF54483.23820992732
aF2782.8790968599674
aF16269.157522444912
aF559.2480264997527
aF932.0134008413308
aF19337.102097174662
aF28020.199730502343
aF12835.371153734719
aF631.1537490532695
aF0.0
aF40318.77238364683
aF933.7100569944953
asS'Bacteria.Firmicutes.Clostridia.Peptococcales.Peptococcaceae.uncultured.unidentified'
p423
(lp424
F1862.2139853161314
aF4195.5922604108455
aF7060.050713637559
aF6731.8634023232
aF2829.4186995556365
aF0.0
aF226.70596236681018
aF588.2243673492133
aF579.294016900273
aF434.60624674045323
aF1325.422873011866
aF0.0
aF0.0
aF142.31268526681896
asS'Bacteria.Proteobacteria.Gammaproteobacteria.Enterobacterales.Enterobacteriaceae.Escherichia_Shigella'
p425
(lp426
F409.86527906479444
aF2367.715722579484
aF432.5076112859045
aF1785.77464312674
aF253.92219098576223
aF2581.144737691166
aF9874.304138643287
aF2024.7301907704496
aF4243.958341204175
aF10024.917424813122
aF27896.995708154514
aF11232.633757020396
aF936.0909011128616
aF1690.397017681484
asS'Bacteria.Firmicutes.Clostridia.Lachnospirales.Lachnospiraceae.Lachnospiraceae.Cuneatibacter_caecimuris'
p427
(lp428
F0.0
aF0.0
aF0.0
aF0.0
aF0.0
aF0.0
aF0.0
aF0.0
aF0.0
aF0.0
aF0.0
aF0.0
aF259.09658870088134
aF0.0
asS'Bacteria.Bacteroidota.Bacteroidia.Bacteroidales.Bacteroidaceae.Bacteroides'
p429
(lp430
F4570.888873048686
aF435.659692954625
aF29961.75275829609
aF8162.736460222859
aF12170.127867960462
aF3914.7361854982687
aF0.0
aF538.6896837829637
aF4193.584948430238
aF0.0
aF0.0
aF0.0
aF8830.178902015521
aF315.8647404702567
asS'Bacteria.Firmicutes.Bacilli.Erysipelotrichales.Erysipelotrichaceae._Clostridium__innocuum_group'
p431
(lp432
F0.0
aF0.0
aF0.0
aF0.0
aF0.0
aF0.0
aF0.0
aF0.0
aF0.0
aF0.0
aF0.0
aF0.0
aF2461.417592658373
aF0.0
asS'Bacteria.Firmicutes.Clostridia.Lachnospirales.Lachnospiraceae.Lachnospiraceae_UCG_006.uncultured_bacterium'
p433
(lp434
F2628.4838548720513
aF4138.767083068938
aF80.56514327874692
aF1188.6386425859373
aF2303.437018227986
aF1183.0246714417844
aF0.0
aF2445.7750010835703
aF0.0
aF1216.8974908732691
aF0.0
aF0.0
aF0.0
aF298.509534949913
asS'Bacteria.Actinobacteriota.Actinobacteria.Micrococcales.Intrasporangiaceae'
p435
(lp436
F0.0
aF28.412588670953806
aF0.0
aF0.0
aF0.0
aF0.0
aF0.0
aF0.0
aF0.0
aF0.0
aF0.0
aF0.0
aF0.0
aF0.0
asS'Bacteria.Actinobacteriota.Actinobacteria'
p437
(lp438
F0.0
aF28.412588670953806
aF3345.5735814174377
aF2918.079700755998
aF1360.2974517094406
aF0.0
aF3325.020781379883
aF0.0
aF0.0
aF4606.826215448805
aF2650.845746023732
aF0.0
aF121.19033987621869
aF2110.3929912738035
asS'Bacteria.Deferribacterota.Deferribacteres.Deferribacterales.Deferribacteraceae'
p439
(lp440
F677.1687219331386
aF0.0
aF0.0
aF67.6003019480154
aF0.0
aF0.0
aF0.0
aF0.0
aF125.93348193484199
aF0.0
aF0.0
aF0.0
aF0.0
aF0.0
asS'Bacteria.Firmicutes.Clostridia.uncultured.uncultured'
p441
(lp442
F0.0
aF0.0
aF0.0
aF0.0
aF0.0
aF0.0
aF0.0
aF0.0
aF390.39379399801015
aF0.0
aF0.0
aF0.0
aF0.0
aF114.54435643426893
asS'Bacteria.Bacteroidota.Bacteroidia.Bacteroidales.Muribaculaceae.Muribaculaceae.uncultured_bacterium'
p443
(lp444
F326395.3239717728
aF278490.7232897989
aF327632.9960904704
aF417950.1335105965
aF477409.9936519453
aF155922.65169602717
aF44963.34920275069
aF338860.57844126725
aF416235.34449103975
aF284029.66911977757
aF8836.152486745774
aF136565.17883535323
aF278361.673763963
aF414140.32724975544
asS'Bacteria.Firmicutes.Clostridia.Clostridia.Hungateiclostridiaceae.Ruminiclostridium.uncultured_organism'
p445
(lp446
F178.2022952455628
aF113.65035468381522
aF0.0
aF0.0
aF0.0
aF0.0
aF0.0
aF0.0
aF0.0
aF0.0
aF0.0
aF0.0
aF0.0
aF0.0
asS'Bacteria.Firmicutes.Clostridia.Oscillospirales.Oscillospiraceae.Oscillibacter'
p447
(lp448
F178.2022952455628
aF0.0
aF89.04568467650975
aF1622.4072467523695
aF0.0
aF0.0
aF831.2551953449707
aF86.68569624093668
aF0.0
aF0.0
aF0.0
aF0.0
aF0.0
aF0.0
asS'Bacteria.Actinobacteriota.Coriobacteriia.Coriobacteriales.Coriobacteriales_Incertae_Sedis.uncultured'
p449
(lp450
F0.0
aF0.0
aF0.0
aF0.0
aF0.0
aF0.0
aF1536.5626338194913
aF0.0
aF0.0
aF0.0
aF0.0
aF0.0
aF0.0
aF0.0
asS'Bacteria.Firmicutes.Clostridia.Clostridia_UCG_014.Clostridia_UCG_014.Clostridia_UCG_014.unidentified_rumen'
p451
(lp452
F0.0
aF0.0
aF216.25380564295224
aF0.0
aF0.0
aF0.0
aF0.0
aF2352.897469396853
aF0.0
aF0.0
aF0.0
aF0.0
aF0.0
aF2558.1572936986727
asS'Bacteria.Firmicutes.Clostridia.Lachnospirales.Lachnospiraceae.Lachnospiraceae_FCS020_group'
p453
(lp454
F0.0
aF0.0
aF0.0
aF0.0
aF0.0
aF0.0
aF0.0
aF253.86525327702884
aF743.0075434155677
aF0.0
aF0.0
aF0.0
aF0.0
aF0.0
asS'Bacteria.Firmicutes.Clostridia.Lachnospirales.Lachnospiraceae'
p455
(lp456
F163331.31370732057
aF67176.83048102511
aF16261.438130210232
aF70878.91659249415
aF37653.03346331731
aF36845.8411305414
aF46348.77452832564
aF34717.62134449514
aF26080.824108705776
aF34189.02474358232
aF42918.45493562233
aF125332.54507833283
aF22315.738446172683
aF8059.75744364765
asS'Bacteria.Firmicutes.Clostridia.Peptostreptococcales_Tissierellales.Peptostreptococcaceae'
p457
(lp458
F285.1236723929005
aF20419.180391525464
aF1344.165811545409
aF10359.74627353336
aF1940.6910311054687
aF0.0
aF9823.925035895109
aF1832.7832919512327
aF856.3476771569256
aF22338.761082459296
aF50870.99217369353
aF0.0
aF5052.383479667186
aF7542.572319141406
asS'Bacteria.Firmicutes.Bacilli.Erysipelotrichales.Erysipelotrichaceae.Holdemania'
p459
(lp460
F0.0
aF0.0
aF182.33164005190093
aF0.0
aF0.0
aF0.0
aF0.0
aF0.0
aF0.0
aF0.0
aF0.0
aF0.0
aF1433.3891923290694
aF0.0
asS'Bacteria.Proteobacteria.Gammaproteobacteria.Burkholderiales.Sutterellaceae'
p461
(lp462
F1666.1914605460122
aF1628.9884171346848
aF4070.6598709261602
aF3329.3148709397583
aF1759.3180375442098
aF430.1907896151944
aF579.3596816040705
aF4179.488925902305
aF1725.2887025073353
aF0.0
aF0.0
aF0.0
aF5395.0596131102875
aF1596.6789078716276
asS'Bacteria.Firmicutes.Clostridia.Clostridiales.Clostridiaceae'
p463
(lp464
F35.640459049112565
aF7434.627368899579
aF1492.5752860062587
aF822.4703403675207
aF0.0
aF0.0
aF11839.08914582231
aF371.51012674687144
aF100.7467855478736
aF0.0
aF48472.607927291094
aF3251.55187703222
aF1028.0284003293034
aF20520.795007254485
asS'Bacteria.Firmicutes.Clostridia.Oscillospirales.Oscillospiraceae.Oscillibacter.uncultured_bacterium'
p465
(lp466
F13614.655356760999
aF2964.3800846695135
aF419.78679918926025
aF3239.181135009071
aF1251.4736555726854
aF1118.4960529995053
aF0.0
aF6055.615065974005
aF478.54723135239954
aF0.0
aF0.0
aF0.0
aF317.6022700204352
aF1086.4358655735205
asS'Bacteria.Firmicutes.Clostridia.Oscillospirales.Ruminococcaceae.UBA1819.uncultured_organism'
p467
(lp468
F0.0
aF0.0
aF0.0
aF0.0
aF0.0
aF0.0
aF780.8760925967906
aF0.0
aF0.0
aF0.0
aF0.0
aF0.0
aF5846.389154718274
aF0.0
asS'Bacteria.Firmicutes.Clostridia.Eubacteriales.Anaerofustaceae.Anaerofustis'
p469
(lp470
F0.0
aF75.76690312254348
aF0.0
aF0.0
aF0.0
aF0.0
aF0.0
aF111.45303802406144
aF365.2070976110418
aF1187.9237410905723
aF0.0
aF0.0
aF0.0
aF0.0
asS'Bacteria.Firmicutes.Bacilli.RF39.RF39.RF39.uncultured_bacterium'
p471
(lp472
F561.3372300235228
aF473.54314451589676
aF589.397627144517
aF3588.4493617404837
aF0.0
aF22369.921059990105
aF2191.490969545832
aF154.7958861445298
aF1372.6749530897778
aF5591.933708060498
aF2461.499621307751
aF0.0
aF41.7897723711099
aF881.6444404334638
asS'Bacteria.Firmicutes.Clostridia.Clostridia_UCG_014.Clostridia_UCG_014.Clostridia_UCG_014.uncultured_Clostridiales'
p473
(lp474
F0.0
aF577.722636309394
aF0.0
aF845.0037743501925
aF0.0
aF0.0
aF2796.0402025239923
aF291.016265951716
aF1057.8412482526726
aF1506.634988700238
aF7700.0757384498875
aF0.0
aF0.0
aF0.0
asS'Bacteria.Firmicutes.Clostridia.Oscillospirales.Oscillospiraceae.UCG_005.uncultured_bacterium'
p475
(lp476
F0.0
aF0.0
aF0.0
aF0.0
aF0.0
aF13572.519412359381
aF2241.8700722940116
aF38067.40432066276
aF0.0
aF0.0
aF694.2691239585964
aF0.0
aF0.0
aF0.0
asS'Bacteria.Actinobacteriota.Coriobacteriia.Coriobacteriales.Eggerthellaceae.Adlercreutzia.uncultured_bacterium'
p477
(lp478
F0.0
aF0.0
aF0.0
aF360.5349437227488
aF0.0
aF0.0
aF8488.878813068337
aF0.0
aF0.0
aF0.0
aF3471.3456197929822
aF0.0
aF434.6136326595429
aF263.79912390922544
asS'Bacteria.Firmicutes.Clostridia.Christensenellales.Christensenellaceae.uncultured'
p479
(lp480
F0.0
aF0.0
aF0.0
aF0.0
aF0.0
aF0.0
aF0.0
aF0.0
aF0.0
aF0.0
aF0.0
aF0.0
aF0.0
aF298.509534949913
asS'Bacteria.Campilobacterota.Campylobacteria.Campylobacterales.Helicobacteraceae.Helicobacter'
p481
(lp482
F0.0
aF0.0
aF0.0
aF0.0
aF0.0
aF0.0
aF0.0
aF0.0
aF0.0
aF0.0
aF0.0
aF0.0
aF639.3835172779814
aF458.17742573707574
asS'Bacteria.Bacteroidota.Bacteroidia.Bacteroidales.Rikenellaceae.Alistipes.uncultured_bacterium'
p483
(lp484
F8197.305581295888
aF3437.92322918541
aF9421.881492914508
aF4247.552305733634
aF3573.0479731567975
aF0.0
aF0.0
aF8538.541079732262
aF2657.196468825166
aF0.0
aF0.0
aF0.0
aF330.1392017317682
aF0.0
asS'Eukaryota'
p485
(lp486
F0.0
aF0.0
aF0.0
aF0.0
aF0.0
aF0.0
aF0.0
aF1399.3548107465492
aF0.0
aF0.0
aF0.0
aF0.0
aF0.0
aF0.0
asS'Bacteria.Desulfobacterota.Desulfovibrionia.Desulfovibrionales.Desulfovibrionaceae.Desulfovibrio'
p487
(lp488
F0.0
aF0.0
aF0.0
aF0.0
aF0.0
aF0.0
aF0.0
aF1820.3996210596704
aF0.0
aF0.0
aF0.0
aF0.0
aF1099.0710133601901
aF3196.828856847324
asS'Bacteria.Cyanobacteria.Vampirivibrionia.Gastranaerophilales.Gastranaerophilales.Gastranaerophilales.uncultured_bacterium'
p489
(lp490
F0.0
aF0.0
aF0.0
aF2405.4440776502147
aF1432.846649133944
aF0.0
aF2191.490969545832
aF291.016265951716
aF188.90022290226298
aF0.0
aF1072.9613733905583
aF0.0
aF0.0
aF31.2393699366188
asS'Bacteria.Bacteroidota.Bacteroidia.Bacteroidales.Rikenellaceae.Alistipes.Alistipes_timonensis'
p491
(lp492
F0.0
aF0.0
aF135.68866236420533
aF129.56724540036285
aF0.0
aF0.0
aF0.0
aF173.37139248187336
aF0.0
aF0.0
aF0.0
aF0.0
aF146.26420329888464
aF0.0
asS'Bacteria.Firmicutes.Clostridia.Peptostreptococcales_Tissierellales.Anaerovoracaceae._Eubacterium__nodatum_group.uncultured_bacterium'
p493
(lp494
F374.22482001568187
aF0.0
aF279.8578661261735
aF0.0
aF0.0
aF0.0
aF0.0
aF0.0
aF0.0
aF0.0
aF0.0
aF0.0
aF0.0
aF0.0
asS'Bacteria.Firmicutes.Clostridia.Oscillospirales.Oscillospiraceae.Intestinimonas'
p495
(lp496
F0.0
aF0.0
aF0.0
aF0.0
aF0.0
aF0.0
aF0.0
aF0.0
aF0.0
aF0.0
aF0.0
aF0.0
aF62.68465855666485
aF0.0
asS'Bacteria.Bacteroidota.Bacteroidia.Bacteroidales.Prevotellaceae.Prevotellaceae_UCG_003'
p497
(lp498
F0.0
aF0.0
aF0.0
aF0.0
aF0.0
aF0.0
aF0.0
aF0.0
aF0.0
aF0.0
aF0.0
aF0.0
aF105861.85137049558
aF19285.104374206006
asS'Bacteria.Bacteroidota.Bacteroidia.Bacteroidales.Prevotellaceae.Prevotellaceae_UCG_001'
p499
(lp500
F16813.386556418853
aF4195.5922604108455
aF54483.23820992732
aF2782.8790968599674
aF16269.157522444912
aF559.2480264997527
aF932.0134008413308
aF19337.102097174662
aF28020.199730502343
aF12835.371153734719
aF631.1537490532695
aF0.0
aF40318.77238364683
aF933.7100569944953
asS'Bacteria.Proteobacteria.Gammaproteobacteria'
p501
(lp502
F2539.38270724927
aF5246.858041236136
aF4846.629408821459
aF5227.756683979858
aF2013.240228529972
aF4215.869738228905
aF41285.67470213355
aF7163.953610768838
aF9545.757930661024
aF16920.669873094983
aF56551.375915172954
aF11232.633757020396
aF8157.363566840651
aF5609.202424175109
asS'Bacteria.Bacteroidota'
p503
(lp504
F495090.52676598483
aF367611.5430876906
aF717246.0289864904
aF556491.3189945583
aF706302.7115262538
aF184379.77242907227
aF52142.371344366344
aF506634.55168015434
aF601911.6702557708
aF367387.1472445965
aF9467.306235799044
aF192728.3476204552
aF768998.6752642157
aF519305.9306208306
asS'Bacteria.Bacteroidota.Bacteroidia.Bacteroidales.Rikenellaceae'
p505
(lp506
F8518.0697127379
aF3665.2239385530406
aF11766.751189395933
aF5441.82430681524
aF3573.0479731567975
aF774.3434213073498
aF0.0
aF9764.524497996937
aF2657.196468825166
aF0.0
aF0.0
aF0.0
aF906.8380604530847
aF0.0
asS'Bacteria.Acidobacteriota'
p507
(lp508
F0.0
aF0.0
aF0.0
aF0.0
aF0.0
aF0.0
aF377.84327061135036
aF0.0
aF0.0
aF0.0
aF0.0
aF0.0
aF0.0
aF0.0
asS'Bacteria.Firmicutes.Clostridia.Oscillospirales.Butyricicoccaceae.UCG_009.uncultured_bacterium'
p509
(lp510
F1202.8654929075487
aF1032.3240550446549
aF0.0
aF405.60181168809237
aF0.0
aF1527.1773031339399
aF0.0
aF489.15500021671414
aF1385.268301283262
aF579.4749956539376
aF0.0
aF0.0
aF0.0
aF138.8416441627502
asS'Bacteria.Firmicutes.Clostridia.Clostridia_vadinBB60_group.Clostridia_vadinBB60_group.Clostridia_vadinBB60_group'
p511
(lp512
F142.56183619645026
aF123.12121757413315
aF0.0
aF180.2674718613744
aF0.0
aF258.1144737691166
aF0.0
aF303.3999368432784
aF0.0
aF0.0
aF0.0
aF0.0
aF0.0
aF10.413123312206267
asS'Bacteria.Bacteroidota.Bacteroidia.Bacteroidales.Rikenellaceae.Alistipes'
p513
(lp514
F320.764131442013
aF227.30070936763045
aF1844.5177540134164
aF687.2697364714899
aF0.0
aF774.3434213073498
aF0.0
aF1052.6120257828027
aF0.0
aF0.0
aF0.0
aF0.0
aF0.0
aF0.0
asS'Bacteria.Firmicutes.Clostridia.Lachnospirales.Lachnospiraceae.Lachnospiraceae_NK4A136_group'
p515
(lp516
F43436.80946610594
aF14623.012302650892
aF3519.4246800715755
aF14556.598352805982
aF23995.647048154533
aF14777.053623281927
aF0.0
aF19095.620514789192
aF6069.993829259383
aF695.3699947847251
aF4481.191618278213
aF0.0
aF0.0
aF2992.0374317072674
asS'Bacteria.Firmicutes.Clostridia.Eubacteriales.Anaerofustaceae.Anaerofustis.uncultured_bacterium'
p517
(lp518
F0.0
aF75.76690312254348
aF0.0
aF0.0
aF0.0
aF0.0
aF0.0
aF111.45303802406144
aF365.2070976110418
aF1187.9237410905723
aF0.0
aF0.0
aF0.0
aF0.0
asS'Bacteria.Firmicutes.Clostridia.Lachnospirales.Lachnospiraceae.Anaerostipes'
p519
(lp520
F0.0
aF0.0
aF0.0
aF0.0
aF0.0
aF0.0
aF0.0
aF0.0
aF0.0
aF0.0
aF0.0
aF0.0
aF1955.761346967943
aF0.0
asS'Bacteria.Firmicutes.Clostridia.Christensenellales.Christensenellaceae'
p521
(lp522
F1220.6857224321052
aF1742.6387718185
aF682.6835825199081
aF4016.5846074112483
aF1958.8283304615948
aF1333.5914478071024
aF167183.05246983547
aF1634.6445576862345
aF3135.743700177565
aF2549.689980877326
aF177543.54960868473
aF0.0
aF0.0
aF2887.906198585205
asS'Bacteria.Actinobacteriota.Actinobacteria.Bifidobacteriales.Bifidobacteriaceae.Bifidobacterium'
p523
(lp524
F0.0
aF0.0
aF2298.2267187937277
aF309.83471726173724
aF0.0
aF0.0
aF0.0
aF0.0
aF0.0
aF0.0
aF0.0
aF0.0
aF0.0
aF0.0
asS'Bacteria.Firmicutes.Bacilli.Erysipelotrichales.Erysipelotrichaceae.Allobaculum'
p525
(lp526
F1167.2250338584363
aF369.3636527223995
aF0.0
aF0.0
aF0.0
aF0.0
aF16348.018841784426
aF501.5386711082765
aF0.0
aF0.0
aF5112.345367331483
aF0.0
aF0.0
aF90.24706870578765
asS'Bacteria.Desulfobacterota'
p527
(lp528
F0.0
aF0.0
aF0.0
aF0.0
aF0.0
aF0.0
aF0.0
aF1820.3996210596704
aF0.0
aF0.0
aF0.0
aF0.0
aF3723.4687182658913
aF3405.0913230914493
asS'Bacteria.Actinobacteriota.Coriobacteriia.Coriobacteriales.uncultured.uncultured'
p529
(lp530
F178.2022952455628
aF492.4848702965326
aF0.0
aF146.4673208873667
aF0.0
aF623.7766449420318
aF12015.41600544094
aF575.8406964576509
aF805.9742843829888
aF1129.9762415251785
aF5869.729866195406
aF0.0
aF0.0
aF531.0692889225196
asS'Bacteria.Actinobacteriota.Coriobacteriia.Coriobacteriales.Eggerthellaceae.Gordonibacter'
p531
(lp532
F0.0
aF0.0
aF0.0
aF0.0
aF0.0
aF0.0
aF0.0
aF43.34284812046834
aF0.0
aF0.0
aF0.0
aF0.0
aF0.0
aF0.0
asS'Bacteria.Firmicutes.Bacilli.Staphylococcales.Staphylococcaceae'
p533
(lp534
F0.0
aF0.0
aF0.0
aF0.0
aF0.0
aF0.0
aF1360.235774200861
aF0.0
aF0.0
aF0.0
aF0.0
aF0.0
aF0.0
aF76.36290428951263
asS'Bacteria.Firmicutes.Clostridia.Oscillospirales.Ruminococcaceae.Incertae_Sedis.uncultured_Clostridiales'
p535
(lp536
F1274.146411005774
aF322.0093382708098
aF106.00676747203542
aF366.1683022184167
aF326.4713884102657
aF1161.5151319610247
aF0.0
aF191.94689881921695
aF654.8541060611783
aF579.4749956539376
aF0.0
aF0.0
aF0.0
aF0.0
asS'Bacteria.Bacteroidota.Bacteroidia.Bacteroidales.Prevotellaceae.Prevotellaceae_NK3B31_group'
p537
(lp538
F68296.02965286194
aF26092.22726282591
aF217860.8682378283
aF3008.2134366866853
aF93479.64088147276
aF11421.56546428341
aF4055.517771228493
aF86407.06364587654
aF117848.55239462513
aF20223.677348322424
aF0.0
aF46408.51315400532
aF171.33806672155055
aF4807.391929135227
asS'Bacteria.Bacteroidota.Bacteroidia.Bacteroidales.Tannerellaceae.Parabacteroides'
p539
(lp540
F0.0
aF0.0
aF0.0
aF0.0
aF0.0
aF0.0
aF0.0
aF0.0
aF0.0
aF0.0
aF0.0
aF0.0
aF6723.974374511582
aF492.88783677776325
asS'Bacteria.Actinobacteriota.Coriobacteriia.Coriobacteriales.Eggerthellaceae.Enterorhabdus.uncultured_bacterium'
p541
(lp542
F0.0
aF151.53380624508696
aF0.0
aF0.0
aF217.6475922735105
aF365.6621711729152
aF15995.365122547164
aF160.98772159031097
aF0.0
aF1941.2412354406913
aF14137.843978793238
aF0.0
aF0.0
aF468.590549049282
asS'Bacteria.Firmicutes.Clostridia.Peptostreptococcales_Tissierellales.Anaerovoracaceae.Family_XIII_AD3011_group.uncultured_organism'
p543
(lp544
F0.0
aF0.0
aF0.0
aF0.0
aF0.0
aF0.0
aF0.0
aF0.0
aF0.0
aF0.0
aF0.0
aF0.0
aF0.0
aF131.89956195461272
asS'Bacteria.Firmicutes.Bacilli.Erysipelotrichales.Erysipelatoclostridiaceae.Erysipelatoclostridiaceae'
p545
(lp546
F0.0
aF0.0
aF0.0
aF22.5334339826718
aF0.0
aF0.0
aF0.0
aF0.0
aF0.0
aF0.0
aF0.0
aF0.0
aF0.0
aF0.0
asS'Bacteria.Proteobacteria.Gammaproteobacteria.Burkholderiales.Oxalobacteraceae.Herminiimonas.uncultured_bacterium'
p547
(lp548
F0.0
aF0.0
aF0.0
aF0.0
aF0.0
aF0.0
aF654.9283357263406
aF0.0
aF0.0
aF434.60624674045323
aF0.0
aF0.0
aF0.0
aF0.0
asS'Bacteria.Firmicutes.Bacilli.Izemoplasmatales.Izemoplasmatales.Izemoplasmatales.gut_metagenome'
p549
(lp550
F0.0
aF104.17949179349728
aF0.0
aF236.6010568180539
aF0.0
aF0.0
aF0.0
aF117.64487346984264
aF0.0
aF0.0
aF0.0
aF0.0
aF0.0
aF0.0
asS'Bacteria.Firmicutes.Clostridia.Lachnospirales.Lachnospiraceae._Eubacterium__xylanophilum_group.uncultured_bacterium'
p551
(lp552
F10861.429895217052
aF9556.100656330796
aF1806.3553177234835
aF7007.89796861093
aF2049.514827242224
aF22757.09277064378
aF0.0
aF9609.72861185241
aF26030.45071593184
aF37144.3472214174
aF0.0
aF0.0
aF0.0
aF8490.166540552176
asS'Bacteria.Firmicutes.Bacilli.Izemoplasmatales.Izemoplasmatales.Izemoplasmatales'
p553
(lp554
F0.0
aF104.17949179349728
aF0.0
aF236.6010568180539
aF0.0
aF0.0
aF0.0
aF117.64487346984264
aF0.0
aF0.0
aF0.0
aF0.0
aF0.0
aF0.0
asS'Bacteria.Bacteroidota.Bacteroidia.Bacteroidales'
p555
(lp556
F495090.52676598483
aF367611.5430876906
aF717246.0289864904
aF556491.3189945583
aF706302.7115262538
aF184379.77242907227
aF52142.371344366344
aF506634.55168015434
aF601911.6702557708
aF367387.1472445965
aF9467.306235799044
aF192728.3476204552
aF768998.6752642157
aF519305.9306208306
asS'Bacteria.Firmicutes.Bacilli.Erysipelotrichales.Erysipelotrichaceae.Allobaculum.uncultured_bacterium'
p557
(lp558
F0.0
aF606.1352249803479
aF0.0
aF0.0
aF0.0
aF0.0
aF0.0
aF0.0
aF0.0
aF0.0
aF0.0
aF0.0
aF0.0
aF1176.682934279308
asS'Bacteria.Campilobacterota.Campylobacteria.Campylobacterales'
p559
(lp560
F0.0
aF66.29604023222554
aF0.0
aF0.0
aF0.0
aF193.58585532683745
aF327.4641678631703
aF0.0
aF0.0
aF0.0
aF0.0
aF0.0
aF639.3835172779814
aF458.17742573707574
asS'Bacteria.Firmicutes.Clostridia.Peptostreptococcales_Tissierellales.Anaerovoracaceae.Anaerovorax'
p561
(lp562
F0.0
aF1136.5035468381523
aF0.0
aF0.0
aF0.0
aF0.0
aF0.0
aF136.22037980718622
aF0.0
aF0.0
aF0.0
aF0.0
aF0.0
aF0.0
asS'Bacteria.Firmicutes.Clostridia.Oscillospirales.Ruminococcaceae._Eubacterium__siraeum_group.uncultured_bacterium'
p563
(lp564
F46653.360895288344
aF615.6060878706658
aF517.3130252635328
aF0.0
aF0.0
aF17035.555268761695
aF0.0
aF66413.62699144907
aF3299.45722669286
aF4925.53746305847
aF0.0
aF0.0
aF0.0
aF3727.8981457698437
asS'Bacteria.Firmicutes.Negativicutes.Veillonellales_Selenomonadales.Selenomonadaceae.Quinella.uncultured_bacterium'
p565
(lp566
F0.0
aF0.0
aF0.0
aF0.0
aF0.0
aF0.0
aF0.0
aF0.0
aF0.0
aF0.0
aF0.0
aF0.0
aF7095.90334861446
aF1044.7833723246954
asS'Bacteria.Firmicutes.Bacilli.Staphylococcales'
p567
(lp568
F0.0
aF0.0
aF0.0
aF0.0
aF0.0
aF0.0
aF1360.235774200861
aF0.0
aF0.0
aF0.0
aF0.0
aF0.0
aF0.0
aF76.36290428951263
asS'Bacteria.Firmicutes.Clostridia.Christensenellales.Christensenellaceae.Christensenellaceae_R_7_group'
p569
(lp570
F178.2022952455628
aF1070.2075066059265
aF682.6835825199081
aF3301.1480784614187
aF1414.7093497778183
aF0.0
aF166175.47041487187
aF1145.4895574695204
aF1800.8487916682404
aF1970.214985223388
aF177543.54960868473
aF0.0
aF0.0
aF1138.5014821345517
asS'Bacteria.Firmicutes.Clostridia.Clostridia.Hungateiclostridiaceae'
p571
(lp572
F0.0
aF0.0
aF0.0
aF112.667169913359
aF0.0
aF0.0
aF0.0
aF0.0
aF0.0
aF0.0
aF0.0
aF0.0
aF0.0
aF76.36290428951263
asS'Archaea.Euryarchaeota.Methanobacteria.Methanobacteriales.Methanobacteriaceae.Methanosphaera.uncultured_archaeon'
p573
(lp574
F0.0
aF0.0
aF0.0
aF0.0
aF0.0
aF0.0
aF0.0
aF0.0
aF0.0
aF0.0
aF0.0
aF0.0
aF83.5795447422198
aF461.6484668411445
asS'Bacteria.Proteobacteria.Gammaproteobacteria.Pseudomonadales.Moraxellaceae'
p575
(lp576
F0.0
aF0.0
aF0.0
aF33.8001509740077
aF0.0
aF0.0
aF1158.719363208141
aF49.53468356624953
aF0.0
aF0.0
aF2082.807371875789
aF0.0
aF0.0
aF0.0
asS'Bacteria.Firmicutes.Clostridia.Oscillospirales.Butyricicoccaceae.UCG_008.uncultured_bacterium'
p577
(lp578
F0.0
aF0.0
aF0.0
aF0.0
aF0.0
aF1935.8585532683746
aF0.0
aF0.0
aF0.0
aF0.0
aF0.0
aF0.0
aF0.0
aF0.0
asS'Bacteria.Campilobacterota.Campylobacteria.Campylobacterales.Campylobacteraceae'
p579
(lp580
F0.0
aF0.0
aF0.0
aF0.0
aF0.0
aF0.0
aF327.4641678631703
aF0.0
aF0.0
aF0.0
aF0.0
aF0.0
aF0.0
aF0.0
asS'Bacteria.Bacteroidota.Bacteroidia.Bacteroidales.Muribaculaceae.Muribaculaceae.uncultured_organism'
p581
(lp582
F0.0
aF0.0
aF0.0
aF0.0
aF0.0
aF0.0
aF0.0
aF0.0
aF0.0
aF0.0
aF0.0
aF0.0
aF668.6363579377584
aF2037.5011280883593
asS'Bacteria.Firmicutes.Clostridia.Lachnospirales.Lachnospiraceae.Acetatifactor'
p583
(lp584
F0.0
aF0.0
aF0.0
aF338.00150974007704
aF0.0
aF0.0
aF0.0
aF0.0
aF0.0
aF0.0
aF0.0
aF0.0
aF0.0
aF0.0
asS'Bacteria.Proteobacteria.Alphaproteobacteria.Rickettsiales.Mitochondria.Mitochondria'
p585
(lp586
F0.0
aF0.0
aF0.0
aF90.1337359306872
aF0.0
aF0.0
aF0.0
aF0.0
aF0.0
aF0.0
aF0.0
aF0.0
aF0.0
aF0.0
asS'Bacteria.Firmicutes.Clostridia.Lachnospirales.Lachnospiraceae.Lachnospiraceae_NK4B4_group.uncultured_bacterium'
p587
(lp588
F0.0
aF0.0
aF0.0
aF0.0
aF0.0
aF0.0
aF0.0
aF0.0
aF314.83370483710496
aF0.0
aF0.0
aF0.0
aF0.0
aF0.0
asS'Bacteria.Actinobacteriota.Coriobacteriia.Coriobacteriales.uncultured.uncultured.uncultured_bacterium'
p589
(lp590
F178.2022952455628
aF492.4848702965326
aF0.0
aF146.4673208873667
aF0.0
aF623.7766449420318
aF12015.41600544094
aF575.8406964576509
aF805.9742843829888
aF1129.9762415251785
aF5869.729866195406
aF0.0
aF0.0
aF531.0692889225196
asS'Bacteria.Firmicutes.Clostridia.Oscillospirales._Eubacterium__coprostanoligenes_group._Eubacterium__coprostanoligenes_group.uncultured_bacterium'
p591
(lp592
F1158.3149190961583
aF2310.890545237576
aF6716.588787028164
aF3278.614644478747
aF0.0
aF0.0
aF1712.8894934381215
aF260.05708872281
aF579.294016900273
aF0.0
aF0.0
aF0.0
aF49980.567755847434
aF72.89186318544387
asS'Bacteria.Firmicutes.Bacilli.Acholeplasmatales.Acholeplasmataceae'
p593
(lp594
F365.31470525340376
aF104.17949179349728
aF29.681894892169915
aF0.0
aF217.6475922735105
aF0.0
aF0.0
aF371.5101267468715
aF0.0
aF0.0
aF1704.1151224438279
aF0.0
aF0.0
aF0.0
asS'Bacteria.Elusimicrobiota.Elusimicrobia.Elusimicrobiales.Elusimicrobiaceae.Elusimicrobium'
p595
(lp596
F0.0
aF0.0
aF0.0
aF0.0
aF0.0
aF0.0
aF0.0
aF0.0
aF0.0
aF0.0
aF0.0
aF0.0
aF91.93749921644176
aF190.90726072378155
asS'Bacteria.Elusimicrobiota.Elusimicrobia.Elusimicrobiales.Elusimicrobiaceae.Elusimicrobium.uncultured_bacterium'
p597
(lp598
F0.0
aF0.0
aF0.0
aF0.0
aF0.0
aF0.0
aF0.0
aF0.0
aF0.0
aF0.0
aF0.0
aF0.0
aF91.93749921644176
aF190.90726072378155
asS'Bacteria.Elusimicrobiota.Elusimicrobia.Elusimicrobiales.Elusimicrobiaceae'
p599
(lp600
F0.0
aF0.0
aF0.0
aF0.0
aF0.0
aF0.0
aF0.0
aF0.0
aF0.0
aF0.0
aF0.0
aF0.0
aF91.93749921644176
aF190.90726072378155
asS'Bacteria.Firmicutes.Bacilli.Izemoplasmatales'
p601
(lp602
F0.0
aF104.17949179349728
aF0.0
aF236.6010568180539
aF0.0
aF0.0
aF0.0
aF117.64487346984264
aF0.0
aF0.0
aF0.0
aF0.0
aF0.0
aF0.0
asS'Bacteria.Firmicutes.Clostridia.Clostridia_UCG_014.Clostridia_UCG_014.Clostridia_UCG_014'
p603
(lp604
F9115.047401810538
aF62810.76268858854
aF18597.827285293894
aF18714.016922608927
aF33064.29672621747
aF33705.44836635048
aF266757.34905161336
aF15851.098741199849
aF107333.10665306583
aF159210.75505591938
aF139674.32466548856
aF80402.01005025125
aF8.35795447422198
aF125804.41377586797
asS'Bacteria.Chloroflexi.Chloroflexia'
p605
(lp606
F0.0
aF0.0
aF0.0
aF0.0
aF0.0
aF0.0
aF0.0
aF179.56322792765457
aF0.0
aF0.0
aF0.0
aF0.0
aF0.0
aF0.0
asS'Bacteria.Acidobacteriota.Blastocatellia.Blastocatellales.Blastocatellaceae.Blastocatella'
p607
(lp608
F0.0
aF0.0
aF0.0
aF0.0
aF0.0
aF0.0
aF377.84327061135036
aF0.0
aF0.0
aF0.0
aF0.0
aF0.0
aF0.0
aF0.0
asS'Bacteria.Actinobacteriota.Coriobacteriia.Coriobacteriales.Atopobiaceae.Coriobacteriaceae_UCG_002'
p609
(lp610
F0.0
aF634.5478136513017
aF0.0
aF281.6679247833975
aF0.0
aF0.0
aF0.0
aF0.0
aF0.0
aF0.0
aF0.0
aF0.0
aF41.7897723711099
aF770.5711251032637
asS'Bacteria.Firmicutes.Clostridia.Oscillospirales.Oscillospiraceae.uncultured.uncultured_bacterium'
p611
(lp612
F516.7866562121321
aF179.94639491604076
aF267.1370540295292
aF276.03456628772955
aF0.0
aF0.0
aF0.0
aF0.0
aF377.80044580452596
aF0.0
aF0.0
aF0.0
aF0.0
aF0.0
asS'Bacteria.Firmicutes.Clostridia.Oscillospirales.Ruminococcaceae.Paludicola.uncultured_bacterium'
p613
(lp614
F0.0
aF0.0
aF0.0
aF0.0
aF0.0
aF301.13355273063604
aF0.0
aF0.0
aF0.0
aF0.0
aF0.0
aF0.0
aF0.0
aF0.0
asS'Bacteria.Proteobacteria.Alphaproteobacteria.Sphingomonadales.Sphingomonadaceae'
p615
(lp616
F0.0
aF0.0
aF0.0
aF0.0
aF0.0
aF0.0
aF604.5492329781605
aF0.0
aF0.0
aF0.0
aF0.0
aF0.0
aF0.0
aF65.94978097730636
asS'Bacteria.Campilobacterota.Campylobacteria.Campylobacterales.Campylobacteraceae.Campylobacter'
p617
(lp618
F0.0
aF0.0
aF0.0
aF0.0
aF0.0
aF0.0
aF327.4641678631703
aF0.0
aF0.0
aF0.0
aF0.0
aF0.0
aF0.0
aF0.0
asS'Bacteria.Patescibacteria.Saccharimonadia.Saccharimonadales'
p619
(lp620
F507.876541449854
aF1288.0373530832392
aF1178.795254289034
aF332.3681512444091
aF0.0
aF2129.444408595212
aF6347.766946270685
aF1486.040506987486
aF1234.1481229614515
aF9851.07492611694
aF15778.84372633174
aF2955.9562518474727
aF0.0
aF22804.740053731726
asS'Bacteria.Bacteroidota.Bacteroidia.Bacteroidales.Marinifilaceae.Butyricimonas'
p621
(lp622
F0.0
aF0.0
aF0.0
aF0.0
aF0.0
aF0.0
aF0.0
aF0.0
aF0.0
aF0.0
aF0.0
aF0.0
aF351.0340879173231
aF0.0
asS'Bacteria.Firmicutes.Clostridia.Lachnospirales.Lachnospiraceae._Bacteroides__pectinophilus_group'
p623
(lp624
F0.0
aF0.0
aF708.1252067131966
aF0.0
aF0.0
aF817.3625002688693
aF0.0
aF897.8161396382728
aF0.0
aF927.1599930463002
aF820.4998737692505
aF4729.530002955957
aF0.0
aF1173.2118931752395
asS'Bacteria.Desulfobacterota.Desulfovibrionia.Desulfovibrionales.Desulfovibrionaceae.uncultured'
p625
(lp626
F0.0
aF0.0
aF0.0
aF0.0
aF0.0
aF0.0
aF0.0
aF0.0
aF0.0
aF0.0
aF0.0
aF0.0
aF2624.397704905701
aF208.26246624412533
asS'Bacteria.Firmicutes.Clostridia.Monoglobales.Monoglobaceae.Monoglobus'
p627
(lp628
F5167.866562121321
aF9584.51324500175
aF55.12351908545841
aF169.00075487003852
aF0.0
aF1269.0628293648233
aF46222.82677145519
aF3312.6319634929373
aF0.0
aF1043.0549921770878
aF29474.880080787687
aF23056.458764410287
aF0.0
aF1218.335427528133
asS'Bacteria.Firmicutes.Clostridia.Oscillospirales.Ruminococcaceae.Subdoligranulum.uncultured_bacterium'
p629
(lp630
F0.0
aF0.0
aF0.0
aF0.0
aF0.0
aF0.0
aF3476.158089624423
aF650.142721807025
aF0.0
aF0.0
aF0.0
aF0.0
aF0.0
aF0.0
asS'Bacteria.Firmicutes.Clostridia.Lachnospirales.Defluviitaleaceae'
p631
(lp632
F106.92137714733768
aF653.4895394319375
aF114.48730886979824
aF783.036830897845
aF0.0
aF0.0
aF0.0
aF544.8815192287449
aF1662.3219615399141
aF0.0
aF0.0
aF0.0
aF0.0
aF45.12353435289383
asS'Bacteria.Firmicutes.Bacilli.RF39.RF39.RF39.uncultured_Paenibacillaceae'
p633
(lp634
F0.0
aF0.0
aF0.0
aF0.0
aF0.0
aF0.0
aF0.0
aF458.1958229878082
aF0.0
aF0.0
aF0.0
aF0.0
aF0.0
aF0.0
asS'Bacteria.Firmicutes.Clostridia.Oscillospirales.Ruminococcaceae.UBA1819.uncultured_bacterium'
p635
(lp636
F1568.1801981609526
aF331.4802011611277
aF0.0
aF1521.0067938303464
aF3300.9884828149093
aF1247.5532898840636
aF0.0
aF167.17955703609218
aF0.0
aF0.0
aF0.0
aF0.0
aF0.0
aF72.89186318544387
asS'Bacteria.Firmicutes.Clostridia.Lachnospirales.Lachnospiraceae.Acetatifactor.uncultured_bacterium'
p637
(lp638
F614.7979185971917
aF123.12121757413315
aF0.0
aF0.0
aF0.0
aF0.0
aF0.0
aF92.87753168671787
aF0.0
aF0.0
aF0.0
aF0.0
aF0.0
aF0.0
asS'Bacteria.Actinobacteriota.Coriobacteriia.Coriobacteriales.Eggerthellaceae'
p639
(lp640
F400.9551643025163
aF1013.382329264019
aF203.532993546308
aF360.5349437227488
aF217.6475922735105
aF4861.1559226516965
aF25794.100607068183
aF204.33056971077934
aF251.86696386968399
aF3129.1649765312636
aF17609.18959858622
aF0.0
aF434.6136326595429
aF732.3896729585075
asS'Bacteria.Firmicutes.Bacilli.Lactobacillales.Enterococcaceae'
p641
(lp642
F0.0
aF0.0
aF0.0
aF0.0
aF0.0
aF0.0
aF0.0
aF0.0
aF0.0
aF0.0
aF0.0
aF0.0
aF79.4005675051088
aF0.0
asS'Bacteria.Actinobacteriota.Coriobacteriia.Coriobacteriales.Coriobacteriales_Incertae_Sedis.uncultured.gut_metagenome'
p643
(lp644
F0.0
aF0.0
aF0.0
aF0.0
aF0.0
aF0.0
aF1536.5626338194913
aF0.0
aF0.0
aF0.0
aF0.0
aF0.0
aF0.0
aF0.0
asS'Bacteria.Proteobacteria.Gammaproteobacteria.Burkholderiales.Comamonadaceae.Comamonas'
p645
(lp646
F0.0
aF0.0
aF0.0
aF0.0
aF0.0
aF0.0
aF0.0
aF0.0
aF226.68026748271558
aF0.0
aF1640.999747538501
aF0.0
aF0.0
aF0.0
asS'Bacteria.Proteobacteria.Gammaproteobacteria.Burkholderiales.Alcaligenaceae'
p647
(lp648
F0.0
aF47.35431445158967
aF0.0
aF0.0
aF0.0
aF0.0
aF957.2029522154209
aF0.0
aF0.0
aF0.0
aF0.0
aF0.0
aF0.0
aF284.6253705336379
asS'Bacteria.Firmicutes.Clostridia.Lachnospirales.Lachnospiraceae.Robinsoniella'
p649
(lp650
F0.0
aF0.0
aF0.0
aF0.0
aF0.0
aF0.0
aF0.0
aF0.0
aF0.0
aF0.0
aF0.0
aF0.0
aF117.0113626391077
aF0.0
asS'Bacteria.Firmicutes.Bacilli'
p651
(lp652
F0.0
aF899.7319745802039
aF2433.915381157933
aF6850.1639307322275
aF3990.2058583476924
aF3376.997698479275
aF4357.7923877175745
aF23665.195073775714
aF8651.630208923643
aF23497.711073767172
aF27960.11108305984
aF10937.03813183565
aF1721.7386216897278
aF1756.3467986587902
asS'Bacteria.Deferribacterota.Deferribacteres.Deferribacterales'
p653
(lp654
F677.1687219331386
aF0.0
aF0.0
aF67.6003019480154
aF0.0
aF0.0
aF0.0
aF0.0
aF125.93348193484199
aF0.0
aF0.0
aF0.0
aF0.0
aF0.0
asS'Bacteria.Firmicutes.Clostridia.Peptostreptococcales_Tissierellales.Anaerovoracaceae._Eubacterium__nodatum_group'
p655
(lp656
F614.7979185971917
aF644.0186765416196
aF500.35194246800717
aF0.0
aF0.0
aF1333.5914478071024
aF0.0
aF402.46930397577745
aF1498.6084350246197
aF1854.3199860926004
aF0.0
aF0.0
aF0.0
aF479.00367236148827
asS'Bacteria.Proteobacteria.Alphaproteobacteria.Sphingomonadales'
p657
(lp658
F0.0
aF0.0
aF0.0
aF0.0
aF0.0
aF0.0
aF604.5492329781605
aF0.0
aF0.0
aF0.0
aF0.0
aF0.0
aF0.0
aF65.94978097730636
asS'Bacteria.Actinobacteriota.Coriobacteriia.Coriobacteriales.Eggerthellaceae.Gordonibacter.uncultured_bacterium'
p659
(lp660
F0.0
aF0.0
aF0.0
aF0.0
aF0.0
aF0.0
aF0.0
aF43.34284812046834
aF0.0
aF0.0
aF0.0
aF0.0
aF0.0
aF0.0
asS'Bacteria.Actinobacteriota.Coriobacteriia.Coriobacteriales.Atopobiaceae.Coriobacteriaceae_UCG_002.uncultured_bacterium'
p661
(lp662
F0.0
aF634.5478136513017
aF0.0
aF281.6679247833975
aF0.0
aF0.0
aF0.0
aF0.0
aF0.0
aF0.0
aF0.0
aF0.0
aF41.7897723711099
aF770.5711251032637
asS'Bacteria.Campilobacterota.Campylobacteria.Campylobacterales.Campylobacteraceae.Campylobacter.Campylobacter_showae'
p663
(lp664
F0.0
aF0.0
aF0.0
aF0.0
aF0.0
aF0.0
aF327.4641678631703
aF0.0
aF0.0
aF0.0
aF0.0
aF0.0
aF0.0
aF0.0
asS'Bacteria.Bacteroidota.Bacteroidia.Bacteroidales.Muribaculaceae.Muribaculum.uncultured_bacterium'
p665
(lp666
F2245.348920094091
aF1202.7995870703778
aF6542.737688374026
aF1188.6386425859373
aF2085.7894259544755
aF817.3625002688693
aF0.0
aF959.7344940960846
aF0.0
aF0.0
aF0.0
aF0.0
aF0.0
aF0.0
asS'Bacteria.Firmicutes.Bacilli.Erysipelotrichales.Erysipelotrichaceae.Faecalibaculum.uncultured_bacterium'
p667
(lp668
F0.0
aF179.94639491604076
aF89.04568467650975
aF0.0
aF0.0
aF0.0
aF856.4447467190607
aF0.0
aF176.30687470877876
aF1014.0812423943909
aF1451.6536228225198
aF0.0
aF0.0
aF118.01539753833768
asS'Bacteria.Firmicutes.Clostridia.Clostridiales'
p669
(lp670
F35.640459049112565
aF7434.627368899579
aF1492.5752860062587
aF822.4703403675207
aF0.0
aF0.0
aF11839.08914582231
aF371.51012674687144
aF100.7467855478736
aF0.0
aF48472.607927291094
aF3251.55187703222
aF1028.0284003293034
aF20520.795007254485
asS'Bacteria.Firmicutes.Negativicutes.Veillonellales_Selenomonadales'
p671
(lp672
F0.0
aF0.0
aF0.0
aF0.0
aF0.0
aF0.0
aF0.0
aF0.0
aF0.0
aF0.0
aF0.0
aF0.0
aF7618.275503253334
aF1197.5091809037206
asS'Bacteria.Firmicutes.Clostridia.Oscillospirales.Oscillospiraceae.UCG_005.uncultured_prokaryote'
p673
(lp674
F0.0
aF0.0
aF0.0
aF0.0
aF0.0
aF0.0
aF0.0
aF1461.2731652043612
aF0.0
aF0.0
aF0.0
aF0.0
aF0.0
aF0.0
asS'Bacteria.Firmicutes.Bacilli.Erysipelotrichales.Erysipelotrichaceae.uncultured'
p675
(lp676
F0.0
aF606.1352249803479
aF0.0
aF563.335849566795
aF0.0
aF0.0
aF0.0
aF910.1998105298352
aF0.0
aF0.0
aF0.0
aF0.0
aF0.0
aF0.0
asS'Bacteria.Firmicutes.Clostridia.Lachnospirales.Lachnospiraceae.Lachnospiraceae_NC2004_group.uncultured_Clostridiaceae'
p677
(lp678
F2869.056953453561
aF16081.525187759851
aF0.0
aF0.0
aF0.0
aF0.0
aF0.0
aF0.0
aF780.7875879960203
aF0.0
aF0.0
aF0.0
aF0.0
aF0.0
asS'Bacteria.Firmicutes.Bacilli.Lactobacillales.Streptococcaceae.Streptococcus.Streptococcus_hyointestinalis'
p679
(lp680
F0.0
aF0.0
aF0.0
aF0.0
aF0.0
aF0.0
aF0.0
aF0.0
aF0.0
aF0.0
aF0.0
aF0.0
aF672.8153351748693
aF787.9263306236076
asS'Bacteria.Proteobacteria.Gammaproteobacteria.Burkholderiales.Burkholderiaceae.Burkholderia_Caballeronia_Paraburkholderia'
p681
(lp682
F106.92137714733768
aF378.8345156127174
aF241.69542983624072
aF78.8670189393513
aF0.0
aF0.0
aF12619.965238419101
aF247.67341783124763
aF982.2811590917676
aF1970.214985223388
aF5932.845241100734
aF0.0
aF171.33806672155055
aF267.2701650132942
asS'Bacteria.Chloroflexi.Chloroflexia.Chloroflexales.Chloroflexaceae.FFCH7168.uncultured_bacterium'
p683
(lp684
F0.0
aF0.0
aF0.0
aF0.0
aF0.0
aF0.0
aF0.0
aF179.56322792765457
aF0.0
aF0.0
aF0.0
aF0.0
aF0.0
aF0.0
asS'Bacteria.Firmicutes.Clostridia.Oscillospirales.Ruminococcaceae.Incertae_Sedis.uncultured_bacterium'
p685
(lp686
F6067.7881531114135
aF6487.541079867786
aF106.00676747203542
aF715.4365289498296
aF0.0
aF1634.7250005377387
aF15390.815889569003
aF9504.467409274128
aF1977.155666377019
aF7533.17494350119
aF18808.38172178743
aF19509.31126219332
aF0.0
aF1565.4395379350087
asS'Bacteria.Firmicutes.Bacilli.Erysipelotrichales.Erysipelotrichaceae.uncultured.uncultured_bacterium'
p687
(lp688
F0.0
aF142.06294335476903
aF0.0
aF197.16754734837824
aF0.0
aF172.07631584607773
aF1183.908914582231
aF427.23664575890217
aF617.0740614807257
aF347.68499739236256
aF0.0
aF0.0
aF0.0
aF1093.377947781658
asS'Bacteria.Firmicutes.Clostridia.Lachnospirales'
p689
(lp690
F238158.45748093238
aF178203.75614422225
aF36517.21125876676
aF129263.04404159678
aF73564.88618844656
aF210255.74842442627
aF95468.39970780117
aF93131.39693999491
aF75119.32197413323
aF89036.33308222752
aF59454.68316081799
aF142477.09133904817
aF108507.14396158686
aF31385.153662989687
asS'Bacteria.Firmicutes.Clostridia.Peptococcales.Peptococcaceae.uncultured'
p691
(lp692
F1443.4385914890588
aF0.0
aF0.0
aF0.0
aF0.0
aF0.0
aF0.0
aF0.0
aF0.0
aF0.0
aF0.0
aF0.0
aF0.0
aF0.0
asS'Bacteria.Firmicutes.Clostridia.Oscillospirales.Oscillospiraceae.uncultured.Clostridium_sp_'
p693
(lp694
F0.0
aF293.59674959985597
aF614.8392513378054
aF411.2351701837604
aF0.0
aF0.0
aF0.0
aF2303.3627858306036
aF0.0
aF0.0
aF0.0
aF0.0
aF0.0
aF0.0
asS'Archaea.Euryarchaeota.Methanobacteria'
p695
(lp696
F0.0
aF0.0
aF0.0
aF0.0
aF0.0
aF0.0
aF0.0
aF0.0
aF0.0
aF0.0
aF0.0
aF0.0
aF83.5795447422198
aF461.6484668411445
asS'Bacteria.Firmicutes.Clostridia.Oscillospirales.Ruminococcaceae.Subdoligranulum'
p697
(lp698
F0.0
aF0.0
aF0.0
aF0.0
aF0.0
aF0.0
aF0.0
aF0.0
aF0.0
aF0.0
aF0.0
aF0.0
aF0.0
aF48.59457545696258
asS'Bacteria.Firmicutes.Clostridia.Peptococcales.Peptococcaceae'
p699
(lp700
F3866.989806828713
aF4441.834695559111
aF7060.050713637559
aF6855.797289227895
aF2829.4186995556365
aF516.2289475382332
aF226.70596236681018
aF885.4324687467105
aF579.294016900273
aF434.60624674045323
aF1325.422873011866
aF0.0
aF0.0
aF142.31268526681896
asS'Bacteria.Firmicutes.Clostridia.Oscillospirales.Ruminococcaceae.Harryflintia'
p701
(lp702
F1202.8654929075487
aF0.0
aF0.0
aF0.0
aF0.0
aF0.0
aF0.0
aF0.0
aF0.0
aF0.0
aF0.0
aF0.0
aF0.0
aF0.0
asS'Bacteria.Firmicutes.Clostridia.Eubacteriales.Eubacteriaceae'
p703
(lp704
F0.0
aF0.0
aF0.0
aF0.0
aF0.0
aF0.0
aF0.0
aF0.0
aF0.0
aF0.0
aF0.0
aF0.0
aF91.93749921644176
aF0.0
asS'Bacteria.Actinobacteriota.Coriobacteriia.Coriobacteriales.Eggerthellaceae.Adlercreutzia'
p705
(lp706
F400.9551643025163
aF861.848523018932
aF203.532993546308
aF0.0
aF0.0
aF4495.493751478781
aF0.0
aF0.0
aF0.0
aF782.2912441328159
aF0.0
aF0.0
aF0.0
aF0.0
asS'Bacteria.Firmicutes.Clostridia.Oscillospirales.Ruminococcaceae.Ruminococcaceae'
p707
(lp708
F80.19103286050326
aF0.0
aF0.0
aF0.0
aF0.0
aF0.0
aF0.0
aF0.0
aF163.71352651529457
aF0.0
aF0.0
aF0.0
aF0.0
aF114.54435643426893
asS'Bacteria.Proteobacteria.Alphaproteobacteria.Rhizobiales.Beijerinckiaceae.Microvirga'
p709
(lp710
F0.0
aF0.0
aF0.0
aF0.0
aF0.0
aF0.0
aF0.0
aF0.0
aF0.0
aF0.0
aF883.6152486745774
aF0.0
aF0.0
aF0.0
asS'Bacteria.Firmicutes.Clostridia.Peptostreptococcales_Tissierellales.Anaerovoracaceae._Eubacterium__brachy_group.uncultured_bacterium'
p711
(lp712
F115.83149190961582
aF0.0
aF0.0
aF78.8670189393513
aF0.0
aF0.0
aF0.0
aF0.0
aF0.0
aF0.0
aF1704.1151224438279
aF0.0
aF0.0
aF59.00769876916884
asS'Bacteria.Firmicutes.Negativicutes.Veillonellales_Selenomonadales.Veillonellaceae.Veillonella'
p713
(lp714
F0.0
aF0.0
aF0.0
aF0.0
aF0.0
aF0.0
aF0.0
aF0.0
aF0.0
aF0.0
aF0.0
aF0.0
aF522.3721546388737
aF152.72580857902526
asS'Bacteria.Firmicutes.Clostridia.Peptococcales.Peptococcaceae.uncultured.uncultured_bacterium'
p715
(lp716
F231.66298381923164
aF246.2424351482663
aF0.0
aF0.0
aF0.0
aF516.2289475382332
aF0.0
aF191.94689881921695
aF0.0
aF0.0
aF0.0
aF0.0
aF0.0
aF0.0
asS'Bacteria.Firmicutes.Clostridia.Lachnospirales.Lachnospiraceae._Eubacterium__hallii_group.Clostridium_sp_'
p717
(lp718
F0.0
aF0.0
aF0.0
aF0.0
aF0.0
aF0.0
aF0.0
aF260.05708872281
aF0.0
aF0.0
aF0.0
aF0.0
aF0.0
aF0.0
asS'Bacteria.Proteobacteria.Alphaproteobacteria.Rhodospirillales'
p719
(lp720
F133.6517214341721
aF0.0
aF330.74111451275047
aF174.63411336570644
aF0.0
aF0.0
aF0.0
aF0.0
aF0.0
aF0.0
aF0.0
aF0.0
aF1771.8863485350594
aF0.0
asS'Bacteria.Actinobacteriota.Actinobacteria.Micrococcales.Micrococcaceae.Rothia'
p721
(lp722
F0.0
aF0.0
aF72.08460188098408
aF90.1337359306872
aF0.0
aF0.0
aF1813.6476989344815
aF0.0
aF0.0
aF0.0
aF1767.2304973491548
aF0.0
aF121.19033987621869
aF131.89956195461272
asS'Bacteria.Proteobacteria.Gammaproteobacteria.Pasteurellales.Pasteurellaceae.Rodentibacter.Pasteurellaceae_bacterium'
p723
(lp724
F0.0
aF0.0
aF0.0
aF0.0
aF0.0
aF0.0
aF1788.4581475603916
aF0.0
aF0.0
aF0.0
aF0.0
aF0.0
aF0.0
aF0.0
asS'Bacteria.Firmicutes.Bacilli.Erysipelotrichales.Erysipelatoclostridiaceae.Erysipelotrichaceae_UCG_003'
p725
(lp726
F0.0
aF0.0
aF0.0
aF0.0
aF0.0
aF0.0
aF0.0
aF0.0
aF0.0
aF1245.871240655966
aF0.0
aF0.0
aF0.0
aF0.0
asS'Bacteria.Firmicutes.Clostridia.Lachnospirales.Lachnospiraceae._Eubacterium__ruminantium_group.uncultured_bacterium'
p727
(lp728
F2040.4162805616938
aF58018.50606608767
aF3646.6328010380184
aF0.0
aF0.0
aF98105.00957174507
aF0.0
aF0.0
aF0.0
aF0.0
aF0.0
aF0.0
aF0.0
aF0.0
asS'Bacteria.Firmicutes.Bacilli.RF39.RF39.RF39.uncultured_Lachnospiraceae'
p729
(lp730
F0.0
aF0.0
aF97.52622607427259
aF101.40045292202309
aF0.0
aF0.0
aF2115.922315423562
aF0.0
aF3551.3241905625437
aF724.3437445674222
aF1704.1151224438279
aF0.0
aF0.0
aF527.5982478184509
asS'Bacteria.Firmicutes.Clostridia.Eubacteriales.Eubacteriaceae.Eubacterium'
p731
(lp732
F0.0
aF0.0
aF0.0
aF0.0
aF0.0
aF0.0
aF0.0
aF0.0
aF0.0
aF0.0
aF0.0
aF0.0
aF91.93749921644176
aF0.0
asS'Bacteria.Bacteroidota.Bacteroidia.Bacteroidales.Bacteroidaceae.Bacteroides.Bacteroides_sartorii'
p733
(lp734
F0.0
aF0.0
aF0.0
aF0.0
aF0.0
aF0.0
aF0.0
aF0.0
aF0.0
aF0.0
aF0.0
aF0.0
aF23974.792409305748
aF0.0
asS'Bacteria.Firmicutes.Clostridia.Lachnospirales.Defluviitaleaceae.Defluviitaleaceae_UCG_011.uncultured_bacterium'
p735
(lp736
F106.92137714733768
aF653.4895394319375
aF114.48730886979824
aF501.36890611444755
aF0.0
aF0.0
aF0.0
aF0.0
aF0.0
aF0.0
aF0.0
aF0.0
aF0.0
aF0.0
asS'Bacteria.Firmicutes.Clostridia.Oscillospirales.Ruminococcaceae'
p737
(lp738
F36914.605460118335
aF60869.235796073364
aF4829.668326025933
aF5853.059476999
aF7672.077627641244
aF4215.869738228905
aF352.6537192372603
aF10916.20589091224
aF9583.537975241476
aF1245.871240655966
aF820.4998737692505
aF14484.185634052616
aF292.5284065977693
aF999.6598379718016
asS'Bacteria.Firmicutes.Bacilli.Erysipelotrichales.Erysipelatoclostridiaceae.UCG_004.uncultured_bacterium'
p739
(lp740
F329.6742462042912
aF729.256442554481
aF0.0
aF219.70098133105006
aF217.6475922735105
aF494.71940805747346
aF251.8955137409002
aF1263.134430939363
aF0.0
aF0.0
aF0.0
aF0.0
aF0.0
aF20.826246624412533
asS'Bacteria.Firmicutes.Clostridia.Lachnospirales.Lachnospiraceae.Lachnospiraceae_NC2004_group'
p741
(lp742
F2869.056953453561
aF16081.525187759851
aF0.0
aF0.0
aF0.0
aF0.0
aF0.0
aF0.0
aF780.7875879960203
aF0.0
aF0.0
aF0.0
aF0.0
aF0.0
asS'Bacteria.Cyanobacteria.Cyanobacteriia.Chloroplast.Chloroplast'
p743
(lp744
F0.0
aF0.0
aF0.0
aF0.0
aF0.0
aF0.0
aF302.27461648908024
aF0.0
aF0.0
aF0.0
aF0.0
aF0.0
aF0.0
aF0.0
asS'Bacteria.Firmicutes.Bacilli.Erysipelotrichales.Erysipelatoclostridiaceae.Erysipelotrichaceae_UCG_003.uncultured_bacterium'
p745
(lp746
F0.0
aF0.0
aF0.0
aF0.0
aF0.0
aF0.0
aF0.0
aF0.0
aF0.0
aF1245.871240655966
aF0.0
aF0.0
aF0.0
aF0.0
asS'Bacteria.Firmicutes.Bacilli.Staphylococcales.Staphylococcaceae.Staphylococcus'
p747
(lp748
F0.0
aF0.0
aF0.0
aF0.0
aF0.0
aF0.0
aF1360.235774200861
aF0.0
aF0.0
aF0.0
aF0.0
aF0.0
aF0.0
aF76.36290428951263
asS'Bacteria.Firmicutes.Bacilli.RF39.RF39.RF39'
p749
(lp750
F472.2360824007414
aF899.7319745802039
aF593.6378978433983
aF901.337359306872
aF870.590369094042
aF1849.8203953453358
aF14282.475629109042
aF978.3100004334283
aF1045.2479000591884
aF7185.489946108827
aF7700.0757384498875
aF0.0
aF0.0
aF4567.8900929544825
asS'Bacteria.Firmicutes.Clostridia.Lachnospirales.Lachnospiraceae.Lachnospiraceae_UCG_010'
p751
(lp752
F106.92137714733768
aF0.0
aF0.0
aF0.0
aF0.0
aF0.0
aF0.0
aF43.34284812046834
aF0.0
aF0.0
aF0.0
aF0.0
aF0.0
aF0.0
asS'Bacteria.Firmicutes.Bacilli.Bacillales'
p753
(lp754
F0.0
aF0.0
aF0.0
aF0.0
aF0.0
aF0.0
aF932.0134008413308
aF0.0
aF0.0
aF0.0
aF0.0
aF0.0
aF0.0
aF79.83394539358137
asS'Bacteria.Chloroflexi.Chloroflexia.Chloroflexales'
p755
(lp756
F0.0
aF0.0
aF0.0
aF0.0
aF0.0
aF0.0
aF0.0
aF179.56322792765457
aF0.0
aF0.0
aF0.0
aF0.0
aF0.0
aF0.0
asS'Bacteria.Firmicutes.Clostridia.Monoglobales'
p757
(lp758
F5167.866562121321
aF9584.51324500175
aF55.12351908545841
aF169.00075487003852
aF0.0
aF2086.4253296336924
aF60253.40688682333
aF16686.996526380313
aF340.0204012240734
aF1043.0549921770878
aF35344.609946983095
aF23056.458764410287
aF0.0
aF2280.4740053731725
asS'Bacteria.Firmicutes.Clostridia.Lachnospirales.Lachnospiraceae._Bacteroides__pectinophilus_group.uncultured_bacterium'
p759
(lp760
F0.0
aF0.0
aF708.1252067131966
aF0.0
aF0.0
aF817.3625002688693
aF0.0
aF897.8161396382728
aF0.0
aF927.1599930463002
aF820.4998737692505
aF4729.530002955957
aF0.0
aF1173.2118931752395
asS'Bacteria.Proteobacteria.Alphaproteobacteria.Rickettsiales'
p761
(lp762
F0.0
aF0.0
aF0.0
aF90.1337359306872
aF0.0
aF0.0
aF0.0
aF0.0
aF0.0
aF0.0
aF0.0
aF0.0
aF0.0
aF0.0
asS'Bacteria.Firmicutes.Clostridia.Monoglobales.Monoglobaceae.Monoglobus.unidentified'
p763
(lp764
F0.0
aF0.0
aF0.0
aF0.0
aF0.0
aF817.3625002688693
aF0.0
aF0.0
aF0.0
aF0.0
aF0.0
aF0.0
aF0.0
aF52.065616561031334
asS'Bacteria.Actinobacteriota.Actinobacteria.Micrococcales'
p765
(lp766
F0.0
aF28.412588670953806
aF72.08460188098408
aF90.1337359306872
aF0.0
aF0.0
aF1813.6476989344815
aF0.0
aF0.0
aF0.0
aF1767.2304973491548
aF0.0
aF121.19033987621869
aF131.89956195461272
asS'Bacteria.Bacteroidota.Bacteroidia.Bacteroidales.Prevotellaceae.Prevotellaceae_UCG_003.uncultured_bacterium'
p767
(lp768
F0.0
aF0.0
aF0.0
aF0.0
aF0.0
aF0.0
aF0.0
aF0.0
aF0.0
aF0.0
aF0.0
aF0.0
aF105861.85137049558
aF19285.104374206006
asS'Bacteria.Firmicutes.Clostridia.Oscillospirales.Oscillospiraceae.NK4A214_group'
p769
(lp770
F8509.159597975624
aF11412.389782833112
aF0.0
aF3396.9151728877737
aF3210.3019860342797
aF1053.9674345572262
aF1914.4059044308417
aF1380.779304409206
aF554.1073205133048
aF0.0
aF0.0
aF0.0
aF0.0
aF4609.542586203307
asS'Bacteria.Campilobacterota'
p771
(lp772
F0.0
aF66.29604023222554
aF0.0
aF0.0
aF0.0
aF193.58585532683745
aF327.4641678631703
aF0.0
aF0.0
aF0.0
aF0.0
aF0.0
aF639.3835172779814
aF458.17742573707574
asS'Bacteria.Firmicutes.Clostridia.Clostridiales.Clostridiaceae.Clostridium_sensu_stricto_1'
p773
(lp774
F35.640459049112565
aF7434.627368899579
aF1492.5752860062587
aF822.4703403675207
aF0.0
aF0.0
aF11839.08914582231
aF111.45303802406144
aF100.7467855478736
aF0.0
aF48472.607927291094
aF3251.55187703222
aF1028.0284003293034
aF20520.795007254485
asS'Bacteria.Bacteroidota.Bacteroidia.Bacteroidales.Prevotellaceae.Prevotellaceae_NK3B31_group.uncultured_bacterium'
p775
(lp776
F68296.02965286194
aF26092.22726282591
aF217860.8682378283
aF3008.2134366866853
aF93479.64088147276
aF11421.56546428341
aF4055.517771228493
aF86407.06364587654
aF117848.55239462513
aF20223.677348322424
aF0.0
aF46408.51315400532
aF171.33806672155055
aF4807.391929135227
asS'Bacteria.Firmicutes.Clostridia.Peptostreptococcales_Tissierellales'
p777
(lp778
F3145.2705110841835
aF22796.36697699527
aF2467.8375467489846
aF11615.985218067313
aF2357.8489162963638
aF3635.112172248392
aF9823.925035895109
aF2916.3544949629413
aF4180.991600236754
aF24193.081068551895
aF54468.56854329716
aF0.0
aF5052.383479667186
aF8590.82673257017
asS'Bacteria.Proteobacteria.Gammaproteobacteria.Enterobacterales.Erwiniaceae'
p779
(lp780
F0.0
aF0.0
aF0.0
aF0.0
aF0.0
aF0.0
aF0.0
aF0.0
aF138.5268301283262
aF0.0
aF0.0
aF0.0
aF0.0
aF0.0
asS'Bacteria.Firmicutes.Clostridia.Oscillospirales.Ruminococcaceae.Ruminococcus.Clostridium_islandicum'
p781
(lp782
F0.0
aF0.0
aF0.0
aF0.0
aF0.0
aF0.0
aF0.0
aF0.0
aF0.0
aF0.0
aF504.9229992426156
aF0.0
aF0.0
aF0.0
asS'Bacteria.Proteobacteria.Gammaproteobacteria.Enterobacterales.Erwiniaceae.uncultured.Pantoea_sp_'
p783
(lp784
F0.0
aF0.0
aF0.0
aF0.0
aF0.0
aF0.0
aF0.0
aF0.0
aF138.5268301283262
aF0.0
aF0.0
aF0.0
aF0.0
aF0.0
asS'Bacteria.Actinobacteriota.Coriobacteriia.Coriobacteriales.Eggerthellaceae.Parvibacter'
p785
(lp786
F0.0
aF0.0
aF0.0
aF0.0
aF0.0
aF0.0
aF0.0
aF0.0
aF251.86696386968399
aF0.0
aF0.0
aF0.0
aF0.0
aF0.0
asS'Bacteria.Actinobacteriota.Coriobacteriia'
p787
(lp788
F579.1574595480791
aF2140.415013211853
aF203.532993546308
aF788.6701893935129
aF217.6475922735105
aF5484.932567593728
aF39346.07924632861
aF780.1712661684302
aF1057.8412482526728
aF4259.141218056442
aF23478.919464781626
aF0.0
aF476.40340503065283
aF2034.0300869842908
asS'Bacteria.Firmicutes.Bacilli.Lactobacillales'
p789
(lp790
F8580.44051607385
aF61835.263810885794
aF82969.37676501268
aF42965.62524645945
aF50040.80892355129
aF265879.41752167087
aF82999.57177762662
aF55299.28236627182
aF5717.380079841826
aF43315.75592513184
aF135066.90229739968
aF388117.0558675732
aF10088.05105038593
aF15553.735187332091
asS'Bacteria.Firmicutes.Bacilli.Erysipelotrichales.Erysipelatoclostridiaceae.Erysipelatoclostridium'
p791
(lp792
F0.0
aF0.0
aF0.0
aF0.0
aF0.0
aF0.0
aF0.0
aF160.98772159031097
aF0.0
aF0.0
aF0.0
aF0.0
aF656.0994262264253
aF0.0
asS'Bacteria.Proteobacteria.Alphaproteobacteria.Rhodospirillales.uncultured.uncultured.Azospirillum_sp_'
p793
(lp794
F133.6517214341721
aF0.0
aF330.74111451275047
aF174.63411336570644
aF0.0
aF0.0
aF0.0
aF0.0
aF0.0
aF0.0
aF0.0
aF0.0
aF121.19033987621869
aF0.0
asS'Bacteria.Firmicutes.Clostridia.Lachnospirales.Lachnospiraceae._Eubacterium__ventriosum_group'
p795
(lp796
F864.2811319409795
aF0.0
aF385.8646335982089
aF0.0
aF0.0
aF0.0
aF0.0
aF0.0
aF0.0
aF0.0
aF0.0
aF0.0
aF0.0
aF0.0
asS'Bacteria.Firmicutes.Clostridia.Lachnospirales.Lachnospiraceae.Lachnoclostridium'
p797
(lp798
F864.2811319409795
aF0.0
aF0.0
aF546.4357740797911
aF0.0
aF1204.5342109225442
aF377.84327061135036
aF0.0
aF0.0
aF695.3699947847251
aF2777.0764958343857
aF0.0
aF13498.096475868497
aF548.4244944428634
asS'Bacteria.Deferribacterota'
p799
(lp800
F677.1687219331386
aF0.0
aF0.0
aF67.6003019480154
aF0.0
aF0.0
aF0.0
aF0.0
aF125.93348193484199
aF0.0
aF0.0
aF0.0
aF0.0
aF0.0
asS'Bacteria.Actinobacteriota'
p801
(lp802
F579.1574595480791
aF2168.827601882807
aF3549.1065749637455
aF3706.749890149511
aF1577.9450439829511
aF5484.932567593728
aF42671.1000277085
aF780.1712661684302
aF1057.8412482526728
aF8865.967433505246
aF26129.76521080536
aF0.0
aF597.5937449068714
aF4144.423078258094
asS'Bacteria.Firmicutes.Clostridia.Oscillospirales._Eubacterium__coprostanoligenes_group._Eubacterium__coprostanoligenes_group.Clostridiales_bacterium'
p803
(lp804
F258.39332810606606
aF0.0
aF0.0
aF0.0
aF0.0
aF0.0
aF1209.098465956321
aF0.0
aF0.0
aF0.0
aF0.0
aF0.0
aF0.0
aF7542.572319141406
asS'Bacteria.Cyanobacteria.Vampirivibrionia.Gastranaerophilales.Gastranaerophilales.Gastranaerophilales'
p805
(lp806
F115.83149190961582
aF0.0
aF530.033837360177
aF1115.404982142254
aF1741.180738188084
aF0.0
aF0.0
aF210.5224051565605
aF0.0
aF0.0
aF0.0
aF0.0
aF0.0
aF0.0
asS'Bacteria.Proteobacteria.Gammaproteobacteria.Enterobacterales.Enterobacteriaceae'
p807
(lp808
F409.86527906479444
aF2367.715722579484
aF432.5076112859045
aF1785.77464312674
aF253.92219098576223
aF2581.144737691166
aF9874.304138643287
aF2024.7301907704496
aF4243.958341204175
aF10024.917424813122
aF27896.995708154514
aF11232.633757020396
aF936.0909011128616
aF1690.397017681484
asS'Bacteria.Elusimicrobiota.Elusimicrobia'
p809
(lp810
F0.0
aF0.0
aF0.0
aF0.0
aF0.0
aF0.0
aF0.0
aF0.0
aF0.0
aF0.0
aF0.0
aF0.0
aF91.93749921644176
aF190.90726072378155
asS'Bacteria.Proteobacteria.Gammaproteobacteria.Pasteurellales.Pasteurellaceae'
p811
(lp812
F356.4045904911256
aF823.9650714576603
aF0.0
aF0.0
aF0.0
aF1204.5342109225442
aF1788.4581475603916
aF222.90607604812288
aF0.0
aF0.0
aF0.0
aF0.0
aF1391.5994199579595
aF666.4398919812011
asS'Bacteria.Cyanobacteria.Vampirivibrionia.Gastranaerophilales.Gastranaerophilales.Gastranaerophilales.uncultured_rumen'
p813
(lp814
F178.2022952455628
aF0.0
aF0.0
aF884.4372838198682
aF1414.7093497778183
aF0.0
aF0.0
aF0.0
aF0.0
aF0.0
aF0.0
aF0.0
aF0.0
aF79.83394539358137
asS'Bacteria.Firmicutes.Clostridia.Monoglobales.Monoglobaceae'
p815
(lp816
F5167.866562121321
aF9584.51324500175
aF55.12351908545841
aF169.00075487003852
aF0.0
aF2086.4253296336924
aF60253.40688682333
aF16686.996526380313
aF340.0204012240734
aF1043.0549921770878
aF35344.609946983095
aF23056.458764410287
aF0.0
aF2280.4740053731725
asS'Bacteria.Firmicutes.Clostridia.Oscillospirales.UCG_010.UCG_010.uncultured_organism'
p817
(lp818
F0.0
aF0.0
aF0.0
aF0.0
aF0.0
aF0.0
aF0.0
aF377.70196219265273
aF302.24035664362077
aF0.0
aF0.0
aF0.0
aF0.0
aF1017.0150434921454
asS'Bacteria.Cyanobacteria.Cyanobacteriia'
p819
(lp820
F0.0
aF0.0
aF0.0
aF0.0
aF0.0
aF0.0
aF302.27461648908024
aF0.0
aF0.0
aF0.0
aF0.0
aF0.0
aF0.0
aF0.0
asS'Bacteria.Firmicutes.Bacilli.Lactobacillales.Lactobacillaceae'
p821
(lp822
F8580.44051607385
aF61835.263810885794
aF82765.84377146639
aF42785.35777459808
aF50040.80892355129
aF265879.41752167087
aF77936.47195143453
aF55299.28236627182
aF5213.6461521024585
aF43315.75592513184
aF130711.94142893211
aF388117.0558675732
aF9114.349354139067
aF14765.808856708485
asS'Bacteria.Chloroflexi'
p823
(lp824
F0.0
aF0.0
aF0.0
aF0.0
aF0.0
aF0.0
aF0.0
aF179.56322792765457
aF0.0
aF0.0
aF0.0
aF0.0
aF0.0
aF0.0
asS'Bacteria.Firmicutes.Clostridia.Lachnospirales.Lachnospiraceae.Lachnospiraceae'
p825
(lp826
F0.0
aF0.0
aF0.0
aF0.0
aF0.0
aF0.0
aF0.0
aF0.0
aF0.0
aF0.0
aF0.0
aF0.0
aF259.09658870088134
aF0.0
asS'Bacteria.Firmicutes.Bacilli.RF39.RF39.RF39.human_gut'
p827
(lp828
F0.0
aF0.0
aF0.0
aF0.0
aF0.0
aF0.0
aF0.0
aF0.0
aF1057.8412482526726
aF5331.1699600162265
aF0.0
aF0.0
aF0.0
aF0.0
asS'Bacteria.Firmicutes.Clostridia.Lachnospirales.Lachnospiraceae._Eubacterium__xylanophilum_group'
p829
(lp830
F0.0
aF0.0
aF390.10490429709034
aF10337.212839550688
aF0.0
aF17530.27467681917
aF957.2029522154209
aF4885.358166721359
aF0.0
aF0.0
aF2840.191870739713
aF0.0
aF0.0
aF97.18915091392516
asS'Archaea.Euryarchaeota.Methanobacteria.Methanobacteriales.Methanobacteriaceae.Methanosphaera'
p831
(lp832
F0.0
aF0.0
aF0.0
aF0.0
aF0.0
aF0.0
aF0.0
aF0.0
aF0.0
aF0.0
aF0.0
aF0.0
aF83.5795447422198
aF461.6484668411445
asS'Bacteria.Firmicutes.Clostridia.Lachnospirales.Lachnospiraceae.GCA_900066575.uncultured_bacterium'
p833
(lp834
F1755.2926081687935
aF681.9021281028913
aF648.7614169288568
aF732.3366044368335
aF0.0
aF0.0
aF0.0
aF198.1387342649981
aF0.0
aF0.0
aF0.0
aF0.0
aF0.0
aF354.04619261501307
asS'Bacteria.Firmicutes.Clostridia.Peptostreptococcales_Tissierellales.Anaerovoracaceae.Anaerovorax.uncultured_bacterium'
p835
(lp836
F775.1799843181982
aF0.0
aF0.0
aF591.5026420451347
aF417.1578851908951
aF0.0
aF0.0
aF0.0
aF0.0
aF0.0
aF0.0
aF0.0
aF0.0
aF0.0
asS'Bacteria.Proteobacteria.Alphaproteobacteria.Rhizobiales.Rhizobiaceae.uncultured'
p837
(lp838
F0.0
aF0.0
aF0.0
aF0.0
aF0.0
aF0.0
aF0.0
aF0.0
aF0.0
aF0.0
aF0.0
aF0.0
aF0.0
aF59.00769876916884
asS'Bacteria.Firmicutes.Clostridia'
p839
(lp840
F0.0
aF596.66436209003
aF0.0
aF0.0
aF0.0
aF0.0
aF0.0
aF0.0
aF0.0
aF0.0
aF0.0
aF0.0
aF0.0
aF0.0
asS'Bacteria.Firmicutes.Clostridia.Lachnospirales.Lachnospiraceae.GCA_900066575'
p841
(lp842
F1755.2926081687935
aF681.9021281028913
aF648.7614169288568
aF732.3366044368335
aF0.0
aF0.0
aF0.0
aF198.1387342649981
aF0.0
aF0.0
aF0.0
aF0.0
aF0.0
aF354.04619261501307
asS'Bacteria.Proteobacteria.Alphaproteobacteria.Rhodospirillales.uncultured.uncultured.uncultured_bacterium'
p843
(lp844
F0.0
aF0.0
aF0.0
aF0.0
aF0.0
aF0.0
aF0.0
aF0.0
aF0.0
aF0.0
aF0.0
aF0.0
aF1558.758509442399
aF0.0
asS'Bacteria.Firmicutes.Bacilli.Erysipelotrichales.Erysipelotrichaceae'
p845
(lp846
F481.14619716301956
aF0.0
aF0.0
aF0.0
aF0.0
aF0.0
aF0.0
aF0.0
aF0.0
aF0.0
aF0.0
aF0.0
aF0.0
aF0.0
asS'Bacteria.Firmicutes.Clostridia.Lachnospirales.Lachnospiraceae.Lachnospiraceae_FCS020_group.uncultured_prokaryote'
p847
(lp848
F0.0
aF426.18883006430707
aF0.0
aF0.0
aF0.0
aF0.0
aF0.0
aF0.0
aF0.0
aF0.0
aF0.0
aF0.0
aF0.0
aF0.0
asS'Bacteria.Bacteroidota.Bacteroidia.Bacteroidales.Muribaculaceae.Muribaculum'
p849
(lp850
F2245.348920094091
aF1202.7995870703778
aF6542.737688374026
aF1188.6386425859373
aF2085.7894259544755
aF817.3625002688693
aF0.0
aF959.7344940960846
aF0.0
aF0.0
aF0.0
aF0.0
aF0.0
aF0.0
asS'Bacteria.Desulfobacterota.Desulfovibrionia.Desulfovibrionales.Desulfovibrionaceae.uncultured.uncultured_bacterium'
p851
(lp852
F0.0
aF0.0
aF0.0
aF0.0
aF0.0
aF0.0
aF0.0
aF0.0
aF0.0
aF0.0
aF0.0
aF0.0
aF2624.397704905701
aF208.26246624412533
asS'Bacteria.Proteobacteria.Gammaproteobacteria.Burkholderiales.Comamonadaceae'
p853
(lp854
F0.0
aF0.0
aF16.961082795525666
aF0.0
aF0.0
aF0.0
aF327.4641678631703
aF0.0
aF12.5933481934842
aF550.5012458712408
aF63.11537490532695
aF0.0
aF25.073863422665937
aF17.355205520343777
asS'Bacteria.Firmicutes.Clostridia.Clostridia_vadinBB60_group.Clostridia_vadinBB60_group.Clostridia_vadinBB60_group.gut_metagenome'
p855
(lp856
F0.0
aF0.0
aF21.20135349440708
aF0.0
aF0.0
aF0.0
aF0.0
aF0.0
aF0.0
aF0.0
aF0.0
aF0.0
aF54.32670408244286
aF0.0
asS'Bacteria.Firmicutes.Clostridia.Oscillospirales._Eubacterium__coprostanoligenes_group'
p857
(lp858
F4134.293249697057
aF86857.28356710578
aF21553.29596241424
aF18640.78326216525
aF32193.70635712343
aF105955.99148222237
aF2921.9879593944424
aF13269.103360309095
aF22516.906569949744
aF58034.42081474186
aF7384.498863923254
aF90747.85693171741
aF50005.64161927011
aF38584.09291282829
asS'Bacteria.Firmicutes.Bacilli.Erysipelotrichales.Erysipelatoclostridiaceae.Erysipelatoclostridiaceae.uncultured_bacterium'
p859
(lp860
F0.0
aF0.0
aF0.0
aF22.5334339826718
aF0.0
aF0.0
aF0.0
aF0.0
aF0.0
aF0.0
aF0.0
aF0.0
aF0.0
aF0.0
asS'Bacteria.Firmicutes.Clostridia.uncultured.uncultured.uncultured'
p861
(lp862
F0.0
aF0.0
aF0.0
aF0.0
aF0.0
aF0.0
aF0.0
aF0.0
aF390.39379399801015
aF0.0
aF0.0
aF0.0
aF0.0
aF114.54435643426893
asS'Bacteria.Firmicutes.Clostridia.Lachnospirales.Lachnospiraceae.A2.uncultured_bacterium'
p863
(lp864
F570.247344785801
aF0.0
aF72.08460188098408
aF0.0
aF0.0
aF0.0
aF0.0
aF0.0
aF402.9871421914944
aF0.0
aF0.0
aF0.0
aF0.0
aF0.0
asS'Bacteria.Firmicutes.Clostridia.Clostridia_UCG_014'
p865
(lp866
F11583.149190961582
aF70794.70010512655
aF22872.020149766362
aF70670.48232815442
aF52833.95302439468
aF71304.12337871848
aF275221.0383133076
aF35850.7272310731
aF116198.8237812787
aF175957.58243031817
aF166182.78212572588
aF80402.01005025125
aF8.35795447422198
aF175846.4133732272
asS'Bacteria.Firmicutes.Clostridia.Oscillospirales.Ruminococcaceae._Eubacterium__siraeum_group'
p867
(lp868
F46653.360895288344
aF615.6060878706658
aF517.3130252635328
aF0.0
aF0.0
aF17035.555268761695
aF0.0
aF66413.62699144907
aF3299.45722669286
aF4925.53746305847
aF0.0
aF0.0
aF0.0
aF3727.8981457698437
asS'Bacteria.Firmicutes.Clostridia.Oscillospirales.Ruminococcaceae.Fournierella'
p869
(lp870
F1185.0452633829925
aF0.0
aF186.57191075078234
aF6253.027930191424
aF1450.98394849007
aF0.0
aF0.0
aF154.7958861445298
aF0.0
aF0.0
aF0.0
aF0.0
aF0.0
aF281.1543294295692
asS'Bacteria.Firmicutes.Bacilli.Erysipelotrichales.Erysipelatoclostridiaceae.Erysipelatoclostridium.uncultured_bacterium'
p871
(lp872
F445.505738113907
aF0.0
aF0.0
aF0.0
aF0.0
aF0.0
aF6398.146049018865
aF625.3753800239003
aF0.0
aF0.0
aF2272.1534965917704
aF0.0
aF0.0
aF0.0
asS'Bacteria.Proteobacteria.Gammaproteobacteria.Enterobacterales.Morganellaceae'
p873
(lp874
F0.0
aF0.0
aF0.0
aF0.0
aF0.0
aF0.0
aF0.0
aF0.0
aF0.0
aF0.0
aF0.0
aF0.0
aF238.20170251532642
aF0.0
asS'Bacteria.Firmicutes.Clostridia.Peptococcales.Peptococcaceae.Peptococcus.uncultured_bacterium'
p875
(lp876
F329.6742462042912
aF0.0
aF0.0
aF123.9338869046949
aF0.0
aF0.0
aF0.0
aF105.26120257828025
aF0.0
aF0.0
aF0.0
aF0.0
aF0.0
aF0.0
asS'Bacteria.Bacteroidota.Bacteroidia.Bacteroidales.Tannerellaceae.Parabacteroides.Parabacteroides_goldsteinii'
p877
(lp878
F320.764131442013
aF483.01400740621466
aF8637.431413621445
aF946.4042272722156
aF2811.2814001995107
aF0.0
aF0.0
aF2464.3505074209143
aF2291.9893712141243
aF840.2387436982096
aF0.0
aF0.0
aF20765.33789120451
aF0.0
asS'Bacteria.Firmicutes.Bacilli.Lactobacillales.Enterococcaceae.Enterococcus'
p879
(lp880
F0.0
aF0.0
aF0.0
aF0.0
aF0.0
aF0.0
aF0.0
aF0.0
aF0.0
aF0.0
aF0.0
aF0.0
aF79.4005675051088
aF0.0
asS'Bacteria.Firmicutes.Clostridia.Eubacteriales'
p881
(lp882
F0.0
aF75.76690312254348
aF0.0
aF0.0
aF0.0
aF0.0
aF0.0
aF111.45303802406144
aF365.2070976110418
aF1187.9237410905723
aF0.0
aF0.0
aF91.93749921644176
aF0.0
asS'Bacteria.Firmicutes.Bacilli.Erysipelotrichales.Erysipelatoclostridiaceae.Coprobacillus'
p883
(lp884
F0.0
aF0.0
aF0.0
aF0.0
aF0.0
aF0.0
aF0.0
aF0.0
aF0.0
aF0.0
aF0.0
aF0.0
aF3280.497131132127
aF0.0
asS'Bacteria.Proteobacteria.Alphaproteobacteria.Rhodospirillales.uncultured'
p885
(lp886
F133.6517214341721
aF0.0
aF330.74111451275047
aF174.63411336570644
aF0.0
aF0.0
aF0.0
aF0.0
aF0.0
aF0.0
aF0.0
aF0.0
aF1771.8863485350594
aF0.0
asS'Bacteria.Desulfobacterota.Desulfovibrionia.Desulfovibrionales'
p887
(lp888
F0.0
aF0.0
aF0.0
aF0.0
aF0.0
aF0.0
aF0.0
aF1820.3996210596704
aF0.0
aF0.0
aF0.0
aF0.0
aF3723.4687182658913
aF3405.0913230914493
asS'Bacteria.Firmicutes.Clostridia.Lachnospirales.Lachnospiraceae.Blautia.Lachnospiraceae_bacterium'
p889
(lp890
F0.0
aF0.0
aF0.0
aF923.8707932895438
aF0.0
aF0.0
aF0.0
aF0.0
aF0.0
aF0.0
aF0.0
aF0.0
aF0.0
aF0.0
asS'Archaea.Euryarchaeota'
p891
(lp892
F0.0
aF0.0
aF0.0
aF0.0
aF0.0
aF0.0
aF0.0
aF0.0
aF0.0
aF0.0
aF0.0
aF0.0
aF83.5795447422198
aF461.6484668411445
asS'Bacteria.Chloroflexi.Chloroflexia.Chloroflexales.Chloroflexaceae.FFCH7168'
p893
(lp894
F0.0
aF0.0
aF0.0
aF0.0
aF0.0
aF0.0
aF0.0
aF179.56322792765457
aF0.0
aF0.0
aF0.0
aF0.0
aF0.0
aF0.0
asS'Bacteria.Firmicutes.Clostridia.Oscillospirales.Oscillospiraceae.Papillibacter'
p895
(lp896
F8705.182122745744
aF1562.6923769024593
aF742.0473723042479
aF1278.7723785166247
aF1070.1006620114265
aF5162.289475382332
aF0.0
aF526.3060128914013
aF0.0
aF0.0
aF0.0
aF0.0
aF0.0
aF177.02309630750653
asS'Bacteria.Proteobacteria.Gammaproteobacteria.Enterobacterales'
p897
(lp898
F409.86527906479444
aF2367.715722579484
aF432.5076112859045
aF1785.77464312674
aF253.92219098576223
aF2581.144737691166
aF9874.304138643287
aF2024.7301907704496
aF4382.4851713325015
aF10024.917424813122
aF27896.995708154514
aF11232.633757020396
aF1174.2926036281879
aF1690.397017681484
asS'Bacteria.Bacteroidota.Bacteroidia.Bacteroidales.Rikenellaceae.Rikenella'
p899
(lp900
F0.0
aF0.0
aF0.0
aF0.0
aF0.0
aF0.0
aF0.0
aF0.0
aF0.0
aF0.0
aF0.0
aF0.0
aF430.43465542243194
aF0.0
asS'Bacteria.Firmicutes.Bacilli.Erysipelotrichales.Erysipelotrichaceae.uncultured.unidentified'
p901
(lp902
F0.0
aF0.0
aF199.29272284742657
aF0.0
aF0.0
aF0.0
aF0.0
aF0.0
aF0.0
aF0.0
aF0.0
aF0.0
aF0.0
aF0.0
asS'Bacteria.Verrucomicrobiota.Verrucomicrobiae.Verrucomicrobiales.Akkermansiaceae'
p903
(lp904
F588.0675743103573
aF11762.811709774875
aF37619.68164047593
aF7914.86868641347
aF471.56978325927275
aF16691.40263706954
aF0.0
aF6699.56595233525
aF82587.17745286938
aF24627.68731529235
aF0.0
aF0.0
aF0.0
aF0.0
asS'Bacteria.Firmicutes.Clostridia.Clostridia_vadinBB60_group.Clostridia_vadinBB60_group'
p905
(lp906
F739.5395252690856
aF947.0862890317936
aF407.065987092616
aF816.8369818718528
aF0.0
aF731.3243423458304
aF0.0
aF12588.001461273163
aF0.0
aF0.0
aF315.57687452663475
aF0.0
aF3752.7215589256684
aF173.55205520343776
asS'Bacteria.Firmicutes.Clostridia.Lachnospirales.Lachnospiraceae._Eubacterium__ruminantium_group'
p907
(lp908
F2040.4162805616938
aF58018.50606608767
aF3646.6328010380184
aF0.0
aF0.0
aF98105.00957174507
aF0.0
aF0.0
aF0.0
aF0.0
aF0.0
aF0.0
aF0.0
aF0.0
asS'Bacteria.Firmicutes.Clostridia.Oscillospirales.Butyricicoccaceae.Butyricicoccus'
p909
(lp910
F80.19103286050326
aF104.17949179349728
aF301.05921962058056
aF0.0
aF0.0
aF0.0
aF0.0
aF0.0
aF0.0
aF0.0
aF0.0
aF0.0
aF0.0
aF0.0
asS'Bacteria.Firmicutes.Clostridia.Peptostreptococcales_Tissierellales.Anaerovoracaceae.Family_XIII_AD3011_group'
p911
(lp912
F0.0
aF0.0
aF0.0
aF0.0
aF0.0
aF0.0
aF0.0
aF99.06936713249905
aF1498.6084350246197
aF0.0
aF0.0
aF0.0
aF0.0
aF90.24706870578765
asS'Bacteria.Firmicutes.Clostridia.Lachnospirales.Lachnospiraceae.Lachnoclostridium._Clostridium__aldenense'
p913
(lp914
F0.0
aF0.0
aF0.0
aF0.0
aF0.0
aF0.0
aF0.0
aF0.0
aF0.0
aF0.0
aF0.0
aF0.0
aF28107.800896808516
aF0.0
asS'Bacteria.Firmicutes.Clostridia.Oscillospirales.Ruminococcaceae.Ruminococcaceae.uncultured_bacterium'
p915
(lp916
F80.19103286050326
aF0.0
aF0.0
aF0.0
aF0.0
aF0.0
aF0.0
aF0.0
aF163.71352651529457
aF0.0
aF0.0
aF0.0
aF0.0
aF114.54435643426893
asS'Bacteria.Firmicutes.Clostridia.Clostridia_UCG_014.Clostridia_UCG_014.Clostridia_UCG_014.unidentified'
p917
(lp918
F1452.3487062513368
aF4716.489719378332
aF4057.939058829516
aF37118.19912795612
aF11843.656479550196
aF32845.06678712009
aF5667.649059170254
aF5944.162027949944
aF7102.648381125087
aF15240.192385698561
aF3976.268619035598
aF0.0
aF0.0
aF39701.76814833842
asS'Bacteria.Firmicutes.Clostridia.Peptostreptococcales_Tissierellales.Anaerovoracaceae._Eubacterium__brachy_group'
p919
(lp920
F115.83149190961582
aF0.0
aF0.0
aF78.8670189393513
aF0.0
aF0.0
aF0.0
aF0.0
aF0.0
aF0.0
aF1704.1151224438279
aF0.0
aF0.0
aF59.00769876916884
asS'Bacteria.Firmicutes.Clostridia.Oscillospirales.Ruminococcaceae.Ruminococcus.unidentified'
p921
(lp922
F0.0
aF0.0
aF110.24703817091682
aF6799.463704271216
aF7762.764124421875
aF17788.389150588286
aF0.0
aF0.0
aF0.0
aF0.0
aF1136.0767482958852
aF7094.295004433935
aF0.0
aF0.0
asS'Bacteria.Firmicutes.Bacilli.Erysipelotrichales.Erysipelotrichaceae.Allobaculum.uncultured_Allobaculum'
p923
(lp924
F0.0
aF0.0
aF0.0
aF0.0
aF0.0
aF0.0
aF4181.465528098944
aF0.0
aF0.0
aF0.0
aF0.0
aF0.0
aF0.0
aF0.0
asS'Bacteria.Firmicutes.Clostridia.Oscillospirales.Ruminococcaceae.uncultured'
p925
(lp926
F365.31470525340376
aF170.47553202572283
aF0.0
aF225.334339826718
aF0.0
aF129.0572368845583
aF327.4641678631703
aF891.6243041924915
aF390.39379399801015
aF434.60624674045323
aF0.0
aF0.0
aF133.72727158755168
aF59.00769876916884
asS'Bacteria.Proteobacteria.Alphaproteobacteria.Sphingomonadales.Sphingomonadaceae.Sphingobium'
p927
(lp928
F0.0
aF0.0
aF0.0
aF0.0
aF0.0
aF0.0
aF604.5492329781605
aF0.0
aF0.0
aF0.0
aF0.0
aF0.0
aF0.0
aF0.0
asS'Bacteria.Patescibacteria.Saccharimonadia.Saccharimonadales.Saccharimonadaceae.Candidatus_Saccharimonas'
p929
(lp930
F507.876541449854
aF1288.0373530832392
aF1178.795254289034
aF332.3681512444091
aF0.0
aF2129.444408595212
aF6347.766946270685
aF1486.040506987486
aF1234.1481229614515
aF9851.07492611694
aF15778.84372633174
aF2955.9562518474727
aF0.0
aF22804.740053731726
asS'Bacteria.Firmicutes.Bacilli.Lactobacillales.Lactobacillaceae.Lactobacillus.Lactobacillus_faecis'
p931
(lp932
F4312.495544942621
aF10616.837300046403
aF7373.830745354783
aF7137.465214011293
aF21855.445724131678
aF0.0
aF1561.7521851935812
aF8241.332978334765
aF0.0
aF0.0
aF0.0
aF24830.03251551877
aF0.0
aF8257.606786579569
asS'Bacteria.Firmicutes.Bacilli.Erysipelotrichales.Erysipelotrichaceae.Turicibacter'
p933
(lp934
F0.0
aF9593.984107892067
aF1607.062594876057
aF8083.869441283508
aF798.0411716695385
aF0.0
aF7078.263936119296
aF1126.9140511321768
aF5616.6332942939525
aF100625.83299530628
aF67975.25877303713
aF0.0
aF2891.852248080805
aF8958.757089601457
asS'Bacteria.Firmicutes.Clostridia.Lachnospirales.Lachnospiraceae.Tuzzerella.uncultured_bacterium'
p935
(lp936
F0.0
aF0.0
aF0.0
aF422.5018871750963
aF0.0
aF0.0
aF0.0
aF0.0
aF0.0
aF0.0
aF0.0
aF0.0
aF0.0
aF138.8416441627502
asS'Bacteria.Patescibacteria.Saccharimonadia'
p937
(lp938
F507.876541449854
aF1288.0373530832392
aF1178.795254289034
aF332.3681512444091
aF0.0
aF2129.444408595212
aF6347.766946270685
aF1486.040506987486
aF1234.1481229614515
aF9851.07492611694
aF15778.84372633174
aF2955.9562518474727
aF0.0
aF22804.740053731726
asS'Bacteria.Proteobacteria.Gammaproteobacteria.Enterobacterales.Erwiniaceae.uncultured'
p939
(lp940
F0.0
aF0.0
aF0.0
aF0.0
aF0.0
aF0.0
aF0.0
aF0.0
aF138.5268301283262
aF0.0
aF0.0
aF0.0
aF0.0
aF0.0
asS'Bacteria.Campilobacterota.Campylobacteria.Campylobacterales.Helicobacteraceae.Helicobacter.Helicobacter_rodentium'
p941
(lp942
F0.0
aF66.29604023222554
aF0.0
aF0.0
aF0.0
aF193.58585532683745
aF0.0
aF0.0
aF0.0
aF0.0
aF0.0
aF0.0
aF0.0
aF0.0
asS'Bacteria.Firmicutes.Clostridia.Oscillospirales.Oscillospiraceae'
p943
(lp944
F63404.376648371246
aF27740.15740574123
aF8628.950872223682
aF32690.379350361116
aF13476.013421601525
aF18390.65625604956
aF7985.0877855865365
aF21696.191402017295
aF19318.19612880476
aF6374.224952193314
aF20196.919969704624
aF8867.868755542419
aF3000.5056562456903
aF10916.424272296237
asS'Bacteria.Actinobacteriota.Coriobacteriia.Coriobacteriales.Coriobacteriales_Incertae_Sedis'
p945
(lp946
F0.0
aF0.0
aF0.0
aF0.0
aF0.0
aF0.0
aF1536.5626338194913
aF0.0
aF0.0
aF0.0
aF0.0
aF0.0
aF0.0
aF0.0
asS'Bacteria.Proteobacteria.Gammaproteobacteria.Burkholderiales.Comamonadaceae.Delftia'
p947
(lp948
F0.0
aF0.0
aF0.0
aF0.0
aF0.0
aF0.0
aF6498.904254515226
aF315.78360773484076
aF1914.1889254095981
aF1709.4512371791163
aF12938.651855592025
aF0.0
aF0.0
aF513.7140834021758
asS'Bacteria.Firmicutes.Clostridia.Clostridia_vadinBB60_group.Clostridia_vadinBB60_group.Clostridia_vadinBB60_group.uncultured_Clostridia'
p949
(lp950
F0.0
aF0.0
aF0.0
aF0.0
aF0.0
aF0.0
aF0.0
aF0.0
aF0.0
aF0.0
aF0.0
aF0.0
aF133.72727158755168
aF0.0
asS'Bacteria'
p951
(lp952
F1000000.0
aF1000000.0
aF1000000.0
aF1000000.0
aF1000000.0
aF1000000.0
aF1000000.0
aF998600.6451892534
aF1000000.0
aF1000000.0
aF1000000.0
aF1000000.0
aF999916.4204552578
aF999538.3515331589
assS'subclass_sl'
p953
(dp954
g12
(I0
I7
tp955
sg10
(I7
I14
tp956
ssS'norm'
p957
F1000000.0
sS'cls'
p958
(dp959
S'class'
p960
(S'STD-NC'
p961
S'STD-NC'
p962
S'STD-NC'
p963
S'STD-NC'
p964
S'STD-NC'
p965
S'STD-NC'
p966
g5
S'STD-NR'
p967
S'STD-NR'
p968
S'STD-NR'
p969
S'STD-NR'
p970
S'STD-NR'
p971
S'STD-NR'
p972
g3
tp973
sS'subclass'
p974
(lp975
S'STD-NC_subcl'
p976
aS'STD-NC_subcl'
p977
aS'STD-NC_subcl'
p978
aS'STD-NC_subcl'
p979
aS'STD-NC_subcl'
p980
aS'STD-NC_subcl'
p981
ag12
aS'STD-NR_subcl'
p982
aS'STD-NR_subcl'
p983
aS'STD-NR_subcl'
p984
aS'STD-NR_subcl'
p985
aS'STD-NR_subcl'
p986
aS'STD-NR_subcl'
p987
ag10
asS'subject'
p988
(S'S210421121682'
p989
S'S210421121683'
p990
S'S210421121684'
p991
S'S210421121685'
p992
S'S210421121686'
p993
S'S210421121687'
p994
S'S210421121694'
p995
S'S210421121695'
p996
S'S210421121696'
p997
S'S210421121697'
p998
S'S210421121703'
p999
S'S210421121704'
p1000
S'S210421121705'
p1001
S'S210421121706'
p1002
tp1003
ss.