(dp0
S'class_sl'
p1
(dp2
S'STD-NR'
p3
(I7
I14
tp4
sS'STD-NC'
p5
(I0
I7
tp6
ssS'class_hierarchy'
p7
(dp8
g3
(lp9
S'STD-NR_subcl'
p10
asg5
(lp11
S'STD-NC_subcl'
p12
assS'feats'
p13
(dp14
S'Bacteria.Chloroflexi'
p15
(lp16
F0.0
aF0.0
aF0.0
aF0.0
aF0.0
aF0.0
aF0.0
aF179.5632279276546
aF0.0
aF0.0
aF0.0
aF0.0
aF0.0
aF0.0
asS'Bacteria.Elusimicrobiota.Elusimicrobia.Elusimicrobiales'
p17
(lp18
F0.0
aF0.0
aF0.0
aF0.0
aF0.0
aF0.0
aF0.0
aF0.0
aF0.0
aF0.0
aF0.0
aF0.0
aF91.93749921644176
aF190.90726072378152
asS'Bacteria.Firmicutes.Bacilli.Acholeplasmatales'
p19
(lp20
F365.3147052534036
aF104.17949179349732
aF29.681894892169915
aF0.0
aF217.64759227351047
aF0.0
aF0.0
aF371.5101267468716
aF0.0
aF0.0
aF1704.1151224438274
aF0.0
aF0.0
aF0.0
asS'Bacteria.Actinobacteriota.Actinobacteria.Micrococcales'
p21
(lp22
F0.0
aF28.412588670953816
aF72.08460188098408
aF90.13373593068715
aF0.0
aF0.0
aF1813.647698934482
aF0.0
aF0.0
aF0.0
aF1767.2304973491543
aF0.0
aF121.19033987621869
aF131.8995619546127
asS'Bacteria.Verrucomicrobiota'
p23
(lp24
F588.067574310357
aF11762.811709774878
aF37619.68164047593
aF7914.868686413466
aF471.5697832592727
aF16691.402637069536
aF0.0
aF6699.565952335251
aF82587.17745286941
aF24627.687315292347
aF0.0
aF0.0
aF0.0
aF0.0
asS'Eukaryota'
p25
(lp26
F0.0
aF0.0
aF0.0
aF0.0
aF0.0
aF0.0
aF0.0
aF1399.3548107465494
aF0.0
aF0.0
aF0.0
aF0.0
aF0.0
aF0.0
asS'Bacteria.Firmicutes'
p27
(lp28
F499590.1347209352
aF611855.6261660999
aF234482.72937744344
aF421589.2830987978
aF283159.5175478371
aF786904.9923641135
aF853749.4647220334
aF473087.1872349121
aF303348.57128464745
aF572347.4532073942
aF889106.2862913406
aF793083.062370677
aF215936.11179599902
aF443231.1227429556
asS'Bacteria.Actinobacteriota.Actinobacteria.Bifidobacteriales'
p29
(lp30
F0.0
aF0.0
aF3273.4889795364534
aF2827.9459648253096
aF1360.2974517094403
aF0.0
aF1511.3730824454017
aF0.0
aF0.0
aF4606.826215448803
aF883.6152486745772
aF0.0
aF0.0
aF1978.4934293191902
asS'Bacteria.Desulfobacterota.Desulfovibrionia.Desulfovibrionales'
p31
(lp32
F0.0
aF0.0
aF0.0
aF0.0
aF0.0
aF0.0
aF0.0
aF1820.3996210596708
aF0.0
aF0.0
aF0.0
aF0.0
aF3723.4687182658918
aF3405.0913230914484
asS'Bacteria.Chloroflexi.Chloroflexia'
p33
(lp34
F0.0
aF0.0
aF0.0
aF0.0
aF0.0
aF0.0
aF0.0
aF179.5632279276546
aF0.0
aF0.0
aF0.0
aF0.0
aF0.0
aF0.0
asS'Bacteria.Proteobacteria.Gammaproteobacteria.Pseudomonadales'
p35
(lp36
F0.0
aF0.0
aF84.80541397762832
aF33.800150974007686
aF0.0
aF0.0
aF7985.087785586538
aF173.37139248187341
aF302.2403566436209
aF2028.1624847887813
aF8078.767987881848
aF0.0
aF0.0
aF572.7217821713446
asS'Bacteria.Firmicutes.Clostridia.Lachnospirales'
p37
(lp38
F238158.45748093232
aF178203.7561442223
aF36517.21125876676
aF129263.04404159672
aF73564.88618844654
aF210255.7484244262
aF95468.3997078012
aF93131.39693999493
aF75119.32197413327
aF89036.3330822275
aF59454.68316081798
aF142477.09133904817
aF108507.14396158684
aF31385.15366298968
asS'Bacteria.Acidobacteriota'
p39
(lp40
F0.0
aF0.0
aF0.0
aF0.0
aF0.0
aF0.0
aF377.8432706113504
aF0.0
aF0.0
aF0.0
aF0.0
aF0.0
aF0.0
aF0.0
asS'Bacteria.Firmicutes.Clostridia'
p41
(lp42
F0.0
aF596.6643620900302
aF0.0
aF0.0
aF0.0
aF0.0
aF0.0
aF0.0
aF0.0
aF0.0
aF0.0
aF0.0
aF0.0
aF0.0
asS'Bacteria.Firmicutes.Clostridia.Clostridia_vadinBB60_group'
p43
(lp44
F739.5395252690853
aF947.0862890317939
aF407.065987092616
aF816.8369818718523
aF0.0
aF731.3243423458302
aF0.0
aF12588.001461273165
aF0.0
aF0.0
aF315.5768745266347
aF0.0
aF3752.7215589256684
aF173.55205520343773
asS'Bacteria.Firmicutes.Bacilli.RF39'
p45
(lp46
F1033.5733124242638
aF1373.275119096101
aF1280.5617510621878
aF4929.1886837094535
aF870.5903690940419
aF24692.951323912148
aF19370.765006675232
aF1696.562912144047
aF8009.369451055953
aF19789.071101581965
aF11865.690482201464
aF0.0
aF41.7897723711099
aF6119.445466473215
asS'Bacteria.Proteobacteria.Gammaproteobacteria.Pasteurellales'
p47
(lp48
F356.4045904911254
aF823.9650714576605
aF0.0
aF0.0
aF0.0
aF1204.534210922544
aF1788.458147560392
aF222.90607604812294
aF0.0
aF0.0
aF0.0
aF0.0
aF1391.5994199579595
aF666.4398919812008
asS'Bacteria.Proteobacteria.Alphaproteobacteria'
p49
(lp50
F133.65172143417203
aF0.0
aF330.74111451275047
aF264.76784929639354
aF0.0
aF0.0
aF604.5492329781606
aF247.6734178312477
aF0.0
aF0.0
aF1893.4612471598082
aF0.0
aF1771.8863485350596
aF277.68328832550037
asS'Bacteria.Proteobacteria.Gammaproteobacteria'
p51
(lp52
F2539.3827072492686
aF5246.858041236138
aF4846.629408821459
aF5227.756683979856
aF2013.2402285299718
aF4215.869738228904
aF41285.674702133554
aF7163.953610768841
aF9545.757930661026
aF16920.66987309498
aF56551.37591517294
aF11232.633757020396
aF8157.363566840651
aF5609.202424175108
asS'Bacteria.Cyanobacteria.Cyanobacteriia.Chloroplast'
p53
(lp54
F0.0
aF0.0
aF0.0
aF0.0
aF0.0
aF0.0
aF302.2746164890803
aF0.0
aF0.0
aF0.0
aF0.0
aF0.0
aF0.0
aF0.0
asS'Bacteria.Acidobacteriota.Blastocatellia.Blastocatellales'
p55
(lp56
F0.0
aF0.0
aF0.0
aF0.0
aF0.0
aF0.0
aF377.8432706113504
aF0.0
aF0.0
aF0.0
aF0.0
aF0.0
aF0.0
aF0.0
asS'Bacteria.Patescibacteria.Saccharimonadia.Saccharimonadales'
p57
(lp58
F507.8765414498538
aF1288.0373530832396
aF1178.795254289034
aF332.3681512444089
aF0.0
aF2129.4444085952114
aF6347.766946270687
aF1486.0405069874864
aF1234.148122961452
aF9851.074926116939
aF15778.843726331736
aF2955.9562518474727
aF0.0
aF22804.74005373172
asS'Bacteria.Proteobacteria.Alphaproteobacteria.Rhodospirillales'
p59
(lp60
F133.65172143417203
aF0.0
aF330.74111451275047
aF174.63411336570638
aF0.0
aF0.0
aF0.0
aF0.0
aF0.0
aF0.0
aF0.0
aF0.0
aF1771.8863485350596
aF0.0
asS'Archaea'
p61
(lp62
F0.0
aF0.0
aF0.0
aF0.0
aF0.0
aF0.0
aF0.0
aF0.0
aF0.0
aF0.0
aF0.0
aF0.0
aF83.5795447422198
aF461.6484668411444
asS'Bacteria.Proteobacteria.Gammaproteobacteria.Burkholderiales'
p63
(lp64
F1773.112837693349
aF2055.1772471989925
aF4329.316383557926
aF3408.181889879108
aF1759.3180375442096
aF430.19078961519426
aF21637.824630343333
aF4742.945951468394
aF4861.032402684902
aF4664.773715014197
aF20575.61221913658
aF0.0
aF5591.471543254504
aF2679.6437323410787
asS'Bacteria.Campilobacterota.Campylobacteria.Campylobacterales'
p65
(lp66
F0.0
aF66.29604023222556
aF0.0
aF0.0
aF0.0
aF193.58585532683742
aF327.46416786317036
aF0.0
aF0.0
aF0.0
aF0.0
aF0.0
aF639.3835172779814
aF458.1774257370756
asS'Archaea.Euryarchaeota.Methanobacteria.Methanobacteriales'
p67
(lp68
F0.0
aF0.0
aF0.0
aF0.0
aF0.0
aF0.0
aF0.0
aF0.0
aF0.0
aF0.0
aF0.0
aF0.0
aF83.5795447422198
aF461.6484668411444
asS'Bacteria.Patescibacteria'
p69
(lp70
F507.8765414498538
aF1288.0373530832396
aF1178.795254289034
aF332.3681512444089
aF0.0
aF2129.4444085952114
aF6347.766946270687
aF1486.0405069874864
aF1234.148122961452
aF9851.074926116939
aF15778.843726331736
aF2955.9562518474727
aF0.0
aF22804.74005373172
asS'Bacteria.Proteobacteria.Alphaproteobacteria.Rhizobiales'
p71
(lp72
F0.0
aF0.0
aF0.0
aF0.0
aF0.0
aF0.0
aF0.0
aF247.6734178312477
aF0.0
aF0.0
aF1893.4612471598082
aF0.0
aF0.0
aF211.73350734819405
asS'Bacteria.Firmicutes.Clostridia.Oscillospirales'
p73
(lp74
F222966.7118112481
aF238192.20169149613
aF73390.60525623955
aF132130.4235158917
aF92699.73700915933
aF202426.27605342964
aF58137.484571399786
aF222745.08832653266
aF74149.63416323498
aF87790.46184157154
aF63683.41327947488
aF144841.85634052617
aF67227.2068134045
aF106342.28630535444
asS'Archaea.Euryarchaeota'
p75
(lp76
F0.0
aF0.0
aF0.0
aF0.0
aF0.0
aF0.0
aF0.0
aF0.0
aF0.0
aF0.0
aF0.0
aF0.0
aF83.5795447422198
aF461.6484668411444
asS'Bacteria.Campilobacterota.Campylobacteria'
p77
(lp78
F0.0
aF66.29604023222556
aF0.0
aF0.0
aF0.0
aF193.58585532683742
aF327.46416786317036
aF0.0
aF0.0
aF0.0
aF0.0
aF0.0
aF639.3835172779814
aF458.1774257370756
asS'Bacteria.Firmicutes.Clostridia.Clostridiales'
p79
(lp80
F35.64045904911255
aF7434.627368899581
aF1492.5752860062587
aF822.4703403675204
aF0.0
aF0.0
aF11839.089145822312
aF371.5101267468716
aF100.74678554787363
aF0.0
aF48472.60792729109
aF3251.55187703222
aF1028.0284003293034
aF20520.795007254477
asS'Bacteria.Firmicutes.Negativicutes.Veillonellales_Selenomonadales'
p81
(lp82
F0.0
aF0.0
aF0.0
aF0.0
aF0.0
aF0.0
aF0.0
aF0.0
aF0.0
aF0.0
aF0.0
aF0.0
aF7618.275503253334
aF1197.5091809037203
asS'Bacteria.Firmicutes.Clostridia.Peptostreptococcales_Tissierellales'
p83
(lp84
F3145.270511084182
aF22796.366976995276
aF2467.837546748984
aF11615.985218067308
aF2357.8489162963633
aF3635.1121722483913
aF9823.92503589511
aF2916.354494962942
aF4180.991600236755
aF24193.08106855189
aF54468.568543297144
aF0.0
aF5052.383479667186
aF8590.826732570167
asS'Bacteria.Elusimicrobiota.Elusimicrobia'
p85
(lp86
F0.0
aF0.0
aF0.0
aF0.0
aF0.0
aF0.0
aF0.0
aF0.0
aF0.0
aF0.0
aF0.0
aF0.0
aF91.93749921644176
aF190.90726072378152
asS'Bacteria.Firmicutes.Bacilli.Staphylococcales'
p87
(lp88
F0.0
aF0.0
aF0.0
aF0.0
aF0.0
aF0.0
aF1360.2357742008614
aF0.0
aF0.0
aF0.0
aF0.0
aF0.0
aF0.0
aF76.36290428951261
asS'Bacteria.Proteobacteria'
p89
(lp90
F2673.034428683441
aF5246.858041236138
aF5177.37052333421
aF5492.524533276248
aF2013.2402285299718
aF4215.869738228904
aF41890.22393511172
aF7411.627028600088
aF9545.757930661026
aF16920.66987309498
aF58444.83716233275
aF11232.633757020396
aF9929.24991537571
aF5886.885712500608
asS'Bacteria.Verrucomicrobiota.Verrucomicrobiae.Verrucomicrobiales'
p91
(lp92
F588.067574310357
aF11762.811709774878
aF37619.68164047593
aF7914.868686413466
aF471.5697832592727
aF16691.402637069536
aF0.0
aF6699.565952335251
aF82587.17745286941
aF24627.687315292347
aF0.0
aF0.0
aF0.0
aF0.0
asS'Bacteria.Firmicutes.Clostridia.Christensenellales'
p93
(lp94
F1220.6857224321047
aF1742.6387718185006
aF682.6835825199081
aF4016.5846074112465
aF1958.8283304615943
aF1333.5914478071022
aF167183.0524698355
aF1634.6445576862347
aF3135.7437001775666
aF2549.689980877325
aF177543.54960868467
aF0.0
aF0.0
aF2887.906198585204
asS'Bacteria.Bacteroidota.Bacteroidia.Bacteroidales'
p95
(lp96
F495090.52676598466
aF367611.5430876908
aF717246.0289864904
aF556491.3189945582
aF706302.7115262538
aF184379.77242907227
aF52142.37134436636
aF506634.5516801546
aF601911.6702557709
aF367387.1472445964
aF9467.30623579904
aF192728.3476204552
aF768998.6752642158
aF519305.93062083045
asS'Bacteria.Actinobacteriota.Actinobacteria'
p97
(lp98
F0.0
aF28.412588670953816
aF3345.5735814174373
aF2918.079700755997
aF1360.2974517094403
aF0.0
aF3325.020781379884
aF0.0
aF0.0
aF4606.826215448803
aF2650.8457460237314
aF0.0
aF121.19033987621869
aF2110.392991273803
asS'Bacteria.Proteobacteria.Alphaproteobacteria.Sphingomonadales'
p99
(lp100
F0.0
aF0.0
aF0.0
aF0.0
aF0.0
aF0.0
aF604.5492329781606
aF0.0
aF0.0
aF0.0
aF0.0
aF0.0
aF0.0
aF65.94978097730635
asS'Bacteria.Actinobacteriota.Coriobacteriia'
p101
(lp102
F579.1574595480789
aF2140.415013211854
aF203.532993546308
aF788.6701893935126
aF217.64759227351047
aF5484.932567593726
aF39346.07924632862
aF780.1712661684303
aF1057.841248252673
aF4259.141218056441
aF23478.919464781622
aF0.0
aF476.40340503065283
aF2034.0300869842902
asS'Bacteria.Firmicutes.Bacilli.Lactobacillales'
p103
(lp104
F8580.440516073844
aF61835.263810885815
aF82969.37676501268
aF42965.625246459436
aF50040.80892355128
aF265879.4175216708
aF82999.57177762664
aF55299.28236627183
aF5717.380079841829
aF43315.75592513183
aF135066.90229739965
aF388117.0558675732
aF10088.05105038593
aF15553.73518733209
asS'Bacteria.Firmicutes.Clostridia.Clostridia_UCG_014'
p105
(lp106
F11583.149190961576
aF70794.70010512658
aF22872.020149766362
aF70670.4823281544
aF52833.95302439467
aF71304.12337871845
aF275221.0383133076
aF35850.727231073106
aF116198.82378127874
aF175957.58243031814
aF166182.78212572582
aF80402.01005025125
aF8.35795447422198
aF175846.4133732272
asS'Bacteria.Cyanobacteria'
p107
(lp108
F294.0337871551785
aF0.0
aF746.2876430031293
aF4405.286343612335
aF6475.015870136936
aF0.0
aF2493.7655860349128
aF501.5386711082766
aF188.90022290226307
aF0.0
aF1072.961373390558
aF0.0
aF0.0
aF111.07331533020016
asS'Bacteria.Patescibacteria.Saccharimonadia'
p109
(lp110
F507.8765414498538
aF1288.0373530832396
aF1178.795254289034
aF332.3681512444089
aF0.0
aF2129.4444085952114
aF6347.766946270687
aF1486.0405069874864
aF1234.148122961452
aF9851.074926116939
aF15778.843726331736
aF2955.9562518474727
aF0.0
aF22804.74005373172
asS'Bacteria.Firmicutes.Clostridia.Clostridia'
p111
(lp112
F178.2022952455627
aF113.65035468381527
aF0.0
aF112.66716991335895
aF0.0
aF0.0
aF0.0
aF0.0
aF0.0
aF0.0
aF0.0
aF0.0
aF0.0
aF76.36290428951261
asS'Bacteria.Deferribacterota.Deferribacteres'
p113
(lp114
F677.1687219331384
aF0.0
aF0.0
aF67.60030194801537
aF0.0
aF0.0
aF0.0
aF0.0
aF125.93348193484204
aF0.0
aF0.0
aF0.0
aF0.0
aF0.0
asS'Bacteria.Firmicutes.Bacilli.Izemoplasmatales'
p115
(lp116
F0.0
aF104.17949179349732
aF0.0
aF236.6010568180538
aF0.0
aF0.0
aF0.0
aF117.64487346984266
aF0.0
aF0.0
aF0.0
aF0.0
aF0.0
aF0.0
asS'Bacteria.Campilobacterota'
p117
(lp118
F0.0
aF66.29604023222556
aF0.0
aF0.0
aF0.0
aF193.58585532683742
aF327.46416786317036
aF0.0
aF0.0
aF0.0
aF0.0
aF0.0
aF639.3835172779814
aF458.1774257370756
asS'Bacteria.Bacteroidota.Bacteroidia'
p119
(lp120
F495090.52676598466
aF367611.5430876908
aF717246.0289864904
aF556491.3189945582
aF706302.7115262538
aF184379.77242907227
aF52142.37134436636
aF506634.5516801546
aF601911.6702557709
aF367387.1472445964
aF9467.30623579904
aF192728.3476204552
aF768998.6752642158
aF519305.93062083045
asS'Bacteria.Firmicutes.Clostridia.Peptococcales'
p121
(lp122
F3866.989806828711
aF4441.834695559113
aF7060.050713637559
aF6855.797289227892
aF2829.418699555636
aF516.2289475382331
aF226.70596236681024
aF885.4324687467106
aF579.2940169002733
aF434.6062467404531
aF1325.4228730118657
aF0.0
aF0.0
aF142.31268526681893
asS'Bacteria.Desulfobacterota.Desulfovibrionia'
p123
(lp124
F0.0
aF0.0
aF0.0
aF0.0
aF0.0
aF0.0
aF0.0
aF1820.3996210596708
aF0.0
aF0.0
aF0.0
aF0.0
aF3723.4687182658918
aF3405.0913230914484
asS'Bacteria.Bacteroidota'
p125
(lp126
F495090.52676598466
aF367611.5430876908
aF717246.0289864904
aF556491.3189945582
aF706302.7115262538
aF184379.77242907227
aF52142.37134436636
aF506634.5516801546
aF601911.6702557709
aF367387.1472445964
aF9467.30623579904
aF192728.3476204552
aF768998.6752642158
aF519305.93062083045
asS'Bacteria'
p127
(lp128
F1000000.0
aF1000000.0
aF1000000.0
aF1000000.0
aF1000000.0
aF1000000.0
aF1000000.0
aF998600.6451892535
aF1000000.0
aF1000000.0
aF1000000.0
aF1000000.0
aF999916.4204552578
aF999538.3515331588
asS'Bacteria.Desulfobacterota'
p129
(lp130
F0.0
aF0.0
aF0.0
aF0.0
aF0.0
aF0.0
aF0.0
aF1820.3996210596708
aF0.0
aF0.0
aF0.0
aF0.0
aF3723.4687182658918
aF3405.0913230914484
asS'Bacteria.Firmicutes.Bacilli.Bacillales'
p131
(lp132
F0.0
aF0.0
aF0.0
aF0.0
aF0.0
aF0.0
aF932.0134008413311
aF0.0
aF0.0
aF0.0
aF0.0
aF0.0
aF0.0
aF79.83394539358136
asS'Bacteria.Elusimicrobiota'
p133
(lp134
F0.0
aF0.0
aF0.0
aF0.0
aF0.0
aF0.0
aF0.0
aF0.0
aF0.0
aF0.0
aF0.0
aF0.0
aF91.93749921644176
aF190.90726072378152
asS'Bacteria.Firmicutes.Negativicutes'
p135
(lp136
F0.0
aF0.0
aF0.0
aF0.0
aF0.0
aF0.0
aF0.0
aF0.0
aF0.0
aF0.0
aF0.0
aF0.0
aF7618.275503253334
aF1197.5091809037203
asS'Bacteria.Cyanobacteria.Cyanobacteriia'
p137
(lp138
F0.0
aF0.0
aF0.0
aF0.0
aF0.0
aF0.0
aF302.2746164890803
aF0.0
aF0.0
aF0.0
aF0.0
aF0.0
aF0.0
aF0.0
asS'Bacteria.Actinobacteriota'
p139
(lp140
F579.1574595480789
aF2168.827601882808
aF3549.106574963745
aF3706.749890149509
aF1577.945043982951
aF5484.932567593726
aF42671.100027708504
aF780.1712661684303
aF1057.841248252673
aF8865.967433505244
aF26129.76521080535
aF0.0
aF597.5937449068715
aF4144.423078258093
asS'Bacteria.Firmicutes.Clostridia.Eubacteriales'
p141
(lp142
F0.0
aF75.76690312254351
aF0.0
aF0.0
aF0.0
aF0.0
aF0.0
aF111.45303802406147
aF365.2070976110419
aF1187.9237410905719
aF0.0
aF0.0
aF91.93749921644176
aF0.0
asS'Bacteria.Chloroflexi.Chloroflexia.Chloroflexales'
p143
(lp144
F0.0
aF0.0
aF0.0
aF0.0
aF0.0
aF0.0
aF0.0
aF179.5632279276546
aF0.0
aF0.0
aF0.0
aF0.0
aF0.0
aF0.0
asS'Archaea.Euryarchaeota.Methanobacteria'
p145
(lp146
F0.0
aF0.0
aF0.0
aF0.0
aF0.0
aF0.0
aF0.0
aF0.0
aF0.0
aF0.0
aF0.0
aF0.0
aF83.5795447422198
aF461.6484668411444
asS'Bacteria.Proteobacteria.Gammaproteobacteria.Enterobacterales'
p147
(lp148
F409.86527906479427
aF2367.7157225794845
aF432.5076112859045
aF1785.7746431267394
aF253.9221909857622
aF2581.1447376911656
aF9874.30413864329
aF2024.73019077045
aF4382.485171332502
aF10024.91742481312
aF27896.995708154507
aF11232.633757020396
aF1174.2926036281879
aF1690.3970176814837
asS'Bacteria.Firmicutes.Clostridia.Monoglobales'
p149
(lp150
F5167.866562121319
aF9584.513245001754
aF55.12351908545841
aF169.00075487003843
aF0.0
aF2086.425329633692
aF60253.406886823344
aF16686.996526380313
aF340.0204012240735
aF1043.0549921770876
aF35344.60994698309
aF23056.458764410287
aF0.0
aF2280.474005373172
asS'Bacteria.Firmicutes.Bacilli'
p151
(lp152
F0.0
aF899.7319745802041
aF2433.915381157933
aF6850.163930732224
aF3990.205858347692
aF3376.9976984792747
aF4357.792387717575
aF23665.195073775718
aF8651.630208923647
aF23497.71107376717
aF27960.111083059834
aF10937.03813183565
aF1721.7386216897278
aF1756.3467986587898
asS'Bacteria.Cyanobacteria.Vampirivibrionia'
p153
(lp154
F294.0337871551785
aF0.0
aF746.2876430031293
aF4405.286343612335
aF6475.015870136936
aF0.0
aF2191.4909695458323
aF501.5386711082766
aF188.90022290226307
aF0.0
aF1072.961373390558
aF0.0
aF0.0
aF111.07331533020016
asS'Bacteria.Acidobacteriota.Blastocatellia'
p155
(lp156
F0.0
aF0.0
aF0.0
aF0.0
aF0.0
aF0.0
aF377.8432706113504
aF0.0
aF0.0
aF0.0
aF0.0
aF0.0
aF0.0
aF0.0
asS'Bacteria.Proteobacteria.Gammaproteobacteria.Xanthomonadales'
p157
(lp158
F0.0
aF0.0
aF0.0
aF0.0
aF0.0
aF0.0
aF0.0
aF0.0
aF0.0
aF202.81624847887812
aF0.0
aF0.0
aF0.0
aF0.0
asS'Bacteria.Cyanobacteria.Vampirivibrionia.Gastranaerophilales'
p159
(lp160
F294.0337871551785
aF0.0
aF746.2876430031293
aF4405.286343612335
aF6475.015870136936
aF0.0
aF2191.4909695458323
aF501.5386711082766
aF188.90022290226307
aF0.0
aF1072.961373390558
aF0.0
aF0.0
aF111.07331533020016
asS'Bacteria.Deferribacterota.Deferribacteres.Deferribacterales'
p161
(lp162
F677.1687219331384
aF0.0
aF0.0
aF67.60030194801537
aF0.0
aF0.0
aF0.0
aF0.0
aF125.93348193484204
aF0.0
aF0.0
aF0.0
aF0.0
aF0.0
asS'Bacteria.Verrucomicrobiota.Verrucomicrobiae'
p163
(lp164
F588.067574310357
aF11762.811709774878
aF37619.68164047593
aF7914.868686413466
aF471.5697832592727
aF16691.402637069536
aF0.0
aF6699.565952335251
aF82587.17745286941
aF24627.687315292347
aF0.0
aF0.0
aF0.0
aF0.0
asS'Bacteria.Proteobacteria.Alphaproteobacteria.Rickettsiales'
p165
(lp166
F0.0
aF0.0
aF0.0
aF90.13373593068715
aF0.0
aF0.0
aF0.0
aF0.0
aF0.0
aF0.0
aF0.0
aF0.0
aF0.0
aF0.0
asS'Bacteria.Deferribacterota'
p167
(lp168
F677.1687219331384
aF0.0
aF0.0
aF67.60030194801537
aF0.0
aF0.0
aF0.0
aF0.0
aF125.93348193484204
aF0.0
aF0.0
aF0.0
aF0.0
aF0.0
asS'Bacteria.Actinobacteriota.Coriobacteriia.Coriobacteriales'
p169
(lp170
F579.1574595480789
aF2140.415013211854
aF203.532993546308
aF788.6701893935126
aF217.64759227351047
aF5484.932567593726
aF39346.07924632862
aF780.1712661684303
aF1057.841248252673
aF4259.141218056441
aF23478.919464781622
aF0.0
aF476.40340503065283
aF2034.0300869842902
asS'Bacteria.Firmicutes.Clostridia.uncultured'
p171
(lp172
F0.0
aF0.0
aF0.0
aF0.0
aF0.0
aF0.0
aF0.0
aF0.0
aF390.39379399801027
aF0.0
aF0.0
aF0.0
aF0.0
aF114.5443564342689
asS'Bacteria.Firmicutes.Bacilli.Erysipelotrichales'
p173
(lp174
F2548.292822011547
aF12615.189369903494
aF2824.0202854550234
aF10134.411933706637
aF1795.5926362564614
aF666.7957239035511
aF66575.98428171994
aF5015.386711082767
aF6410.01423048346
aF103552.18172335865
aF105718.25296642262
aF0.0
aF10798.477180694797
aF70087.26197335629
assS'subclass_sl'
p175
(dp176
g12
(I0
I7
tp177
sg10
(I7
I14
tp178
ssS'norm'
p179
F1000000.0
sS'cls'
p180
(dp181
S'class'
p182
(S'STD-NC'
p183
S'STD-NC'
p184
S'STD-NC'
p185
S'STD-NC'
p186
S'STD-NC'
p187
S'STD-NC'
p188
g5
S'STD-NR'
p189
S'STD-NR'
p190
S'STD-NR'
p191
S'STD-NR'
p192
S'STD-NR'
p193
S'STD-NR'
p194
g3
tp195
sS'subclass'
p196
(lp197
S'STD-NC_subcl'
p198
aS'STD-NC_subcl'
p199
aS'STD-NC_subcl'
p200
aS'STD-NC_subcl'
p201
aS'STD-NC_subcl'
p202
aS'STD-NC_subcl'
p203
ag12
aS'STD-NR_subcl'
p204
aS'STD-NR_subcl'
p205
aS'STD-NR_subcl'
p206
aS'STD-NR_subcl'
p207
aS'STD-NR_subcl'
p208
aS'STD-NR_subcl'
p209
ag10
asS'subject'
p210
(S'S210421121682'
p211
S'S210421121683'
p212
S'S210421121684'
p213
S'S210421121685'
p214
S'S210421121686'
p215
S'S210421121687'
p216
S'S210421121694'
p217
S'S210421121695'
p218
S'S210421121696'
p219
S'S210421121697'
p220
S'S210421121703'
p221
S'S210421121704'
p222
S'S210421121705'
p223
S'S210421121706'
p224
tp225
ss.