(dp0
S'class_sl'
p1
(dp2
S'STD-NC'
p3
(I24
I31
tp4
sS'NC'
p5
(I15
I19
tp6
sS'HSD-NR'
p7
(I8
I15
tp8
sS'STD-NR'
p9
(I31
I38
tp10
sS'NR'
p11
(I19
I24
tp12
sS'HSD-NC'
p13
(I0
I8
tp14
ssS'class_hierarchy'
p15
(dp16
g3
(lp17
S'STD-NC_subcl'
p18
asg5
(lp19
S'NC_subcl'
p20
asg7
(lp21
S'HSD-NR_subcl'
p22
asg9
(lp23
S'STD-NR_subcl'
p24
asg11
(lp25
S'NR_subcl'
p26
asg13
(lp27
S'HSD-NC_subcl'
p28
assS'feats'
p29
(dp30
S'Bacteria.Firmicutes.Bacilli.Acholeplasmatales'
p31
(lp32
F0.0
aF0.0
aF0.0
aF0.0
aF297.79630732578926
aF0.0
aF61.16956202593589
aF0.0
aF0.0
aF0.0
aF0.0
aF252.88103753477102
aF0.0
aF0.0
aF0.0
aF0.0
aF1337.3184753563878
aF0.0
aF0.0
aF0.0
aF0.0
aF0.0
aF0.0
aF0.0
aF364.96350364963473
aF104.19133317546765
aF29.599935725853857
aF0.0
aF371.60216272458723
aF0.0
aF0.0
aF0.0
aF213.74372127818754
aF0.0
aF1705.1913603637743
aF0.0
aF0.0
aF0.0
asS'Bacteria.Firmicutes.Bacilli.Lactobacillales.Streptococcaceae'
p33
(lp34
F0.0
aF159.19704045120983
aF0.0
aF4050.264825007789
aF4243.597379392497
aF1537.8389316066373
aF2202.104232933692
aF0.0
aF0.0
aF0.0
aF0.0
aF975.3982876341169
aF0.0
aF624.8047485160887
aF0.0
aF412.4061005268778
aF1337.318475356388
aF529.3829030841931
aF49.3974583933799
aF408.80985231744086
aF2133.333333333333
aF361.17938282371796
aF1875.6992738520942
aF2288.128135175571
aF0.0
aF0.0
aF202.97098783442644
aF5058.003472659099
aF0.0
aF503.90526581002774
aF0.0
aF180.23193597260482
aF0.0
aF0.0
aF4357.711254262978
aF0.0
aF894.4618599791013
aF788.7613666767437
asS'Bacteria.Firmicutes.Bacilli.Lactobacillales.Streptococcaceae.Streptococcus'
p35
(lp36
F0.0
aF159.19704045120983
aF0.0
aF4050.264825007789
aF4243.597379392497
aF1537.8389316066373
aF2202.104232933692
aF0.0
aF0.0
aF0.0
aF0.0
aF975.3982876341169
aF0.0
aF624.8047485160887
aF0.0
aF412.4061005268778
aF1271.9608055081435
aF529.3829030841931
aF49.3974583933799
aF408.80985231744086
aF2133.333333333333
aF361.17938282371796
aF1875.6992738520942
aF2288.128135175571
aF0.0
aF0.0
aF202.97098783442644
aF5058.003472659099
aF0.0
aF503.90526581002774
aF0.0
aF180.23193597260482
aF0.0
aF0.0
aF4357.711254262978
aF0.0
aF894.4618599791013
aF788.7613666767437
asS'Bacteria.Firmicutes.Clostridia.Clostridiales.Clostridiaceae.Candidatus_Arthromitus'
p37
(lp38
F0.0
aF0.0
aF0.0
aF0.0
aF0.0
aF0.0
aF0.0
aF0.0
aF735.9705611775526
aF0.0
aF0.0
aF596.0767313319603
aF0.0
aF0.0
aF0.0
aF0.0
aF0.0
aF0.0
aF0.0
aF0.0
aF0.0
aF0.0
aF0.0
aF0.0
aF0.0
aF0.0
aF0.0
aF0.0
aF260.12151390721107
aF0.0
aF0.0
aF0.0
aF0.0
aF0.0
aF0.0
aF0.0
aF0.0
aF0.0
asS'Bacteria.Acidobacteriota.Acidobacteriae.Bryobacterales'
p39
(lp40
F0.0
aF0.0
aF0.0
aF0.0
aF0.0
aF0.0
aF0.0
aF0.0
aF0.0
aF0.0
aF0.0
aF0.0
aF679.4247537085269
aF0.0
aF0.0
aF0.0
aF0.0
aF0.0
aF0.0
aF0.0
aF0.0
aF0.0
aF0.0
aF0.0
aF0.0
aF0.0
aF0.0
aF0.0
aF0.0
aF0.0
aF0.0
aF0.0
aF0.0
aF0.0
aF0.0
aF0.0
aF0.0
aF0.0
asS'Bacteria.Firmicutes.Clostridia.Lachnospirales.Lachnospiraceae.Lachnospiraceae_UCG_006'
p41
(lp42
F2312.2570083896053
aF530.6568015040327
aF2776.6633586013218
aF3219.4412711600376
aF0.0
aF0.0
aF0.0
aF0.0
aF1148.3678583891124
aF4524.886877828055
aF3398.3914845292666
aF4407.355225606009
aF0.0
aF0.0
aF0.0
aF396.9890500398917
aF0.0
aF0.0
aF0.0
aF0.0
aF0.0
aF0.0
aF910.4271329223615
aF419.71581177776744
aF2625.95691650347
aF4139.237508879942
aF80.34268268446047
aF679.433302297491
aF2446.3809046035326
aF0.0
aF1098.6786943071095
aF1188.4043278193628
aF2262.121050194152
aF1183.7630752012399
aF0.0
aF0.0
aF0.0
aF298.8258922211452
asS'Bacteria.Firmicutes.Clostridia.Lachnospirales.Lachnospiraceae.Lachnospiraceae_UCG_001'
p43
(lp44
F0.0
aF940.0206198071437
aF0.0
aF1557.7941634645342
aF0.0
aF0.0
aF0.0
aF0.0
aF0.0
aF2796.8788969252146
aF5703.534835631413
aF0.0
aF0.0
aF0.0
aF0.0
aF0.0
aF0.0
aF0.0
aF210.4761270674448
aF0.0
aF0.0
aF0.0
aF0.0
aF0.0
aF151.3263307815559
aF0.0
aF972.5693167066268
aF427.79133848360544
aF452.11596464824777
aF352.73368606701945
aF0.0
aF0.0
aF0.0
aF9427.058671602601
aF0.0
aF0.0
aF0.0
aF0.0
asS'Archaea.Euryarchaeota.Methanobacteria.Methanobacteriales'
p45
(lp46
F0.0
aF0.0
aF0.0
aF0.0
aF0.0
aF0.0
aF0.0
aF0.0
aF0.0
aF0.0
aF0.0
aF0.0
aF0.0
aF0.0
aF0.0
aF0.0
aF0.0
aF0.0
aF0.0
aF0.0
aF0.0
aF0.0
aF0.0
aF0.0
aF0.0
aF0.0
aF0.0
aF0.0
aF0.0
aF0.0
aF0.0
aF0.0
aF0.0
aF0.0
aF0.0
aF0.0
aF83.59456635318705
aF462.1377170396781
asS'Bacteria.Bacteroidota.Bacteroidia.Bacteroidales.Marinifilaceae.Odoribacter'
p47
(lp48
F0.0
aF0.0
aF0.0
aF0.0
aF0.0
aF0.0
aF0.0
aF0.0
aF0.0
aF0.0
aF0.0
aF0.0
aF0.0
aF0.0
aF0.0
aF0.0
aF0.0
aF0.0
aF0.0
aF0.0
aF0.0
aF0.0
aF0.0
aF0.0
aF0.0
aF0.0
aF0.0
aF0.0
aF0.0
aF0.0
aF0.0
aF0.0
aF0.0
aF0.0
aF0.0
aF0.0
aF37.61755485893417
aF86.86799192475152
asS'Bacteria.Verrucomicrobiota.Verrucomicrobiae.Verrucomicrobiales.Akkermansiaceae.Akkermansia'
p49
(lp50
F91313.68937998773
aF3494.7540784765583
aF11001.076880846302
aF0.0
aF893.3889219773677
aF21205.989477944153
aF24365.875540331133
aF9974.424552429664
aF87123.68746629442
aF5326.540064844836
aF6152.698797427051
aF1065.712943896535
aF905.8996716113691
aF55295.22024367385
aF142606.86755430978
aF29993.871722431428
aF3453.9014758264602
aF152143.78556118882
aF3112.039878782934
aF135878.1746640094
aF0.0
aF0.0
aF268.74053923611876
aF40.617659204300075
aF587.502225387217
aF11764.148709448256
aF37515.80425139648
aF0.0
aF6701.225667800056
aF82615.26832955405
aF24575.70763581692
aF7913.308438797179
aF463.11139610273966
aF16701.820842839308
aF0.0
aF0.0
aF0.0
aF0.0
asS'Bacteria.Firmicutes.Bacilli.Bacillales.Bacillaceae.Bacillus'
p51
(lp52
F0.0
aF0.0
aF0.0
aF0.0
aF0.0
aF0.0
aF0.0
aF0.0
aF0.0
aF0.0
aF0.0
aF0.0
aF0.0
aF0.0
aF0.0
aF0.0
aF0.0
aF0.0
aF0.0
aF0.0
aF0.0
aF0.0
aF0.0
aF0.0
aF0.0
aF0.0
aF0.0
aF0.0
aF0.0
aF0.0
aF0.0
aF0.0
aF0.0
aF0.0
aF0.0
aF0.0
aF0.0
aF79.9185525707714
asS'Bacteria.Firmicutes.Bacilli.Exiguobacterales.Exiguobacteraceae.Exiguobacterium'
p53
(lp54
F0.0
aF0.0
aF0.0
aF0.0
aF0.0
aF0.0
aF0.0
aF0.0
aF0.0
aF0.0
aF0.0
aF0.0
aF0.0
aF714.0625697326728
aF0.0
aF0.0
aF0.0
aF0.0
aF0.0
aF0.0
aF0.0
aF0.0
aF0.0
aF0.0
aF0.0
aF0.0
aF0.0
aF0.0
aF0.0
aF0.0
aF0.0
aF0.0
aF0.0
aF0.0
aF0.0
aF0.0
aF0.0
aF0.0
asS'Bacteria.Firmicutes.Negativicutes.Veillonellales_Selenomonadales.Veillonellaceae'
p55
(lp56
F0.0
aF0.0
aF0.0
aF0.0
aF0.0
aF0.0
aF0.0
aF0.0
aF0.0
aF0.0
aF0.0
aF0.0
aF0.0
aF0.0
aF0.0
aF0.0
aF0.0
aF0.0
aF0.0
aF0.0
aF0.0
aF0.0
aF0.0
aF0.0
aF0.0
aF0.0
aF0.0
aF0.0
aF0.0
aF0.0
aF0.0
aF0.0
aF0.0
aF0.0
aF0.0
aF0.0
aF522.4660397074191
aF152.88766578756264
asS'Bacteria.Firmicutes.Clostridia.Oscillospirales.Ruminococcaceae.Anaerofilum'
p57
(lp58
F0.0
aF0.0
aF0.0
aF0.0
aF0.0
aF0.0
aF0.0
aF0.0
aF0.0
aF0.0
aF0.0
aF0.0
aF0.0
aF0.0
aF0.0
aF0.0
aF0.0
aF0.0
aF0.0
aF0.0
aF0.0
aF0.0
aF0.0
aF0.0
aF712.1239095602631
aF0.0
aF0.0
aF0.0
aF0.0
aF0.0
aF0.0
aF84.48371998715851
aF0.0
aF0.0
aF0.0
aF0.0
aF0.0
aF66.01967386281115
asS'Bacteria.Firmicutes.Bacilli.Lactobacillales.Lactobacillaceae.Lactobacillus'
p59
(lp60
F665.0296705545323
aF18785.25077324276
aF48839.713676386746
aF27417.1772769758
aF11316.25967837999
aF1780.6556050182114
aF2609.9013131065985
aF0.0
aF1294.2930558639716
aF25724.160045605156
aF59713.38254362397
aF5418.879375745094
aF13645.113803646247
aF4686.035613870665
aF0.0
aF9681.907705827261
aF45310.461500561825
aF7252.115379649313
aF23364.997820068693
aF8465.770691740337
aF122222.22222222219
aF18221.94032611855
aF87291.31474453196
aF37503.63866530374
aF8572.191561331665
aF61842.29220932985
aF82516.16367918746
aF77858.0236040162
aF55282.01507466109
aF5215.419501133787
aF43224.332841819174
aF42771.29130549877
aF50390.082291332714
aF266109.9393052387
aF130794.49286345838
aF388346.64300502813
aF9141.065830721003
aF15111.555875229773
asS'Bacteria.Desulfobacterota.Desulfovibrionia'
p61
(lp62
F0.0
aF0.0
aF0.0
aF1869.352996157441
aF4615.842763549734
aF0.0
aF0.0
aF0.0
aF0.0
aF0.0
aF0.0
aF11975.723420396656
aF14324.538557354774
aF0.0
aF0.0
aF0.0
aF0.0
aF0.0
aF0.0
aF0.0
aF0.0
aF0.0
aF0.0
aF0.0
aF0.0
aF0.0
aF0.0
aF0.0
aF1833.2373361079638
aF0.0
aF0.0
aF0.0
aF0.0
aF0.0
aF0.0
aF0.0
aF3724.137931034483
aF3408.700003127249
asS'Bacteria.Firmicutes.Bacilli.Erysipelotrichales.Erysipelotrichaceae.Faecalibaculum'
p63
(lp64
F5678.330263965623
aF712.5962763054154
aF717.9205642011023
aF0.0
aF0.0
aF0.0
aF1733.1375907348504
aF0.0
aF774.0380039970812
aF3473.8304770727186
aF2423.7904353500508
aF632.2025938369276
aF0.0
aF0.0
aF0.0
aF0.0
aF100.55026130499157
aF0.0
aF85.9086232928346
aF0.0
aF0.0
aF0.0
aF488.1205712656034
aF0.0
aF0.0
aF179.9668482121714
aF88.79980717756156
aF855.5826769672109
aF0.0
aF188.9644746787604
aF1011.9409026512849
aF0.0
aF0.0
aF0.0
aF1452.5704180876594
aF0.0
aF0.0
aF118.14046901766206
asS'Bacteria.Firmicutes.Clostridia.Peptostreptococcales_Tissierellales.Anaerovoracaceae.Family_XIII_UCG_001'
p65
(lp66
F0.0
aF0.0
aF0.0
aF0.0
aF0.0
aF0.0
aF0.0
aF0.0
aF0.0
aF0.0
aF0.0
aF0.0
aF0.0
aF0.0
aF0.0
aF154.17050486986085
aF0.0
aF0.0
aF0.0
aF0.0
aF0.0
aF0.0
aF148.0815216199022
aF0.0
aF267.0464660850986
aF208.3826663509353
aF0.0
aF0.0
aF148.6408650898349
aF0.0
aF0.0
aF84.48371998715851
aF0.0
aF1269.8549352158755
aF0.0
aF0.0
aF0.0
aF62.544954185821084
asS'Bacteria.Cyanobacteria.Vampirivibrionia'
p67
(lp68
F286.47431962349094
aF0.0
aF0.0
aF519.2647211548448
aF0.0
aF0.0
aF0.0
aF0.0
aF50.75659042603811
aF0.0
aF0.0
aF1318.593981431306
aF0.0
aF0.0
aF0.0
aF238.96428254828433
aF517.8338457207066
aF0.0
aF4744.3037213467915
aF0.0
aF814.8148148148146
aF0.0
aF164.53502402211353
aF440.0246413799175
aF293.7511126936085
aF0.0
aF744.2269553928969
aF2189.2850851808043
aF501.66291967819274
aF188.9644746787604
aF0.0
aF4404.41793533053
aF6358.87570802608
aF0.0
aF1073.6390046734875
aF0.0
aF0.0
aF111.19102966368193
asS'Bacteria.Bacteroidota.Bacteroidia.Bacteroidales.Muribaculaceae.Muribaculaceae'
p69
(lp70
F375414.364640884
aF32415.549760446345
aF45492.9369285669
aF1973.20594038841
aF166617.03394877908
aF30433.023067583978
aF19533.480140282194
aF562659.8465473144
aF236138.69238333905
aF15409.55570598924
aF11576.565505902689
aF78483.43629204144
aF460876.45793228404
aF82251.08225108226
aF67974.77224947444
aF405256.44336353795
aF282038.45544743614
aF463395.1090184464
aF546827.7166991332
aF484465.22561193723
aF431496.29629629623
aF383365.48710765777
aF522991.0273566901
aF485949.6747202461
aF388597.11589816597
aF330921.1461046649
aF384816.07868508634
aF47107.37562595938
aF383072.28281401953
aF446875.7873519778
aF333188.77034724026
aF533571.0141988974
aF562235.0468454992
aF165726.83052817357
aF8841.732979664015
aF146702.15912451938
aF397747.1264367816
aF490981.36507837253
asS'Bacteria.Firmicutes.Clostridia.Lachnospirales.Lachnospiraceae.Frisingicoccus'
p71
(lp72
F1278.90321260487
aF0.0
aF0.0
aF0.0
aF7221.5604526503885
aF1214.0833670578713
aF0.0
aF0.0
aF564.667068489674
aF0.0
aF0.0
aF0.0
aF0.0
aF0.0
aF0.0
aF0.0
aF457.5036889377116
aF0.0
aF34.36344931713384
aF0.0
aF666.6666666666665
aF110.11566549503597
aF0.0
aF162.4706368172003
aF0.0
aF700.9235140895096
aF76.1141204379099
aF578.7765167719368
aF1040.4860556288443
aF0.0
aF0.0
aF422.41859993579254
aF0.0
aF0.0
aF0.0
aF0.0
aF2081.5047021943574
aF0.0
asS'Bacteria.Proteobacteria.Gammaproteobacteria.Pasteurellales'
p73
(lp74
F0.0
aF0.0
aF0.0
aF0.0
aF670.0416914830257
aF1375.9611493322543
aF0.0
aF0.0
aF285.50582114646437
aF0.0
aF0.0
aF0.0
aF0.0
aF669.4336591243808
aF0.0
aF104.06509078715608
aF47.76137411987099
aF0.0
aF51.54517397570076
aF0.0
aF0.0
aF0.0
aF0.0
aF0.0
aF356.06195478013154
aF824.0587260241533
aF0.0
aF1786.6579430785873
aF222.96129763475233
aF0.0
aF0.0
aF0.0
aF0.0
aF1205.2860402048989
aF0.0
aF0.0
aF1391.8495297805641
aF667.1461779820916
asS'Bacteria.Proteobacteria.Gammaproteobacteria.Pseudomonadales.Moraxellaceae.Acinetobacter'
p75
(lp76
F0.0
aF0.0
aF0.0
aF0.0
aF0.0
aF0.0
aF2732.24043715847
aF0.0
aF0.0
aF53.44354580111875
aF0.0
aF0.0
aF0.0
aF669.4336591243808
aF0.0
aF0.0
aF27.65132185887268
aF0.0
aF0.0
aF0.0
aF0.0
aF0.0
aF82.26751201105677
aF0.0
aF0.0
aF0.0
aF0.0
aF1157.5530335438737
aF49.54695502994496
aF0.0
aF0.0
aF28.1612399957195
aF0.0
aF0.0
aF2084.122773777946
aF0.0
aF0.0
aF0.0
asS'Bacteria.Firmicutes.Clostridia.Clostridia_vadinBB60_group'
p77
(lp78
F306.9367710251688
aF0.0
aF158.3648303384784
aF0.0
aF0.0
aF566.57223796034
aF0.0
aF0.0
aF387.0190019985406
aF338.47579007375214
aF67.79833385594547
aF559.950868826993
aF0.0
aF0.0
aF0.0
aF2351.1001992653783
aF223.72433140360624
aF38.73533437201414
aF2755.51909211767
aF0.0
aF474.07407407407396
aF114.5202921148374
aF351.0080512471755
aF264.0147848279505
aF738.8285561687728
aF947.1939379587968
aF401.7134134223023
aF0.0
aF12591.119946984763
aF0.0
aF0.0
aF816.6759598758655
aF0.0
aF731.7808101244028
aF315.77617784514337
aF0.0
aF3753.396029258098
aF173.73598384950304
asS'Bacteria.Firmicutes.Bacilli.Erysipelotrichales.Erysipelatoclostridiaceae.UCG_004'
p79
(lp80
F0.0
aF0.0
aF0.0
aF0.0
aF0.0
aF0.0
aF0.0
aF0.0
aF0.0
aF0.0
aF0.0
aF0.0
aF0.0
aF0.0
aF0.0
aF408.55183790513126
aF87.98147864186762
aF0.0
aF377.99794248847223
aF0.0
aF0.0
aF26.42775971880863
aF76.78301121031964
aF0.0
aF329.35730817162164
aF729.3393322282735
aF0.0
aF251.64196381388555
aF1263.4473532635966
aF0.0
aF0.0
aF219.6576719666121
aF213.74372127818754
aF495.02819508415485
aF0.0
aF0.0
aF0.0
aF20.84831806194036
asS'Bacteria.Firmicutes.Clostridia.Oscillospirales.Oscillospiraceae.Colidextribacter'
p81
(lp82
F0.0
aF0.0
aF1002.9772588103635
aF0.0
aF0.0
aF0.0
aF0.0
aF0.0
aF2379.2151762205363
aF0.0
aF372.89083620770015
aF1625.663812723528
aF849.2809421356585
aF0.0
aF0.0
aF4077.8098538078198
aF42.733861054621414
aF499.2554207948488
aF433.83854762881475
aF587.6641627063212
aF770.3703703703702
aF1753.0413946809724
aF904.9426321216245
aF1008.6718702401186
aF3418.1947658892623
aF1335.5434525219036
aF672.3413972015376
aF931.0752661113764
aF1120.9998575525049
aF0.0
aF0.0
aF1588.29393575858
aF0.0
aF0.0
aF0.0
aF0.0
aF0.0
aF142.46350675659247
asS'Bacteria.Bacteroidota.Bacteroidia.Bacteroidales.Tannerellaceae'
p83
(lp84
F644.5672191528545
aF280.4900236521316
aF0.0
aF0.0
aF1116.7361524717096
aF0.0
aF0.0
aF0.0
aF7086.88893823557
aF0.0
aF152.54625117587733
aF216.75517502980372
aF0.0
aF5400.098183603338
aF0.0
aF6602.351871051792
aF73891.87327650568
aF22866.759057612344
aF8137.694341413759
aF25205.682456947212
aF2014.8148148148143
aF27546.534880238196
aF1656.3192418226095
aF2321.9761845124876
aF320.45575930211834
aF483.0689083589864
aF8617.809858470022
aF0.0
aF2464.9610127397623
aF2292.768959435626
aF838.465319339636
aF946.2176638561752
aF2760.856399843256
aF0.0
aF0.0
aF0.0
aF27469.17450365726
aF493.41019413258863
asS'Bacteria.Bacteroidota.Bacteroidia.Bacteroidales.Muribaculaceae'
p85
(lp86
F375741.7638633108
aF32415.549760446345
aF45492.9369285669
aF1973.20594038841
aF166617.03394877908
aF30433.023067583978
aF19533.480140282194
aF562659.8465473144
aF237014.2435681882
aF15409.55570598924
aF11576.565505902689
aF78483.43629204144
aF460876.45793228404
aF82251.08225108226
aF67974.77224947444
aF414013.3280401461
aF282360.21628361207
aF477839.08481316635
aF560182.2121900043
aF497730.2536324458
aF437377.7777777777
aF396887.6908304482
aF528387.7761446154
aF497105.9917816939
aF390840.3062132808
aF332124.0824058725
aF391340.7502315138
aF47107.37562595938
aF384032.25506772473
aF446875.7873519778
aF333188.77034724026
aF534759.4185267168
aF564283.4241744152
aF166544.7031983126
aF8841.732979664015
aF146702.15912451938
aF397747.1264367816
aF490981.36507837253
asS'Bacteria.Proteobacteria.Alphaproteobacteria.Rhizobiales'
p87
(lp88
F61.387354205033766
aF310.813269452362
aF221.7107624738698
aF934.6764980787206
aF6104.82430017868
aF647.5111290975315
aF1284.5608025446536
aF0.0
aF0.0
aF0.0
aF135.59666771189094
aF216.75517502980372
aF0.0
aF223.14455304146026
aF0.0
aF0.0
aF32.678834924122256
aF0.0
aF0.0
aF38.32592365476008
aF0.0
aF74.87865253662446
aF0.0
aF0.0
aF0.0
aF0.0
aF0.0
aF0.0
aF247.73477514972478
aF0.0
aF0.0
aF0.0
aF0.0
aF0.0
aF1894.65706707086
aF0.0
aF0.0
aF211.95790029639366
asS'Bacteria.Firmicutes.Clostridia.Lachnospirales.Defluviitaleaceae.Defluviitaleaceae_UCG_011'
p89
(lp90
F0.0
aF0.0
aF0.0
aF0.0
aF0.0
aF0.0
aF0.0
aF0.0
aF82.47945944231192
aF552.2499732782271
aF0.0
aF1282.4681189263388
aF0.0
aF0.0
aF0.0
aF0.0
aF50.27513065249578
aF0.0
aF133.15836610389363
aF0.0
aF518.5185185185184
aF0.0
aF43.87600640589694
aF385.86776244085075
aF106.81858643403945
aF644.0918778119818
aF114.17118065686488
aF0.0
aF545.0165053293946
aF1662.8873771730914
aF0.0
aF782.8824718810022
aF0.0
aF215.22965003658905
aF0.0
aF0.0
aF0.0
aF45.171355800870785
asS'Bacteria.Actinobacteriota.Actinobacteria.Corynebacteriales'
p91
(lp92
F0.0
aF0.0
aF0.0
aF5919.6178211652295
aF0.0
aF0.0
aF0.0
aF0.0
aF0.0
aF0.0
aF0.0
aF0.0
aF0.0
aF0.0
aF0.0
aF0.0
aF0.0
aF0.0
aF0.0
aF0.0
aF0.0
aF0.0
aF0.0
aF372.328542706084
aF0.0
aF0.0
aF0.0
aF0.0
aF0.0
aF0.0
aF0.0
aF0.0
aF0.0
aF0.0
aF0.0
aF0.0
aF0.0
aF0.0
asS'Bacteria.Verrucomicrobiota'
p93
(lp94
F91313.68937998773
aF3494.7540784765583
aF11001.076880846302
aF0.0
aF893.3889219773677
aF21205.989477944153
aF24365.875540331133
aF9974.424552429664
aF87123.68746629442
aF5326.540064844836
aF6152.698797427051
aF1065.712943896535
aF905.8996716113691
aF55295.22024367385
aF142606.86755430978
aF29993.871722431428
aF3453.9014758264602
aF152143.78556118882
aF3112.039878782934
aF135878.1746640094
aF0.0
aF0.0
aF268.74053923611876
aF40.617659204300075
aF587.502225387217
aF11764.148709448256
aF37515.80425139648
aF0.0
aF6701.225667800056
aF82615.26832955405
aF24575.70763581692
aF7913.308438797179
aF463.11139610273966
aF16701.820842839308
aF0.0
aF0.0
aF0.0
aF0.0
asS'Bacteria.Firmicutes.Bacilli.Lactobacillales'
p95
(lp96
F665.0296705545323
aF18944.44781369397
aF48839.713676386746
aF32713.677432755216
aF16378.796902918408
aF3318.4945366248485
aF4812.005546040291
aF0.0
aF1294.2930558639716
aF25724.160045605156
aF59713.38254362397
aF6665.2216321664655
aF13645.113803646247
aF5310.840362386754
aF0.0
aF10094.31380635414
aF46647.77997591821
aF8237.714443115006
aF23440.167865449923
aF9121.569829832899
aF124355.55555555552
aF18666.807614718495
aF89167.01401838406
aF39940.698217561745
aF8572.191561331665
aF61842.29220932985
aF82719.13466702188
aF82916.0270766753
aF55282.01507466109
aF5719.324766943814
aF43224.332841819174
aF42951.52324147138
aF50390.082291332714
aF266109.9393052387
aF135152.20411772135
aF388346.64300502813
aF10114.942528735632
aF15900.317241906516
asS'Bacteria.Firmicutes.Clostridia.Oscillospirales.Ruminococcaceae.Candidatus_Soleaferrea'
p97
(lp98
F0.0
aF0.0
aF0.0
aF0.0
aF0.0
aF0.0
aF0.0
aF0.0
aF0.0
aF0.0
aF0.0
aF0.0
aF0.0
aF0.0
aF0.0
aF0.0
aF0.0
aF0.0
aF25.77258698785038
aF0.0
aF0.0
aF0.0
aF0.0
aF0.0
aF0.0
aF0.0
aF0.0
aF0.0
aF0.0
aF0.0
aF0.0
aF0.0
aF0.0
aF0.0
aF0.0
aF0.0
aF417.9728317659352
aF104.2415903097018
asS'Bacteria.Firmicutes.Bacilli.Bacillales.Bacillaceae.Anoxybacillus'
p99
(lp100
F0.0
aF0.0
aF0.0
aF0.0
aF0.0
aF0.0
aF0.0
aF0.0
aF0.0
aF0.0
aF0.0
aF0.0
aF0.0
aF0.0
aF0.0
aF0.0
aF0.0
aF0.0
aF0.0
aF0.0
aF0.0
aF0.0
aF0.0
aF0.0
aF0.0
aF0.0
aF0.0
aF931.0752661113764
aF0.0
aF0.0
aF0.0
aF0.0
aF0.0
aF0.0
aF0.0
aF0.0
aF0.0
aF0.0
asS'Bacteria.Bacteroidota.Bacteroidia.Bacteroidales'
p101
(lp102
F391518.3138940045
aF34758.020498514146
aF45756.87831246437
aF1973.20594038841
aF212477.6652769506
aF32942.12869283691
aF20818.04094282685
aF562659.8465473144
aF256790.2801129333
aF16567.49919834681
aF12881.68343262964
aF88616.74072468477
aF505492.01675914397
aF115633.5073860847
aF87946.74141555713
aF656280.7136552673
aF773528.1327062349
aF784231.2757697569
aF870784.8397052478
aF806948.0641150117
aF790074.0740740739
aF857734.9648070332
aF599077.5069653161
aF885112.9509406376
aF494160.5839416054
aF367672.27089746617
aF716529.8726779909
aF52089.886509474316
aF506722.9024606259
aF602003.0234315948
aF367218.89727354195
aF555936.6710034977
aF693901.1791528628
aF184494.85601136414
aF9473.285335354301
aF193138.12481514347
aF768894.4618599791
aF518907.6871223417
asS'Bacteria.Cyanobacteria'
p103
(lp104
F286.47431962349094
aF0.0
aF0.0
aF519.2647211548448
aF0.0
aF0.0
aF0.0
aF0.0
aF50.75659042603811
aF0.0
aF0.0
aF1318.593981431306
aF452.94983580568453
aF0.0
aF0.0
aF238.96428254828433
aF517.8338457207066
aF0.0
aF4744.3037213467915
aF0.0
aF814.8148148148146
aF0.0
aF164.53502402211353
aF440.0246413799175
aF293.7511126936085
aF0.0
aF744.2269553928969
aF2541.583834520244
aF501.66291967819274
aF188.9644746787604
aF0.0
aF4404.41793533053
aF6358.87570802608
aF0.0
aF1073.6390046734875
aF0.0
aF0.0
aF111.19102966368193
asS'Bacteria.Cyanobacteria.Cyanobacteriia.Chloroplast.Chloroplast.Chloroplast'
p105
(lp106
F0.0
aF0.0
aF0.0
aF0.0
aF0.0
aF0.0
aF0.0
aF0.0
aF0.0
aF0.0
aF0.0
aF0.0
aF452.94983580568453
aF0.0
aF0.0
aF0.0
aF0.0
aF0.0
aF0.0
aF0.0
aF0.0
aF0.0
aF0.0
aF0.0
aF0.0
aF0.0
aF0.0
aF352.2987493394398
aF0.0
aF0.0
aF0.0
aF0.0
aF0.0
aF0.0
aF0.0
aF0.0
aF0.0
aF0.0
asS'Bacteria.Firmicutes.Bacilli.Izemoplasmatales'
p107
(lp108
F0.0
aF0.0
aF0.0
aF0.0
aF0.0
aF0.0
aF0.0
aF0.0
aF0.0
aF0.0
aF0.0
aF0.0
aF0.0
aF0.0
aF0.0
aF0.0
aF0.0
aF0.0
aF0.0
aF0.0
aF0.0
aF0.0
aF0.0
aF0.0
aF0.0
aF104.19133317546765
aF0.0
aF0.0
aF117.67401819611929
aF0.0
aF0.0
aF236.5544159640438
aF0.0
aF0.0
aF0.0
aF0.0
aF0.0
aF0.0
asS'Bacteria.Firmicutes.Clostridia.Peptococcales'
p109
(lp110
F153.4683855125844
aF242.58596640184356
aF211.15310711797125
aF0.0
aF0.0
aF0.0
aF81.5594160345812
aF0.0
aF1072.2329727500548
aF0.0
aF483.06312872361156
aF776.7060438567967
aF0.0
aF847.949301557549
aF0.0
aF1796.086381733879
aF163.3941746206113
aF215.19630206674518
aF599.2126474675214
aF225.69710596692047
aF0.0
aF1131.9890412889697
aF614.2640896825571
aF318.17166376701726
aF3863.272209364427
aF4442.339569026757
aF7036.327578260116
aF226.477767432497
aF891.8451905390093
aF579.4910556815319
aF433.6889582791221
aF6854.445814958127
aF2778.6683766164383
aF516.5511600878139
aF1326.259946949602
aF0.0
aF0.0
aF236.28093803532408
asS'Bacteria.Firmicutes.Clostridia.Lachnospirales.Lachnospiraceae.Hungatella'
p111
(lp112
F0.0
aF0.0
aF0.0
aF0.0
aF0.0
aF0.0
aF0.0
aF0.0
aF0.0
aF0.0
aF0.0
aF0.0
aF0.0
aF0.0
aF0.0
aF0.0
aF2800.324777344015
aF0.0
aF0.0
aF0.0
aF0.0
aF0.0
aF0.0
aF0.0
aF0.0
aF0.0
aF0.0
aF0.0
aF0.0
aF0.0
aF0.0
aF0.0
aF0.0
aF0.0
aF0.0
aF0.0
aF14399.164054336468
aF0.0
asS'Bacteria.Firmicutes.Bacilli.Staphylococcales.Staphylococcaceae.Jeotgalicoccus'
p113
(lp114
F0.0
aF0.0
aF0.0
aF3946.41188077682
aF0.0
aF0.0
aF0.0
aF0.0
aF0.0
aF0.0
aF0.0
aF343.1956937971893
aF0.0
aF0.0
aF0.0
aF0.0
aF0.0
aF0.0
aF0.0
aF0.0
aF0.0
aF176.18506479205755
aF213.8955312287476
aF582.1864485949677
aF0.0
aF0.0
aF25.371373479303305
aF0.0
aF0.0
aF0.0
aF0.0
aF0.0
aF0.0
aF0.0
aF0.0
aF0.0
aF0.0
aF0.0
asS'Bacteria.Firmicutes.Clostridia.Oscillospirales.Ruminococcaceae.UBA1819'
p115
(lp116
F951.5039901780234
aF0.0
aF168.922485694377
aF0.0
aF0.0
aF0.0
aF0.0
aF0.0
aF6230.371474796178
aF249.40321373855417
aF220.3445850318228
aF0.0
aF0.0
aF0.0
aF0.0
aF0.0
aF0.0
aF25.823556248009425
aF53.69288955802163
aF0.0
aF0.0
aF0.0
aF0.0
aF0.0
aF1566.6726010325785
aF331.5178782855789
aF0.0
aF780.0900878230452
aF167.22097322606425
aF0.0
aF0.0
aF1520.7069597688533
aF3206.155819172813
aF1937.0668503293016
aF0.0
aF0.0
aF5839.080459770115
aF66.01967386281115
asS'Bacteria.Firmicutes.Clostridia.Eubacteriales.Eubacteriaceae'
p117
(lp118
F0.0
aF0.0
aF0.0
aF0.0
aF0.0
aF0.0
aF0.0
aF0.0
aF0.0
aF0.0
aF0.0
aF0.0
aF0.0
aF0.0
aF0.0
aF0.0
aF0.0
aF0.0
aF0.0
aF0.0
aF0.0
aF0.0
aF0.0
aF0.0
aF0.0
aF0.0
aF0.0
aF0.0
aF0.0
aF0.0
aF0.0
aF0.0
aF0.0
aF0.0
aF0.0
aF0.0
aF91.95402298850574
aF0.0
asS'Bacteria.Proteobacteria.Alphaproteobacteria.Rhodobacterales.Rhodobacteraceae.Rubellimicrobium'
p119
(lp120
F0.0
aF0.0
aF0.0
aF0.0
aF0.0
aF0.0
aF0.0
aF0.0
aF0.0
aF0.0
aF0.0
aF0.0
aF1245.6120484656326
aF0.0
aF0.0
aF0.0
aF0.0
aF0.0
aF0.0
aF0.0
aF0.0
aF0.0
aF0.0
aF0.0
aF0.0
aF0.0
aF0.0
aF0.0
aF0.0
aF0.0
aF0.0
aF0.0
aF0.0
aF0.0
aF0.0
aF0.0
aF0.0
aF0.0
asS'Bacteria.Proteobacteria.Gammaproteobacteria.Burkholderiales.Oxalobacteraceae'
p121
(lp122
F0.0
aF0.0
aF0.0
aF0.0
aF0.0
aF0.0
aF428.1869341815513
aF13043.478260869562
aF0.0
aF0.0
aF0.0
aF0.0
aF0.0
aF0.0
aF0.0
aF0.0
aF0.0
aF0.0
aF0.0
aF0.0
aF0.0
aF0.0
aF0.0
aF0.0
aF0.0
aF0.0
aF0.0
aF654.2691059161024
aF0.0
aF0.0
aF433.6889582791221
aF0.0
aF0.0
aF0.0
aF0.0
aF0.0
aF0.0
aF0.0
asS'Bacteria.Firmicutes.Clostridia.Oscillospirales.UCG_010'
p123
(lp124
F1534.683855125844
aF45.484868700345665
aF0.0
aF0.0
aF0.0
aF0.0
aF0.0
aF0.0
aF615.423658915712
aF0.0
aF313.56729408374787
aF650.2655250894112
aF0.0
aF0.0
aF0.0
aF0.0
aF0.0
aF0.0
aF4132.204780385344
aF0.0
aF399.99999999999994
aF0.0
aF422.30656165675805
aF284.3236144301005
aF489.58518782268084
aF1373.4312100402556
aF816.1125135842562
aF0.0
aF1294.414200157312
aF642.4792139077853
aF0.0
aF4286.140727348508
aF926.2227922054793
aF0.0
aF0.0
aF0.0
aF121.2121212121212
aF2234.244752304609
asS'Bacteria.Firmicutes.Negativicutes.Veillonellales_Selenomonadales.Selenomonadaceae'
p125
(lp126
F0.0
aF0.0
aF0.0
aF0.0
aF0.0
aF0.0
aF0.0
aF0.0
aF0.0
aF0.0
aF0.0
aF0.0
aF0.0
aF0.0
aF0.0
aF0.0
aF0.0
aF0.0
aF0.0
aF0.0
aF0.0
aF0.0
aF0.0
aF0.0
aF0.0
aF0.0
aF0.0
aF0.0
aF0.0
aF0.0
aF0.0
aF0.0
aF0.0
aF0.0
aF0.0
aF0.0
aF7097.1786833855795
aF1045.8906227740083
asS'Bacteria.Proteobacteria.Alphaproteobacteria.Rickettsiales.Mitochondria'
p127
(lp128
F0.0
aF0.0
aF0.0
aF0.0
aF0.0
aF0.0
aF0.0
aF0.0
aF0.0
aF0.0
aF0.0
aF0.0
aF0.0
aF0.0
aF0.0
aF0.0
aF0.0
aF0.0
aF0.0
aF0.0
aF0.0
aF0.0
aF76.78301121031964
aF0.0
aF0.0
aF0.0
aF0.0
aF0.0
aF0.0
aF0.0
aF0.0
aF90.11596798630241
aF0.0
aF0.0
aF0.0
aF0.0
aF0.0
aF0.0
asS'Bacteria.Proteobacteria.Alphaproteobacteria.Sphingomonadales.Sphingomonadaceae.Sphingomonas'
p129
(lp130
F0.0
aF0.0
aF95.01889820308705
aF0.0
aF0.0
aF0.0
aF0.0
aF0.0
aF0.0
aF0.0
aF0.0
aF0.0
aF0.0
aF0.0
aF0.0
aF0.0
aF20.110052260998312
aF0.0
aF0.0
aF0.0
aF0.0
aF0.0
aF0.0
aF0.0
aF0.0
aF0.0
aF0.0
aF0.0
aF0.0
aF0.0
aF0.0
aF0.0
aF0.0
aF0.0
aF0.0
aF0.0
aF0.0
aF66.01967386281115
asS'Bacteria.Firmicutes.Clostridia.Eubacteriales.Anaerofustaceae'
p131
(lp132
F327.39922242684673
aF75.8081145005761
aF190.0377964061741
aF0.0
aF0.0
aF404.69445568595717
aF0.0
aF0.0
aF0.0
aF356.29030534079163
aF0.0
aF0.0
aF0.0
aF1695.898603115098
aF0.0
aF0.0
aF0.0
aF0.0
aF0.0
aF0.0
aF0.0
aF0.0
aF0.0
aF0.0
aF0.0
aF75.77551503670375
aF0.0
aF0.0
aF111.48064881737616
aF365.3313177122701
aF1185.4164859629338
aF0.0
aF0.0
aF0.0
aF0.0
aF0.0
aF0.0
aF0.0
asS'Bacteria.Elusimicrobiota'
p133
(lp134
F0.0
aF0.0
aF0.0
aF0.0
aF0.0
aF0.0
aF0.0
aF0.0
aF0.0
aF0.0
aF0.0
aF0.0
aF0.0
aF0.0
aF0.0
aF0.0
aF0.0
aF0.0
aF0.0
aF0.0
aF0.0
aF0.0
aF0.0
aF0.0
aF0.0
aF0.0
aF0.0
aF0.0
aF0.0
aF0.0
aF0.0
aF0.0
aF0.0
aF0.0
aF0.0
aF0.0
aF91.95402298850574
aF191.10958223445334
asS'Bacteria.Proteobacteria.Gammaproteobacteria.Pseudomonadales.Pseudomonadaceae'
p135
(lp136
F388.7865766318805
aF773.2427679058762
aF3241.2001942608586
aF0.0
aF28067.301965455634
aF971.2666936462971
aF2671.0708751325337
aF0.0
aF272.8166735399548
aF1870.5241030391564
aF457.63875352763193
aF1625.663812723528
aF0.0
aF2097.5587985897264
aF15066.573230553613
aF100.21082816540955
aF158.3666615553617
aF21.51963020667452
aF0.0
aF0.0
aF0.0
aF290.7053569068949
aF82.26751201105677
aF148.93141708243363
aF0.0
aF0.0
aF80.34268268446047
aF6819.497219356298
aF123.86738757486239
aF302.34315948601665
aF2023.8818053025698
aF0.0
aF0.0
aF0.0
aF5999.747379057724
aF0.0
aF0.0
aF573.32874670336
asS'Bacteria.Proteobacteria.Gammaproteobacteria.Pseudomonadales.Pseudomonadaceae.Pseudomonas'
p137
(lp138
F388.7865766318805
aF773.2427679058762
aF3241.2001942608586
aF0.0
aF28067.301965455634
aF971.2666936462971
aF2671.0708751325337
aF0.0
aF272.8166735399548
aF1870.5241030391564
aF457.63875352763193
aF1625.663812723528
aF0.0
aF2097.5587985897264
aF15066.573230553613
aF100.21082816540955
aF158.3666615553617
aF21.51963020667452
aF0.0
aF0.0
aF0.0
aF290.7053569068949
aF82.26751201105677
aF148.93141708243363
aF0.0
aF0.0
aF80.34268268446047
aF6819.497219356298
aF123.86738757486239
aF302.34315948601665
aF2023.8818053025698
aF0.0
aF0.0
aF0.0
aF5999.747379057724
aF0.0
aF0.0
aF573.32874670336
asS'Bacteria.Firmicutes.Clostridia.Clostridia.Hungateiclostridiaceae.Ruminiclostridium'
p139
(lp140
F0.0
aF0.0
aF0.0
aF0.0
aF0.0
aF0.0
aF0.0
aF0.0
aF57.10116422929287
aF0.0
aF0.0
aF0.0
aF0.0
aF0.0
aF0.0
aF0.0
aF0.0
aF0.0
aF0.0
aF0.0
aF0.0
aF0.0
aF0.0
aF0.0
aF178.03097739006577
aF113.66327255505561
aF0.0
aF0.0
aF0.0
aF0.0
aF0.0
aF0.0
aF0.0
aF0.0
aF0.0
aF0.0
aF0.0
aF0.0
asS'Bacteria.Actinobacteriota.Actinobacteria.Micrococcales.Micrococcaceae'
p141
(lp142
F0.0
aF341.13651525259246
aF0.0
aF0.0
aF0.0
aF0.0
aF0.0
aF0.0
aF0.0
aF0.0
aF0.0
aF415.4474188071238
aF0.0
aF0.0
aF0.0
aF0.0
aF0.0
aF8.607852082669806
aF0.0
aF0.0
aF0.0
aF0.0
aF0.0
aF0.0
aF0.0
aF0.0
aF71.88555819135937
aF1811.822139459976
aF0.0
aF0.0
aF0.0
aF90.11596798630241
aF0.0
aF0.0
aF1768.3465959328028
aF0.0
aF121.2121212121212
aF128.56462804863224
asS'Bacteria.Actinobacteriota'
p143
(lp144
F27317.372621240025
aF14168.536600157677
aF12700.859393145969
aF27624.88316543774
aF25461.584276354977
aF23553.217320922708
aF18677.106271919092
aF3324.8081841432218
aF12213.30457126542
aF19275.30551893683
aF17424.171800977987
aF22343.845959322265
aF21401.879741818597
aF103494.44370062924
aF37841.625788367215
aF131.04492913938174
aF1008.0163695825404
aF94.68637290936789
aF455.3157034520234
aF55.35966750132012
aF992.5925925925924
aF105.71103887523452
aF9164.600838031723
aF2355.824233849404
aF578.6006765177137
aF2131.1863604072933
aF3530.8494758697097
aF42527.49188454666
aF780.3645417216331
aF1058.2010582010582
aF8847.254748894093
aF3706.019183436686
aF1549.6419792668598
aF5445.310145925704
aF26083.11229000884
aF0.0
aF585.1619644723093
aF4138.391135295162
asS'Bacteria.Proteobacteria.Gammaproteobacteria.Burkholderiales'
p145
(lp146
F2701.0435850214853
aF5200.436654739521
aF2723.875081821829
aF6335.029598089106
aF85318.64204883862
aF5180.089032780252
aF11438.708098850013
aF13043.478260869562
aF1059.5438251435455
aF2351.5160152492253
aF2211.9206420502214
aF5418.879375745094
aF8945.75925716227
aF13433.302093095906
aF18570.427470217244
aF724.601372888346
aF37754.109363491705
aF5100.15235898186
aF6516.169076761505
aF5731.854804367452
aF903.7037037037035
aF3673.458600914399
aF795.252616106882
aF1435.1572918852694
aF1771.4082250311542
aF2055.410845370589
aF4304.676366988461
aF21616.04469161277
aF4744.120944117231
aF4850.088183421516
aF4654.92815219591
aF3407.5100394820597
aF2208.685119874605
aF430.4593000731781
aF20462.29632436529
aF0.0
aF5592.476489028213
aF2682.4835906363264
asS'Bacteria.Firmicutes.Clostridia.Oscillospirales.Ruminococcaceae.Ruminococcus'
p147
(lp148
F2250.8696541845716
aF197.10109770149788
aF728.4782195570008
aF2284.764773081317
aF5732.578916021443
aF8822.339133953867
aF32358.698311720087
aF7416.879795396418
aF11712.083240808293
aF26668.329354758258
aF30678.746069815326
aF11144.828582782407
aF11436.983354093534
aF10041.50488686571
aF4555.01051156272
aF1630.3530889987785
aF0.0
aF1514.9819665498862
aF5556.140211464079
aF1166.8114534893623
aF23955.55555555555
aF1083.538148471154
aF5204.791259899524
aF26266.08628544738
aF2403.4181947658876
aF28813.6395927066
aF31172.96088157066
aF20408.163265306117
aF24147.947207719426
aF6890.904509952129
aF4712.753346633127
aF13911.652557885434
aF14623.632930782665
aF19994.834488399127
aF15788.80889225717
aF11239.278320023663
aF2031.3479623824453
aF39403.32113706729
asS'Bacteria.Firmicutes.Clostridia.Lachnospirales.Lachnospiraceae.ASF356'
p149
(lp150
F0.0
aF0.0
aF0.0
aF0.0
aF0.0
aF0.0
aF0.0
aF0.0
aF0.0
aF0.0
aF0.0
aF0.0
aF0.0
aF0.0
aF0.0
aF0.0
aF0.0
aF0.0
aF0.0
aF0.0
aF0.0
aF0.0
aF0.0
aF0.0
aF142.4247819120526
aF0.0
aF33.828497972404406
aF0.0
aF0.0
aF0.0
aF0.0
aF152.0706959768853
aF0.0
aF0.0
aF0.0
aF0.0
aF0.0
aF0.0
asS'Bacteria.Firmicutes.Clostridia.Christensenellales'
p151
(lp152
F4501.739308369143
aF576.1416702043784
aF2037.6274836884224
aF41541.17769238757
aF30002.977963073263
aF3723.1889923108056
aF3853.6824076339617
aF0.0
aF4790.153221457346
aF783.8386717497417
aF525.4370873835774
aF13818.142408149988
aF21232.023553391464
aF1562.011871290222
aF0.0
aF26.97983835222565
aF80.44020904399325
aF279.75519268676874
aF309.27104385420455
aF144.7868226957603
aF0.0
aF0.0
aF263.25603843538164
aF74.46570854121681
aF1210.6106462524472
aF1733.364906464598
aF680.7985216946387
aF167014.77138327583
aF1635.0495159881839
aF3136.8102796674225
aF2515.395958018908
aF3998.8960793921688
aF1905.8815147305058
aF1334.4238302268523
aF177592.5224201086
aF0.0
aF0.0
aF2890.9667712557302
asS'Bacteria.Bacteroidota.Bacteroidia.Bacteroidales.Prevotellaceae.Prevotellaceae_Ga6A1_group'
p153
(lp154
F0.0
aF0.0
aF0.0
aF0.0
aF0.0
aF0.0
aF0.0
aF0.0
aF0.0
aF0.0
aF0.0
aF0.0
aF0.0
aF0.0
aF0.0
aF0.0
aF0.0
aF0.0
aF0.0
aF0.0
aF0.0
aF0.0
aF0.0
aF0.0
aF0.0
aF0.0
aF0.0
aF0.0
aF0.0
aF0.0
aF0.0
aF0.0
aF0.0
aF0.0
aF0.0
aF0.0
aF20409.61337513062
aF0.0
asS'Bacteria.Firmicutes.Clostridia.Lachnospirales.Lachnospiraceae.Dorea'
p155
(lp156
F0.0
aF0.0
aF0.0
aF0.0
aF2903.513996426445
aF0.0
aF0.0
aF0.0
aF0.0
aF0.0
aF0.0
aF0.0
aF0.0
aF0.0
aF0.0
aF46.251151460958255
aF0.0
aF0.0
aF0.0
aF0.0
aF0.0
aF0.0
aF0.0
aF0.0
aF0.0
aF0.0
aF0.0
aF0.0
aF0.0
aF0.0
aF0.0
aF0.0
aF0.0
aF0.0
aF0.0
aF0.0
aF0.0
aF0.0
asS'Bacteria.Bacteroidota.Bacteroidia.Bacteroidales.Prevotellaceae.Prevotella'
p157
(lp158
F0.0
aF0.0
aF0.0
aF0.0
aF0.0
aF0.0
aF0.0
aF0.0
aF0.0
aF0.0
aF0.0
aF596.0767313319603
aF0.0
aF0.0
aF0.0
aF0.0
aF0.0
aF0.0
aF0.0
aF0.0
aF0.0
aF0.0
aF0.0
aF0.0
aF0.0
aF0.0
aF0.0
aF0.0
aF0.0
aF226.75736961451247
aF0.0
aF0.0
aF0.0
aF0.0
aF0.0
aF0.0
aF130403.34378265413
aF781.8119273227636
asS'Bacteria.Acidobacteriota.Acidobacteriae.Bryobacterales.Bryobacteraceae'
p159
(lp160
F0.0
aF0.0
aF0.0
aF0.0
aF0.0
aF0.0
aF0.0
aF0.0
aF0.0
aF0.0
aF0.0
aF0.0
aF679.4247537085269
aF0.0
aF0.0
aF0.0
aF0.0
aF0.0
aF0.0
aF0.0
aF0.0
aF0.0
aF0.0
aF0.0
aF0.0
aF0.0
aF0.0
aF0.0
aF0.0
aF0.0
aF0.0
aF0.0
aF0.0
aF0.0
aF0.0
aF0.0
aF0.0
aF0.0
asS'Bacteria.Cyanobacteria.Vampirivibrionia.Gastranaerophilales.Gastranaerophilales'
p161
(lp162
F286.47431962349094
aF0.0
aF0.0
aF519.2647211548448
aF0.0
aF0.0
aF0.0
aF0.0
aF50.75659042603811
aF0.0
aF0.0
aF1318.593981431306
aF0.0
aF0.0
aF0.0
aF238.96428254828433
aF517.8338457207066
aF0.0
aF4744.3037213467915
aF0.0
aF814.8148148148146
aF0.0
aF164.53502402211353
aF440.0246413799175
aF293.7511126936085
aF0.0
aF744.2269553928969
aF2189.2850851808043
aF501.66291967819274
aF188.9644746787604
aF0.0
aF4404.41793533053
aF6358.87570802608
aF0.0
aF1073.6390046734875
aF0.0
aF0.0
aF111.19102966368193
asS'Bacteria.Bacteroidota.Bacteroidia.Bacteroidales.Prevotellaceae'
p163
(lp164
F0.0
aF0.0
aF0.0
aF0.0
aF0.0
aF0.0
aF0.0
aF0.0
aF0.0
aF0.0
aF0.0
aF0.0
aF0.0
aF0.0
aF0.0
aF0.0
aF0.0
aF0.0
aF0.0
aF0.0
aF0.0
aF0.0
aF0.0
aF0.0
aF0.0
aF0.0
aF0.0
aF0.0
aF0.0
aF0.0
aF0.0
aF0.0
aF0.0
aF0.0
aF0.0
aF0.0
aF4346.917450365726
aF1198.7782885615707
asS'Bacteria.Firmicutes.Clostridia.Oscillospirales.Ruminococcaceae.Incertae_Sedis'
p165
(lp166
F613.8735420503376
aF0.0
aF369.51793745644966
aF8827.500259632361
aF2754.6158427635505
aF4613.516794819911
aF3466.275181469701
aF28388.746803069047
aF18881.451638486174
aF160.33063740335626
aF161.0210429078705
aF19218.958852642598
aF8266.334503453743
aF1963.6720667648503
aF0.0
aF4301.357085869118
aF0.0
aF710.1477968202591
aF191.146686826557
aF425.84359616400087
aF3866.6666666666656
aF845.6883110018762
aF5314.481275914267
aF1875.1819332651867
aF8011.393982552959
aF6810.3244139237495
aF219.88523682062862
aF15375.323989028408
aF9698.816447111727
aF2632.905013857395
aF9396.594096047646
aF1396.7975037876874
aF320.61558191728136
aF2797.9854504756577
aF18820.260199570545
aF19520.851818988467
aF631.1389759665622
aF1723.4609597870701
asS'Bacteria.Elusimicrobiota.Elusimicrobia'
p167
(lp168
F0.0
aF0.0
aF0.0
aF0.0
aF0.0
aF0.0
aF0.0
aF0.0
aF0.0
aF0.0
aF0.0
aF0.0
aF0.0
aF0.0
aF0.0
aF0.0
aF0.0
aF0.0
aF0.0
aF0.0
aF0.0
aF0.0
aF0.0
aF0.0
aF0.0
aF0.0
aF0.0
aF0.0
aF0.0
aF0.0
aF0.0
aF0.0
aF0.0
aF0.0
aF0.0
aF0.0
aF91.95402298850574
aF191.10958223445334
asS'Bacteria.Proteobacteria.Gammaproteobacteria.Burkholderiales.Burkholderiaceae'
p169
(lp170
F1534.683855125844
aF4525.7444356843935
aF2280.4535568740894
aF4777.235434624572
aF12805.241215008937
aF1618.7778227438287
aF4159.530217763641
aF0.0
aF793.0717254068454
aF2102.112801510671
aF1872.9289727704938
aF2546.873306600194
aF6058.204053901031
aF3793.4574017048244
aF10161.17729502453
aF107.9193534089026
aF384.6047494915927
aF133.42170728138203
aF92.3517700397972
aF0.0
aF0.0
aF110.11566549503597
aF537.4810784722375
aF135.39219734766692
aF106.81858643403945
aF378.87757518351873
aF241.0280480533814
aF12607.262387075667
aF247.73477514972478
aF982.6152683295539
aF1966.0566108653534
aF78.8514719880146
aF0.0
aF0.0
aF5810.281672350638
aF0.0
aF171.36886102403344
aF267.5534151282347
asS'Bacteria.Firmicutes.Clostridia.Lachnospirales.Lachnospiraceae.Lachnospira'
p171
(lp172
F0.0
aF0.0
aF0.0
aF0.0
aF1712.328767123288
aF0.0
aF0.0
aF0.0
aF0.0
aF0.0
aF0.0
aF0.0
aF0.0
aF0.0
aF0.0
aF0.0
aF0.0
aF0.0
aF0.0
aF0.0
aF0.0
aF0.0
aF0.0
aF0.0
aF0.0
aF0.0
aF0.0
aF0.0
aF0.0
aF0.0
aF0.0
aF0.0
aF0.0
aF0.0
aF0.0
aF0.0
aF0.0
aF0.0
asS'Bacteria.Proteobacteria.Gammaproteobacteria.Enterobacterales.Morganellaceae.Proteus'
p173
(lp174
F0.0
aF0.0
aF0.0
aF0.0
aF0.0
aF0.0
aF0.0
aF0.0
aF0.0
aF0.0
aF0.0
aF0.0
aF0.0
aF0.0
aF0.0
aF0.0
aF0.0
aF215.19630206674518
aF0.0
aF119.23620692592026
aF0.0
aF0.0
aF0.0
aF0.0
aF0.0
aF0.0
aF0.0
aF0.0
aF0.0
aF0.0
aF0.0
aF0.0
aF0.0
aF0.0
aF0.0
aF0.0
aF238.24451410658307
aF0.0
asS'Bacteria.Firmicutes.Clostridia.Lachnospirales.Lachnospiraceae.Eisenbergiella'
p175
(lp176
F0.0
aF0.0
aF0.0
aF0.0
aF0.0
aF0.0
aF0.0
aF0.0
aF0.0
aF0.0
aF0.0
aF505.76207506954205
aF0.0
aF0.0
aF0.0
aF0.0
aF0.0
aF0.0
aF0.0
aF0.0
aF0.0
aF0.0
aF0.0
aF0.0
aF0.0
aF0.0
aF0.0
aF0.0
aF0.0
aF0.0
aF0.0
aF0.0
aF0.0
aF0.0
aF0.0
aF0.0
aF1918.4952978056426
aF0.0
asS'Bacteria.Firmicutes.Bacilli.Izemoplasmatales.Izemoplasmatales'
p177
(lp178
F0.0
aF0.0
aF0.0
aF0.0
aF0.0
aF0.0
aF0.0
aF0.0
aF0.0
aF0.0
aF0.0
aF0.0
aF0.0
aF0.0
aF0.0
aF0.0
aF0.0
aF0.0
aF0.0
aF0.0
aF0.0
aF0.0
aF0.0
aF0.0
aF0.0
aF104.19133317546765
aF0.0
aF0.0
aF117.67401819611929
aF0.0
aF0.0
aF236.5544159640438
aF0.0
aF0.0
aF0.0
aF0.0
aF0.0
aF0.0
asS'Bacteria.Firmicutes.Clostridia.Lachnospirales.Lachnospiraceae.Lachnospiraceae_NK4B4_group'
p179
(lp180
F0.0
aF0.0
aF0.0
aF0.0
aF0.0
aF0.0
aF0.0
aF0.0
aF0.0
aF0.0
aF0.0
aF0.0
aF0.0
aF0.0
aF0.0
aF0.0
aF0.0
aF0.0
aF0.0
aF0.0
aF0.0
aF0.0
aF0.0
aF0.0
aF0.0
aF0.0
aF0.0
aF0.0
aF0.0
aF314.9407911312673
aF0.0
aF0.0
aF0.0
aF0.0
aF0.0
aF0.0
aF0.0
aF0.0
asS'Bacteria.Desulfobacterota.Desulfovibrionia.Desulfovibrionales.Desulfovibrionaceae'
p181
(lp182
F0.0
aF0.0
aF0.0
aF1869.352996157441
aF4615.842763549734
aF0.0
aF0.0
aF0.0
aF0.0
aF0.0
aF0.0
aF11975.723420396656
aF14324.538557354774
aF0.0
aF0.0
aF0.0
aF0.0
aF0.0
aF0.0
aF0.0
aF0.0
aF0.0
aF0.0
aF0.0
aF0.0
aF0.0
aF0.0
aF0.0
aF1833.2373361079638
aF0.0
aF0.0
aF0.0
aF0.0
aF0.0
aF0.0
aF0.0
aF3724.137931034483
aF3408.700003127249
asS'Bacteria.Proteobacteria.Gammaproteobacteria.Pseudomonadales'
p183
(lp184
F388.7865766318805
aF773.2427679058762
aF3241.2001942608586
aF0.0
aF28067.301965455634
aF971.2666936462971
aF5403.311312291004
aF0.0
aF355.29613298226667
aF1923.9676488402752
aF457.63875352763193
aF1625.663812723528
aF0.0
aF2766.9924577141073
aF15066.573230553613
aF100.21082816540955
aF186.0179834142344
aF21.51963020667452
aF0.0
aF0.0
aF0.0
aF290.7053569068949
aF164.53502402211353
aF148.93141708243363
aF0.0
aF0.0
aF80.34268268446047
aF7977.050252900171
aF173.41434260480736
aF302.34315948601665
aF2023.8818053025698
aF28.1612399957195
aF0.0
aF0.0
aF8083.870152835671
aF0.0
aF0.0
aF573.32874670336
asS'Bacteria.Firmicutes.Clostridia.Oscillospirales.Butyricicoccaceae.UCG_008'
p185
(lp186
F0.0
aF0.0
aF0.0
aF0.0
aF0.0
aF0.0
aF0.0
aF0.0
aF0.0
aF0.0
aF0.0
aF0.0
aF0.0
aF0.0
aF3503.854239663631
aF0.0
aF0.0
aF0.0
aF0.0
aF0.0
aF0.0
aF0.0
aF0.0
aF0.0
aF0.0
aF0.0
aF0.0
aF0.0
aF0.0
aF0.0
aF0.0
aF0.0
aF0.0
aF1937.0668503293016
aF0.0
aF0.0
aF0.0
aF0.0
asS'Bacteria.Firmicutes.Clostridia.Oscillospirales.Butyricicoccaceae.UCG_009'
p187
(lp188
F511.56128504194805
aF174.35866335132505
aF707.3629088452036
aF0.0
aF0.0
aF0.0
aF0.0
aF0.0
aF0.0
aF1104.4999465564542
aF262.7185436917887
aF1101.8388064015023
aF0.0
aF0.0
aF0.0
aF208.13018157431216
aF0.0
aF0.0
aF0.0
aF0.0
aF0.0
aF237.84983746927767
aF159.0505232213764
aF88.0049282759835
aF1201.7090973829438
aF1022.9694529955005
aF0.0
aF0.0
aF520.2430278144221
aF1385.739480977576
aF578.2519443721628
aF529.4313119195267
aF0.0
aF1528.1305152597824
aF0.0
aF0.0
aF0.0
aF135.51406740261234
asS'Bacteria.Actinobacteriota.Actinobacteria.Corynebacteriales.Corynebacteriaceae.Corynebacterium'
p189
(lp190
F0.0
aF0.0
aF0.0
aF5919.6178211652295
aF0.0
aF0.0
aF0.0
aF0.0
aF0.0
aF0.0
aF0.0
aF0.0
aF0.0
aF0.0
aF0.0
aF0.0
aF0.0
aF0.0
aF0.0
aF0.0
aF0.0
aF0.0
aF0.0
aF372.328542706084
aF0.0
aF0.0
aF0.0
aF0.0
aF0.0
aF0.0
aF0.0
aF0.0
aF0.0
aF0.0
aF0.0
aF0.0
aF0.0
aF0.0
asS'Bacteria.Deferribacterota.Deferribacteres'
p191
(lp192
F0.0
aF0.0
aF0.0
aF0.0
aF0.0
aF0.0
aF0.0
aF0.0
aF0.0
aF409.73385114191046
aF0.0
aF0.0
aF0.0
aF0.0
aF0.0
aF250.5270704135239
aF233.7793575341054
aF0.0
aF135.3060816862145
aF0.0
aF0.0
aF0.0
aF87.75201281179388
aF0.0
aF676.5177140822499
aF0.0
aF0.0
aF0.0
aF0.0
aF125.97631645250694
aF0.0
aF67.58697598972681
aF0.0
aF0.0
aF0.0
aF0.0
aF0.0
aF0.0
asS'Bacteria.Actinobacteriota.Actinobacteria.Micrococcales.Dermabacteraceae'
p193
(lp194
F0.0
aF0.0
aF0.0
aF0.0
aF0.0
aF0.0
aF0.0
aF0.0
aF0.0
aF0.0
aF0.0
aF216.75517502980372
aF0.0
aF0.0
aF0.0
aF0.0
aF0.0
aF0.0
aF0.0
aF0.0
aF0.0
aF0.0
aF0.0
aF0.0
aF0.0
aF0.0
aF0.0
aF0.0
aF0.0
aF0.0
aF0.0
aF0.0
aF0.0
aF0.0
aF0.0
aF0.0
aF0.0
aF0.0
asS'Bacteria.Verrucomicrobiota.Verrucomicrobiae.Verrucomicrobiales'
p195
(lp196
F91313.68937998773
aF3494.7540784765583
aF11001.076880846302
aF0.0
aF893.3889219773677
aF21205.989477944153
aF24365.875540331133
aF9974.424552429664
aF87123.68746629442
aF5326.540064844836
aF6152.698797427051
aF1065.712943896535
aF905.8996716113691
aF55295.22024367385
aF142606.86755430978
aF29993.871722431428
aF3453.9014758264602
aF152143.78556118882
aF3112.039878782934
aF135878.1746640094
aF0.0
aF0.0
aF268.74053923611876
aF40.617659204300075
aF587.502225387217
aF11764.148709448256
aF37515.80425139648
aF0.0
aF6701.225667800056
aF82615.26832955405
aF24575.70763581692
aF7913.308438797179
aF463.11139610273966
aF16701.820842839308
aF0.0
aF0.0
aF0.0
aF0.0
asS'Bacteria.Firmicutes.Negativicutes.Veillonellales_Selenomonadales.Selenomonadaceae.Quinella'
p197
(lp198
F0.0
aF0.0
aF0.0
aF0.0
aF0.0
aF0.0
aF0.0
aF0.0
aF0.0
aF0.0
aF0.0
aF0.0
aF0.0
aF0.0
aF0.0
aF0.0
aF0.0
aF0.0
aF0.0
aF0.0
aF0.0
aF0.0
aF0.0
aF0.0
aF0.0
aF0.0
aF0.0
aF0.0
aF0.0
aF0.0
aF0.0
aF0.0
aF0.0
aF0.0
aF0.0
aF0.0
aF7097.1786833855795
aF1045.8906227740083
asS'Bacteria.Actinobacteriota.Actinobacteria.Micrococcales.Dermabacteraceae.Brachybacterium'
p199
(lp200
F0.0
aF0.0
aF0.0
aF0.0
aF0.0
aF0.0
aF0.0
aF0.0
aF0.0
aF0.0
aF0.0
aF216.75517502980372
aF0.0
aF0.0
aF0.0
aF0.0
aF0.0
aF0.0
aF0.0
aF0.0
aF0.0
aF0.0
aF0.0
aF0.0
aF0.0
aF0.0
aF0.0
aF0.0
aF0.0
aF0.0
aF0.0
aF0.0
aF0.0
aF0.0
aF0.0
aF0.0
aF0.0
aF0.0
asS'Bacteria.Firmicutes.Clostridia.Lachnospirales.Lachnospiraceae.Blautia'
p201
(lp202
F255.78064252097403
aF68.2273030505185
aF633.4593213539137
aF3323.294215391006
aF55241.215008933905
aF17482.800485633346
aF0.0
aF0.0
aF0.0
aF1068.870916022375
aF1398.3406357788756
aF43658.10483725297
aF1075.755860038501
aF72968.2688445575
aF51156.27189908901
aF0.0
aF661.1179680803195
aF43.03926041334904
aF408.06596064096436
aF63.87653942460013
aF340.74074074074065
aF1140.7982945285726
aF6312.660421648422
aF961.2846011684351
aF0.0
aF0.0
aF405.9419756688529
aF3824.9578499710606
aF780.3645417216331
aF466.11237087427565
aF693.9023332465954
aF923.6886718595996
aF0.0
aF0.0
aF0.0
aF0.0
aF22654.12748171369
aF79.9185525707714
asS'Bacteria.Firmicutes.Clostridia.uncultured'
p203
(lp204
F0.0
aF0.0
aF0.0
aF0.0
aF0.0
aF0.0
aF0.0
aF0.0
aF0.0
aF0.0
aF186.44541810385007
aF596.0767313319603
aF0.0
aF714.0625697326728
aF0.0
aF0.0
aF128.20158316386426
aF0.0
aF0.0
aF0.0
aF0.0
aF0.0
aF1294.3421889739598
aF0.0
aF0.0
aF0.0
aF0.0
aF0.0
aF0.0
aF390.5265810027715
aF0.0
aF0.0
aF0.0
aF0.0
aF0.0
aF0.0
aF0.0
aF114.665749340672
asS'Bacteria.Deferribacterota.Deferribacteres.Deferribacterales.Deferribacteraceae'
p205
(lp206
F0.0
aF0.0
aF0.0
aF0.0
aF0.0
aF0.0
aF0.0
aF0.0
aF0.0
aF409.73385114191046
aF0.0
aF0.0
aF0.0
aF0.0
aF0.0
aF250.5270704135239
aF233.7793575341054
aF0.0
aF135.3060816862145
aF0.0
aF0.0
aF0.0
aF87.75201281179388
aF0.0
aF676.5177140822499
aF0.0
aF0.0
aF0.0
aF0.0
aF125.97631645250694
aF0.0
aF67.58697598972681
aF0.0
aF0.0
aF0.0
aF0.0
aF0.0
aF0.0
asS'Bacteria.Proteobacteria.Alphaproteobacteria.Rhizobiales.Beijerinckiaceae.Methylobacterium_Methylorubrum'
p207
(lp208
F61.387354205033766
aF310.813269452362
aF0.0
aF0.0
aF0.0
aF0.0
aF0.0
aF0.0
aF0.0
aF0.0
aF0.0
aF0.0
aF0.0
aF0.0
aF0.0
aF0.0
aF0.0
aF0.0
aF0.0
aF0.0
aF0.0
aF0.0
aF0.0
aF0.0
aF0.0
aF0.0
aF0.0
aF0.0
aF0.0
aF0.0
aF0.0
aF0.0
aF0.0
aF0.0
aF0.0
aF0.0
aF0.0
aF0.0
asS'Bacteria.Firmicutes.Clostridia.Oscillospirales.Oscillospiraceae.UCG_003'
p209
(lp210
F0.0
aF0.0
aF0.0
aF0.0
aF0.0
aF0.0
aF0.0
aF0.0
aF158.6143450813691
aF0.0
aF0.0
aF0.0
aF0.0
aF0.0
aF0.0
aF2960.0736935013283
aF0.0
aF0.0
aF0.0
aF0.0
aF814.8148148148146
aF0.0
aF0.0
aF0.0
aF810.0409471247992
aF0.0
aF0.0
aF0.0
aF0.0
aF0.0
aF0.0
aF0.0
aF0.0
aF0.0
aF0.0
aF0.0
aF0.0
aF0.0
asS'Bacteria.Firmicutes.Clostridia.Oscillospirales.Oscillospiraceae.UCG_005'
p211
(lp212
F736.6482504604052
aF993.0862999575471
aF2386.030110433075
aF4154.117769238758
aF7072.662298987494
aF171185.75475515987
aF0.0
aF0.0
aF1484.6302699616147
aF15605.515373926675
aF2059.3743908743436
aF6195.58541960189
aF2661.080285358397
aF4418.262150220913
aF0.0
aF381.57199955290565
aF1852.6385645444695
aF0.0
aF652.905537025543
aF0.0
aF385.1851851851851
aF409.6302756415338
aF603.295088081083
aF128.62258748028356
aF1700.195834075128
aF2216.4338148235847
aF997.94069018593
aF2239.6134779435815
aF45713.25938450297
aF5442.176870748299
aF1676.930638679272
aF1250.3590558099459
aF0.0
aF14614.093237484398
aF694.7075912593154
aF0.0
aF0.0
aF521.2079515485091
asS'Bacteria.Firmicutes.Clostridia.Oscillospirales.Oscillospiraceae.UCG_007'
p213
(lp214
F0.0
aF0.0
aF0.0
aF0.0
aF0.0
aF0.0
aF0.0
aF0.0
aF0.0
aF0.0
aF0.0
aF0.0
aF0.0
aF0.0
aF0.0
aF0.0
aF0.0
aF0.0
aF64.43146746962596
aF0.0
aF0.0
aF0.0
aF0.0
aF0.0
aF0.0
aF0.0
aF0.0
aF0.0
aF0.0
aF0.0
aF0.0
aF129.5417039803097
aF0.0
aF0.0
aF0.0
aF0.0
aF0.0
aF257.1292560972645
asS'Bacteria.Firmicutes.Clostridia.Peptostreptococcales_Tissierellales.Anaerovoracaceae'
p215
(lp216
F0.0
aF197.10109770149788
aF0.0
aF0.0
aF0.0
aF0.0
aF0.0
aF0.0
aF0.0
aF801.6531870167812
aF347.4664610117206
aF487.6991438170584
aF0.0
aF0.0
aF0.0
aF0.0
aF0.0
aF0.0
aF0.0
aF0.0
aF0.0
aF0.0
aF0.0
aF0.0
aF0.0
aF0.0
aF0.0
aF0.0
aF49.54695502994496
aF0.0
aF0.0
aF118.2772079820219
aF0.0
aF1033.1023201756277
aF1894.6570670708602
aF0.0
aF0.0
aF0.0
asS'Bacteria.Actinobacteriota.Actinobacteria.Streptomycetales'
p217
(lp218
F0.0
aF0.0
aF0.0
aF0.0
aF0.0
aF0.0
aF0.0
aF0.0
aF0.0
aF0.0
aF0.0
aF0.0
aF0.0
aF0.0
aF3503.854239663631
aF0.0
aF0.0
aF0.0
aF0.0
aF0.0
aF0.0
aF0.0
aF0.0
aF0.0
aF0.0
aF0.0
aF0.0
aF0.0
aF0.0
aF0.0
aF0.0
aF0.0
aF0.0
aF0.0
aF0.0
aF0.0
aF0.0
aF0.0
asS'Bacteria.Proteobacteria.Gammaproteobacteria.Pseudomonadales.Moraxellaceae.Psychrobacter'
p219
(lp220
F0.0
aF0.0
aF0.0
aF0.0
aF0.0
aF0.0
aF0.0
aF0.0
aF82.47945944231192
aF0.0
aF0.0
aF0.0
aF0.0
aF0.0
aF0.0
aF0.0
aF0.0
aF0.0
aF0.0
aF0.0
aF0.0
aF0.0
aF0.0
aF0.0
aF0.0
aF0.0
aF0.0
aF0.0
aF0.0
aF0.0
aF0.0
aF0.0
aF0.0
aF0.0
aF0.0
aF0.0
aF0.0
aF0.0
asS'Bacteria.Firmicutes.Bacilli.RF39'
p221
(lp222
F3314.9171270718234
aF1561.6471587118679
aF1784.243755146857
aF4257.970713469726
aF26950.565812983925
aF12221.772561715907
aF2079.7651088818207
aF2813.2992327365723
aF2334.803159597753
aF5682.8303701856275
aF7008.652762358363
aF3413.894006719409
aF13871.58872154909
aF1115.7227652073013
aF0.0
aF0.0
aF0.0
aF0.0
aF32.21573373481298
aF0.0
aF0.0
aF726.7633922672374
aF0.0
aF0.0
aF1032.5796688623814
aF1373.4312100402556
aF1277.0257984582665
aF19275.77442814363
aF1690.7898403968718
aF8012.09372637944
aF19891.8668864024
aF4928.2169992509125
aF854.9748851127501
aF24277.904524127247
aF11873.18428697739
aF0.0
aF41.797283176593524
aF6115.506631502507
asS'Bacteria.Firmicutes.Clostridia.Lachnospirales.Lachnospiraceae.Tyzzerella'
p223
(lp224
F0.0
aF0.0
aF0.0
aF0.0
aF0.0
aF0.0
aF0.0
aF0.0
aF120.54690226184051
aF0.0
aF0.0
aF0.0
aF0.0
aF0.0
aF0.0
aF2062.030502634389
aF0.0
aF0.0
aF0.0
aF0.0
aF0.0
aF0.0
aF0.0
aF0.0
aF0.0
aF0.0
aF0.0
aF0.0
aF0.0
aF0.0
aF0.0
aF0.0
aF0.0
aF150.66075502561236
aF0.0
aF0.0
aF0.0
aF0.0
asS'Bacteria.Proteobacteria.Alphaproteobacteria.Rhodospirillales.uncultured.uncultured'
p225
(lp226
F0.0
aF0.0
aF0.0
aF0.0
aF0.0
aF0.0
aF0.0
aF0.0
aF0.0
aF0.0
aF0.0
aF0.0
aF0.0
aF0.0
aF0.0
aF0.0
aF693.7968030044418
aF0.0
aF11913.378335133839
aF0.0
aF0.0
aF0.0
aF0.0
aF0.0
aF133.5232330425493
aF0.0
aF334.05641747749354
aF0.0
aF0.0
aF0.0
aF0.0
aF174.59968797346093
aF0.0
aF0.0
aF0.0
aF0.0
aF1776.3845350052245
aF0.0
asS'Bacteria.Bacteroidota.Bacteroidia.Chitinophagales.Chitinophagaceae'
p227
(lp228
F0.0
aF0.0
aF0.0
aF0.0
aF0.0
aF0.0
aF0.0
aF0.0
aF0.0
aF0.0
aF0.0
aF0.0
aF849.2809421356585
aF0.0
aF0.0
aF0.0
aF0.0
aF0.0
aF0.0
aF0.0
aF0.0
aF0.0
aF0.0
aF0.0
aF0.0
aF0.0
aF0.0
aF0.0
aF0.0
aF0.0
aF0.0
aF0.0
aF0.0
aF0.0
aF0.0
aF0.0
aF0.0
aF0.0
asS'Bacteria.Firmicutes.Clostridia.Peptostreptococcales_Tissierellales.Peptostreptococcaceae.Romboutsia'
p229
(lp230
F14896.664620421527
aF151024.92570804773
aF211881.58533752823
aF168137.91670993873
aF16974.389517569987
aF17725.617159044923
aF56031.31881575728
aF8184.143222506391
aF9802.36652602861
aF200288.59514732606
aF235836.50431790634
aF25161.663234709715
aF7020.72245498811
aF5087.695809345294
aF5255.781359495446
aF2485.9993910265066
aF89029.71511597215
aF1273.9621082351314
aF12933.54323673625
aF1111.4517859880423
aF1748.1481481481478
aF3153.71265977783
aF53172.23526314636
aF4427.3248532687085
aF284.8495638241052
aF20421.50130239166
aF1361.5970433892774
aF9814.036588741536
aF1833.2373361079638
aF856.6389518770471
aF22291.612455546874
aF10357.704070425632
aF1905.8815147305058
aF0.0
aF50903.11986863711
aF0.0
aF5057.471264367816
aF7543.6164187454215
asS'Bacteria.Firmicutes.Bacilli.Lactobacillales.Aerococcaceae'
p231
(lp232
F0.0
aF0.0
aF0.0
aF1246.2353307716273
aF818.9398451459205
aF0.0
aF0.0
aF0.0
aF0.0
aF0.0
aF0.0
aF270.9439687872547
aF0.0
aF0.0
aF0.0
aF0.0
aF0.0
aF301.2748228934433
aF25.77258698785038
aF246.9892857751205
aF0.0
aF83.68790577622734
aF0.0
aF148.93141708243363
aF0.0
aF0.0
aF0.0
aF0.0
aF0.0
aF0.0
aF0.0
aF0.0
aF0.0
aF0.0
aF0.0
aF0.0
aF0.0
aF0.0
asS'Bacteria.Firmicutes.Clostridia.Lachnospirales.Lachnospiraceae.Roseburia'
p233
(lp234
F1012.8913443830571
aF409.363818303111
aF285.05669460926117
aF0.0
aF0.0
aF0.0
aF0.0
aF0.0
aF18050.3124702598
aF766.0241564827021
aF1593.2608456147186
aF2023.0483002781682
aF0.0
aF357.0312848663364
aF0.0
aF5045.229771866197
aF3338.26867532572
aF7191.860415070624
aF180.4081089149527
aF4931.26884357913
aF0.0
aF6628.963062801165
aF1272.4041857710113
aF0.0
aF0.0
aF4527.587023443049
aF959.883629966975
aF528.4481240091596
aF2403.027318952331
aF188.9644746787604
aF0.0
aF4657.869095292005
aF0.0
aF3314.5366105634716
aF0.0
aF0.0
aF0.0
aF4527.559739118049
asS'Bacteria.Firmicutes.Clostridia.Peptococcales.Peptococcaceae.Peptococcus'
p235
(lp236
F0.0
aF0.0
aF0.0
aF0.0
aF0.0
aF0.0
aF81.5594160345812
aF0.0
aF0.0
aF0.0
aF203.39500156783643
aF0.0
aF0.0
aF0.0
aF0.0
aF0.0
aF0.0
aF0.0
aF0.0
aF0.0
aF0.0
aF0.0
aF0.0
aF0.0
aF329.35730817162164
aF0.0
aF0.0
aF0.0
aF111.48064881737616
aF0.0
aF0.0
aF123.9094559811658
aF0.0
aF0.0
aF0.0
aF0.0
aF0.0
aF27.797757415920483
asS'Bacteria.Firmicutes.Bacilli.Erysipelotrichales.Erysipelotrichaceae.uncultured'
p237
(lp238
F7397.176181706568
aF2327.3091151676863
aF2755.5480478895247
aF2596.3236057742233
aF26206.075044669455
aF0.0
aF530.1362042247778
aF0.0
aF685.2139707515145
aF801.6531870167812
aF330.5168775477342
aF2655.250894115096
aF14324.538557354774
aF0.0
aF0.0
aF50.105414082704776
aF0.0
aF0.0
aF191.146686826557
aF0.0
aF1288.8888888888887
aF110.11566549503597
aF499.0895728670777
aF839.4316235555349
aF124.62168417304603
aF1136.6327255505562
aF765.3697666256496
aF8027.378645662949
aF1331.574416429771
aF617.283950617284
aF346.9511666232977
aF1807.951607725192
aF765.9150012468388
aF172.18372002927123
aF4041.935076417835
aF0.0
aF0.0
aF3679.728137932474
asS'Bacteria.Acidobacteriota.Blastocatellia.Blastocatellales.Blastocatellaceae'
p239
(lp240
F0.0
aF0.0
aF0.0
aF0.0
aF0.0
aF0.0
aF0.0
aF0.0
aF0.0
aF0.0
aF0.0
aF0.0
aF0.0
aF0.0
aF0.0
aF0.0
aF0.0
aF0.0
aF0.0
aF0.0
aF0.0
aF0.0
aF0.0
aF0.0
aF0.0
aF0.0
aF0.0
aF377.4629457208283
aF0.0
aF0.0
aF0.0
aF0.0
aF0.0
aF0.0
aF0.0
aF0.0
aF0.0
aF0.0
asS'Bacteria.Proteobacteria'
p241
(lp242
F6691.221608348681
aF11818.485050639816
aF14062.796934056887
aF22847.647730813173
aF130136.98630136989
aF36017.806556050185
aF25405.75809477204
aF31457.80051150894
aF3717.9202487072916
aF11989.168774717638
aF9746.010491792164
aF13005.310501788224
aF31536.632317970787
aF29365.82318025617
aF63770.14716187808
aF3411.0224202456716
aF39863.15109436391
aF12102.640028233749
aF18751.704749243472
aF13895.276542831347
aF2637.037037037036
aF4668.904216989524
aF4195.643112563895
aF3026.0156107203557
aF2670.4646608509865
aF5228.510537532558
aF5150.388816298571
aF41822.89438586778
aF7413.463146355516
aF9536.407155454774
aF16884.956775667153
aF5485.809551166159
aF2458.052794699157
aF4218.501140717145
aF58355.4376657825
aF11239.278320023663
aF9935.21421107628
aF5893.124572175144
asS'Bacteria.Bacteroidota.Bacteroidia'
p243
(lp244
F391518.3138940045
aF34758.020498514146
aF45756.87831246437
aF1973.20594038841
aF212477.6652769506
aF32942.12869283691
aF22061.822037354214
aF562659.8465473144
aF256790.2801129333
aF16567.49919834681
aF12881.68343262964
aF88869.62176221955
aF506341.29770127963
aF115633.5073860847
aF87946.74141555713
aF656280.7136552673
aF773528.1327062349
aF784231.2757697569
aF870784.8397052478
aF806948.0641150117
aF790074.0740740739
aF857734.9648070332
aF599077.5069653161
aF885112.9509406376
aF494160.5839416054
aF367672.27089746617
aF716529.8726779909
aF52089.886509474316
aF506722.9024606259
aF602003.0234315948
aF367218.89727354195
aF555936.6710034977
aF693901.1791528628
aF184494.85601136414
aF9473.285335354301
aF193138.12481514347
aF768894.4618599791
aF518907.6871223417
asS'Bacteria.Proteobacteria.Gammaproteobacteria.Xanthomonadales.Xanthomonadaceae.Stenotrophomonas'
p245
(lp246
F0.0
aF0.0
aF0.0
aF0.0
aF0.0
aF0.0
aF0.0
aF0.0
aF0.0
aF89.07257633519791
aF0.0
aF0.0
aF0.0
aF0.0
aF0.0
aF0.0
aF0.0
aF0.0
aF0.0
aF0.0
aF0.0
aF0.0
aF0.0
aF0.0
aF0.0
aF0.0
aF0.0
aF0.0
aF0.0
aF0.0
aF202.388180530257
aF0.0
aF0.0
aF0.0
aF0.0
aF0.0
aF0.0
aF0.0
asS'Bacteria.Proteobacteria.Alphaproteobacteria.Rhizobiales.Rhizobiaceae'
p247
(lp248
F0.0
aF0.0
aF221.7107624738698
aF934.6764980787206
aF6104.82430017868
aF647.5111290975315
aF1284.5608025446536
aF0.0
aF0.0
aF0.0
aF135.59666771189094
aF216.75517502980372
aF0.0
aF223.14455304146026
aF0.0
aF0.0
aF32.678834924122256
aF0.0
aF0.0
aF38.32592365476008
aF0.0
aF74.87865253662446
aF0.0
aF0.0
aF0.0
aF0.0
aF0.0
aF0.0
aF247.73477514972478
aF0.0
aF0.0
aF0.0
aF0.0
aF0.0
aF1010.4837691044587
aF0.0
aF0.0
aF211.95790029639366
asS'Bacteria.Proteobacteria.Alphaproteobacteria.Rhodobacterales'
p249
(lp250
F0.0
aF0.0
aF0.0
aF0.0
aF0.0
aF0.0
aF0.0
aF0.0
aF0.0
aF0.0
aF0.0
aF0.0
aF1245.6120484656326
aF0.0
aF0.0
aF0.0
aF0.0
aF0.0
aF0.0
aF0.0
aF0.0
aF0.0
aF0.0
aF0.0
aF0.0
aF0.0
aF0.0
aF0.0
aF0.0
aF0.0
aF0.0
aF0.0
aF0.0
aF0.0
aF0.0
aF0.0
aF0.0
aF0.0
asS'Bacteria.Deferribacterota'
p251
(lp252
F0.0
aF0.0
aF0.0
aF0.0
aF0.0
aF0.0
aF0.0
aF0.0
aF0.0
aF409.73385114191046
aF0.0
aF0.0
aF0.0
aF0.0
aF0.0
aF250.5270704135239
aF233.7793575341054
aF0.0
aF135.3060816862145
aF0.0
aF0.0
aF0.0
aF87.75201281179388
aF0.0
aF676.5177140822499
aF0.0
aF0.0
aF0.0
aF0.0
aF125.97631645250694
aF0.0
aF67.58697598972681
aF0.0
aF0.0
aF0.0
aF0.0
aF0.0
aF0.0
asS'Bacteria.Actinobacteriota.Coriobacteriia.Coriobacteriales'
p253
(lp254
F8195.211786372007
aF3343.1378494754063
aF6704.111150995586
aF14020.147471180806
aF15038.713519952356
aF18939.700526102795
aF18513.98743984993
aF3324.8081841432218
aF10715.985153697293
aF13360.88645027969
aF10559.59049806351
aF21711.643365485343
aF7643.528479220927
aF22537.599857187484
aF23475.823405746327
aF131.04492913938174
aF289.0820012518507
aF86.07852082669808
aF369.4070801591888
aF55.35966750132012
aF992.5925925925924
aF105.71103887523452
aF3049.3824452098374
aF1983.4956911433203
aF578.6006765177137
aF2102.770542268529
aF202.97098783442644
aF39205.817962203364
aF780.3645417216331
aF1058.2010582010582
aF4250.151791135397
aF788.514719880146
aF213.74372127818754
aF5445.310145925704
aF23430.592396109638
aF0.0
aF463.9498432601881
aF2025.7615716852054
asS'Bacteria.Proteobacteria.Alphaproteobacteria.Rhizobiales.Rhizobiaceae.Allorhizobium_Neorhizobium_Pararhizobium_Rhizobium'
p255
(lp256
F0.0
aF0.0
aF221.7107624738698
aF934.6764980787206
aF6104.82430017868
aF647.5111290975315
aF1284.5608025446536
aF0.0
aF0.0
aF0.0
aF135.59666771189094
aF0.0
aF0.0
aF223.14455304146026
aF0.0
aF0.0
aF32.678834924122256
aF0.0
aF0.0
aF38.32592365476008
aF0.0
aF74.87865253662446
aF0.0
aF0.0
aF0.0
aF0.0
aF0.0
aF0.0
aF247.73477514972478
aF0.0
aF0.0
aF0.0
aF0.0
aF0.0
aF1010.4837691044587
aF0.0
aF0.0
aF152.88766578756264
asS'Bacteria.Bacteroidota.Bacteroidia.Chitinophagales.Chitinophagaceae.Sediminibacterium'
p257
(lp258
F0.0
aF0.0
aF0.0
aF0.0
aF0.0
aF0.0
aF0.0
aF0.0
aF0.0
aF0.0
aF0.0
aF0.0
aF849.2809421356585
aF0.0
aF0.0
aF0.0
aF0.0
aF0.0
aF0.0
aF0.0
aF0.0
aF0.0
aF0.0
aF0.0
aF0.0
aF0.0
aF0.0
aF0.0
aF0.0
aF0.0
aF0.0
aF0.0
aF0.0
aF0.0
aF0.0
aF0.0
aF0.0
aF0.0
asS'Bacteria.Firmicutes.Clostridia.Clostridia_UCG_014.Clostridia_UCG_014'
p259
(lp260
F237773.68528749744
aF57091.09103038387
aF98925.23068476951
aF69996.88441167306
aF280151.8761167362
aF268069.607446378
aF36416.2792594405
aF61636.82864450126
aF92465.81860863493
aF223002.10211280148
aF53865.77624854868
aF334380.9833459772
aF131185.59619522138
aF97023.25166242692
aF74632.09530483534
aF5673.47457921088
aF35.192591456747046
aF0.0
aF9598.140937391947
aF0.0
aF488.88888888888874
aF0.0
aF394.8840576530725
aF1570.5494892329361
aF11527.505786006757
aF71001.65758939141
aF22796.17907115402
aF275044.6664485769
aF35741.93468472655
aF116036.78508440412
aF176627.05640847713
aF70611.49316526708
aF52010.9721776923
aF71284.0600921183
aF166287.7352532525
aF80449.57113280096
aF8.359456635318704
aF175469.86896832107
asS'Bacteria.Firmicutes.Clostridia.Oscillospirales.Oscillospiraceae.Flavonifractor'
p261
(lp262
F0.0
aF0.0
aF0.0
aF0.0
aF0.0
aF0.0
aF0.0
aF0.0
aF0.0
aF0.0
aF0.0
aF0.0
aF0.0
aF0.0
aF0.0
aF0.0
aF236.29311406673017
aF0.0
aF0.0
aF0.0
aF0.0
aF0.0
aF0.0
aF0.0
aF0.0
aF0.0
aF0.0
aF0.0
aF0.0
aF0.0
aF0.0
aF0.0
aF0.0
aF0.0
aF0.0
aF0.0
aF769.0700104493209
aF0.0
asS'Bacteria.Proteobacteria.Gammaproteobacteria.Pasteurellales.Pasteurellaceae.Haemophilus'
p263
(lp264
F0.0
aF0.0
aF0.0
aF0.0
aF0.0
aF0.0
aF0.0
aF0.0
aF0.0
aF0.0
aF0.0
aF0.0
aF0.0
aF0.0
aF0.0
aF104.06509078715608
aF0.0
aF0.0
aF0.0
aF0.0
aF0.0
aF0.0
aF0.0
aF0.0
aF0.0
aF0.0
aF0.0
aF0.0
aF0.0
aF0.0
aF0.0
aF0.0
aF0.0
aF0.0
aF0.0
aF0.0
aF0.0
aF0.0
asS'Bacteria.Deferribacterota.Deferribacteres.Deferribacterales.Deferribacteraceae.Mucispirillum'
p265
(lp266
F0.0
aF0.0
aF0.0
aF0.0
aF0.0
aF0.0
aF0.0
aF0.0
aF0.0
aF409.73385114191046
aF0.0
aF0.0
aF0.0
aF0.0
aF0.0
aF250.5270704135239
aF233.7793575341054
aF0.0
aF135.3060816862145
aF0.0
aF0.0
aF0.0
aF87.75201281179388
aF0.0
aF676.5177140822499
aF0.0
aF0.0
aF0.0
aF0.0
aF125.97631645250694
aF0.0
aF67.58697598972681
aF0.0
aF0.0
aF0.0
aF0.0
aF0.0
aF0.0
asS'Bacteria.Firmicutes.Bacilli.RF39.RF39'
p267
(lp268
F3314.9171270718234
aF1561.6471587118679
aF1784.243755146857
aF4257.970713469726
aF26950.565812983925
aF12221.772561715907
aF2079.7651088818207
aF2813.2992327365723
aF2334.803159597753
aF5682.8303701856275
aF7008.652762358363
aF3413.894006719409
aF13871.58872154909
aF1115.7227652073013
aF0.0
aF0.0
aF0.0
aF0.0
aF32.21573373481298
aF0.0
aF0.0
aF726.7633922672374
aF0.0
aF0.0
aF1032.5796688623814
aF1373.4312100402556
aF1277.0257984582665
aF19275.77442814363
aF1690.7898403968718
aF8012.09372637944
aF19891.8668864024
aF4928.2169992509125
aF854.9748851127501
aF24277.904524127247
aF11873.18428697739
aF0.0
aF41.797283176593524
aF6115.506631502507
asS'Bacteria.Proteobacteria.Gammaproteobacteria.Burkholderiales.Alcaligenaceae.Achromobacter'
p269
(lp270
F102.31225700838961
aF75.8081145005761
aF179.48014105027556
aF0.0
aF3499.1066110780234
aF0.0
aF713.6448903025854
aF0.0
aF158.6143450813691
aF0.0
aF177.97062637185687
aF0.0
aF0.0
aF892.578212165841
aF0.0
aF0.0
aF0.0
aF0.0
aF0.0
aF0.0
aF0.0
aF79.28327915642589
aF0.0
aF0.0
aF0.0
aF47.35969689793984
aF0.0
aF956.2394624927651
aF0.0
aF0.0
aF0.0
aF0.0
aF0.0
aF0.0
aF0.0
aF0.0
aF0.0
aF284.92701351318493
asS'Bacteria.Actinobacteriota.Actinobacteria.Pseudonocardiales.Pseudonocardiaceae.Prauserella'
p271
(lp272
F0.0
aF0.0
aF0.0
aF0.0
aF0.0
aF0.0
aF0.0
aF0.0
aF0.0
aF0.0
aF101.69750078391822
aF0.0
aF0.0
aF0.0
aF0.0
aF0.0
aF0.0
aF0.0
aF0.0
aF0.0
aF0.0
aF0.0
aF0.0
aF0.0
aF0.0
aF0.0
aF0.0
aF0.0
aF0.0
aF0.0
aF0.0
aF0.0
aF0.0
aF0.0
aF0.0
aF0.0
aF0.0
aF0.0
asS'Bacteria.Elusimicrobiota.Elusimicrobia.Elusimicrobiales'
p273
(lp274
F0.0
aF0.0
aF0.0
aF0.0
aF0.0
aF0.0
aF0.0
aF0.0
aF0.0
aF0.0
aF0.0
aF0.0
aF0.0
aF0.0
aF0.0
aF0.0
aF0.0
aF0.0
aF0.0
aF0.0
aF0.0
aF0.0
aF0.0
aF0.0
aF0.0
aF0.0
aF0.0
aF0.0
aF0.0
aF0.0
aF0.0
aF0.0
aF0.0
aF0.0
aF0.0
aF0.0
aF91.95402298850574
aF191.10958223445334
asS'Bacteria.Proteobacteria.Gammaproteobacteria.Xanthomonadales.Xanthomonadaceae'
p275
(lp276
F0.0
aF0.0
aF0.0
aF0.0
aF0.0
aF0.0
aF0.0
aF0.0
aF0.0
aF89.07257633519791
aF0.0
aF0.0
aF0.0
aF0.0
aF0.0
aF0.0
aF0.0
aF0.0
aF0.0
aF0.0
aF0.0
aF0.0
aF0.0
aF0.0
aF0.0
aF0.0
aF0.0
aF0.0
aF0.0
aF0.0
aF202.388180530257
aF0.0
aF0.0
aF0.0
aF0.0
aF0.0
aF0.0
aF0.0
asS'Bacteria.Bacteroidota.Bacteroidia.Bacteroidales.Marinifilaceae'
p277
(lp278
F0.0
aF0.0
aF0.0
aF0.0
aF0.0
aF0.0
aF0.0
aF0.0
aF0.0
aF0.0
aF0.0
aF0.0
aF0.0
aF0.0
aF0.0
aF0.0
aF0.0
aF0.0
aF0.0
aF0.0
aF0.0
aF0.0
aF0.0
aF0.0
aF0.0
aF0.0
aF0.0
aF0.0
aF0.0
aF0.0
aF0.0
aF0.0
aF0.0
aF0.0
aF0.0
aF0.0
aF388.7147335423197
aF86.86799192475152
asS'Bacteria.Firmicutes.Clostridia.Oscillospirales.Butyricicoccaceae'
p279
(lp280
F0.0
aF0.0
aF0.0
aF0.0
aF0.0
aF0.0
aF0.0
aF0.0
aF0.0
aF0.0
aF0.0
aF0.0
aF0.0
aF0.0
aF0.0
aF0.0
aF0.0
aF0.0
aF0.0
aF0.0
aF0.0
aF0.0
aF0.0
aF0.0
aF0.0
aF142.07909069381952
aF0.0
aF0.0
aF0.0
aF0.0
aF0.0
aF0.0
aF0.0
aF0.0
aF0.0
aF0.0
aF0.0
aF0.0
asS'Bacteria.Firmicutes.Clostridia.Oscillospirales.Ruminococcaceae.Pygmaiobacter'
p281
(lp282
F0.0
aF0.0
aF0.0
aF0.0
aF0.0
aF0.0
aF0.0
aF0.0
aF0.0
aF0.0
aF0.0
aF0.0
aF0.0
aF0.0
aF0.0
aF0.0
aF0.0
aF0.0
aF0.0
aF0.0
aF0.0
aF0.0
aF0.0
aF0.0
aF0.0
aF0.0
aF0.0
aF0.0
aF0.0
aF0.0
aF0.0
aF332.3026319494901
aF374.0515122368282
aF0.0
aF0.0
aF0.0
aF0.0
aF0.0
asS'Bacteria.Firmicutes.Clostridia.Oscillospirales.Oscillospiraceae.uncultured'
p283
(lp284
F685.4921219562103
aF0.0
aF1034.6502248780591
aF0.0
aF5658.129839189995
aF0.0
aF346.62751814697003
aF20716.112531969306
aF7264.537004726704
aF480.9919122100688
aF296.61771061976145
aF2619.1250316101286
aF8606.046880308008
aF0.0
aF0.0
aF14626.92664952805
aF0.0
aF4458.867378822961
aF1471.1851738897926
aF2618.9381164086053
aF2607.4074074074065
aF1193.6538139661898
aF31201.325055393463
aF155.70102694981696
aF13922.022431903142
aF2140.658299786881
aF1522.2824087581982
aF0.0
aF14337.650111790324
aF377.9289493575208
aF0.0
aF30847.822291311142
aF19130.063054397786
aF3680.427015625673
aF0.0
aF0.0
aF296.760710553814
aF854.7810405395549
asS'Bacteria.Firmicutes.Clostridia.Oscillospirales.Ruminococcaceae.Paludicola'
p285
(lp286
F0.0
aF0.0
aF0.0
aF0.0
aF0.0
aF0.0
aF0.0
aF0.0
aF0.0
aF0.0
aF0.0
aF0.0
aF0.0
aF0.0
aF0.0
aF0.0
aF0.0
aF64.55889062002356
aF36.51116489945471
aF0.0
aF0.0
aF0.0
aF433.27556325823224
aF0.0
aF0.0
aF0.0
aF0.0
aF0.0
aF0.0
aF0.0
aF0.0
aF0.0
aF0.0
aF301.3215100512247
aF0.0
aF0.0
aF0.0
aF0.0
asS'Bacteria.Proteobacteria.Gammaproteobacteria.Xanthomonadales'
p287
(lp288
F0.0
aF0.0
aF0.0
aF0.0
aF0.0
aF0.0
aF0.0
aF0.0
aF0.0
aF89.07257633519791
aF0.0
aF0.0
aF0.0
aF0.0
aF0.0
aF0.0
aF0.0
aF0.0
aF0.0
aF0.0
aF0.0
aF0.0
aF0.0
aF0.0
aF0.0
aF0.0
aF0.0
aF0.0
aF0.0
aF0.0
aF202.388180530257
aF0.0
aF0.0
aF0.0
aF0.0
aF0.0
aF0.0
aF0.0
asS'Bacteria.Proteobacteria.Alphaproteobacteria.Rhodobacterales.Rhodobacteraceae'
p289
(lp290
F0.0
aF0.0
aF0.0
aF0.0
aF0.0
aF0.0
aF0.0
aF0.0
aF0.0
aF0.0
aF0.0
aF0.0
aF1245.6120484656326
aF0.0
aF0.0
aF0.0
aF0.0
aF0.0
aF0.0
aF0.0
aF0.0
aF0.0
aF0.0
aF0.0
aF0.0
aF0.0
aF0.0
aF0.0
aF0.0
aF0.0
aF0.0
aF0.0
aF0.0
aF0.0
aF0.0
aF0.0
aF0.0
aF0.0
asS'Bacteria.Patescibacteria'
p291
(lp292
F3795.7847350112547
aF5624.9620959427475
aF15361.388542832408
aF3738.705992314882
aF15187.61167361525
aF32456.495346013766
aF550.526058233423
aF12531.969309462913
aF2804.3016210386054
aF1175.7580076246127
aF3830.6058628609194
aF2402.3698565803247
aF28196.127278903863
aF847.949301557549
aF0.0
aF0.0
aF37.706347989371835
aF0.0
aF1041.6420574256197
aF0.0
aF0.0
aF0.0
aF948.8186385275213
aF0.0
aF507.3882855616873
aF1288.1837556239636
aF1183.9974290341543
aF6341.377488109916
aF1486.408650898349
aF1234.567901234568
aF9830.283054326768
aF332.3026319494901
aF0.0
aF2173.8194653695496
aF15788.80889225717
aF2957.7048210588587
aF0.0
aF22815.009399116738
asS'Bacteria.Firmicutes.Clostridia.Oscillospirales.UCG_010.UCG_010'
p293
(lp294
F1534.683855125844
aF45.484868700345665
aF0.0
aF0.0
aF0.0
aF0.0
aF0.0
aF0.0
aF615.423658915712
aF0.0
aF313.56729408374787
aF650.2655250894112
aF0.0
aF0.0
aF0.0
aF0.0
aF0.0
aF0.0
aF4132.204780385344
aF0.0
aF399.99999999999994
aF0.0
aF422.30656165675805
aF284.3236144301005
aF489.58518782268084
aF1373.4312100402556
aF816.1125135842562
aF0.0
aF1294.414200157312
aF642.4792139077853
aF0.0
aF4286.140727348508
aF926.2227922054793
aF0.0
aF0.0
aF0.0
aF121.2121212121212
aF2234.244752304609
asS'Bacteria.Bacteroidota.Bacteroidia.Bacteroidales.Bacteroidaceae'
p295
(lp296
F2619.193779414774
aF447.26787555339905
aF0.0
aF0.0
aF32236.450268016684
aF0.0
aF183.50868607780768
aF0.0
aF3292.833803889222
aF249.40321373855417
aF720.3572972194207
aF2077.237094035619
aF31196.919941116525
aF4150.4886865711605
aF2803.0833917309046
aF114120.86196729275
aF388553.8610043463
aF66865.79497817907
aF74888.69463994625
aF70383.42957398607
aF239851.8518518518
aF340464.4238307918
aF37535.92348024483
aF290098.0916469785
aF9524.65729036852
aF1108.2169074117924
aF33266.09919361318
aF0.0
aF4700.767358466029
aF4106.827916351725
aF202.388180530257
aF8989.067806633666
aF14659.256884329028
aF5187.034565881796
aF0.0
aF0.0
aF40781.6091954023
aF312.72477092910543
asS'Bacteria.Proteobacteria.Alphaproteobacteria.Rhizobiales.Beijerinckiaceae'
p297
(lp298
F61.387354205033766
aF310.813269452362
aF0.0
aF0.0
aF0.0
aF0.0
aF0.0
aF0.0
aF0.0
aF0.0
aF0.0
aF0.0
aF0.0
aF0.0
aF0.0
aF0.0
aF0.0
aF0.0
aF0.0
aF0.0
aF0.0
aF0.0
aF0.0
aF0.0
aF0.0
aF0.0
aF0.0
aF0.0
aF0.0
aF0.0
aF0.0
aF0.0
aF0.0
aF0.0
aF884.1732979664014
aF0.0
aF0.0
aF0.0
asS'Bacteria.Proteobacteria.Alphaproteobacteria'
p299
(lp300
F61.387354205033766
aF310.813269452362
aF316.7296606769568
aF934.6764980787206
aF7072.662298987495
aF647.5111290975315
aF1916.646276812658
aF0.0
aF0.0
aF0.0
aF135.59666771189094
aF216.75517502980372
aF1245.6120484656326
aF223.14455304146026
aF0.0
aF0.0
aF746.5856901895623
aF0.0
aF11913.378335133839
aF38.32592365476008
aF0.0
aF74.87865253662446
aF126.1435184169537
aF0.0
aF133.5232330425493
aF0.0
aF334.05641747749354
aF578.7765167719368
aF247.73477514972478
aF0.0
aF0.0
aF264.71565595976335
aF0.0
aF0.0
aF1894.65706707086
aF0.0
aF1776.3845350052245
aF277.97757415920483
asS'Bacteria.Acidobacteriota.Blastocatellia'
p301
(lp302
F0.0
aF0.0
aF0.0
aF0.0
aF0.0
aF0.0
aF0.0
aF0.0
aF0.0
aF0.0
aF0.0
aF0.0
aF0.0
aF0.0
aF0.0
aF0.0
aF0.0
aF0.0
aF0.0
aF0.0
aF0.0
aF0.0
aF0.0
aF0.0
aF0.0
aF0.0
aF0.0
aF377.4629457208283
aF0.0
aF0.0
aF0.0
aF0.0
aF0.0
aF0.0
aF0.0
aF0.0
aF0.0
aF0.0
asS'Bacteria.Firmicutes.Bacilli.Lactobacillales.Streptococcaceae.Lactococcus'
p303
(lp304
F0.0
aF0.0
aF0.0
aF0.0
aF0.0
aF0.0
aF0.0
aF0.0
aF0.0
aF0.0
aF0.0
aF0.0
aF0.0
aF0.0
aF0.0
aF0.0
aF65.35766984824451
aF0.0
aF0.0
aF0.0
aF0.0
aF0.0
aF0.0
aF0.0
aF0.0
aF0.0
aF0.0
aF0.0
aF0.0
aF0.0
aF0.0
aF0.0
aF0.0
aF0.0
aF0.0
aF0.0
aF0.0
aF0.0
asS'Bacteria.Firmicutes.Bacilli.Bacillales.Bacillaceae'
p305
(lp306
F0.0
aF0.0
aF0.0
aF0.0
aF0.0
aF0.0
aF0.0
aF0.0
aF0.0
aF0.0
aF0.0
aF0.0
aF0.0
aF0.0
aF0.0
aF0.0
aF0.0
aF0.0
aF0.0
aF0.0
aF0.0
aF0.0
aF0.0
aF0.0
aF0.0
aF0.0
aF0.0
aF931.0752661113764
aF0.0
aF0.0
aF0.0
aF0.0
aF0.0
aF0.0
aF0.0
aF0.0
aF0.0
aF79.9185525707714
asS'Bacteria.Proteobacteria.Gammaproteobacteria.Burkholderiales.Oxalobacteraceae.Herminiimonas'
p307
(lp308
F0.0
aF0.0
aF0.0
aF0.0
aF0.0
aF0.0
aF428.1869341815513
aF0.0
aF0.0
aF0.0
aF0.0
aF0.0
aF0.0
aF0.0
aF0.0
aF0.0
aF0.0
aF0.0
aF0.0
aF0.0
aF0.0
aF0.0
aF0.0
aF0.0
aF0.0
aF0.0
aF0.0
aF654.2691059161024
aF0.0
aF0.0
aF433.6889582791221
aF0.0
aF0.0
aF0.0
aF0.0
aF0.0
aF0.0
aF0.0
asS'Bacteria.Proteobacteria.Gammaproteobacteria.Pasteurellales.Pasteurellaceae.Rodentibacter'
p309
(lp310
F0.0
aF0.0
aF0.0
aF0.0
aF670.0416914830257
aF1375.9611493322543
aF0.0
aF0.0
aF285.50582114646437
aF0.0
aF0.0
aF0.0
aF0.0
aF669.4336591243808
aF0.0
aF0.0
aF47.76137411987099
aF0.0
aF51.54517397570076
aF0.0
aF0.0
aF0.0
aF0.0
aF0.0
aF356.06195478013154
aF824.0587260241533
aF0.0
aF1786.6579430785873
aF222.96129763475233
aF0.0
aF0.0
aF0.0
aF0.0
aF1205.2860402048989
aF0.0
aF0.0
aF1391.8495297805641
aF667.1461779820916
asS'Bacteria.Chloroflexi.Chloroflexia.Chloroflexales.Chloroflexaceae'
p311
(lp312
F0.0
aF0.0
aF0.0
aF0.0
aF0.0
aF0.0
aF0.0
aF0.0
aF0.0
aF0.0
aF0.0
aF0.0
aF0.0
aF0.0
aF0.0
aF0.0
aF0.0
aF0.0
aF0.0
aF0.0
aF0.0
aF0.0
aF0.0
aF0.0
aF0.0
aF0.0
aF0.0
aF0.0
aF179.6077119835505
aF0.0
aF0.0
aF0.0
aF0.0
aF0.0
aF0.0
aF0.0
aF0.0
aF0.0
asS'Bacteria.Proteobacteria.Alphaproteobacteria.Caulobacterales.Caulobacteraceae'
p313
(lp314
F0.0
aF0.0
aF0.0
aF0.0
aF967.837998808815
aF0.0
aF632.0854742680042
aF0.0
aF0.0
aF0.0
aF0.0
aF0.0
aF0.0
aF0.0
aF0.0
aF0.0
aF0.0
aF0.0
aF0.0
aF0.0
aF0.0
aF0.0
aF49.36050720663406
aF0.0
aF0.0
aF0.0
aF0.0
aF0.0
aF0.0
aF0.0
aF0.0
aF0.0
aF0.0
aF0.0
aF0.0
aF0.0
aF0.0
aF0.0
asS'Archaea'
p315
(lp316
F0.0
aF0.0
aF0.0
aF0.0
aF0.0
aF0.0
aF0.0
aF0.0
aF0.0
aF0.0
aF0.0
aF0.0
aF0.0
aF0.0
aF0.0
aF0.0
aF0.0
aF0.0
aF0.0
aF0.0
aF0.0
aF0.0
aF0.0
aF0.0
aF0.0
aF0.0
aF0.0
aF0.0
aF0.0
aF0.0
aF0.0
aF0.0
aF0.0
aF0.0
aF0.0
aF0.0
aF83.59456635318705
aF462.1377170396781
asS'Bacteria.Firmicutes.Clostridia.Lachnospirales.Lachnospiraceae.Marvinbryantia'
p317
(lp318
F0.0
aF0.0
aF0.0
aF0.0
aF0.0
aF1214.0833670578713
aF530.1362042247778
aF0.0
aF0.0
aF0.0
aF0.0
aF0.0
aF0.0
aF1204.9805864238854
aF0.0
aF0.0
aF233.7793575341054
aF2121.8355383781077
aF38.65888048177557
aF2520.9940892908853
aF162.9629629629629
aF0.0
aF0.0
aF0.0
aF818.9424959943025
aF85.24745441629172
aF0.0
aF34676.26261355343
aF1802.270489214248
aF0.0
aF607.164541590771
aF0.0
aF0.0
aF1312.9008652231933
aF0.0
aF0.0
aF0.0
aF0.0
asS'Bacteria.Campilobacterota.Campylobacteria'
p319
(lp320
F0.0
aF0.0
aF0.0
aF0.0
aF0.0
aF0.0
aF0.0
aF0.0
aF0.0
aF0.0
aF0.0
aF2293.992269065423
aF0.0
aF0.0
aF0.0
aF0.0
aF17.596295728373523
aF0.0
aF0.0
aF0.0
aF0.0
aF0.0
aF38.39150560515982
aF0.0
aF0.0
aF66.30357565711579
aF0.0
aF327.1345529580512
aF0.0
aF0.0
aF0.0
aF0.0
aF0.0
aF193.70668503293015
aF0.0
aF0.0
aF639.498432601881
aF458.662997362688
asS'Bacteria.Patescibacteria.Saccharimonadia.Saccharimonadales.Saccharimonadaceae'
p321
(lp322
F3795.7847350112547
aF5624.9620959427475
aF15361.388542832408
aF3738.705992314882
aF15187.61167361525
aF32456.495346013766
aF550.526058233423
aF12531.969309462913
aF2804.3016210386054
aF1175.7580076246127
aF3830.6058628609194
aF2293.992269065423
aF28196.127278903863
aF847.949301557549
aF0.0
aF0.0
aF37.706347989371835
aF0.0
aF1041.6420574256197
aF0.0
aF0.0
aF0.0
aF948.8186385275213
aF0.0
aF507.3882855616873
aF1288.1837556239636
aF1183.9974290341543
aF6341.377488109916
aF1486.408650898349
aF1234.567901234568
aF9830.283054326768
aF332.3026319494901
aF0.0
aF2173.8194653695496
aF15788.80889225717
aF2957.7048210588587
aF0.0
aF22815.009399116738
asS'Bacteria.Firmicutes'
p323
(lp324
F479077.1434417843
aF930135.2416762689
aF901116.999936654
aF941426.9394537337
aF611226.9207861823
aF853824.3626062324
aF908938.9119973899
aF377237.85166240396
aF637299.7493893345
aF945255.9945843875
aF949964.829614312
aF856724.8293052993
aF395708.30030574114
aF695363.0561877984
aF667834.618079888
aF309693.85591995466
aF181339.88250701968
aF51427.612267910765
aF100974.84810281552
aF43223.12501064608
aF205481.48148148152
aF137490.41993710192
aF386054.0113638858
aF109024.56691420879
aF500525.1913833003
aF611849.3961638642
aF235344.86039401742
aF853972.1683988019
aF472981.4260852335
aF303237.59133282944
aF572642.9005117527
aF422153.88427983277
aF295269.138969043
aF786771.9857087515
aF889225.7168119239
aF792664.892043774
aF216045.97701149428
aF443613.9864416441
asS'Bacteria.Proteobacteria.Gammaproteobacteria.Burkholderiales.Alcaligenaceae.Alcaligenes'
p325
(lp326
F0.0
aF0.0
aF0.0
aF0.0
aF0.0
aF0.0
aF407.79708017290596
aF0.0
aF0.0
aF249.40321373855417
aF0.0
aF0.0
aF0.0
aF0.0
aF0.0
aF0.0
aF0.0
aF0.0
aF0.0
aF34.06748769312007
aF0.0
aF0.0
aF0.0
aF0.0
aF0.0
aF0.0
aF0.0
aF0.0
aF0.0
aF0.0
aF0.0
aF0.0
aF0.0
aF0.0
aF0.0
aF0.0
aF0.0
aF0.0
asS'Bacteria.Firmicutes.Clostridia.Oscillospirales'
p327
(lp328
F163.69961121342337
aF0.0
aF0.0
aF0.0
aF0.0
aF0.0
aF0.0
aF0.0
aF0.0
aF0.0
aF0.0
aF325.1327625447056
aF0.0
aF0.0
aF0.0
aF0.0
aF0.0
aF0.0
aF0.0
aF0.0
aF0.0
aF0.0
aF0.0
aF0.0
aF640.9115186042367
aF0.0
aF0.0
aF0.0
aF210.5745588772661
aF0.0
aF0.0
aF0.0
aF0.0
aF0.0
aF0.0
aF0.0
aF0.0
aF0.0
asS'Bacteria.Actinobacteriota.Coriobacteriia.Coriobacteriales.Atopobiaceae'
p329
(lp330
F6251.278903212606
aF742.9195221056459
aF1541.41768196119
aF3219.4412711600376
aF0.0
aF3804.127883447997
aF530.1362042247778
aF0.0
aF8305.047108460487
aF3705.4191755442334
aF3847.555446324906
aF3558.397456739278
aF679.4247537085269
aF12987.012987012988
aF5606.166783461809
aF0.0
aF80.44020904399325
aF0.0
aF90.20405445747635
aF0.0
aF429.6296296296295
aF0.0
aF1595.989733014501
aF1733.0201260501365
aF0.0
aF634.619938432394
aF0.0
aF0.0
aF0.0
aF0.0
aF0.0
aF281.612399957195
aF0.0
aF0.0
aF0.0
aF0.0
aF41.797283176593524
aF767.9130486148033
asS'Bacteria.Firmicutes.Bacilli.Erysipelotrichales.Erysipelatoclostridiaceae'
p331
(lp332
F0.0
aF0.0
aF0.0
aF1557.7941634645342
aF744.490768314473
aF1214.0833670578713
aF0.0
aF1790.2813299232732
aF0.0
aF0.0
aF0.0
aF6881.976807196269
aF0.0
aF0.0
aF0.0
aF605.1192316142038
aF1121.135413550656
aF223.804154149415
aF573.440060479671
aF140.5283867341203
aF0.0
aF347.9655029643136
aF137.11252001842794
aF291.09322429748386
aF774.434751646786
aF729.3393322282735
aF0.0
aF6643.347844686578
aF2043.8118949852296
aF0.0
aF1243.24168040015
aF242.18666396318773
aF213.74372127818754
aF495.02819508415485
aF2273.5884804850325
aF0.0
aF3933.124346917451
aF20.84831806194036
asS'Bacteria.Firmicutes.Bacilli.Acholeplasmatales.Acholeplasmataceae.Anaeroplasma'
p333
(lp334
F0.0
aF0.0
aF0.0
aF0.0
aF297.79630732578926
aF0.0
aF61.16956202593589
aF0.0
aF0.0
aF0.0
aF0.0
aF252.88103753477102
aF0.0
aF0.0
aF0.0
aF0.0
aF1337.3184753563878
aF0.0
aF0.0
aF0.0
aF0.0
aF0.0
aF0.0
aF0.0
aF364.96350364963473
aF104.19133317546765
aF29.599935725853857
aF0.0
aF371.60216272458723
aF0.0
aF0.0
aF0.0
aF213.74372127818754
aF0.0
aF1705.1913603637743
aF0.0
aF0.0
aF0.0
asS'Bacteria.Firmicutes.Clostridia.Lachnospirales.Lachnospiraceae.uncultured'
p335
(lp336
F0.0
aF0.0
aF0.0
aF0.0
aF0.0
aF0.0
aF0.0
aF0.0
aF139.5806236716048
aF249.40321373855417
aF355.94125274371373
aF0.0
aF0.0
aF0.0
aF0.0
aF300.6324844962287
aF0.0
aF0.0
aF0.0
aF0.0
aF0.0
aF0.0
aF0.0
aF0.0
aF0.0
aF0.0
aF0.0
aF0.0
aF0.0
aF0.0
aF0.0
aF214.0254239674682
aF0.0
aF0.0
aF0.0
aF0.0
aF0.0
aF0.0
asS'Bacteria.Proteobacteria.Gammaproteobacteria.Burkholderiales.Sutterellaceae.Parasutterella'
p337
(lp338
F1064.047472887252
aF0.0
aF0.0
aF0.0
aF2829.0649195949977
aF0.0
aF0.0
aF0.0
aF107.85775465533098
aF0.0
aF0.0
aF469.63621256457475
aF0.0
aF7988.574998884277
aF0.0
aF616.6820194794434
aF37369.504614000114
aF4966.730651700478
aF6419.521875557066
aF5697.787316674332
aF903.7037037037035
aF3484.0596562629376
aF257.7715376346445
aF1299.7650945376024
aF1664.5896385971148
aF1629.1735732891307
aF4059.419756688529
aF578.7765167719368
aF4180.524330651607
aF1725.875535399345
aF0.0
aF3328.658567494045
aF2208.685119874605
aF430.4593000731781
aF0.0
aF0.0
aF5396.029258098223
aF1598.371051415428
asS'Bacteria.Firmicutes.Bacilli.Erysipelotrichales.Erysipelotrichaceae.Dubosiella'
p339
(lp340
F15531.000613873543
aF4139.123051731455
aF4993.7709833400195
aF18485.82407311247
aF17197.73674806433
aF14164.3059490085
aF2324.443356985564
aF0.0
aF7562.731973479678
aF445.36288167598957
aF161.0210429078705
aF2474.621581590259
aF23836.48510927415
aF7051.367876110144
aF11562.718990889982
aF0.0
aF279.0269751213516
aF0.0
aF1752.535915173826
aF0.0
aF0.0
aF559.3875807147828
aF3405.87499725775
aF0.0
aF0.0
aF0.0
aF177.59961435512312
aF23402.702634691355
aF0.0
aF0.0
aF318.03856940468955
aF0.0
aF0.0
aF0.0
aF24883.162814197298
aF0.0
aF75.23510971786834
aF56088.925025973556
asS'Bacteria.Proteobacteria.Alphaproteobacteria.Caulobacterales'
p341
(lp342
F0.0
aF0.0
aF0.0
aF0.0
aF967.837998808815
aF0.0
aF632.0854742680042
aF0.0
aF0.0
aF0.0
aF0.0
aF0.0
aF0.0
aF0.0
aF0.0
aF0.0
aF0.0
aF0.0
aF0.0
aF0.0
aF0.0
aF0.0
aF49.36050720663406
aF0.0
aF0.0
aF0.0
aF0.0
aF0.0
aF0.0
aF0.0
aF0.0
aF0.0
aF0.0
aF0.0
aF0.0
aF0.0
aF0.0
aF0.0
asS'Bacteria.Firmicutes.Bacilli.Exiguobacterales.Exiguobacteraceae'
p343
(lp344
F0.0
aF0.0
aF0.0
aF0.0
aF0.0
aF0.0
aF0.0
aF0.0
aF0.0
aF0.0
aF0.0
aF0.0
aF0.0
aF714.0625697326728
aF0.0
aF0.0
aF0.0
aF0.0
aF0.0
aF0.0
aF0.0
aF0.0
aF0.0
aF0.0
aF0.0
aF0.0
aF0.0
aF0.0
aF0.0
aF0.0
aF0.0
aF0.0
aF0.0
aF0.0
aF0.0
aF0.0
aF0.0
aF0.0
asS'Bacteria.Firmicutes.Clostridia.Clostridia'
p345
(lp346
F0.0
aF0.0
aF0.0
aF0.0
aF0.0
aF0.0
aF0.0
aF0.0
aF57.10116422929287
aF0.0
aF0.0
aF0.0
aF0.0
aF0.0
aF0.0
aF0.0
aF0.0
aF0.0
aF0.0
aF0.0
aF0.0
aF0.0
aF0.0
aF0.0
aF178.03097739006577
aF113.66327255505561
aF0.0
aF0.0
aF0.0
aF0.0
aF0.0
aF112.644959982878
aF0.0
aF0.0
aF0.0
aF0.0
aF0.0
aF76.44383289378132
asS'Bacteria.Bacteroidota'
p347
(lp348
F391518.3138940045
aF34758.020498514146
aF45756.87831246437
aF1973.20594038841
aF212477.6652769506
aF32942.12869283691
aF22061.822037354214
aF562659.8465473144
aF256790.2801129333
aF16567.49919834681
aF12881.68343262964
aF88869.62176221955
aF506341.29770127963
aF115633.5073860847
aF87946.74141555713
aF656280.7136552673
aF773528.1327062349
aF784231.2757697569
aF870784.8397052478
aF806948.0641150117
aF790074.0740740739
aF857734.9648070332
aF599077.5069653161
aF885112.9509406376
aF494160.5839416054
aF367672.27089746617
aF716529.8726779909
aF52089.886509474316
aF506722.9024606259
aF602003.0234315948
aF367218.89727354195
aF555936.6710034977
aF693901.1791528628
aF184494.85601136414
aF9473.285335354301
aF193138.12481514347
aF768894.4618599791
aF518907.6871223417
asS'Bacteria.Firmicutes.Clostridia.Lachnospirales.Lachnospiraceae._Eubacterium__hallii_group'
p349
(lp350
F0.0
aF0.0
aF0.0
aF0.0
aF0.0
aF0.0
aF0.0
aF0.0
aF0.0
aF0.0
aF0.0
aF0.0
aF0.0
aF0.0
aF0.0
aF0.0
aF60.33015678299494
aF847.8734301429761
aF0.0
aF770.7769090568415
aF0.0
aF167.37581155245468
aF0.0
aF352.019713103934
aF0.0
aF0.0
aF0.0
aF0.0
aF260.12151390721107
aF0.0
aF0.0
aF0.0
aF0.0
aF0.0
aF0.0
aF0.0
aF0.0
aF0.0
asS'Bacteria.Firmicutes.Negativicutes'
p351
(lp352
F0.0
aF0.0
aF0.0
aF0.0
aF0.0
aF0.0
aF0.0
aF0.0
aF0.0
aF0.0
aF0.0
aF0.0
aF0.0
aF0.0
aF0.0
aF0.0
aF0.0
aF0.0
aF0.0
aF0.0
aF0.0
aF0.0
aF0.0
aF0.0
aF0.0
aF0.0
aF0.0
aF0.0
aF0.0
aF0.0
aF0.0
aF0.0
aF0.0
aF0.0
aF0.0
aF0.0
aF7619.644723092999
aF1198.778288561571
asS'Bacteria.Firmicutes.Bacilli.Exiguobacterales'
p353
(lp354
F0.0
aF0.0
aF0.0
aF0.0
aF0.0
aF0.0
aF0.0
aF0.0
aF0.0
aF0.0
aF0.0
aF0.0
aF0.0
aF714.0625697326728
aF0.0
aF0.0
aF0.0
aF0.0
aF0.0
aF0.0
aF0.0
aF0.0
aF0.0
aF0.0
aF0.0
aF0.0
aF0.0
aF0.0
aF0.0
aF0.0
aF0.0
aF0.0
aF0.0
aF0.0
aF0.0
aF0.0
aF0.0
aF0.0
asS'Bacteria.Gemmatimonadota'
p355
(lp356
F0.0
aF0.0
aF0.0
aF0.0
aF0.0
aF0.0
aF0.0
aF2813.2992327365723
aF0.0
aF0.0
aF0.0
aF0.0
aF0.0
aF0.0
aF0.0
aF0.0
aF0.0
aF0.0
aF0.0
aF0.0
aF0.0
aF0.0
aF0.0
aF0.0
aF0.0
aF0.0
aF0.0
aF0.0
aF0.0
aF0.0
aF0.0
aF0.0
aF0.0
aF0.0
aF0.0
aF0.0
aF0.0
aF0.0
asS'Bacteria.Firmicutes.Clostridia.Oscillospirales.Ruminococcaceae.Negativibacillus'
p357
(lp358
F0.0
aF0.0
aF0.0
aF0.0
aF0.0
aF0.0
aF0.0
aF0.0
aF0.0
aF0.0
aF0.0
aF668.3284563418949
aF0.0
aF0.0
aF0.0
aF0.0
aF0.0
aF0.0
aF0.0
aF0.0
aF0.0
aF0.0
aF0.0
aF0.0
aF0.0
aF151.5510300734075
aF0.0
aF0.0
aF501.66291967819274
aF0.0
aF0.0
aF0.0
aF0.0
aF0.0
aF0.0
aF0.0
aF0.0
aF0.0
asS'Bacteria.Verrucomicrobiota.Verrucomicrobiae'
p359
(lp360
F91313.68937998773
aF3494.7540784765583
aF11001.076880846302
aF0.0
aF893.3889219773677
aF21205.989477944153
aF24365.875540331133
aF9974.424552429664
aF87123.68746629442
aF5326.540064844836
aF6152.698797427051
aF1065.712943896535
aF905.8996716113691
aF55295.22024367385
aF142606.86755430978
aF29993.871722431428
aF3453.9014758264602
aF152143.78556118882
aF3112.039878782934
aF135878.1746640094
aF0.0
aF0.0
aF268.74053923611876
aF40.617659204300075
aF587.502225387217
aF11764.148709448256
aF37515.80425139648
aF0.0
aF6701.225667800056
aF82615.26832955405
aF24575.70763581692
aF7913.308438797179
aF463.11139610273966
aF16701.820842839308
aF0.0
aF0.0
aF0.0
aF0.0
asS'Bacteria.Cyanobacteria.Cyanobacteriia.Chloroplast'
p361
(lp362
F0.0
aF0.0
aF0.0
aF0.0
aF0.0
aF0.0
aF0.0
aF0.0
aF0.0
aF0.0
aF0.0
aF0.0
aF452.94983580568453
aF0.0
aF0.0
aF0.0
aF0.0
aF0.0
aF0.0
aF0.0
aF0.0
aF0.0
aF0.0
aF0.0
aF0.0
aF0.0
aF0.0
aF352.2987493394398
aF0.0
aF0.0
aF0.0
aF0.0
aF0.0
aF0.0
aF0.0
aF0.0
aF0.0
aF0.0
asS'Bacteria.Actinobacteriota.Actinobacteria.Bifidobacteriales.Bifidobacteriaceae'
p363
(lp364
F19122.160834868017
aF10484.262235429676
aF5996.748242150384
aF7685.117873091703
aF10422.870756402623
aF4613.516794819911
aF163.1188320691624
aF0.0
aF1497.3194175681242
aF5914.419068657142
aF6762.883802130561
aF0.0
aF13758.35126259767
aF48957.91493729638
aF5606.166783461809
aF0.0
aF718.9343683306897
aF0.0
aF85.9086232928346
aF0.0
aF0.0
aF0.0
aF6115.2183928218865
aF0.0
aF0.0
aF0.0
aF3255.9929298439242
aF1509.8517828833133
aF0.0
aF0.0
aF4597.102957758695
aF2827.388495570238
aF1335.8982579886722
aF0.0
aF884.1732979664014
aF0.0
aF0.0
aF1984.0649355613245
asS'Bacteria.Firmicutes.Bacilli.Erysipelotrichales.Erysipelotrichaceae.Faecalitalea'
p365
(lp366
F0.0
aF0.0
aF0.0
aF0.0
aF0.0
aF0.0
aF0.0
aF0.0
aF0.0
aF0.0
aF0.0
aF0.0
aF0.0
aF0.0
aF0.0
aF0.0
aF0.0
aF0.0
aF0.0
aF68.13497538624014
aF0.0
aF0.0
aF0.0
aF0.0
aF0.0
aF0.0
aF0.0
aF0.0
aF0.0
aF0.0
aF0.0
aF0.0
aF0.0
aF0.0
aF0.0
aF0.0
aF0.0
aF0.0
asS'Bacteria.Campilobacterota.Campylobacteria.Campylobacterales.Helicobacteraceae'
p367
(lp368
F0.0
aF0.0
aF0.0
aF0.0
aF0.0
aF0.0
aF0.0
aF0.0
aF0.0
aF0.0
aF0.0
aF2293.992269065423
aF0.0
aF0.0
aF0.0
aF0.0
aF17.596295728373523
aF0.0
aF0.0
aF0.0
aF0.0
aF0.0
aF38.39150560515982
aF0.0
aF0.0
aF66.30357565711579
aF0.0
aF0.0
aF0.0
aF0.0
aF0.0
aF0.0
aF0.0
aF193.70668503293015
aF0.0
aF0.0
aF639.498432601881
aF458.662997362688
asS'Bacteria.Firmicutes.Clostridia.Oscillospirales._Eubacterium__coprostanoligenes_group._Eubacterium__coprostanoligenes_group'
p369
(lp370
F37528.1358706773
aF116304.80926678386
aF136320.44595536226
aF10073.735590403989
aF4615.842763549734
aF13273.978146499394
aF2161.3245249164015
aF69309.462915601
aF26380.737873933307
aF48580.183133216946
aF38780.64696560081
aF25414.544272244486
aF6681.010078133848
aF13567.188824920784
aF0.0
aF20974.89718754457
aF449.96241933983725
aF0.0
aF7858.491315712046
aF0.0
aF19629.629629629624
aF52.85551943761726
aF16299.936379790712
aF2755.2312160250217
aF4130.3186754495255
aF86838.7402320625
aF21481.096212476798
aF2919.046780241072
aF13278.583948025249
aF22511.967750062988
aF57911.93222887211
aF18637.108629167164
aF31598.446795625394
aF106000.60264302012
aF7326.007326007326
aF90801.53800650696
aF50010.44932079415
aF38618.03449006753
asS'Bacteria.Proteobacteria.Gammaproteobacteria.Enterobacterales.Enterobacteriaceae.Escherichia_Shigella'
p371
(lp372
F3540.0040924902805
aF5533.992358542056
aF7780.99199729724
aF15577.941634645344
aF9008.338296605123
aF27842.97855119385
aF6647.092406818368
aF18414.32225063938
aF2017.5744694350149
aF7624.612534292942
aF6940.854428502418
aF5744.0121382898
aF21345.261012342886
aF12272.950417280314
aF30133.146461107226
aF2482.14512840476
aF1128.6766831485302
aF6765.771736978469
aF270.612163372429
aF8005.859607883217
aF1733.3333333333328
aF629.8616066316057
aF3109.7119540179456
aF1441.9269017526526
aF409.47124799715124
aF2349.040966137816
aF431.3133491481562
aF9864.364981504314
aF2025.2317868490002
aF4245.401864449484
aF10003.758637638417
aF1785.4226157286164
aF249.36767482455215
aF2582.7558004390685
aF27914.614121510673
aF11239.278320023663
aF936.2591431556949
aF1692.1884826941593
asS'Bacteria.Bacteroidota.Bacteroidia.Bacteroidales.Bacteroidaceae.Bacteroides'
p373
(lp374
F2619.193779414774
aF447.26787555339905
aF0.0
aF0.0
aF32236.450268016684
aF0.0
aF183.50868607780768
aF0.0
aF3292.833803889222
aF249.40321373855417
aF720.3572972194207
aF2077.237094035619
aF31196.919941116525
aF4150.4886865711605
aF2803.0833917309046
aF114120.86196729275
aF388553.8610043463
aF66865.79497817907
aF74888.69463994625
aF70383.42957398607
aF239851.8518518518
aF340464.4238307918
aF37535.92348024483
aF290098.0916469785
aF9524.65729036852
aF1108.2169074117924
aF33266.09919361318
aF0.0
aF4700.767358466029
aF4106.827916351725
aF202.388180530257
aF8989.067806633666
aF14659.256884329028
aF5187.034565881796
aF0.0
aF0.0
aF40781.6091954023
aF312.72477092910543
asS'Bacteria.Firmicutes.Bacilli.Erysipelotrichales.Erysipelotrichaceae._Clostridium__innocuum_group'
p375
(lp376
F0.0
aF0.0
aF0.0
aF0.0
aF0.0
aF0.0
aF0.0
aF0.0
aF0.0
aF0.0
aF0.0
aF0.0
aF0.0
aF0.0
aF0.0
aF0.0
aF3240.232170553353
aF0.0
aF0.0
aF0.0
aF0.0
aF0.0
aF0.0
aF0.0
aF0.0
aF0.0
aF0.0
aF0.0
aF0.0
aF0.0
aF0.0
aF0.0
aF0.0
aF0.0
aF0.0
aF0.0
aF2461.8599791013585
aF0.0
asS'Bacteria.Actinobacteriota.Actinobacteria.Micrococcales.Intrasporangiaceae'
p377
(lp378
F0.0
aF0.0
aF0.0
aF0.0
aF0.0
aF0.0
aF0.0
aF0.0
aF0.0
aF0.0
aF0.0
aF0.0
aF0.0
aF0.0
aF0.0
aF0.0
aF0.0
aF0.0
aF0.0
aF0.0
aF0.0
aF0.0
aF0.0
aF0.0
aF0.0
aF28.415818138763903
aF0.0
aF0.0
aF0.0
aF0.0
aF0.0
aF0.0
aF0.0
aF0.0
aF0.0
aF0.0
aF0.0
aF0.0
asS'Bacteria.Actinobacteriota.Actinobacteria'
p379
(lp380
F19122.160834868017
aF10825.398750682269
aF5996.748242150384
aF13604.735694256933
aF10422.870756402623
aF4613.516794819911
aF163.1188320691624
aF0.0
aF1497.3194175681242
aF5914.419068657142
aF6864.581302914479
aF632.2025938369276
aF13758.35126259767
aF80956.84384344178
aF14365.802382620886
aF0.0
aF718.9343683306897
aF8.607852082669806
aF85.9086232928346
aF0.0
aF0.0
aF0.0
aF6115.2183928218865
aF372.328542706084
aF0.0
aF28.415818138763903
aF3327.878488035283
aF3321.673922343289
aF0.0
aF0.0
aF4597.102957758695
aF2917.50446355654
aF1335.8982579886722
aF0.0
aF2652.519893899204
aF0.0
aF121.2121212121212
aF2112.6295636099567
asS'Bacteria.Firmicutes.Clostridia.Oscillospirales.Ruminococcaceae.Harryflintia'
p381
(lp382
F0.0
aF0.0
aF0.0
aF0.0
aF0.0
aF0.0
aF0.0
aF0.0
aF177.64806649113336
aF0.0
aF0.0
aF0.0
aF0.0
aF0.0
aF0.0
aF1140.8617360369703
aF40.220104521996625
aF0.0
aF0.0
aF0.0
aF0.0
aF189.39894465146185
aF1053.0241537415266
aF0.0
aF1201.7090973829438
aF0.0
aF0.0
aF0.0
aF0.0
aF0.0
aF0.0
aF0.0
aF0.0
aF0.0
aF0.0
aF0.0
aF0.0
aF0.0
asS'Bacteria.Firmicutes.Clostridia.uncultured.uncultured'
p383
(lp384
F0.0
aF0.0
aF0.0
aF0.0
aF0.0
aF0.0
aF0.0
aF0.0
aF0.0
aF0.0
aF186.44541810385007
aF596.0767313319603
aF0.0
aF714.0625697326728
aF0.0
aF0.0
aF128.20158316386426
aF0.0
aF0.0
aF0.0
aF0.0
aF0.0
aF1294.3421889739598
aF0.0
aF0.0
aF0.0
aF0.0
aF0.0
aF0.0
aF390.5265810027715
aF0.0
aF0.0
aF0.0
aF0.0
aF0.0
aF0.0
aF0.0
aF114.665749340672
asS'Bacteria.Firmicutes.Clostridia.Oscillospirales.Ruminococcaceae'
p385
(lp386
F1964.3953345610805
aF530.6568015040327
aF907.9583606072763
aF0.0
aF0.0
aF1618.7778227438287
aF1264.1709485360084
aF10741.68797953964
aF19534.942740221417
aF605.6935190793458
aF1678.0087629346506
aF1734.0414002384298
aF3736.8361453968973
aF9416.700138349623
aF4204.625087596358
aF3384.042581893446
aF0.0
aF279.75519268676874
aF433.83854762881475
aF251.24772173676055
aF0.0
aF0.0
aF3713.0070420990287
aF162.4706368172003
aF36843.510770874105
aF60857.2105138527
aF6300.557747360321
aF352.2987493394398
aF10918.910214724121
aF9586.797682035778
aF1243.24168040015
aF5851.905671110512
aF7552.278151829294
aF4218.501140717145
aF821.0180623973727
aF14492.753623188408
aF292.5809822361546
aF997.2445472961474
asS'Bacteria.Bacteroidota.Bacteroidia.Flavobacteriales.Weeksellaceae'
p387
(lp388
F0.0
aF0.0
aF0.0
aF0.0
aF0.0
aF0.0
aF1243.7810945273632
aF0.0
aF0.0
aF0.0
aF0.0
aF252.88103753477102
aF0.0
aF0.0
aF0.0
aF0.0
aF0.0
aF0.0
aF0.0
aF0.0
aF0.0
aF0.0
aF0.0
aF0.0
aF0.0
aF0.0
aF0.0
aF0.0
aF0.0
aF0.0
aF0.0
aF0.0
aF0.0
aF0.0
aF0.0
aF0.0
aF0.0
aF0.0
asS'Bacteria.Firmicutes.Clostridia.Oscillospirales.Ruminococcaceae.DTU089'
p389
(lp390
F0.0
aF0.0
aF0.0
aF0.0
aF0.0
aF0.0
aF0.0
aF0.0
aF0.0
aF0.0
aF0.0
aF0.0
aF0.0
aF0.0
aF0.0
aF0.0
aF0.0
aF0.0
aF0.0
aF0.0
aF0.0
aF70.47402591682301
aF0.0
aF0.0
aF0.0
aF0.0
aF0.0
aF0.0
aF0.0
aF0.0
aF0.0
aF0.0
aF0.0
aF0.0
aF0.0
aF0.0
aF0.0
aF0.0
asS'Bacteria.Acidobacteriota.Acidobacteriae.Bryobacterales.Bryobacteraceae.Bryobacter'
p391
(lp392
F0.0
aF0.0
aF0.0
aF0.0
aF0.0
aF0.0
aF0.0
aF0.0
aF0.0
aF0.0
aF0.0
aF0.0
aF679.4247537085269
aF0.0
aF0.0
aF0.0
aF0.0
aF0.0
aF0.0
aF0.0
aF0.0
aF0.0
aF0.0
aF0.0
aF0.0
aF0.0
aF0.0
aF0.0
aF0.0
aF0.0
aF0.0
aF0.0
aF0.0
aF0.0
aF0.0
aF0.0
aF0.0
aF0.0
asS'Bacteria.Gemmatimonadota.Gemmatimonadetes'
p393
(lp394
F0.0
aF0.0
aF0.0
aF0.0
aF0.0
aF0.0
aF0.0
aF2813.2992327365723
aF0.0
aF0.0
aF0.0
aF0.0
aF0.0
aF0.0
aF0.0
aF0.0
aF0.0
aF0.0
aF0.0
aF0.0
aF0.0
aF0.0
aF0.0
aF0.0
aF0.0
aF0.0
aF0.0
aF0.0
aF0.0
aF0.0
aF0.0
aF0.0
aF0.0
aF0.0
aF0.0
aF0.0
aF0.0
aF0.0
asS'Bacteria.Firmicutes.Clostridia.Oscillospirales.Oscillospiraceae.Oscillibacter'
p395
(lp396
F399.01780233271944
aF121.29298320092178
aF834.0547731159863
aF0.0
aF0.0
aF0.0
aF0.0
aF0.0
aF1744.7577958950599
aF285.0322442726333
aF127.12187597989775
aF830.8948376142476
aF566.1872947571057
aF490.9180166912126
aF0.0
aF7496.540799296984
aF128.20158316386426
aF219.50022810808008
aF339.3390620066967
aF183.11274635052038
aF0.0
aF2065.769884686875
aF0.0
aF0.0
aF14224.675093466254
aF2964.717025811034
aF507.42746958606614
aF704.5974986788796
aF6143.822423713175
aF466.11237087427565
aF0.0
aF4860.630023261186
aF1229.0263973495782
aF990.0563901683097
aF0.0
aF0.0
aF317.6593521421107
aF1087.587258897889
asS'Bacteria.Actinobacteriota.Coriobacteriia.Coriobacteriales.Coriobacteriales_Incertae_Sedis.uncultured'
p397
(lp398
F0.0
aF0.0
aF0.0
aF0.0
aF446.69446098868383
aF0.0
aF387.40722616426063
aF0.0
aF0.0
aF0.0
aF0.0
aF505.76207506954205
aF0.0
aF0.0
aF1751.9271198318154
aF0.0
aF0.0
aF0.0
aF0.0
aF0.0
aF0.0
aF0.0
aF0.0
aF0.0
aF0.0
aF0.0
aF0.0
aF1535.0159792647019
aF0.0
aF0.0
aF0.0
aF0.0
aF0.0
aF0.0
aF0.0
aF0.0
aF0.0
aF0.0
asS'Bacteria.Firmicutes.Clostridia.Lachnospirales.Lachnospiraceae.Lachnospiraceae_FCS020_group'
p399
(lp400
F0.0
aF0.0
aF0.0
aF0.0
aF0.0
aF0.0
aF0.0
aF0.0
aF0.0
aF0.0
aF0.0
aF0.0
aF0.0
aF0.0
aF0.0
aF0.0
aF0.0
aF0.0
aF0.0
aF0.0
aF0.0
aF0.0
aF0.0
aF169.24024668458364
aF0.0
aF407.29339332228267
aF0.0
aF0.0
aF253.92814452846793
aF743.2602670697909
aF0.0
aF0.0
aF0.0
aF0.0
aF0.0
aF0.0
aF0.0
aF0.0
asS'Bacteria.Firmicutes.Clostridia.Lachnospirales.Lachnospiraceae'
p401
(lp402
F7550.644567219153
aF19255.26108314633
aF24367.068561413882
aF10177.588534634957
aF25759.38058368077
aF69850.2630513962
aF5668.379414403393
aF53196.93094629155
aF120451.73365479168
aF21769.337656322372
aF26068.459367611034
aF36595.49871753186
aF26780.659042011102
aF16021.778908376846
aF24176.59425367905
aF74109.7616909421
aF449.96241933983725
aF3378.581942447899
aF12250.569681558214
aF2682.8146558332055
aF2459.2592592592587
aF37589.08357338548
aF42965.57927297458
aF1827.7946641935034
aF163681.68061242643
aF67279.18541321334
aF16309.564584945474
aF46302.121341754944
aF34689.06189034022
aF26077.097505668935
aF34116.86471795761
aF70819.8863412354
aF40308.50343771154
aF36976.453876285996
aF42882.40495137047
aF125406.68441289561
aF22307.210031347964
aF8151.692362218681
asS'Bacteria.Firmicutes.Clostridia.Peptostreptococcales_Tissierellales.Peptostreptococcaceae'
p403
(lp404
F14896.664620421527
aF151024.92570804773
aF211881.58533752823
aF168137.91670993873
aF16974.389517569987
aF17725.617159044923
aF56031.31881575728
aF8184.143222506391
aF9802.36652602861
aF200288.59514732606
aF235836.50431790634
aF25161.663234709715
aF7020.72245498811
aF5087.695809345294
aF5255.781359495446
aF2485.9993910265066
aF104949.33523708495
aF1273.9621082351314
aF12933.54323673625
aF1111.4517859880423
aF1748.1481481481478
aF3153.71265977783
aF53172.23526314636
aF4427.3248532687085
aF284.8495638241052
aF20421.50130239166
aF1361.5970433892774
aF9814.036588741536
aF1833.2373361079638
aF856.6389518770471
aF22291.612455546874
aF10357.704070425632
aF1905.8815147305058
aF0.0
aF50903.11986863711
aF0.0
aF5057.471264367816
aF7543.6164187454215
asS'Bacteria.Firmicutes.Bacilli.Erysipelotrichales.Erysipelotrichaceae.Holdemania'
p405
(lp406
F0.0
aF0.0
aF0.0
aF0.0
aF0.0
aF1214.0833670578713
aF0.0
aF0.0
aF0.0
aF0.0
aF0.0
aF0.0
aF0.0
aF1249.6094970321774
aF0.0
aF0.0
aF0.0
aF404.5690478854809
aF0.0
aF472.686391742041
aF0.0
aF0.0
aF0.0
aF0.0
aF0.0
aF0.0
aF181.82817660167368
aF0.0
aF0.0
aF0.0
aF0.0
aF0.0
aF0.0
aF0.0
aF0.0
aF0.0
aF1433.6468129571579
aF0.0
asS'Bacteria.Actinobacteriota.Coriobacteriia.Coriobacteriales.Eggerthellaceae.uncultured'
p407
(lp408
F0.0
aF0.0
aF0.0
aF0.0
aF0.0
aF0.0
aF0.0
aF0.0
aF260.1275259334453
aF0.0
aF0.0
aF0.0
aF0.0
aF0.0
aF0.0
aF0.0
aF0.0
aF0.0
aF0.0
aF0.0
aF0.0
aF0.0
aF0.0
aF0.0
aF0.0
aF0.0
aF0.0
aF0.0
aF0.0
aF0.0
aF0.0
aF0.0
aF0.0
aF0.0
aF0.0
aF0.0
aF0.0
aF0.0
asS'Bacteria.Firmicutes.Clostridia.Clostridiales.Clostridiaceae'
p409
(lp410
F60394.925312052386
aF433667.8998119957
aF235425.15678118204
aF402326.3059507737
aF18761.167361524724
aF16997.1671388102
aF659897.2351357965
aF15089.514066496162
aF25594.010722329716
aF189920.547261909
aF293854.92851513164
aF10295.870813915679
aF14947.34458158759
aF1606.640781898514
aF0.0
aF0.0
aF22.623808793623102
aF0.0
aF0.0
aF0.0
aF0.0
aF0.0
aF290.6785424390672
aF0.0
aF35.60619547801315
aF7444.944352356144
aF1488.4539107857938
aF11827.172299252621
aF371.6021627245872
aF100.78105316200555
aF0.0
aF822.3082078750095
aF0.0
aF0.0
aF48503.22091701402
aF3253.4753031647447
aF1028.2131661442006
aF20546.01745004223
asS'Bacteria.Proteobacteria.Gammaproteobacteria.Enterobacterales.Morganellaceae'
p411
(lp412
F0.0
aF0.0
aF0.0
aF0.0
aF0.0
aF0.0
aF0.0
aF0.0
aF0.0
aF0.0
aF0.0
aF0.0
aF0.0
aF0.0
aF0.0
aF0.0
aF0.0
aF215.19630206674518
aF0.0
aF119.23620692592026
aF0.0
aF0.0
aF0.0
aF0.0
aF0.0
aF0.0
aF0.0
aF0.0
aF0.0
aF0.0
aF0.0
aF0.0
aF0.0
aF0.0
aF0.0
aF0.0
aF238.24451410658307
aF0.0
asS'Bacteria.Firmicutes.Clostridia.Clostridia_vadinBB60_group.Clostridia_vadinBB60_group.Clostridia_vadinBB60_group'
p413
(lp414
F306.9367710251688
aF0.0
aF158.3648303384784
aF0.0
aF0.0
aF566.57223796034
aF0.0
aF0.0
aF387.0190019985406
aF338.47579007375214
aF67.79833385594547
aF559.950868826993
aF0.0
aF0.0
aF0.0
aF2351.1001992653783
aF223.72433140360624
aF38.73533437201414
aF2755.51909211767
aF0.0
aF474.07407407407396
aF114.5202921148374
aF351.0080512471755
aF264.0147848279505
aF738.8285561687728
aF947.1939379587968
aF401.7134134223023
aF0.0
aF12591.119946984763
aF0.0
aF0.0
aF816.6759598758655
aF0.0
aF731.7808101244028
aF315.77617784514337
aF0.0
aF3753.396029258098
aF173.73598384950304
asS'Bacteria.Firmicutes.Clostridia.Eubacteriales.Anaerofustaceae.Anaerofustis'
p415
(lp416
F327.39922242684673
aF75.8081145005761
aF190.0377964061741
aF0.0
aF0.0
aF404.69445568595717
aF0.0
aF0.0
aF0.0
aF356.29030534079163
aF0.0
aF0.0
aF0.0
aF1695.898603115098
aF0.0
aF0.0
aF0.0
aF0.0
aF0.0
aF0.0
aF0.0
aF0.0
aF0.0
aF0.0
aF0.0
aF75.77551503670375
aF0.0
aF0.0
aF111.48064881737616
aF365.3313177122701
aF1185.4164859629338
aF0.0
aF0.0
aF0.0
aF0.0
aF0.0
aF0.0
aF0.0
asS'Bacteria.Firmicutes.Clostridia.Oscillospirales.Oscillospiraceae'
p417
(lp418
F8144.055657867813
aF849.0508824064524
aF1773.6860997909585
aF3634.853048083913
aF670.0416914830257
aF23472.278429785514
aF1141.8318244841366
aF14066.496163682861
aF13552.009643752173
aF8657.854419781237
aF3584.836902633117
aF50648.45923196414
aF18514.324538557357
aF2811.621368322399
aF0.0
aF28035.906310584196
aF470.07247160083557
aF3047.179637265112
aF2383.9642963761603
aF2495.4434735210452
aF4251.851851851851
aF22018.72847238739
aF8007.371169076192
aF3357.7264942221395
aF63254.40626669036
aF27714.894624674398
aF8605.124171730371
aF7977.050252900172
aF21998.848033295566
aF19299.571680524063
aF6274.0335964379665
aF33157.04397096014
aF14641.444907555848
aF18402.13507812836
aF20083.36491095112
aF8281.573498964804
aF3001.044932079415
aF10973.164739934611
asS'Bacteria.Firmicutes.Clostridia.Christensenellales.Christensenellaceae.uncultured'
p419
(lp420
F163.69961121342337
aF0.0
aF0.0
aF0.0
aF0.0
aF0.0
aF0.0
aF0.0
aF0.0
aF0.0
aF0.0
aF0.0
aF0.0
aF0.0
aF0.0
aF26.97983835222565
aF0.0
aF0.0
aF27.920302570171245
aF0.0
aF0.0
aF0.0
aF115.17451681547946
aF0.0
aF0.0
aF0.0
aF0.0
aF0.0
aF0.0
aF0.0
aF0.0
aF0.0
aF0.0
aF0.0
aF0.0
aF0.0
aF0.0
aF298.8258922211452
asS'Bacteria.Actinobacteriota.Actinobacteria.Streptomycetales.Streptomycetaceae'
p421
(lp422
F0.0
aF0.0
aF0.0
aF0.0
aF0.0
aF0.0
aF0.0
aF0.0
aF0.0
aF0.0
aF0.0
aF0.0
aF0.0
aF0.0
aF3503.854239663631
aF0.0
aF0.0
aF0.0
aF0.0
aF0.0
aF0.0
aF0.0
aF0.0
aF0.0
aF0.0
aF0.0
aF0.0
aF0.0
aF0.0
aF0.0
aF0.0
aF0.0
aF0.0
aF0.0
aF0.0
aF0.0
aF0.0
aF0.0
asS'Bacteria.Campilobacterota.Campylobacteria.Campylobacterales.Helicobacteraceae.Helicobacter'
p423
(lp424
F0.0
aF0.0
aF0.0
aF0.0
aF0.0
aF0.0
aF0.0
aF0.0
aF0.0
aF0.0
aF0.0
aF2293.992269065423
aF0.0
aF0.0
aF0.0
aF0.0
aF17.596295728373523
aF0.0
aF0.0
aF0.0
aF0.0
aF0.0
aF38.39150560515982
aF0.0
aF0.0
aF66.30357565711579
aF0.0
aF0.0
aF0.0
aF0.0
aF0.0
aF0.0
aF0.0
aF193.70668503293015
aF0.0
aF0.0
aF639.498432601881
aF458.662997362688
asS'Eukaryota'
p425
(lp426
F0.0
aF0.0
aF0.0
aF0.0
aF0.0
aF0.0
aF0.0
aF0.0
aF0.0
aF0.0
aF0.0
aF0.0
aF0.0
aF0.0
aF0.0
aF0.0
aF0.0
aF0.0
aF0.0
aF0.0
aF0.0
aF0.0
aF0.0
aF0.0
aF0.0
aF0.0
aF0.0
aF0.0
aF1399.701479595945
aF0.0
aF0.0
aF0.0
aF0.0
aF0.0
aF0.0
aF0.0
aF0.0
aF0.0
asS'Bacteria.Desulfobacterota.Desulfovibrionia.Desulfovibrionales.Desulfovibrionaceae.Desulfovibrio'
p427
(lp428
F0.0
aF0.0
aF0.0
aF1869.352996157441
aF4615.842763549734
aF0.0
aF0.0
aF0.0
aF0.0
aF0.0
aF0.0
aF11975.723420396656
aF14324.538557354774
aF0.0
aF0.0
aF0.0
aF0.0
aF0.0
aF0.0
aF0.0
aF0.0
aF0.0
aF0.0
aF0.0
aF0.0
aF0.0
aF0.0
aF0.0
aF1833.2373361079638
aF0.0
aF0.0
aF0.0
aF0.0
aF0.0
aF0.0
aF0.0
aF1099.2685475444096
aF3200.2168225078453
asS'Bacteria.Actinobacteriota.Actinobacteria.Bifidobacteriales'
p429
(lp430
F19122.160834868017
aF10484.262235429676
aF5996.748242150384
aF7685.117873091703
aF10422.870756402623
aF4613.516794819911
aF163.1188320691624
aF0.0
aF1497.3194175681242
aF5914.419068657142
aF6762.883802130561
aF0.0
aF13758.35126259767
aF48957.91493729638
aF5606.166783461809
aF0.0
aF718.9343683306897
aF0.0
aF85.9086232928346
aF0.0
aF0.0
aF0.0
aF6115.2183928218865
aF0.0
aF0.0
aF0.0
aF3255.9929298439242
aF1509.8517828833133
aF0.0
aF0.0
aF4597.102957758695
aF2827.388495570238
aF1335.8982579886722
aF0.0
aF884.1732979664014
aF0.0
aF0.0
aF1984.0649355613245
asS'Bacteria.Firmicutes.Clostridia.Peptostreptococcales_Tissierellales.Anaerovoracaceae.Anaerovorax'
p431
(lp432
F0.0
aF0.0
aF0.0
aF0.0
aF0.0
aF0.0
aF203.89854008645298
aF0.0
aF2823.33534244837
aF0.0
aF0.0
aF0.0
aF0.0
aF0.0
aF0.0
aF292.92395925273564
aF0.0
aF206.5884499840754
aF109.53349469836412
aF93.68559115608019
aF0.0
aF171.7804381722561
aF0.0
aF0.0
aF774.434751646786
aF1136.6327255505562
aF0.0
aF0.0
aF136.25412633234865
aF0.0
aF0.0
aF591.3860399101095
aF516.5473264222866
aF0.0
aF0.0
aF0.0
aF0.0
aF0.0
asS'Bacteria.Bacteroidota.Bacteroidia.Bacteroidales.Prevotellaceae.Prevotellaceae_UCG_003'
p433
(lp434
F0.0
aF0.0
aF0.0
aF0.0
aF0.0
aF0.0
aF0.0
aF0.0
aF0.0
aF0.0
aF0.0
aF0.0
aF0.0
aF0.0
aF3153.468815697268
aF0.0
aF0.0
aF0.0
aF0.0
aF0.0
aF0.0
aF0.0
aF0.0
aF0.0
aF0.0
aF0.0
aF0.0
aF0.0
aF0.0
aF0.0
aF0.0
aF0.0
aF0.0
aF0.0
aF0.0
aF0.0
aF105880.8777429467
aF19305.542525356777
asS'Bacteria.Bacteroidota.Bacteroidia.Bacteroidales.Prevotellaceae.Prevotellaceae_UCG_001'
p435
(lp436
F2312.2570083896053
aF439.6870641033414
aF0.0
aF0.0
aF8710.541989279334
aF0.0
aF591.3057662507136
aF0.0
aF5024.902452177773
aF302.8467595396729
aF0.0
aF2546.873306600194
aF5039.0669233382405
aF758.6914803409649
aF0.0
aF65645.80097358675
aF4150.212035363526
aF77694.47289817767
aF13494.097003721996
aF85130.39330914541
aF62488.88888888887
aF71918.74344811788
aF25003.839150560518
aF65448.58819786219
aF16797.2227167527
aF4196.06914515747
aF54320.11061918838
aF931.0752661113764
aF19341.892569814765
aF27954.144620811287
aF12808.280567843407
aF2782.330511577087
aF15941.719211998156
aF559.5970900951316
aF631.5523556902867
aF0.0
aF40426.33228840126
aF934.6995931103263
asS'Bacteria.Proteobacteria.Gammaproteobacteria'
p437
(lp438
F6629.834254143647
aF11507.671781187453
aF13746.067273379927
aF21912.97123273445
aF123064.3240023824
aF35370.29542695265
aF23489.111817959383
aF31457.80051150894
aF3717.9202487072916
aF11989.168774717638
aF9610.413824080273
aF12788.55532675842
aF30291.020269505156
aF29142.678627214707
aF63770.14716187808
aF3411.0224202456716
aF39116.56540417434
aF12102.640028233749
aF6838.326414109634
aF13856.950619176589
aF2637.037037037036
aF4594.0255644529
aF4069.499594146941
aF3026.0156107203557
aF2536.9414278084373
aF5228.510537532558
aF4816.332398821077
aF41244.11786909585
aF7165.728371205791
aF9536.407155454774
aF16884.956775667153
aF5221.093895206394
aF2458.052794699157
aF4218.501140717145
aF56460.78059871164
aF11239.278320023663
aF8158.829676071055
aF5615.146998015939
asS'Bacteria.Firmicutes.Clostridia.Lachnospirales.Lachnospiraceae.A2'
p439
(lp440
F0.0
aF409.363818303111
aF1942.6085854853352
aF0.0
aF0.0
aF0.0
aF0.0
aF0.0
aF18088.37991307933
aF4916.806213702926
aF2822.1056467537305
aF0.0
aF0.0
aF0.0
aF0.0
aF0.0
aF0.0
aF0.0
aF0.0
aF0.0
aF0.0
aF0.0
aF0.0
aF0.0
aF569.6991276482104
aF530.4286052569263
aF71.88555819135937
aF0.0
aF0.0
aF403.1242126480222
aF0.0
aF0.0
aF0.0
aF0.0
aF0.0
aF0.0
aF0.0
aF0.0
asS'Bacteria.Bacteroidota.Bacteroidia.Bacteroidales.Rikenellaceae'
p441
(lp442
F3294.454675670145
aF98.55054885074894
aF0.0
aF0.0
aF2382.370458606314
aF0.0
aF203.89854008645298
aF0.0
aF3920.946610411444
aF605.6935190793458
aF322.042085815741
aF1137.9646689064696
aF0.0
aF4284.375418396036
aF0.0
aF26031.689747276003
aF24059.163773751854
aF0.0
aF25570.70172311222
aF0.0
aF2918.518518518518
aF11747.139195010435
aF444.24456485970654
aF1428.387682017886
aF8509.880719245142
aF3665.640539900544
aF11725.803109684677
aF0.0
aF9766.9435102779
aF2658.100277147896
aF0.0
aF5452.016063171295
aF4470.806170068756
aF774.8267401317206
aF0.0
aF0.0
aF869.3834900731453
aF0.0
asS'Bacteria.Acidobacteriota'
p443
(lp444
F0.0
aF0.0
aF0.0
aF0.0
aF0.0
aF0.0
aF0.0
aF0.0
aF0.0
aF0.0
aF0.0
aF0.0
aF679.4247537085269
aF0.0
aF0.0
aF0.0
aF0.0
aF0.0
aF0.0
aF0.0
aF0.0
aF0.0
aF0.0
aF0.0
aF0.0
aF0.0
aF0.0
aF377.4629457208283
aF0.0
aF0.0
aF0.0
aF0.0
aF0.0
aF0.0
aF0.0
aF0.0
aF0.0
aF0.0
asS'Bacteria.Actinobacteriota.Actinobacteria.Pseudonocardiales.Pseudonocardiaceae'
p445
(lp446
F0.0
aF0.0
aF0.0
aF0.0
aF0.0
aF0.0
aF0.0
aF0.0
aF0.0
aF0.0
aF101.69750078391822
aF0.0
aF0.0
aF31998.928906145396
aF5255.781359495446
aF0.0
aF0.0
aF0.0
aF0.0
aF0.0
aF0.0
aF0.0
aF0.0
aF0.0
aF0.0
aF0.0
aF0.0
aF0.0
aF0.0
aF0.0
aF0.0
aF0.0
aF0.0
aF0.0
aF0.0
aF0.0
aF0.0
aF0.0
asS'Bacteria.Bacteroidota.Bacteroidia.Bacteroidales.Muribaculaceae.Muribaculum'
p447
(lp448
F327.39922242684673
aF0.0
aF0.0
aF0.0
aF0.0
aF0.0
aF0.0
aF0.0
aF875.5511848491574
aF0.0
aF0.0
aF0.0
aF0.0
aF0.0
aF0.0
aF8756.884676608097
aF321.760836175973
aF14443.975794719938
aF13354.495490871139
aF13265.028020508627
aF5881.48148148148
aF13522.203722790417
aF5396.748787925323
aF11156.317061447753
aF2243.1903151148285
aF1202.936301207672
aF6524.671546427499
aF0.0
aF959.9722537051837
aF0.0
aF0.0
aF1188.4043278193628
aF2048.377328915964
aF817.8726701390384
aF0.0
aF0.0
aF0.0
aF0.0
asS'Bacteria.Bacteroidota.Bacteroidia.Bacteroidales.Rikenellaceae.Alistipes'
p449
(lp450
F3294.454675670145
aF98.55054885074894
aF0.0
aF0.0
aF2382.370458606314
aF0.0
aF203.89854008645298
aF0.0
aF3920.946610411444
aF605.6935190793458
aF322.042085815741
aF1137.9646689064696
aF0.0
aF4284.375418396036
aF0.0
aF26031.689747276003
aF24059.163773751854
aF0.0
aF25570.70172311222
aF0.0
aF2918.518518518518
aF11747.139195010435
aF444.24456485970654
aF1428.387682017886
aF8509.880719245142
aF3665.640539900544
aF11725.803109684677
aF0.0
aF9766.9435102779
aF2658.100277147896
aF0.0
aF5452.016063171295
aF4470.806170068756
aF774.8267401317206
aF0.0
aF0.0
aF476.48902821316614
aF0.0
asS'Bacteria.Firmicutes.Clostridia.Lachnospirales.Lachnospiraceae.Lachnospiraceae_NK4A136_group'
p451
(lp452
F4910.988336402701
aF18944.44781369397
aF28495.111805570217
aF0.0
aF4243.597379392497
aF12302.711452853098
aF1264.1709485360084
aF14578.00511508951
aF110370.20588141987
aF47422.23964085937
aF41340.03406866275
aF4064.1595318088202
aF8266.334503453743
aF5310.840362386754
aF0.0
aF94309.95209151563
aF0.0
aF426.0886780921554
aF3715.547957415097
aF323.64113308464067
aF9555.555555555553
aF28700.54705462617
aF62364.25860518176
aF11325.557308132338
aF50338.25885704109
aF15297.18209803457
aF9911.749905914492
aF830.4184805858223
aF32224.100877600456
aF18102.796674225247
aF14138.26003989938
aF30999.89298728803
aF33076.840867799525
aF17605.785372992985
aF4484.021725401036
aF12126.58976634132
aF0.0
aF7581.838335192312
asS'Bacteria.Firmicutes.Clostridia.Lachnospirales.Lachnospiraceae.Anaerostipes'
p453
(lp454
F0.0
aF0.0
aF0.0
aF0.0
aF0.0
aF0.0
aF0.0
aF0.0
aF0.0
aF0.0
aF0.0
aF3016.5095191647683
aF0.0
aF0.0
aF0.0
aF0.0
aF457.5036889377116
aF0.0
aF0.0
aF0.0
aF0.0
aF57.2601460574187
aF0.0
aF0.0
aF0.0
aF0.0
aF0.0
aF0.0
aF0.0
aF0.0
aF0.0
aF0.0
aF0.0
aF0.0
aF0.0
aF0.0
aF1951.9331243469173
aF0.0
asS'Bacteria.Firmicutes.Clostridia.Christensenellales.Christensenellaceae'
p455
(lp456
F4501.739308369143
aF576.1416702043784
aF2037.6274836884224
aF41541.17769238757
aF30002.977963073263
aF3723.1889923108056
aF3853.6824076339617
aF0.0
aF4790.153221457346
aF783.8386717497417
aF525.4370873835774
aF13818.142408149988
aF21232.023553391464
aF1562.011871290222
aF0.0
aF26.97983835222565
aF80.44020904399325
aF279.75519268676874
aF309.27104385420455
aF144.7868226957603
aF0.0
aF0.0
aF263.25603843538164
aF74.46570854121681
aF1210.6106462524472
aF1733.364906464598
aF680.7985216946387
aF167014.77138327583
aF1635.0495159881839
aF3136.8102796674225
aF2515.395958018908
aF3998.8960793921688
aF1905.8815147305058
aF1334.4238302268523
aF177592.5224201086
aF0.0
aF0.0
aF2890.9667712557302
asS'Bacteria.Actinobacteriota.Actinobacteria.Bifidobacteriales.Bifidobacteriaceae.Bifidobacterium'
p457
(lp458
F19122.160834868017
aF10484.262235429676
aF5996.748242150384
aF7685.117873091703
aF10422.870756402623
aF4613.516794819911
aF163.1188320691624
aF0.0
aF1497.3194175681242
aF5914.419068657142
aF6762.883802130561
aF0.0
aF13758.35126259767
aF48957.91493729638
aF5606.166783461809
aF0.0
aF718.9343683306897
aF0.0
aF85.9086232928346
aF0.0
aF0.0
aF0.0
aF6115.2183928218865
aF0.0
aF0.0
aF0.0
aF3255.9929298439242
aF1509.8517828833133
aF0.0
aF0.0
aF4597.102957758695
aF2827.388495570238
aF1335.8982579886722
aF0.0
aF884.1732979664014
aF0.0
aF0.0
aF1984.0649355613245
asS'Bacteria.Firmicutes.Bacilli.Erysipelotrichales.Erysipelotrichaceae.Allobaculum'
p459
(lp460
F337.63044812768567
aF0.0
aF0.0
aF0.0
aF7966.051220964861
aF17078.106029947394
aF1039.8825544409103
aF0.0
aF1345.0496462900098
aF0.0
aF0.0
aF1300.5310501788224
aF1698.561884271317
aF21154.103628330435
aF56061.66783461809
aF0.0
aF816.9708731030565
aF0.0
aF768.8821784708698
aF0.0
aF0.0
aF215.8267043702705
aF394.8840576530725
aF440.0246413799175
aF1166.1029019049306
aF975.6097560975608
aF0.0
aF20508.820050831673
aF501.66291967819274
aF0.0
aF0.0
aF0.0
aF0.0
aF0.0
aF5115.574081091322
aF0.0
aF0.0
aF1268.272682101372
asS'Bacteria.Desulfobacterota'
p461
(lp462
F0.0
aF0.0
aF0.0
aF1869.352996157441
aF4615.842763549734
aF0.0
aF0.0
aF0.0
aF0.0
aF0.0
aF0.0
aF11975.723420396656
aF14324.538557354774
aF0.0
aF0.0
aF0.0
aF0.0
aF0.0
aF0.0
aF0.0
aF0.0
aF0.0
aF0.0
aF0.0
aF0.0
aF0.0
aF0.0
aF0.0
aF1833.2373361079638
aF0.0
aF0.0
aF0.0
aF0.0
aF0.0
aF0.0
aF0.0
aF3724.137931034483
aF3408.700003127249
asS'Bacteria.Actinobacteriota.Coriobacteriia.Coriobacteriales.uncultured.uncultured'
p463
(lp464
F0.0
aF0.0
aF781.2664963364936
aF5296.500155779417
aF5955.926146515784
aF7932.011331444761
aF3894.462115651252
aF3324.8081841432218
aF596.3899375059477
aF267.21772900559375
aF220.3445850318228
aF7207.109569740974
aF2377.986637979844
aF3168.6526531887357
aF0.0
aF34.68836359571869
aF0.0
aF30.127482289344325
aF0.0
aF0.0
aF562.9629629629628
aF48.45089281781582
aF998.1791457341554
aF250.4755650931838
aF178.03097739006577
aF492.54084773857437
aF0.0
aF12003.32167392234
aF575.9833522231102
aF806.2484252960444
aF1127.5912915257175
aF146.43844797774142
aF0.0
aF624.1659851061083
aF5873.436907919667
aF0.0
aF0.0
aF531.6321105794793
asS'Bacteria.Firmicutes.Bacilli.Erysipelotrichales.Erysipelatoclostridiaceae.Candidatus_Stoquefichus'
p465
(lp466
F0.0
aF0.0
aF0.0
aF0.0
aF0.0
aF0.0
aF0.0
aF0.0
aF0.0
aF0.0
aF0.0
aF0.0
aF0.0
aF0.0
aF0.0
aF196.56739370907258
aF0.0
aF0.0
aF0.0
aF0.0
aF0.0
aF0.0
aF0.0
aF0.0
aF0.0
aF0.0
aF0.0
aF0.0
aF0.0
aF0.0
aF0.0
aF0.0
aF0.0
aF0.0
aF0.0
aF0.0
aF0.0
aF0.0
asS'Bacteria.Actinobacteriota.Coriobacteriia.Coriobacteriales.Eggerthellaceae.Gordonibacter'
p467
(lp468
F0.0
aF341.13651525259246
aF0.0
aF0.0
aF0.0
aF0.0
aF0.0
aF0.0
aF0.0
aF0.0
aF0.0
aF0.0
aF0.0
aF0.0
aF0.0
aF0.0
aF0.0
aF0.0
aF0.0
aF0.0
aF0.0
aF0.0
aF0.0
aF0.0
aF0.0
aF0.0
aF0.0
aF0.0
aF43.35358565120184
aF0.0
aF0.0
aF0.0
aF0.0
aF0.0
aF0.0
aF0.0
aF0.0
aF0.0
asS'Bacteria.Firmicutes.Bacilli.Staphylococcales.Staphylococcaceae'
p469
(lp470
F0.0
aF113.71217175086416
aF0.0
aF5711.911932703292
aF0.0
aF1618.7778227438287
aF0.0
aF0.0
aF0.0
aF0.0
aF0.0
aF903.1465626241823
aF1925.0368021741592
aF0.0
aF0.0
aF0.0
aF0.0
aF0.0
aF0.0
aF0.0
aF414.8148148148147
aF273.08685042768917
aF466.18256806265504
aF1638.2455879067695
aF0.0
aF0.0
aF25.371373479303305
aF1358.866604594982
aF0.0
aF0.0
aF0.0
aF0.0
aF0.0
aF0.0
aF0.0
aF0.0
aF0.0
aF76.44383289378132
asS'Bacteria.Firmicutes.Bacilli.Erysipelotrichales'
p471
(lp472
F45590.34172293841
aF89059.3729152768
aF73301.80113600372
aF132412.50389448542
aF72885.64621798691
aF39012.54552812626
aF89246.39099584045
aF7161.125319693093
aF14865.336421025911
aF92884.88260234438
aF110172.29251591141
aF17990.679527473712
aF49428.15083229532
aF30526.17485607176
aF71478.62648913807
aF655.2246456969086
aF6440.24423658471
aF628.3732020348959
aF4379.192072352244
aF681.3497538624015
aF1288.8888888888887
aF1233.2954535444028
aF5138.977250290679
aF1570.5494892329361
aF2545.8429766779404
aF12616.623253611175
aF2811.9938939561166
aF66508.97103600994
aF5004.242458024441
aF6424.792139077854
aF103333.6224593055
aF10132.414150459877
aF1763.3857005450475
aF667.2119151134261
aF105785.01957812301
aF0.0
aF10796.238244514108
aF70144.16611939833
asS'Bacteria.Bacteroidota.Bacteroidia.Bacteroidales.Prevotellaceae.Prevotellaceae_NK3B31_group'
p473
(lp474
F6906.077348066298
aF1076.4752259081806
aF263.94138389746405
aF0.0
aF1414.5324597974989
aF2509.1056252529343
aF305.8478101296795
aF0.0
aF450.4647400310882
aF0.0
aF110.1722925159114
aF3558.397456739278
aF8379.571962405164
aF18788.771366090954
aF14015.416958654523
aF29866.681055913792
aF512.806332655457
aF138965.16402262138
aF188511.4398070493
aF128498.30514248728
aF45422.22222222221
aF9170.432622426595
aF6049.40438321304
aF28709.91544757277
aF68168.06124265617
aF26095.192990764852
aF217259.29966552075
aF4051.435617403557
aF86416.08294160276
aF117888.63693625598
aF20180.99285858848
aF3007.6204315428427
aF91785.11631220837
aF11428.694416942879
aF0.0
aF46435.96569062408
aF171.36886102403344
aF4812.486752631234
asS'Bacteria.Bacteroidota.Bacteroidia.Bacteroidales.Tannerellaceae.Parabacteroides'
p475
(lp476
F644.5672191528545
aF280.4900236521316
aF0.0
aF0.0
aF1116.7361524717096
aF0.0
aF0.0
aF0.0
aF7086.88893823557
aF0.0
aF152.54625117587733
aF216.75517502980372
aF0.0
aF5400.098183603338
aF0.0
aF6602.351871051792
aF73891.87327650568
aF22866.759057612344
aF8137.694341413759
aF25205.682456947212
aF2014.8148148148143
aF27546.534880238196
aF1656.3192418226095
aF2321.9761845124876
aF320.45575930211834
aF483.0689083589864
aF8617.809858470022
aF0.0
aF2464.9610127397623
aF2292.768959435626
aF838.465319339636
aF946.2176638561752
aF2760.856399843256
aF0.0
aF0.0
aF0.0
aF27469.17450365726
aF493.41019413258863
asS'Bacteria.Firmicutes.Bacilli.Erysipelotrichales.Erysipelatoclostridiaceae.Erysipelatoclostridiaceae'
p477
(lp478
F0.0
aF0.0
aF0.0
aF0.0
aF0.0
aF0.0
aF0.0
aF0.0
aF0.0
aF0.0
aF0.0
aF0.0
aF0.0
aF0.0
aF0.0
aF0.0
aF17.596295728373523
aF0.0
aF0.0
aF0.0
aF0.0
aF0.0
aF0.0
aF0.0
aF0.0
aF0.0
aF0.0
aF0.0
aF0.0
aF0.0
aF0.0
aF22.528991996575602
aF0.0
aF0.0
aF0.0
aF0.0
aF0.0
aF0.0
asS'Bacteria.Firmicutes.Bacilli.Izemoplasmatales.Izemoplasmatales.Izemoplasmatales'
p479
(lp480
F0.0
aF0.0
aF0.0
aF0.0
aF0.0
aF0.0
aF0.0
aF0.0
aF0.0
aF0.0
aF0.0
aF0.0
aF0.0
aF0.0
aF0.0
aF0.0
aF0.0
aF0.0
aF0.0
aF0.0
aF0.0
aF0.0
aF0.0
aF0.0
aF0.0
aF104.19133317546765
aF0.0
aF0.0
aF117.67401819611929
aF0.0
aF0.0
aF236.5544159640438
aF0.0
aF0.0
aF0.0
aF0.0
aF0.0
aF0.0
asS'Bacteria.Acidobacteriota.Blastocatellia.Blastocatellales'
p481
(lp482
F0.0
aF0.0
aF0.0
aF0.0
aF0.0
aF0.0
aF0.0
aF0.0
aF0.0
aF0.0
aF0.0
aF0.0
aF0.0
aF0.0
aF0.0
aF0.0
aF0.0
aF0.0
aF0.0
aF0.0
aF0.0
aF0.0
aF0.0
aF0.0
aF0.0
aF0.0
aF0.0
aF377.4629457208283
aF0.0
aF0.0
aF0.0
aF0.0
aF0.0
aF0.0
aF0.0
aF0.0
aF0.0
aF0.0
asS'Bacteria.Patescibacteria.Saccharimonadia.Saccharimonadales'
p483
(lp484
F0.0
aF0.0
aF0.0
aF0.0
aF0.0
aF0.0
aF0.0
aF0.0
aF0.0
aF0.0
aF0.0
aF108.37758751490186
aF0.0
aF0.0
aF0.0
aF0.0
aF0.0
aF0.0
aF0.0
aF0.0
aF0.0
aF0.0
aF0.0
aF0.0
aF0.0
aF0.0
aF0.0
aF0.0
aF0.0
aF0.0
aF0.0
aF0.0
aF0.0
aF0.0
aF0.0
aF0.0
aF0.0
aF0.0
asS'Bacteria.Campilobacterota.Campylobacteria.Campylobacterales'
p485
(lp486
F0.0
aF0.0
aF0.0
aF0.0
aF0.0
aF0.0
aF0.0
aF0.0
aF0.0
aF0.0
aF0.0
aF2293.992269065423
aF0.0
aF0.0
aF0.0
aF0.0
aF17.596295728373523
aF0.0
aF0.0
aF0.0
aF0.0
aF0.0
aF38.39150560515982
aF0.0
aF0.0
aF66.30357565711579
aF0.0
aF327.1345529580512
aF0.0
aF0.0
aF0.0
aF0.0
aF0.0
aF193.70668503293015
aF0.0
aF0.0
aF639.498432601881
aF458.662997362688
asS'Bacteria.Firmicutes.Clostridia.Oscillospirales.Oscillospiraceae.Intestinimonas'
p487
(lp488
F0.0
aF0.0
aF0.0
aF0.0
aF0.0
aF0.0
aF0.0
aF0.0
aF0.0
aF0.0
aF0.0
aF0.0
aF0.0
aF0.0
aF0.0
aF0.0
aF0.0
aF0.0
aF0.0
aF89.42715519444018
aF0.0
aF0.0
aF0.0
aF0.0
aF0.0
aF0.0
aF0.0
aF0.0
aF0.0
aF0.0
aF0.0
aF0.0
aF0.0
aF0.0
aF0.0
aF0.0
aF62.695924764890286
aF0.0
asS'Bacteria.Firmicutes.Bacilli.Staphylococcales'
p489
(lp490
F0.0
aF113.71217175086416
aF0.0
aF5711.911932703292
aF0.0
aF1618.7778227438287
aF0.0
aF0.0
aF0.0
aF0.0
aF0.0
aF903.1465626241823
aF1925.0368021741592
aF0.0
aF0.0
aF0.0
aF0.0
aF0.0
aF0.0
aF0.0
aF414.8148148148147
aF273.08685042768917
aF466.18256806265504
aF1638.2455879067695
aF0.0
aF0.0
aF25.371373479303305
aF1358.866604594982
aF0.0
aF0.0
aF0.0
aF0.0
aF0.0
aF0.0
aF0.0
aF0.0
aF0.0
aF76.44383289378132
asS'Bacteria.Firmicutes.Clostridia.Christensenellales.Christensenellaceae.Christensenellaceae_R_7_group'
p491
(lp492
F4338.039697155719
aF576.1416702043784
aF2037.6274836884224
aF41541.17769238757
aF30002.977963073263
aF3723.1889923108056
aF3853.6824076339617
aF0.0
aF4790.153221457346
aF783.8386717497417
aF525.4370873835774
aF13818.142408149988
aF21232.023553391464
aF1562.011871290222
aF0.0
aF0.0
aF80.44020904399325
aF279.75519268676874
aF281.3507412840333
aF144.7868226957603
aF0.0
aF0.0
aF148.0815216199022
aF74.46570854121681
aF1210.6106462524472
aF1733.364906464598
aF680.7985216946387
aF167014.77138327583
aF1635.0495159881839
aF3136.8102796674225
aF2515.395958018908
aF3998.8960793921688
aF1905.8815147305058
aF1334.4238302268523
aF177592.5224201086
aF0.0
aF0.0
aF2592.1408790345854
asS'Bacteria.Firmicutes.Clostridia.Clostridia.Hungateiclostridiaceae'
p493
(lp494
F0.0
aF0.0
aF0.0
aF0.0
aF0.0
aF0.0
aF0.0
aF0.0
aF0.0
aF0.0
aF0.0
aF0.0
aF0.0
aF0.0
aF0.0
aF0.0
aF0.0
aF0.0
aF0.0
aF0.0
aF0.0
aF0.0
aF0.0
aF0.0
aF0.0
aF0.0
aF0.0
aF0.0
aF0.0
aF0.0
aF0.0
aF112.644959982878
aF0.0
aF0.0
aF0.0
aF0.0
aF0.0
aF76.44383289378132
asS'Bacteria.Deferribacterota.Deferribacteres.Deferribacterales'
p495
(lp496
F0.0
aF0.0
aF0.0
aF0.0
aF0.0
aF0.0
aF0.0
aF0.0
aF0.0
aF409.73385114191046
aF0.0
aF0.0
aF0.0
aF0.0
aF0.0
aF250.5270704135239
aF233.7793575341054
aF0.0
aF135.3060816862145
aF0.0
aF0.0
aF0.0
aF87.75201281179388
aF0.0
aF676.5177140822499
aF0.0
aF0.0
aF0.0
aF0.0
aF125.97631645250694
aF0.0
aF67.58697598972681
aF0.0
aF0.0
aF0.0
aF0.0
aF0.0
aF0.0
asS'Bacteria.Proteobacteria.Gammaproteobacteria.Pseudomonadales.Moraxellaceae'
p497
(lp498
F0.0
aF0.0
aF0.0
aF0.0
aF0.0
aF0.0
aF2732.24043715847
aF0.0
aF82.47945944231192
aF53.44354580111875
aF0.0
aF0.0
aF0.0
aF669.4336591243808
aF0.0
aF0.0
aF27.65132185887268
aF0.0
aF0.0
aF0.0
aF0.0
aF0.0
aF82.26751201105677
aF0.0
aF0.0
aF0.0
aF0.0
aF1157.5530335438737
aF49.54695502994496
aF0.0
aF0.0
aF28.1612399957195
aF0.0
aF0.0
aF2084.122773777946
aF0.0
aF0.0
aF0.0
asS'Bacteria.Proteobacteria.Alphaproteobacteria.Sphingomonadales.Sphingomonadaceae'
p499
(lp500
F0.0
aF0.0
aF95.01889820308705
aF0.0
aF0.0
aF0.0
aF0.0
aF0.0
aF0.0
aF0.0
aF0.0
aF0.0
aF0.0
aF0.0
aF0.0
aF0.0
aF20.110052260998312
aF0.0
aF0.0
aF0.0
aF0.0
aF0.0
aF0.0
aF0.0
aF0.0
aF0.0
aF0.0
aF578.7765167719368
aF0.0
aF0.0
aF0.0
aF0.0
aF0.0
aF0.0
aF0.0
aF0.0
aF0.0
aF66.01967386281115
asS'Bacteria.Gemmatimonadota.Gemmatimonadetes.Gemmatimonadales.Gemmatimonadaceae.Roseisolibacter'
p501
(lp502
F0.0
aF0.0
aF0.0
aF0.0
aF0.0
aF0.0
aF0.0
aF2813.2992327365723
aF0.0
aF0.0
aF0.0
aF0.0
aF0.0
aF0.0
aF0.0
aF0.0
aF0.0
aF0.0
aF0.0
aF0.0
aF0.0
aF0.0
aF0.0
aF0.0
aF0.0
aF0.0
aF0.0
aF0.0
aF0.0
aF0.0
aF0.0
aF0.0
aF0.0
aF0.0
aF0.0
aF0.0
aF0.0
aF0.0
asS'Bacteria.Campilobacterota.Campylobacteria.Campylobacterales.Campylobacteraceae'
p503
(lp504
F0.0
aF0.0
aF0.0
aF0.0
aF0.0
aF0.0
aF0.0
aF0.0
aF0.0
aF0.0
aF0.0
aF0.0
aF0.0
aF0.0
aF0.0
aF0.0
aF0.0
aF0.0
aF0.0
aF0.0
aF0.0
aF0.0
aF0.0
aF0.0
aF0.0
aF0.0
aF0.0
aF327.1345529580512
aF0.0
aF0.0
aF0.0
aF0.0
aF0.0
aF0.0
aF0.0
aF0.0
aF0.0
aF0.0
asS'Bacteria.Firmicutes.Clostridia.Lachnospirales.Defluviitaleaceae'
p505
(lp506
F0.0
aF0.0
aF0.0
aF0.0
aF0.0
aF0.0
aF0.0
aF0.0
aF82.47945944231192
aF552.2499732782271
aF0.0
aF1282.4681189263388
aF0.0
aF0.0
aF0.0
aF0.0
aF50.27513065249578
aF0.0
aF133.15836610389363
aF0.0
aF518.5185185185184
aF0.0
aF43.87600640589694
aF385.86776244085075
aF106.81858643403945
aF644.0918778119818
aF114.17118065686488
aF0.0
aF545.0165053293946
aF1662.8873771730914
aF0.0
aF782.8824718810022
aF0.0
aF215.22965003658905
aF0.0
aF0.0
aF0.0
aF45.171355800870785
asS'Bacteria.Firmicutes.Clostridia.Lachnospirales.Lachnospiraceae.Acetatifactor'
p507
(lp508
F0.0
aF0.0
aF443.4215249477396
aF0.0
aF0.0
aF0.0
aF0.0
aF0.0
aF348.95155917901195
aF0.0
aF0.0
aF0.0
aF0.0
aF0.0
aF0.0
aF316.04953498321476
aF0.0
aF0.0
aF227.65785172601173
aF0.0
aF0.0
aF0.0
aF0.0
aF0.0
aF614.2068719957268
aF123.13521193464359
aF0.0
aF0.0
aF92.90054068114681
aF0.0
aF0.0
aF337.93487994863403
aF0.0
aF0.0
aF0.0
aF0.0
aF0.0
aF0.0
asS'Bacteria.Proteobacteria.Alphaproteobacteria.Rickettsiales.Mitochondria.Mitochondria'
p509
(lp510
F0.0
aF0.0
aF0.0
aF0.0
aF0.0
aF0.0
aF0.0
aF0.0
aF0.0
aF0.0
aF0.0
aF0.0
aF0.0
aF0.0
aF0.0
aF0.0
aF0.0
aF0.0
aF0.0
aF0.0
aF0.0
aF0.0
aF76.78301121031964
aF0.0
aF0.0
aF0.0
aF0.0
aF0.0
aF0.0
aF0.0
aF0.0
aF90.11596798630241
aF0.0
aF0.0
aF0.0
aF0.0
aF0.0
aF0.0
asS'Bacteria.Firmicutes.Bacilli.Acholeplasmatales.Acholeplasmataceae'
p511
(lp512
F0.0
aF0.0
aF0.0
aF0.0
aF297.79630732578926
aF0.0
aF61.16956202593589
aF0.0
aF0.0
aF0.0
aF0.0
aF252.88103753477102
aF0.0
aF0.0
aF0.0
aF0.0
aF1337.3184753563878
aF0.0
aF0.0
aF0.0
aF0.0
aF0.0
aF0.0
aF0.0
aF364.96350364963473
aF104.19133317546765
aF29.599935725853857
aF0.0
aF371.60216272458723
aF0.0
aF0.0
aF0.0
aF213.74372127818754
aF0.0
aF1705.1913603637743
aF0.0
aF0.0
aF0.0
asS'Bacteria.Elusimicrobiota.Elusimicrobia.Elusimicrobiales.Elusimicrobiaceae.Elusimicrobium'
p513
(lp514
F0.0
aF0.0
aF0.0
aF0.0
aF0.0
aF0.0
aF0.0
aF0.0
aF0.0
aF0.0
aF0.0
aF0.0
aF0.0
aF0.0
aF0.0
aF0.0
aF0.0
aF0.0
aF0.0
aF0.0
aF0.0
aF0.0
aF0.0
aF0.0
aF0.0
aF0.0
aF0.0
aF0.0
aF0.0
aF0.0
aF0.0
aF0.0
aF0.0
aF0.0
aF0.0
aF0.0
aF91.95402298850574
aF191.10958223445334
asS'Bacteria.Elusimicrobiota.Elusimicrobia.Elusimicrobiales.Elusimicrobiaceae'
p515
(lp516
F0.0
aF0.0
aF0.0
aF0.0
aF0.0
aF0.0
aF0.0
aF0.0
aF0.0
aF0.0
aF0.0
aF0.0
aF0.0
aF0.0
aF0.0
aF0.0
aF0.0
aF0.0
aF0.0
aF0.0
aF0.0
aF0.0
aF0.0
aF0.0
aF0.0
aF0.0
aF0.0
aF0.0
aF0.0
aF0.0
aF0.0
aF0.0
aF0.0
aF0.0
aF0.0
aF0.0
aF91.95402298850574
aF191.10958223445334
asS'Bacteria.Firmicutes.Clostridia.Clostridia_UCG_014.Clostridia_UCG_014.Clostridia_UCG_014'
p517
(lp518
F237773.68528749744
aF57091.09103038387
aF98925.23068476951
aF69996.88441167306
aF280151.8761167362
aF268069.607446378
aF36416.2792594405
aF61636.82864450126
aF92465.81860863493
aF223002.10211280148
aF53865.77624854868
aF334380.9833459772
aF131185.59619522138
aF97023.25166242692
aF74632.09530483534
aF5673.47457921088
aF35.192591456747046
aF0.0
aF9598.140937391947
aF0.0
aF488.88888888888874
aF0.0
aF394.8840576530725
aF1570.5494892329361
aF11527.505786006757
aF71001.65758939141
aF22796.17907115402
aF275044.6664485769
aF35741.93468472655
aF116036.78508440412
aF176627.05640847713
aF70611.49316526708
aF52010.9721776923
aF71284.0600921183
aF166287.7352532525
aF80449.57113280096
aF8.359456635318704
aF175469.86896832107
asS'Bacteria.Chloroflexi.Chloroflexia'
p519
(lp520
F0.0
aF0.0
aF0.0
aF0.0
aF0.0
aF0.0
aF0.0
aF0.0
aF0.0
aF0.0
aF0.0
aF0.0
aF0.0
aF0.0
aF0.0
aF0.0
aF0.0
aF0.0
aF0.0
aF0.0
aF0.0
aF0.0
aF0.0
aF0.0
aF0.0
aF0.0
aF0.0
aF0.0
aF179.6077119835505
aF0.0
aF0.0
aF0.0
aF0.0
aF0.0
aF0.0
aF0.0
aF0.0
aF0.0
asS'Bacteria.Acidobacteriota.Blastocatellia.Blastocatellales.Blastocatellaceae.Blastocatella'
p521
(lp522
F0.0
aF0.0
aF0.0
aF0.0
aF0.0
aF0.0
aF0.0
aF0.0
aF0.0
aF0.0
aF0.0
aF0.0
aF0.0
aF0.0
aF0.0
aF0.0
aF0.0
aF0.0
aF0.0
aF0.0
aF0.0
aF0.0
aF0.0
aF0.0
aF0.0
aF0.0
aF0.0
aF377.4629457208283
aF0.0
aF0.0
aF0.0
aF0.0
aF0.0
aF0.0
aF0.0
aF0.0
aF0.0
aF0.0
asS'Bacteria.Actinobacteriota.Coriobacteriia.Coriobacteriales.Atopobiaceae.Coriobacteriaceae_UCG_002'
p523
(lp524
F6128.504194802537
aF742.9195221056459
aF1541.41768196119
aF3219.4412711600376
aF0.0
aF3804.127883447997
aF0.0
aF0.0
aF8305.047108460487
aF3705.4191755442334
aF3847.555446324906
aF3558.397456739278
aF679.4247537085269
aF12987.012987012988
aF5606.166783461809
aF0.0
aF80.44020904399325
aF0.0
aF90.20405445747635
aF0.0
aF429.6296296296295
aF0.0
aF1595.989733014501
aF1733.0201260501365
aF0.0
aF634.619938432394
aF0.0
aF0.0
aF0.0
aF0.0
aF0.0
aF281.612399957195
aF0.0
aF0.0
aF0.0
aF0.0
aF41.797283176593524
aF767.9130486148033
asS'Bacteria.Campilobacterota.Campylobacteria.Campylobacterales.Campylobacteraceae.Campylobacter'
p525
(lp526
F0.0
aF0.0
aF0.0
aF0.0
aF0.0
aF0.0
aF0.0
aF0.0
aF0.0
aF0.0
aF0.0
aF0.0
aF0.0
aF0.0
aF0.0
aF0.0
aF0.0
aF0.0
aF0.0
aF0.0
aF0.0
aF0.0
aF0.0
aF0.0
aF0.0
aF0.0
aF0.0
aF327.1345529580512
aF0.0
aF0.0
aF0.0
aF0.0
aF0.0
aF0.0
aF0.0
aF0.0
aF0.0
aF0.0
asS'Bacteria.Proteobacteria.Gammaproteobacteria.Pasteurellales.Pasteurellaceae'
p527
(lp528
F0.0
aF0.0
aF0.0
aF0.0
aF670.0416914830257
aF1375.9611493322543
aF0.0
aF0.0
aF285.50582114646437
aF0.0
aF0.0
aF0.0
aF0.0
aF669.4336591243808
aF0.0
aF104.06509078715608
aF47.76137411987099
aF0.0
aF51.54517397570076
aF0.0
aF0.0
aF0.0
aF0.0
aF0.0
aF356.06195478013154
aF824.0587260241533
aF0.0
aF1786.6579430785873
aF222.96129763475233
aF0.0
aF0.0
aF0.0
aF0.0
aF1205.2860402048989
aF0.0
aF0.0
aF1391.8495297805641
aF667.1461779820916
asS'Bacteria.Firmicutes.Clostridia.Lachnospirales.Lachnospiraceae._Bacteroides__pectinophilus_group'
p529
(lp530
F0.0
aF409.363818303111
aF0.0
aF0.0
aF1042.2870756402624
aF1133.14447592068
aF0.0
aF0.0
aF2867.747359071153
aF0.0
aF0.0
aF0.0
aF0.0
aF0.0
aF0.0
aF0.0
aF0.0
aF0.0
aF0.0
aF0.0
aF0.0
aF0.0
aF0.0
aF0.0
aF0.0
aF0.0
aF706.169895173942
aF0.0
aF898.0385599177524
aF0.0
aF925.2031109954605
aF0.0
aF0.0
aF817.8726701390384
aF821.0180623973727
aF4732.327713694173
aF0.0
aF1174.4552508226404
asS'Bacteria.Desulfobacterota.Desulfovibrionia.Desulfovibrionales.Desulfovibrionaceae.uncultured'
p531
(lp532
F0.0
aF0.0
aF0.0
aF0.0
aF0.0
aF0.0
aF0.0
aF0.0
aF0.0
aF0.0
aF0.0
aF0.0
aF0.0
aF0.0
aF0.0
aF0.0
aF0.0
aF0.0
aF0.0
aF0.0
aF0.0
aF0.0
aF0.0
aF0.0
aF0.0
aF0.0
aF0.0
aF0.0
aF0.0
aF0.0
aF0.0
aF0.0
aF0.0
aF0.0
aF0.0
aF0.0
aF2624.8693834900732
aF208.4831806194036
asS'Bacteria.Firmicutes.Clostridia.Monoglobales.Monoglobaceae.Monoglobus'
p533
(lp534
F7806.425209740127
aF4017.8300685305335
aF9290.736713190734
aF2284.764773081317
aF0.0
aF78106.02994738972
aF1957.4259848299484
aF26086.956521739125
aF0.0
aF195.95966793743543
aF67.79833385594547
aF11506.08720783208
aF14267.919827879065
aF30213.772481813718
aF7358.093903293624
aF898.0431908669395
aF0.0
aF2948.189338314409
aF281.3507412840333
aF1984.4311581242441
aF533.3333333333333
aF392.01176916232805
aF8500.976241142533
aF676.9609867383346
aF5162.898344311907
aF9595.074591522613
aF54.971309205157155
aF60192.75774428142
aF16660.16362881899
aF340.1360544217687
aF1040.853499869893
aF168.96743997431702
aF0.0
aF2087.7276053549135
aF35240.621447518
aF23070.0976042591
aF0.0
aF2265.5172293975193
asS'Bacteria.Actinobacteriota.Coriobacteriia.Coriobacteriales.Eggerthellaceae'
p535
(lp536
F1943.9328831594023
aF2600.2183273697606
aF4381.426972697903
aF5504.206044241354
aF8636.092912447888
aF7203.561311210037
aF13701.981893809641
aF0.0
aF1814.5481077308625
aF9388.249545729863
aF6491.690466706779
aF10440.374263935546
aF4586.117087532556
aF6381.934216985764
aF16117.729502452701
aF96.35656554366304
aF208.6417922078575
aF55.95103853735375
aF279.2030257017125
aF55.35966750132012
aF0.0
aF57.2601460574187
aF455.21356646118073
aF0.0
aF400.56969912764794
aF975.6097560975608
aF202.97098783442644
aF25667.480309016326
aF204.38118949852296
aF251.95263290501387
aF3122.560499609679
aF360.46387194520963
aF213.74372127818754
aF4821.1441608195955
aF17557.155488189972
aF0.0
aF422.15256008359455
aF726.2164124909226
asS'Bacteria.Firmicutes.Bacilli.Lactobacillales.Enterococcaceae'
p537
(lp538
F0.0
aF0.0
aF0.0
aF0.0
aF0.0
aF0.0
aF0.0
aF0.0
aF0.0
aF0.0
aF0.0
aF0.0
aF0.0
aF0.0
aF0.0
aF0.0
aF0.0
aF154.94133748805655
aF0.0
aF0.0
aF0.0
aF0.0
aF0.0
aF0.0
aF0.0
aF0.0
aF0.0
aF0.0
aF0.0
aF0.0
aF0.0
aF0.0
aF0.0
aF0.0
aF0.0
aF0.0
aF79.41483803552768
aF0.0
asS'Bacteria.Firmicutes.Clostridia.Lachnospirales.Lachnospiraceae._Eubacterium__ruminantium_group'
p539
(lp540
F399.01780233271944
aF4055.7341257808216
aF1858.147342638147
aF0.0
aF0.0
aF0.0
aF0.0
aF0.0
aF50141.16676712239
aF14322.870274699824
aF18542.844309601085
aF0.0
aF0.0
aF0.0
aF0.0
aF0.0
aF0.0
aF0.0
aF0.0
aF0.0
aF0.0
aF0.0
aF0.0
aF0.0
aF2038.454691116253
aF58006.15676059672
aF3636.563532033474
aF0.0
aF0.0
aF0.0
aF0.0
aF0.0
aF0.0
aF98166.24338168827
aF0.0
aF0.0
aF0.0
aF0.0
asS'Bacteria.Proteobacteria.Gammaproteobacteria.Burkholderiales.Comamonadaceae.Comamonas'
p541
(lp542
F0.0
aF189.52028625144027
aF263.94138389746405
aF0.0
aF20026.801667659325
aF0.0
aF0.0
aF0.0
aF0.0
aF0.0
aF0.0
aF325.1327625447056
aF0.0
aF0.0
aF0.0
aF0.0
aF0.0
aF0.0
aF0.0
aF0.0
aF0.0
aF0.0
aF0.0
aF0.0
aF0.0
aF0.0
aF0.0
aF0.0
aF0.0
aF214.15973796926178
aF0.0
aF0.0
aF0.0
aF0.0
aF1642.0361247947453
aF0.0
aF0.0
aF0.0
asS'Bacteria.Proteobacteria.Gammaproteobacteria.Burkholderiales.Alcaligenaceae'
p543
(lp544
F102.31225700838961
aF75.8081145005761
aF179.48014105027556
aF0.0
aF3499.1066110780234
aF0.0
aF1121.4419704754914
aF0.0
aF158.6143450813691
aF249.40321373855417
aF177.97062637185687
aF0.0
aF0.0
aF892.578212165841
aF0.0
aF0.0
aF0.0
aF0.0
aF0.0
aF34.06748769312007
aF0.0
aF79.28327915642589
aF0.0
aF0.0
aF0.0
aF47.35969689793984
aF0.0
aF956.2394624927651
aF0.0
aF0.0
aF0.0
aF0.0
aF0.0
aF0.0
aF0.0
aF0.0
aF0.0
aF284.92701351318493
asS'Bacteria.Firmicutes.Clostridia.Lachnospirales.Lachnospiraceae.Robinsoniella'
p545
(lp546
F0.0
aF0.0
aF0.0
aF0.0
aF0.0
aF0.0
aF0.0
aF0.0
aF0.0
aF0.0
aF0.0
aF0.0
aF0.0
aF0.0
aF0.0
aF0.0
aF0.0
aF0.0
aF0.0
aF0.0
aF0.0
aF0.0
aF0.0
aF0.0
aF0.0
aF0.0
aF0.0
aF0.0
aF0.0
aF0.0
aF0.0
aF0.0
aF0.0
aF0.0
aF0.0
aF0.0
aF117.03239289446186
aF0.0
asS'Bacteria.Bacteroidota.Bacteroidia.Flavobacteriales'
p547
(lp548
F0.0
aF0.0
aF0.0
aF0.0
aF0.0
aF0.0
aF1243.7810945273632
aF0.0
aF0.0
aF0.0
aF0.0
aF252.88103753477102
aF0.0
aF0.0
aF0.0
aF0.0
aF0.0
aF0.0
aF0.0
aF0.0
aF0.0
aF0.0
aF0.0
aF0.0
aF0.0
aF0.0
aF0.0
aF0.0
aF0.0
aF0.0
aF0.0
aF0.0
aF0.0
aF0.0
aF0.0
aF0.0
aF0.0
aF0.0
asS'Bacteria.Firmicutes.Bacilli'
p549
(lp550
F143.23715981174547
aF1425.1925526108307
aF654.5746320657108
aF934.6764980787206
aF0.0
aF0.0
aF1427.2897806051708
aF0.0
aF0.0
aF1086.6854312894145
aF1262.7439680669845
aF559.950868826993
aF736.0434831842374
aF847.949301557549
aF0.0
aF1807.6491695991185
aF4308.578696918888
aF4105.9454434334975
aF2804.91655051105
aF5821.281959561892
aF1318.5185185185182
aF1435.908278055269
aF6181.032402430731
aF2288.128135175571
aF0.0
aF899.834241060857
aF2422.9661672734655
aF4353.40597398022
aF23664.864396177465
aF8654.572940287226
aF23448.116344291204
aF6848.813566958983
aF3918.6348901001056
aF3379.1055055744487
aF27977.769357079702
aF10943.507837917776
aF1722.0480668756531
aF1758.2081565569706
asS'Bacteria.Firmicutes.Clostridia.Peptostreptococcales_Tissierellales.Anaerovoracaceae._Eubacterium__nodatum_group'
p551
(lp552
F971.9664415797013
aF0.0
aF0.0
aF0.0
aF0.0
aF0.0
aF0.0
aF0.0
aF0.0
aF0.0
aF0.0
aF415.4474188071238
aF0.0
aF0.0
aF0.0
aF84.79377767842347
aF0.0
aF0.0
aF236.24871405529515
aF0.0
aF0.0
aF246.65909070888054
aF71.29851040958252
aF142.16180721505026
aF988.0719245148649
aF644.0918778119818
aF773.8268911187508
aF0.0
aF402.56900961830286
aF1499.1181657848324
aF1850.406221990921
aF0.0
aF0.0
aF1334.4238302268523
aF0.0
aF0.0
aF0.0
aF479.5113154246283
asS'Bacteria.Proteobacteria.Gammaproteobacteria.Burkholderiales.Oxalobacteraceae.Massilia'
p553
(lp554
F0.0
aF0.0
aF0.0
aF0.0
aF0.0
aF0.0
aF0.0
aF13043.478260869562
aF0.0
aF0.0
aF0.0
aF0.0
aF0.0
aF0.0
aF0.0
aF0.0
aF0.0
aF0.0
aF0.0
aF0.0
aF0.0
aF0.0
aF0.0
aF0.0
aF0.0
aF0.0
aF0.0
aF0.0
aF0.0
aF0.0
aF0.0
aF0.0
aF0.0
aF0.0
aF0.0
aF0.0
aF0.0
aF0.0
asS'Bacteria.Proteobacteria.Alphaproteobacteria.Sphingomonadales'
p555
(lp556
F0.0
aF0.0
aF95.01889820308705
aF0.0
aF0.0
aF0.0
aF0.0
aF0.0
aF0.0
aF0.0
aF0.0
aF0.0
aF0.0
aF0.0
aF0.0
aF0.0
aF20.110052260998312
aF0.0
aF0.0
aF0.0
aF0.0
aF0.0
aF0.0
aF0.0
aF0.0
aF0.0
aF0.0
aF578.7765167719368
aF0.0
aF0.0
aF0.0
aF0.0
aF0.0
aF0.0
aF0.0
aF0.0
aF0.0
aF66.01967386281115
asS'Bacteria.Bacteroidota.Bacteroidia.Flavobacteriales.Weeksellaceae.Chryseobacterium'
p557
(lp558
F0.0
aF0.0
aF0.0
aF0.0
aF0.0
aF0.0
aF1243.7810945273632
aF0.0
aF0.0
aF0.0
aF0.0
aF252.88103753477102
aF0.0
aF0.0
aF0.0
aF0.0
aF0.0
aF0.0
aF0.0
aF0.0
aF0.0
aF0.0
aF0.0
aF0.0
aF0.0
aF0.0
aF0.0
aF0.0
aF0.0
aF0.0
aF0.0
aF0.0
aF0.0
aF0.0
aF0.0
aF0.0
aF0.0
aF0.0
asS'Bacteria.Firmicutes.Clostridia.Clostridiales'
p559
(lp560
F60394.925312052386
aF433667.8998119957
aF235425.15678118204
aF402326.3059507737
aF18761.167361524724
aF16997.1671388102
aF659897.2351357965
aF15089.514066496162
aF25594.010722329716
aF189920.547261909
aF293854.92851513164
aF10295.870813915679
aF14947.34458158759
aF1606.640781898514
aF0.0
aF0.0
aF22.623808793623102
aF0.0
aF0.0
aF0.0
aF0.0
aF0.0
aF290.6785424390672
aF0.0
aF35.60619547801315
aF7444.944352356144
aF1488.4539107857938
aF11827.172299252621
aF371.6021627245872
aF100.78105316200555
aF0.0
aF822.3082078750095
aF0.0
aF0.0
aF48503.22091701402
aF3253.4753031647447
aF1028.2131661442006
aF20546.01745004223
asS'Bacteria.Firmicutes.Negativicutes.Veillonellales_Selenomonadales'
p561
(lp562
F0.0
aF0.0
aF0.0
aF0.0
aF0.0
aF0.0
aF0.0
aF0.0
aF0.0
aF0.0
aF0.0
aF0.0
aF0.0
aF0.0
aF0.0
aF0.0
aF0.0
aF0.0
aF0.0
aF0.0
aF0.0
aF0.0
aF0.0
aF0.0
aF0.0
aF0.0
aF0.0
aF0.0
aF0.0
aF0.0
aF0.0
aF0.0
aF0.0
aF0.0
aF0.0
aF0.0
aF7619.644723092999
aF1198.778288561571
asS'Bacteria.Firmicutes.Clostridia.Oscillospirales._Clostridium__methylpentosum_group._Clostridium__methylpentosum_group'
p563
(lp564
F0.0
aF0.0
aF0.0
aF0.0
aF0.0
aF0.0
aF0.0
aF0.0
aF0.0
aF0.0
aF0.0
aF0.0
aF0.0
aF0.0
aF0.0
aF69.37672719143738
aF0.0
aF0.0
aF0.0
aF0.0
aF0.0
aF0.0
aF0.0
aF0.0
aF0.0
aF0.0
aF0.0
aF0.0
aF0.0
aF0.0
aF0.0
aF0.0
aF0.0
aF0.0
aF0.0
aF0.0
aF0.0
aF0.0
asS'Bacteria.Actinobacteriota.Actinobacteria.Pseudonocardiales.Pseudonocardiaceae.Saccharopolyspora'
p565
(lp566
F0.0
aF0.0
aF0.0
aF0.0
aF0.0
aF0.0
aF0.0
aF0.0
aF0.0
aF0.0
aF0.0
aF0.0
aF0.0
aF31998.928906145396
aF0.0
aF0.0
aF0.0
aF0.0
aF0.0
aF0.0
aF0.0
aF0.0
aF0.0
aF0.0
aF0.0
aF0.0
aF0.0
aF0.0
aF0.0
aF0.0
aF0.0
aF0.0
aF0.0
aF0.0
aF0.0
aF0.0
aF0.0
aF0.0
asS'Bacteria.Proteobacteria.Gammaproteobacteria.Burkholderiales.Sutterellaceae'
p567
(lp568
F1064.047472887252
aF0.0
aF0.0
aF0.0
aF2829.0649195949977
aF0.0
aF0.0
aF0.0
aF107.85775465533098
aF0.0
aF0.0
aF469.63621256457475
aF0.0
aF7988.574998884277
aF0.0
aF616.6820194794434
aF37369.504614000114
aF4966.730651700478
aF6419.521875557066
aF5697.787316674332
aF903.7037037037035
aF3484.0596562629376
aF257.7715376346445
aF1299.7650945376024
aF1664.5896385971148
aF1629.1735732891307
aF4059.419756688529
aF578.7765167719368
aF4180.524330651607
aF1725.875535399345
aF0.0
aF3328.658567494045
aF2208.685119874605
aF430.4593000731781
aF0.0
aF0.0
aF5396.029258098223
aF1598.371051415428
asS'Bacteria.Firmicutes.Clostridia.Lachnospirales.Lachnospiraceae.Coprococcus'
p569
(lp570
F0.0
aF0.0
aF0.0
aF0.0
aF0.0
aF0.0
aF0.0
aF0.0
aF0.0
aF0.0
aF0.0
aF0.0
aF0.0
aF4239.746507787745
aF4905.3959355290835
aF0.0
aF0.0
aF0.0
aF0.0
aF0.0
aF0.0
aF0.0
aF0.0
aF0.0
aF0.0
aF0.0
aF0.0
aF7373.109539746846
aF359.215423967101
aF0.0
aF0.0
aF0.0
aF0.0
aF0.0
aF5620.815965643552
aF0.0
aF0.0
aF0.0
asS'Bacteria.Proteobacteria.Gammaproteobacteria.Burkholderiales.Burkholderiaceae.Burkholderia_Caballeronia_Paraburkholderia'
p571
(lp572
F1534.683855125844
aF4525.7444356843935
aF2280.4535568740894
aF4777.235434624572
aF12805.241215008937
aF1618.7778227438287
aF4159.530217763641
aF0.0
aF793.0717254068454
aF2102.112801510671
aF1872.9289727704938
aF2546.873306600194
aF6058.204053901031
aF3793.4574017048244
aF10161.17729502453
aF107.9193534089026
aF384.6047494915927
aF133.42170728138203
aF92.3517700397972
aF0.0
aF0.0
aF110.11566549503597
aF537.4810784722375
aF135.39219734766692
aF106.81858643403945
aF378.87757518351873
aF241.0280480533814
aF12607.262387075667
aF247.73477514972478
aF982.6152683295539
aF1966.0566108653534
aF78.8514719880146
aF0.0
aF0.0
aF5810.281672350638
aF0.0
aF171.36886102403344
aF267.5534151282347
asS'Bacteria.Gemmatimonadota.Gemmatimonadetes.Gemmatimonadales.Gemmatimonadaceae'
p573
(lp574
F0.0
aF0.0
aF0.0
aF0.0
aF0.0
aF0.0
aF0.0
aF2813.2992327365723
aF0.0
aF0.0
aF0.0
aF0.0
aF0.0
aF0.0
aF0.0
aF0.0
aF0.0
aF0.0
aF0.0
aF0.0
aF0.0
aF0.0
aF0.0
aF0.0
aF0.0
aF0.0
aF0.0
aF0.0
aF0.0
aF0.0
aF0.0
aF0.0
aF0.0
aF0.0
aF0.0
aF0.0
aF0.0
aF0.0
asS'Bacteria.Firmicutes.Clostridia.Lachnospirales'
p575
(lp576
F23460.200532023737
aF52133.24034204619
aF71274.73130767119
aF52134.17800394641
aF100357.35556879097
aF135572.64265479564
aF10296.876274365875
aF88746.80306905368
aF356444.50084065594
aF99547.51131221718
aF106333.21186131846
aF290614.50092120934
aF37594.836371871825
aF287722.5866916588
aF250175.19271198325
aF189645.13804041583
aF13637.129189489482
aF22087.748444130724
aF18137.458092699708
aF15892.483008840514
aF17155.55555555555
aF79181.97274417046
aF139629.90588596626
aF18372.7211800784
aF238330.06943208099
aF178044.04451811506
aF36484.035063238145
aF96555.02151538788
aF92987.24785244922
aF75069.28697404888
aF89282.10021106193
aF129536.07173231053
aF79209.86071034167
aF210666.78145581338
aF59429.07667045598
aF142265.6018929311
aF108585.16196447233
aF31508.75803094586
asS'Bacteria.Firmicutes.Clostridia.Peptococcales.Peptococcaceae.uncultured'
p577
(lp578
F153.4683855125844
aF242.58596640184356
aF211.15310711797125
aF0.0
aF0.0
aF0.0
aF0.0
aF0.0
aF1072.2329727500548
aF0.0
aF279.6681271557751
aF776.7060438567967
aF0.0
aF847.949301557549
aF0.0
aF1796.086381733879
aF163.3941746206113
aF215.19630206674518
aF599.2126474675214
aF225.69710596692047
aF0.0
aF1131.9890412889697
aF614.2640896825571
aF318.17166376701726
aF3533.914901192805
aF4442.339569026757
aF7036.327578260116
aF226.477767432497
aF780.3645417216331
aF579.4910556815319
aF433.6889582791221
aF6730.536358976961
aF2778.6683766164383
aF516.5511600878139
aF1326.259946949602
aF0.0
aF0.0
aF208.4831806194036
asS'Archaea.Euryarchaeota.Methanobacteria'
p579
(lp580
F0.0
aF0.0
aF0.0
aF0.0
aF0.0
aF0.0
aF0.0
aF0.0
aF0.0
aF0.0
aF0.0
aF0.0
aF0.0
aF0.0
aF0.0
aF0.0
aF0.0
aF0.0
aF0.0
aF0.0
aF0.0
aF0.0
aF0.0
aF0.0
aF0.0
aF0.0
aF0.0
aF0.0
aF0.0
aF0.0
aF0.0
aF0.0
aF0.0
aF0.0
aF0.0
aF0.0
aF83.59456635318705
aF462.1377170396781
asS'Bacteria.Firmicutes.Clostridia.Oscillospirales.Ruminococcaceae.Subdoligranulum'
p581
(lp582
F0.0
aF0.0
aF179.48014105027556
aF0.0
aF8189.398451459204
aF38445.97329016593
aF0.0
aF0.0
aF0.0
aF0.0
aF0.0
aF939.2724251291495
aF452.94983580568453
aF176551.97036640334
aF246671.33847231962
aF0.0
aF0.0
aF0.0
aF0.0
aF0.0
aF0.0
aF0.0
aF0.0
aF0.0
aF0.0
aF0.0
aF0.0
aF3472.6591006316207
aF656.4971541467708
aF0.0
aF0.0
aF0.0
aF0.0
aF0.0
aF0.0
aF0.0
aF0.0
aF48.64607547786085
asS'Bacteria.Firmicutes.Clostridia.Peptococcales.Peptococcaceae'
p583
(lp584
F153.4683855125844
aF242.58596640184356
aF211.15310711797125
aF0.0
aF0.0
aF0.0
aF81.5594160345812
aF0.0
aF1072.2329727500548
aF0.0
aF483.06312872361156
aF776.7060438567967
aF0.0
aF847.949301557549
aF0.0
aF1796.086381733879
aF163.3941746206113
aF215.19630206674518
aF599.2126474675214
aF225.69710596692047
aF0.0
aF1131.9890412889697
aF614.2640896825571
aF318.17166376701726
aF3863.272209364427
aF4442.339569026757
aF7036.327578260116
aF226.477767432497
aF891.8451905390093
aF579.4910556815319
aF433.6889582791221
aF6854.445814958127
aF2778.6683766164383
aF516.5511600878139
aF1326.259946949602
aF0.0
aF0.0
aF236.28093803532408
asS'Bacteria.Actinobacteriota.Coriobacteriia.Coriobacteriales.Atopobiaceae.uncultured'
p585
(lp586
F122.77470841006753
aF0.0
aF0.0
aF0.0
aF0.0
aF0.0
aF530.1362042247778
aF0.0
aF0.0
aF0.0
aF0.0
aF0.0
aF0.0
aF0.0
aF0.0
aF0.0
aF0.0
aF0.0
aF0.0
aF0.0
aF0.0
aF0.0
aF0.0
aF0.0
aF0.0
aF0.0
aF0.0
aF0.0
aF0.0
aF0.0
aF0.0
aF0.0
aF0.0
aF0.0
aF0.0
aF0.0
aF0.0
aF0.0
asS'Bacteria.Actinobacteriota.Actinobacteria.Corynebacteriales.Corynebacteriaceae'
p587
(lp588
F0.0
aF0.0
aF0.0
aF5919.6178211652295
aF0.0
aF0.0
aF0.0
aF0.0
aF0.0
aF0.0
aF0.0
aF0.0
aF0.0
aF0.0
aF0.0
aF0.0
aF0.0
aF0.0
aF0.0
aF0.0
aF0.0
aF0.0
aF0.0
aF372.328542706084
aF0.0
aF0.0
aF0.0
aF0.0
aF0.0
aF0.0
aF0.0
aF0.0
aF0.0
aF0.0
aF0.0
aF0.0
aF0.0
aF0.0
asS'Bacteria.Actinobacteriota.Coriobacteriia.Coriobacteriales.Eggerthellaceae.Adlercreutzia'
p589
(lp590
F1340.2905668099038
aF621.626538904724
aF1984.8392069089296
aF5504.206044241354
aF3275.759380583682
aF4451.639012545529
aF3853.6824076339617
aF0.0
aF799.4162992101002
aF5433.427156447074
aF4211.971490800613
aF8525.70355117228
aF0.0
aF5087.695809345294
aF16117.729502452701
aF0.0
aF160.8804180879865
aF0.0
aF137.45379726853537
aF55.35966750132012
aF0.0
aF0.0
aF0.0
aF0.0
aF400.56969912764794
aF824.0587260241533
aF202.97098783442644
aF8480.334180527941
aF0.0
aF0.0
aF780.6401249024198
aF360.46387194520963
aF0.0
aF4455.253755757394
aF3473.5379562965772
aF0.0
aF422.15256008359455
aF257.1292560972645
asS'Bacteria.Actinobacteriota.Actinobacteria.Pseudonocardiales'
p591
(lp592
F0.0
aF0.0
aF0.0
aF0.0
aF0.0
aF0.0
aF0.0
aF0.0
aF0.0
aF0.0
aF101.69750078391822
aF0.0
aF0.0
aF31998.928906145396
aF5255.781359495446
aF0.0
aF0.0
aF0.0
aF0.0
aF0.0
aF0.0
aF0.0
aF0.0
aF0.0
aF0.0
aF0.0
aF0.0
aF0.0
aF0.0
aF0.0
aF0.0
aF0.0
aF0.0
aF0.0
aF0.0
aF0.0
aF0.0
aF0.0
asS'Bacteria.Firmicutes.Clostridia.Oscillospirales.Ruminococcaceae.Ruminococcaceae'
p593
(lp594
F0.0
aF0.0
aF95.01889820308705
aF0.0
aF0.0
aF0.0
aF0.0
aF0.0
aF0.0
aF0.0
aF0.0
aF0.0
aF0.0
aF0.0
aF0.0
aF0.0
aF0.0
aF0.0
aF0.0
aF0.0
aF0.0
aF0.0
aF981.725643331944
aF0.0
aF80.11393982552958
aF0.0
aF0.0
aF0.0
aF0.0
aF163.769211388259
aF0.0
aF0.0
aF0.0
aF0.0
aF0.0
aF0.0
aF0.0
aF114.665749340672
asS'Bacteria.Proteobacteria.Alphaproteobacteria.Rhizobiales.Beijerinckiaceae.Microvirga'
p595
(lp596
F0.0
aF0.0
aF0.0
aF0.0
aF0.0
aF0.0
aF0.0
aF0.0
aF0.0
aF0.0
aF0.0
aF0.0
aF0.0
aF0.0
aF0.0
aF0.0
aF0.0
aF0.0
aF0.0
aF0.0
aF0.0
aF0.0
aF0.0
aF0.0
aF0.0
aF0.0
aF0.0
aF0.0
aF0.0
aF0.0
aF0.0
aF0.0
aF0.0
aF0.0
aF884.1732979664014
aF0.0
aF0.0
aF0.0
asS'Bacteria.Firmicutes.Negativicutes.Veillonellales_Selenomonadales.Veillonellaceae.Veillonella'
p597
(lp598
F0.0
aF0.0
aF0.0
aF0.0
aF0.0
aF0.0
aF0.0
aF0.0
aF0.0
aF0.0
aF0.0
aF0.0
aF0.0
aF0.0
aF0.0
aF0.0
aF0.0
aF0.0
aF0.0
aF0.0
aF0.0
aF0.0
aF0.0
aF0.0
aF0.0
aF0.0
aF0.0
aF0.0
aF0.0
aF0.0
aF0.0
aF0.0
aF0.0
aF0.0
aF0.0
aF0.0
aF522.4660397074191
aF152.88766578756264
asS'Bacteria.Proteobacteria.Alphaproteobacteria.Caulobacterales.Caulobacteraceae.Brevundimonas'
p599
(lp600
F0.0
aF0.0
aF0.0
aF0.0
aF967.837998808815
aF0.0
aF632.0854742680042
aF0.0
aF0.0
aF0.0
aF0.0
aF0.0
aF0.0
aF0.0
aF0.0
aF0.0
aF0.0
aF0.0
aF0.0
aF0.0
aF0.0
aF0.0
aF49.36050720663406
aF0.0
aF0.0
aF0.0
aF0.0
aF0.0
aF0.0
aF0.0
aF0.0
aF0.0
aF0.0
aF0.0
aF0.0
aF0.0
aF0.0
aF0.0
asS'Bacteria.Proteobacteria.Alphaproteobacteria.Rhodospirillales'
p601
(lp602
F0.0
aF0.0
aF0.0
aF0.0
aF0.0
aF0.0
aF0.0
aF0.0
aF0.0
aF0.0
aF0.0
aF0.0
aF0.0
aF0.0
aF0.0
aF0.0
aF693.7968030044418
aF0.0
aF11913.378335133839
aF0.0
aF0.0
aF0.0
aF0.0
aF0.0
aF133.5232330425493
aF0.0
aF334.05641747749354
aF0.0
aF0.0
aF0.0
aF0.0
aF174.59968797346093
aF0.0
aF0.0
aF0.0
aF0.0
aF1776.3845350052245
aF0.0
asS'Bacteria.Actinobacteriota.Actinobacteria.Micrococcales.Micrococcaceae.Rothia'
p603
(lp604
F0.0
aF341.13651525259246
aF0.0
aF0.0
aF0.0
aF0.0
aF0.0
aF0.0
aF0.0
aF0.0
aF0.0
aF415.4474188071238
aF0.0
aF0.0
aF0.0
aF0.0
aF0.0
aF8.607852082669806
aF0.0
aF0.0
aF0.0
aF0.0
aF0.0
aF0.0
aF0.0
aF0.0
aF71.88555819135937
aF1811.822139459976
aF0.0
aF0.0
aF0.0
aF90.11596798630241
aF0.0
aF0.0
aF1768.3465959328028
aF0.0
aF121.2121212121212
aF128.56462804863224
asS'Bacteria.Firmicutes.Bacilli.Erysipelotrichales.Erysipelatoclostridiaceae.Erysipelotrichaceae_UCG_003'
p605
(lp606
F0.0
aF0.0
aF0.0
aF1557.7941634645342
aF0.0
aF0.0
aF0.0
aF0.0
aF0.0
aF0.0
aF0.0
aF5455.005238250061
aF0.0
aF0.0
aF0.0
aF0.0
aF0.0
aF0.0
aF0.0
aF0.0
aF0.0
aF0.0
aF0.0
aF0.0
aF0.0
aF0.0
aF0.0
aF0.0
aF0.0
aF0.0
aF1243.24168040015
aF0.0
aF0.0
aF0.0
aF0.0
aF0.0
aF0.0
aF0.0
asS'Bacteria.Firmicutes.Clostridia.Eubacteriales.Eubacteriaceae.Eubacterium'
p607
(lp608
F0.0
aF0.0
aF0.0
aF0.0
aF0.0
aF0.0
aF0.0
aF0.0
aF0.0
aF0.0
aF0.0
aF0.0
aF0.0
aF0.0
aF0.0
aF0.0
aF0.0
aF0.0
aF0.0
aF0.0
aF0.0
aF0.0
aF0.0
aF0.0
aF0.0
aF0.0
aF0.0
aF0.0
aF0.0
aF0.0
aF0.0
aF0.0
aF0.0
aF0.0
aF0.0
aF0.0
aF91.95402298850574
aF0.0
asS'Bacteria.Firmicutes.Clostridia.Lachnospirales.Lachnospiraceae.Lachnospiraceae_NC2004_group'
p609
(lp610
F0.0
aF0.0
aF0.0
aF0.0
aF0.0
aF0.0
aF0.0
aF0.0
aF380.6744281952858
aF0.0
aF0.0
aF0.0
aF0.0
aF0.0
aF0.0
aF0.0
aF0.0
aF0.0
aF0.0
aF0.0
aF0.0
aF149.75730507324892
aF0.0
aF0.0
aF2866.2987359800586
aF16083.353066540372
aF0.0
aF0.0
aF0.0
aF781.053162005543
aF0.0
aF0.0
aF0.0
aF0.0
aF0.0
aF0.0
aF0.0
aF0.0
asS'Bacteria.Cyanobacteria.Cyanobacteriia.Chloroplast.Chloroplast'
p611
(lp612
F0.0
aF0.0
aF0.0
aF0.0
aF0.0
aF0.0
aF0.0
aF0.0
aF0.0
aF0.0
aF0.0
aF0.0
aF452.94983580568453
aF0.0
aF0.0
aF0.0
aF0.0
aF0.0
aF0.0
aF0.0
aF0.0
aF0.0
aF0.0
aF0.0
aF0.0
aF0.0
aF0.0
aF352.2987493394398
aF0.0
aF0.0
aF0.0
aF0.0
aF0.0
aF0.0
aF0.0
aF0.0
aF0.0
aF0.0
asS'Bacteria.Firmicutes.Bacilli.Staphylococcales.Staphylococcaceae.Staphylococcus'
p613
(lp614
F0.0
aF113.71217175086416
aF0.0
aF1765.5000519264722
aF0.0
aF1618.7778227438287
aF0.0
aF0.0
aF0.0
aF0.0
aF0.0
aF559.950868826993
aF1925.0368021741592
aF0.0
aF0.0
aF0.0
aF0.0
aF0.0
aF0.0
aF0.0
aF414.8148148148147
aF96.90178563563164
aF252.2870368339074
aF1056.059139311802
aF0.0
aF0.0
aF0.0
aF1358.866604594982
aF0.0
aF0.0
aF0.0
aF0.0
aF0.0
aF0.0
aF0.0
aF0.0
aF0.0
aF76.44383289378132
asS'Bacteria.Firmicutes.Bacilli.RF39.RF39.RF39'
p615
(lp616
F3314.9171270718234
aF1561.6471587118679
aF1784.243755146857
aF4257.970713469726
aF26950.565812983925
aF12221.772561715907
aF2079.7651088818207
aF2813.2992327365723
aF2334.803159597753
aF5682.8303701856275
aF7008.652762358363
aF3413.894006719409
aF13871.58872154909
aF1115.7227652073013
aF0.0
aF0.0
aF0.0
aF0.0
aF32.21573373481298
aF0.0
aF0.0
aF726.7633922672374
aF0.0
aF0.0
aF1032.5796688623814
aF1373.4312100402556
aF1277.0257984582665
aF19275.77442814363
aF1690.7898403968718
aF8012.09372637944
aF19891.8668864024
aF4928.2169992509125
aF854.9748851127501
aF24277.904524127247
aF11873.18428697739
aF0.0
aF41.797283176593524
aF6115.506631502507
asS'Bacteria.Firmicutes.Clostridia.Lachnospirales.Lachnospiraceae.Lachnospiraceae_UCG_010'
p617
(lp618
F0.0
aF0.0
aF0.0
aF0.0
aF0.0
aF0.0
aF0.0
aF0.0
aF0.0
aF0.0
aF0.0
aF0.0
aF0.0
aF0.0
aF0.0
aF219.69296943955172
aF0.0
aF0.0
aF0.0
aF0.0
aF0.0
aF118.92491873463884
aF0.0
aF0.0
aF106.81858643403945
aF0.0
aF0.0
aF0.0
aF43.35358565120184
aF0.0
aF0.0
aF0.0
aF0.0
aF0.0
aF0.0
aF0.0
aF0.0
aF0.0
asS'Bacteria.Firmicutes.Bacilli.Bacillales'
p619
(lp620
F0.0
aF0.0
aF0.0
aF0.0
aF0.0
aF0.0
aF0.0
aF0.0
aF0.0
aF0.0
aF0.0
aF0.0
aF0.0
aF0.0
aF0.0
aF0.0
aF0.0
aF0.0
aF0.0
aF0.0
aF0.0
aF0.0
aF0.0
aF0.0
aF0.0
aF0.0
aF0.0
aF931.0752661113764
aF0.0
aF0.0
aF0.0
aF0.0
aF0.0
aF0.0
aF0.0
aF0.0
aF0.0
aF79.9185525707714
asS'Bacteria.Firmicutes.Bacilli.Lactobacillales.Aerococcaceae.Aerococcus'
p621
(lp622
F0.0
aF0.0
aF0.0
aF1246.2353307716273
aF818.9398451459205
aF0.0
aF0.0
aF0.0
aF0.0
aF0.0
aF0.0
aF270.9439687872547
aF0.0
aF0.0
aF0.0
aF0.0
aF0.0
aF301.2748228934433
aF25.77258698785038
aF246.9892857751205
aF0.0
aF83.68790577622734
aF0.0
aF148.93141708243363
aF0.0
aF0.0
aF0.0
aF0.0
aF0.0
aF0.0
aF0.0
aF0.0
aF0.0
aF0.0
aF0.0
aF0.0
aF0.0
aF0.0
asS'Bacteria.Chloroflexi.Chloroflexia.Chloroflexales'
p623
(lp624
F0.0
aF0.0
aF0.0
aF0.0
aF0.0
aF0.0
aF0.0
aF0.0
aF0.0
aF0.0
aF0.0
aF0.0
aF0.0
aF0.0
aF0.0
aF0.0
aF0.0
aF0.0
aF0.0
aF0.0
aF0.0
aF0.0
aF0.0
aF0.0
aF0.0
aF0.0
aF0.0
aF0.0
aF179.6077119835505
aF0.0
aF0.0
aF0.0
aF0.0
aF0.0
aF0.0
aF0.0
aF0.0
aF0.0
asS'Bacteria.Firmicutes.Clostridia.Monoglobales'
p625
(lp626
F7806.425209740127
aF4017.8300685305335
aF9290.736713190734
aF2284.764773081317
aF0.0
aF78106.02994738972
aF1957.4259848299484
aF26086.956521739125
aF0.0
aF195.95966793743543
aF67.79833385594547
aF11506.08720783208
aF14267.919827879065
aF30213.772481813718
aF7358.093903293624
aF898.0431908669395
aF0.0
aF2948.189338314409
aF281.3507412840333
aF1984.4311581242441
aF533.3333333333333
aF392.01176916232805
aF8500.976241142533
aF676.9609867383346
aF5162.898344311907
aF9595.074591522613
aF54.971309205157155
aF60192.75774428142
aF16660.16362881899
aF340.1360544217687
aF1040.853499869893
aF168.96743997431702
aF0.0
aF2087.7276053549135
aF35240.621447518
aF23070.0976042591
aF0.0
aF2265.5172293975193
asS'Bacteria.Cyanobacteria.Vampirivibrionia.Gastranaerophilales'
p627
(lp628
F286.47431962349094
aF0.0
aF0.0
aF519.2647211548448
aF0.0
aF0.0
aF0.0
aF0.0
aF50.75659042603811
aF0.0
aF0.0
aF1318.593981431306
aF0.0
aF0.0
aF0.0
aF238.96428254828433
aF517.8338457207066
aF0.0
aF4744.3037213467915
aF0.0
aF814.8148148148146
aF0.0
aF164.53502402211353
aF440.0246413799175
aF293.7511126936085
aF0.0
aF744.2269553928969
aF2189.2850851808043
aF501.66291967819274
aF188.9644746787604
aF0.0
aF4404.41793533053
aF6358.87570802608
aF0.0
aF1073.6390046734875
aF0.0
aF0.0
aF111.19102966368193
asS'Bacteria.Proteobacteria.Alphaproteobacteria.Rickettsiales'
p629
(lp630
F0.0
aF0.0
aF0.0
aF0.0
aF0.0
aF0.0
aF0.0
aF0.0
aF0.0
aF0.0
aF0.0
aF0.0
aF0.0
aF0.0
aF0.0
aF0.0
aF0.0
aF0.0
aF0.0
aF0.0
aF0.0
aF0.0
aF76.78301121031964
aF0.0
aF0.0
aF0.0
aF0.0
aF0.0
aF0.0
aF0.0
aF0.0
aF90.11596798630241
aF0.0
aF0.0
aF0.0
aF0.0
aF0.0
aF0.0
asS'Bacteria.Actinobacteriota.Actinobacteria.Micrococcales'
p631
(lp632
F0.0
aF341.13651525259246
aF0.0
aF0.0
aF0.0
aF0.0
aF0.0
aF0.0
aF0.0
aF0.0
aF0.0
aF632.2025938369276
aF0.0
aF0.0
aF0.0
aF0.0
aF0.0
aF8.607852082669806
aF0.0
aF0.0
aF0.0
aF0.0
aF0.0
aF0.0
aF0.0
aF28.415818138763903
aF71.88555819135937
aF1811.822139459976
aF0.0
aF0.0
aF0.0
aF90.11596798630241
aF0.0
aF0.0
aF1768.3465959328028
aF0.0
aF121.2121212121212
aF128.56462804863224
asS'Bacteria.Chloroflexi.Anaerolineae.Anaerolineales.Anaerolineaceae.uncultured'
p633
(lp634
F0.0
aF0.0
aF0.0
aF0.0
aF0.0
aF0.0
aF0.0
aF0.0
aF0.0
aF0.0
aF0.0
aF0.0
aF452.94983580568453
aF0.0
aF0.0
aF0.0
aF0.0
aF0.0
aF0.0
aF0.0
aF0.0
aF0.0
aF0.0
aF0.0
aF0.0
aF0.0
aF0.0
aF0.0
aF0.0
aF0.0
aF0.0
aF0.0
aF0.0
aF0.0
aF0.0
aF0.0
aF0.0
aF0.0
asS'Bacteria.Firmicutes.Clostridia.Oscillospirales.Oscillospiraceae.NK4A214_group'
p635
(lp636
F4614.282791078371
aF0.0
aF0.0
aF0.0
aF0.0
aF7203.561311210037
aF0.0
aF0.0
aF8901.437045966433
aF320.6612748067125
aF796.6304228073593
aF5274.375925725224
aF3170.648850639792
aF2365.332262239479
aF0.0
aF53.9596767044513
aF60.33015678299494
aF223.804154149415
aF115.97664144532672
aF170.33743846560037
aF0.0
aF268.68222380788774
aF2939.692429195095
aF189.54907628673368
aF10886.594267402521
aF12616.623253611175
aF583.541590023976
aF1912.4789249855303
aF2050.005264363973
aF1133.7868480725624
aF375.8637638419058
aF5767.421951123354
aF3544.583377863277
aF2970.169170504929
aF0.0
aF0.0
aF0.0
aF4871.556987140065
asS'Bacteria.Desulfobacterota.Desulfovibrionia.Desulfovibrionales'
p637
(lp638
F0.0
aF0.0
aF0.0
aF1869.352996157441
aF4615.842763549734
aF0.0
aF0.0
aF0.0
aF0.0
aF0.0
aF0.0
aF11975.723420396656
aF14324.538557354774
aF0.0
aF0.0
aF0.0
aF0.0
aF0.0
aF0.0
aF0.0
aF0.0
aF0.0
aF0.0
aF0.0
aF0.0
aF0.0
aF0.0
aF0.0
aF1833.2373361079638
aF0.0
aF0.0
aF0.0
aF0.0
aF0.0
aF0.0
aF0.0
aF3724.137931034483
aF3408.700003127249
asS'Bacteria.Bacteroidota.Bacteroidia.Chitinophagales'
p639
(lp640
F0.0
aF0.0
aF0.0
aF0.0
aF0.0
aF0.0
aF0.0
aF0.0
aF0.0
aF0.0
aF0.0
aF0.0
aF849.2809421356585
aF0.0
aF0.0
aF0.0
aF0.0
aF0.0
aF0.0
aF0.0
aF0.0
aF0.0
aF0.0
aF0.0
aF0.0
aF0.0
aF0.0
aF0.0
aF0.0
aF0.0
aF0.0
aF0.0
aF0.0
aF0.0
aF0.0
aF0.0
aF0.0
aF0.0
asS'Bacteria.Firmicutes.Clostridia.Clostridiales.Clostridiaceae.Clostridium_sensu_stricto_1'
p641
(lp642
F60394.925312052386
aF433667.8998119957
aF235425.15678118204
aF402326.3059507737
aF18761.167361524724
aF16997.1671388102
aF659897.2351357965
aF15089.514066496162
aF24858.040161152167
aF189920.547261909
aF293854.92851513164
aF9699.794082583718
aF14947.34458158759
aF1606.640781898514
aF0.0
aF0.0
aF22.623808793623102
aF0.0
aF0.0
aF0.0
aF0.0
aF0.0
aF290.6785424390672
aF0.0
aF35.60619547801315
aF7444.944352356144
aF1488.4539107857938
aF11827.172299252621
aF111.48064881737616
aF100.78105316200555
aF0.0
aF822.3082078750095
aF0.0
aF0.0
aF48503.22091701402
aF3253.4753031647447
aF1028.2131661442006
aF20546.01745004223
asS'Bacteria.Firmicutes.Clostridia.Peptostreptococcales_Tissierellales'
p643
(lp644
F0.0
aF0.0
aF253.3837285415655
aF0.0
aF0.0
aF0.0
aF0.0
aF0.0
aF0.0
aF0.0
aF0.0
aF0.0
aF0.0
aF0.0
aF0.0
aF0.0
aF0.0
aF0.0
aF0.0
aF0.0
aF0.0
aF0.0
aF0.0
aF0.0
aF0.0
aF0.0
aF0.0
aF0.0
aF0.0
aF0.0
aF0.0
aF0.0
aF0.0
aF0.0
aF0.0
aF0.0
aF0.0
aF0.0
asS'Bacteria.Proteobacteria.Gammaproteobacteria.Enterobacterales.Erwiniaceae'
p645
(lp646
F0.0
aF0.0
aF0.0
aF0.0
aF0.0
aF0.0
aF0.0
aF0.0
aF0.0
aF0.0
aF0.0
aF0.0
aF0.0
aF0.0
aF0.0
aF0.0
aF0.0
aF0.0
aF0.0
aF0.0
aF0.0
aF0.0
aF0.0
aF0.0
aF0.0
aF0.0
aF0.0
aF0.0
aF0.0
aF138.57394809775764
aF0.0
aF0.0
aF0.0
aF0.0
aF0.0
aF0.0
aF0.0
aF0.0
asS'Bacteria.Actinobacteriota.Coriobacteriia.Coriobacteriales.Eggerthellaceae.Parvibacter'
p647
(lp648
F0.0
aF0.0
aF0.0
aF0.0
aF0.0
aF0.0
aF0.0
aF0.0
aF0.0
aF0.0
aF0.0
aF0.0
aF0.0
aF0.0
aF0.0
aF0.0
aF0.0
aF0.0
aF0.0
aF0.0
aF0.0
aF57.2601460574187
aF455.21356646118073
aF0.0
aF0.0
aF0.0
aF0.0
aF0.0
aF0.0
aF251.95263290501387
aF0.0
aF0.0
aF0.0
aF0.0
aF0.0
aF0.0
aF0.0
aF0.0
asS'Bacteria.Actinobacteriota.Coriobacteriia'
p649
(lp650
F8195.211786372007
aF3343.1378494754063
aF6704.111150995586
aF14020.147471180806
aF15038.713519952356
aF18939.700526102795
aF18513.98743984993
aF3324.8081841432218
aF10715.985153697293
aF13360.88645027969
aF10559.59049806351
aF21711.643365485343
aF7643.528479220927
aF22537.599857187484
aF23475.823405746327
aF131.04492913938174
aF289.0820012518507
aF86.07852082669808
aF369.4070801591888
aF55.35966750132012
aF992.5925925925924
aF105.71103887523452
aF3049.3824452098374
aF1983.4956911433203
aF578.6006765177137
aF2102.770542268529
aF202.97098783442644
aF39205.817962203364
aF780.3645417216331
aF1058.2010582010582
aF4250.151791135397
aF788.514719880146
aF213.74372127818754
aF5445.310145925704
aF23430.592396109638
aF0.0
aF463.9498432601881
aF2025.7615716852054
asS'Bacteria.Firmicutes.Clostridia.Lachnospirales.Lachnospiraceae.Tuzzerella'
p651
(lp652
F163.69961121342337
aF0.0
aF0.0
aF0.0
aF0.0
aF0.0
aF0.0
aF0.0
aF0.0
aF195.95966793743543
aF0.0
aF0.0
aF0.0
aF0.0
aF0.0
aF0.0
aF0.0
aF0.0
aF23.624871405529515
aF0.0
aF0.0
aF0.0
aF0.0
aF0.0
aF0.0
aF0.0
aF0.0
aF0.0
aF0.0
aF0.0
aF0.0
aF422.41859993579254
aF0.0
aF0.0
aF0.0
aF0.0
aF0.0
aF138.98878707960242
asS'Bacteria.Firmicutes.Clostridia.Lachnospirales.Lachnospiraceae._Eubacterium__ventriosum_group'
p653
(lp654
F409.24902803355843
aF0.0
aF0.0
aF0.0
aF0.0
aF1375.9611493322543
aF0.0
aF4859.3350383631705
aF1211.8135964216597
aF0.0
aF0.0
aF975.3982876341169
aF0.0
aF0.0
aF0.0
aF80.93951505667695
aF0.0
aF0.0
aF0.0
aF0.0
aF0.0
aF57.2601460574187
aF0.0
aF0.0
aF872.3517892113222
aF0.0
aF384.7991644361001
aF0.0
aF0.0
aF0.0
aF0.0
aF0.0
aF0.0
aF0.0
aF0.0
aF0.0
aF0.0
aF0.0
asS'Bacteria.Firmicutes.Clostridia.Lachnospirales.Lachnospiraceae.Lachnoclostridium'
p655
(lp656
F0.0
aF0.0
aF190.0377964061741
aF0.0
aF0.0
aF0.0
aF652.4753282766496
aF0.0
aF2150.810519303365
aF0.0
aF186.44541810385007
aF686.3913875943786
aF0.0
aF0.0
aF0.0
aF242.81854517003083
aF5128.06332655457
aF0.0
aF343.6344931713384
aF0.0
aF0.0
aF0.0
aF0.0
aF162.4706368172003
aF818.9424959943025
aF0.0
aF0.0
aF377.4629457208283
aF0.0
aF0.0
aF636.0771388093791
aF546.3280559169583
aF0.0
aF1205.2860402048989
aF2778.830365037262
aF0.0
aF42792.05851619645
aF549.0057089644295
asS'Archaea.Euryarchaeota.Methanobacteria.Methanobacteriales.Methanobacteriaceae'
p657
(lp658
F0.0
aF0.0
aF0.0
aF0.0
aF0.0
aF0.0
aF0.0
aF0.0
aF0.0
aF0.0
aF0.0
aF0.0
aF0.0
aF0.0
aF0.0
aF0.0
aF0.0
aF0.0
aF0.0
aF0.0
aF0.0
aF0.0
aF0.0
aF0.0
aF0.0
aF0.0
aF0.0
aF0.0
aF0.0
aF0.0
aF0.0
aF0.0
aF0.0
aF0.0
aF0.0
aF0.0
aF83.59456635318705
aF462.1377170396781
asS'Bacteria.Actinobacteriota.Actinobacteria.Streptomycetales.Streptomycetaceae.Streptomyces'
p659
(lp660
F0.0
aF0.0
aF0.0
aF0.0
aF0.0
aF0.0
aF0.0
aF0.0
aF0.0
aF0.0
aF0.0
aF0.0
aF0.0
aF0.0
aF3503.854239663631
aF0.0
aF0.0
aF0.0
aF0.0
aF0.0
aF0.0
aF0.0
aF0.0
aF0.0
aF0.0
aF0.0
aF0.0
aF0.0
aF0.0
aF0.0
aF0.0
aF0.0
aF0.0
aF0.0
aF0.0
aF0.0
aF0.0
aF0.0
asS'Bacteria.Gemmatimonadota.Gemmatimonadetes.Gemmatimonadales'
p661
(lp662
F0.0
aF0.0
aF0.0
aF0.0
aF0.0
aF0.0
aF0.0
aF2813.2992327365723
aF0.0
aF0.0
aF0.0
aF0.0
aF0.0
aF0.0
aF0.0
aF0.0
aF0.0
aF0.0
aF0.0
aF0.0
aF0.0
aF0.0
aF0.0
aF0.0
aF0.0
aF0.0
aF0.0
aF0.0
aF0.0
aF0.0
aF0.0
aF0.0
aF0.0
aF0.0
aF0.0
aF0.0
aF0.0
aF0.0
asS'Bacteria.Cyanobacteria.Vampirivibrionia.Gastranaerophilales.Gastranaerophilales.Gastranaerophilales'
p663
(lp664
F286.47431962349094
aF0.0
aF0.0
aF519.2647211548448
aF0.0
aF0.0
aF0.0
aF0.0
aF50.75659042603811
aF0.0
aF0.0
aF1318.593981431306
aF0.0
aF0.0
aF0.0
aF238.96428254828433
aF517.8338457207066
aF0.0
aF4744.3037213467915
aF0.0
aF814.8148148148146
aF0.0
aF164.53502402211353
aF440.0246413799175
aF293.7511126936085
aF0.0
aF744.2269553928969
aF2189.2850851808043
aF501.66291967819274
aF188.9644746787604
aF0.0
aF4404.41793533053
aF6358.87570802608
aF0.0
aF1073.6390046734875
aF0.0
aF0.0
aF111.19102966368193
asS'Bacteria.Proteobacteria.Gammaproteobacteria.Enterobacterales.Enterobacteriaceae'
p665
(lp666
F3540.0040924902805
aF5533.992358542056
aF7780.99199729724
aF15577.941634645344
aF9008.338296605123
aF27842.97855119385
aF6647.092406818368
aF18414.32225063938
aF2017.5744694350149
aF7624.612534292942
aF6940.854428502418
aF5744.0121382898
aF21345.261012342886
aF12272.950417280314
aF30133.146461107226
aF2482.14512840476
aF1128.6766831485302
aF6765.771736978469
aF270.612163372429
aF8005.859607883217
aF1733.3333333333328
aF629.8616066316057
aF3109.7119540179456
aF1441.9269017526526
aF409.47124799715124
aF2349.040966137816
aF431.3133491481562
aF9864.364981504314
aF2025.2317868490002
aF4245.401864449484
aF10003.758637638417
aF1785.4226157286164
aF249.36767482455215
aF2582.7558004390685
aF27914.614121510673
aF11239.278320023663
aF936.2591431556949
aF1692.1884826941593
asS'Bacteria.Bacteroidota.Bacteroidia.Bacteroidales.Marinifilaceae.Butyricimonas'
p667
(lp668
F0.0
aF0.0
aF0.0
aF0.0
aF0.0
aF0.0
aF0.0
aF0.0
aF0.0
aF0.0
aF0.0
aF0.0
aF0.0
aF0.0
aF0.0
aF0.0
aF0.0
aF0.0
aF0.0
aF0.0
aF0.0
aF0.0
aF0.0
aF0.0
aF0.0
aF0.0
aF0.0
aF0.0
aF0.0
aF0.0
aF0.0
aF0.0
aF0.0
aF0.0
aF0.0
aF0.0
aF351.09717868338555
aF0.0
asS'Bacteria.Firmicutes.Clostridia.Oscillospirales.Oscillospiraceae.Oscillospira'
p669
(lp670
F0.0
aF0.0
aF0.0
aF0.0
aF5136.986301369864
aF0.0
aF0.0
aF0.0
aF0.0
aF0.0
aF0.0
aF0.0
aF0.0
aF0.0
aF0.0
aF0.0
aF0.0
aF0.0
aF0.0
aF0.0
aF0.0
aF0.0
aF0.0
aF0.0
aF0.0
aF0.0
aF0.0
aF0.0
aF0.0
aF0.0
aF0.0
aF0.0
aF0.0
aF0.0
aF0.0
aF0.0
aF0.0
aF0.0
asS'Bacteria.Chloroflexi.Anaerolineae.Anaerolineales'
p671
(lp672
F0.0
aF0.0
aF0.0
aF0.0
aF0.0
aF0.0
aF0.0
aF0.0
aF0.0
aF0.0
aF0.0
aF0.0
aF452.94983580568453
aF0.0
aF0.0
aF0.0
aF0.0
aF0.0
aF0.0
aF0.0
aF0.0
aF0.0
aF0.0
aF0.0
aF0.0
aF0.0
aF0.0
aF0.0
aF0.0
aF0.0
aF0.0
aF0.0
aF0.0
aF0.0
aF0.0
aF0.0
aF0.0
aF0.0
asS'Bacteria.Firmicutes.Clostridia.Monoglobales.Monoglobaceae'
p673
(lp674
F7806.425209740127
aF4017.8300685305335
aF9290.736713190734
aF2284.764773081317
aF0.0
aF78106.02994738972
aF1957.4259848299484
aF26086.956521739125
aF0.0
aF195.95966793743543
aF67.79833385594547
aF11506.08720783208
aF14267.919827879065
aF30213.772481813718
aF7358.093903293624
aF898.0431908669395
aF0.0
aF2948.189338314409
aF281.3507412840333
aF1984.4311581242441
aF533.3333333333333
aF392.01176916232805
aF8500.976241142533
aF676.9609867383346
aF5162.898344311907
aF9595.074591522613
aF54.971309205157155
aF60192.75774428142
aF16660.16362881899
aF340.1360544217687
aF1040.853499869893
aF168.96743997431702
aF0.0
aF2087.7276053549135
aF35240.621447518
aF23070.0976042591
aF0.0
aF2265.5172293975193
asS'Bacteria.Firmicutes.Clostridia.Oscillospirales.Butyricicoccaceae.uncultured'
p675
(lp676
F0.0
aF0.0
aF0.0
aF0.0
aF8636.092912447888
aF4208.822339133954
aF0.0
aF0.0
aF0.0
aF0.0
aF0.0
aF8417.325963657378
aF0.0
aF7185.25460793502
aF0.0
aF0.0
aF0.0
aF0.0
aF0.0
aF0.0
aF0.0
aF0.0
aF0.0
aF0.0
aF0.0
aF0.0
aF0.0
aF0.0
aF0.0
aF0.0
aF0.0
aF0.0
aF0.0
aF0.0
aF0.0
aF0.0
aF0.0
aF0.0
asS'Bacteria.Cyanobacteria.Cyanobacteriia'
p677
(lp678
F0.0
aF0.0
aF0.0
aF0.0
aF0.0
aF0.0
aF0.0
aF0.0
aF0.0
aF0.0
aF0.0
aF0.0
aF452.94983580568453
aF0.0
aF0.0
aF0.0
aF0.0
aF0.0
aF0.0
aF0.0
aF0.0
aF0.0
aF0.0
aF0.0
aF0.0
aF0.0
aF0.0
aF352.2987493394398
aF0.0
aF0.0
aF0.0
aF0.0
aF0.0
aF0.0
aF0.0
aF0.0
aF0.0
aF0.0
asS'Bacteria.Chloroflexi.Anaerolineae.Anaerolineales.Anaerolineaceae'
p679
(lp680
F0.0
aF0.0
aF0.0
aF0.0
aF0.0
aF0.0
aF0.0
aF0.0
aF0.0
aF0.0
aF0.0
aF0.0
aF452.94983580568453
aF0.0
aF0.0
aF0.0
aF0.0
aF0.0
aF0.0
aF0.0
aF0.0
aF0.0
aF0.0
aF0.0
aF0.0
aF0.0
aF0.0
aF0.0
aF0.0
aF0.0
aF0.0
aF0.0
aF0.0
aF0.0
aF0.0
aF0.0
aF0.0
aF0.0
asS'Bacteria.Firmicutes.Bacilli.Lactobacillales.Lactobacillaceae'
p681
(lp682
F665.0296705545323
aF18785.25077324276
aF48839.713676386746
aF27417.1772769758
aF11316.25967837999
aF1780.6556050182114
aF2609.9013131065985
aF0.0
aF1294.2930558639716
aF25724.160045605156
aF59713.38254362397
aF5418.879375745094
aF13645.113803646247
aF4686.035613870665
aF0.0
aF9681.907705827261
aF45310.461500561825
aF7252.115379649313
aF23364.997820068693
aF8465.770691740337
aF122222.22222222219
aF18221.94032611855
aF87291.31474453196
aF37503.63866530374
aF8572.191561331665
aF61842.29220932985
aF82516.16367918746
aF77858.0236040162
aF55282.01507466109
aF5215.419501133787
aF43224.332841819174
aF42771.29130549877
aF50390.082291332714
aF266109.9393052387
aF130794.49286345838
aF388346.64300502813
aF9141.065830721003
aF15111.555875229773
asS'Bacteria.Chloroflexi'
p683
(lp684
F0.0
aF0.0
aF0.0
aF0.0
aF0.0
aF0.0
aF0.0
aF0.0
aF0.0
aF0.0
aF0.0
aF0.0
aF452.94983580568453
aF0.0
aF0.0
aF0.0
aF0.0
aF0.0
aF0.0
aF0.0
aF0.0
aF0.0
aF0.0
aF0.0
aF0.0
aF0.0
aF0.0
aF0.0
aF179.6077119835505
aF0.0
aF0.0
aF0.0
aF0.0
aF0.0
aF0.0
aF0.0
aF0.0
aF0.0
asS'Bacteria.Firmicutes.Clostridia.Lachnospirales.Lachnospiraceae.Lachnospiraceae'
p685
(lp686
F0.0
aF0.0
aF0.0
aF0.0
aF0.0
aF0.0
aF0.0
aF0.0
aF0.0
aF0.0
aF0.0
aF0.0
aF0.0
aF0.0
aF0.0
aF0.0
aF0.0
aF0.0
aF0.0
aF0.0
aF0.0
aF0.0
aF0.0
aF0.0
aF0.0
aF0.0
aF0.0
aF0.0
aF0.0
aF0.0
aF0.0
aF0.0
aF0.0
aF0.0
aF0.0
aF0.0
aF267.50261233019853
aF0.0
asS'Bacteria.Firmicutes.Clostridia.Lachnospirales.Lachnospiraceae._Eubacterium__xylanophilum_group'
p687
(lp688
F4951.9132392060565
aF6868.215173752195
aF10283.1563166452
aF0.0
aF2233.472304943419
aF14245.244840145691
aF2181.7143789250467
aF16112.531969309459
aF22186.97458998191
aF961.9838244201376
aF4695.034619524224
aF3666.77504425418
aF1472.0869663684748
aF0.0
aF10511.562718990892
aF11805.606410409597
aF0.0
aF7910.616063973553
aF350.077639918301
aF4599.11083857121
aF2844.444444444444
aF3228.591312314454
aF25760.70026106224
aF2606.299798942588
aF10824.283425315998
aF9538.242955245085
aF2165.023870233882
aF956.2394624927651
aF14498.677715637647
aF25976.316452506926
aF37065.94963425563
aF17336.059341364926
aF3562.395354636459
aF40290.99048684947
aF2841.9856006062905
aF0.0
aF0.0
aF8606.880639904379
asS'Archaea.Euryarchaeota.Methanobacteria.Methanobacteriales.Methanobacteriaceae.Methanosphaera'
p689
(lp690
F0.0
aF0.0
aF0.0
aF0.0
aF0.0
aF0.0
aF0.0
aF0.0
aF0.0
aF0.0
aF0.0
aF0.0
aF0.0
aF0.0
aF0.0
aF0.0
aF0.0
aF0.0
aF0.0
aF0.0
aF0.0
aF0.0
aF0.0
aF0.0
aF0.0
aF0.0
aF0.0
aF0.0
aF0.0
aF0.0
aF0.0
aF0.0
aF0.0
aF0.0
aF0.0
aF0.0
aF83.59456635318705
aF462.1377170396781
asS'Bacteria.Proteobacteria.Gammaproteobacteria.Enterobacterales.Erwiniaceae.uncultured'
p691
(lp692
F0.0
aF0.0
aF0.0
aF0.0
aF0.0
aF0.0
aF0.0
aF0.0
aF0.0
aF0.0
aF0.0
aF0.0
aF0.0
aF0.0
aF0.0
aF0.0
aF0.0
aF0.0
aF0.0
aF0.0
aF0.0
aF0.0
aF0.0
aF0.0
aF0.0
aF0.0
aF0.0
aF0.0
aF0.0
aF138.57394809775764
aF0.0
aF0.0
aF0.0
aF0.0
aF0.0
aF0.0
aF0.0
aF0.0
asS'Bacteria.Proteobacteria.Alphaproteobacteria.Rhizobiales.Rhizobiaceae.uncultured'
p693
(lp694
F0.0
aF0.0
aF0.0
aF0.0
aF0.0
aF0.0
aF0.0
aF0.0
aF0.0
aF0.0
aF0.0
aF216.75517502980372
aF0.0
aF0.0
aF0.0
aF0.0
aF0.0
aF0.0
aF0.0
aF0.0
aF0.0
aF0.0
aF0.0
aF0.0
aF0.0
aF0.0
aF0.0
aF0.0
aF0.0
aF0.0
aF0.0
aF0.0
aF0.0
aF0.0
aF0.0
aF0.0
aF0.0
aF59.07023450883103
asS'Bacteria.Firmicutes.Clostridia'
p695
(lp696
F716.1857990587272
aF0.0
aF0.0
aF0.0
aF0.0
aF0.0
aF0.0
aF0.0
aF0.0
aF0.0
aF0.0
aF0.0
aF0.0
aF0.0
aF0.0
aF0.0
aF0.0
aF0.0
aF0.0
aF0.0
aF0.0
aF0.0
aF0.0
aF0.0
aF0.0
aF596.732180914042
aF0.0
aF0.0
aF0.0
aF0.0
aF0.0
aF0.0
aF0.0
aF0.0
aF0.0
aF0.0
aF0.0
aF0.0
asS'Bacteria.Firmicutes.Clostridia.Lachnospirales.Lachnospiraceae.GCA_900066575'
p697
(lp698
F214.85573971761818
aF242.58596640184356
aF0.0
aF0.0
aF0.0
aF0.0
aF0.0
aF0.0
aF8140.088189575862
aF0.0
aF228.81937676381597
aF867.0207001192149
aF0.0
aF0.0
aF0.0
aF709.18432240136
aF0.0
aF167.85311561206126
aF221.21470497904912
aF0.0
aF607.4074074074073
aF1233.2954535444028
aF0.0
aF0.0
aF1753.6051272921477
aF681.9796353303337
aF655.4271482153354
aF0.0
aF198.18782011977984
aF0.0
aF0.0
aF732.192239888707
aF0.0
aF0.0
aF0.0
aF0.0
aF0.0
aF354.4214070529862
asS'Bacteria.Firmicutes.Bacilli.Erysipelotrichales.Erysipelotrichaceae'
p699
(lp700
F0.0
aF0.0
aF0.0
aF0.0
aF0.0
aF0.0
aF0.0
aF0.0
aF0.0
aF0.0
aF0.0
aF0.0
aF0.0
aF0.0
aF0.0
aF0.0
aF0.0
aF0.0
aF0.0
aF0.0
aF0.0
aF0.0
aF0.0
aF0.0
aF480.6836389531775
aF0.0
aF0.0
aF0.0
aF0.0
aF0.0
aF0.0
aF0.0
aF0.0
aF0.0
aF0.0
aF0.0
aF0.0
aF0.0
asS'Bacteria.Actinobacteriota.Coriobacteriia.Coriobacteriales.Eggerthellaceae.Enterorhabdus'
p701
(lp702
F603.6423163494986
aF1637.455273212444
aF2396.5877657889732
aF0.0
aF5360.333531864206
aF2751.9222986645086
aF9848.29948617568
aF0.0
aF755.0042825873169
aF3954.8223892827878
aF2279.7189759061666
aF1914.6707127632665
aF4586.117087532556
aF1294.2384076404694
aF0.0
aF96.35656554366304
aF47.76137411987099
aF55.95103853735375
aF141.74922843317708
aF0.0
aF0.0
aF0.0
aF0.0
aF0.0
aF0.0
aF151.5510300734075
aF0.0
aF17187.146128488384
aF161.02760384732113
aF0.0
aF2341.9203747072593
aF0.0
aF213.74372127818754
aF365.8904050622014
aF14083.617531893393
aF0.0
aF0.0
aF469.0871563936581
asS'Bacteria.Proteobacteria.Gammaproteobacteria.Burkholderiales.Comamonadaceae'
p703
(lp704
F0.0
aF22.742434350172832
aF0.0
aF0.0
aF372.2453841572365
aF0.0
aF101.94927004322649
aF0.0
aF0.0
aF0.0
aF0.0
aF162.5663812723528
aF56.618729475710566
aF0.0
aF0.0
aF0.0
aF0.0
aF0.0
aF4.29543116464173
aF0.0
aF0.0
aF0.0
aF0.0
aF0.0
aF0.0
aF0.0
aF4.228562246550551
aF327.1345529580512
aF0.0
aF12.597631645250694
aF549.3393471535547
aF0.0
aF0.0
aF0.0
aF63.15523556902867
aF0.0
aF25.078369905956112
aF17.373598384950302
asS'Bacteria.Firmicutes.Clostridia.Oscillospirales._Eubacterium__coprostanoligenes_group'
p705
(lp706
F37528.1358706773
aF116304.80926678386
aF136320.44595536226
aF10073.735590403989
aF4615.842763549734
aF13273.978146499394
aF2161.3245249164015
aF69309.462915601
aF26380.737873933307
aF48580.183133216946
aF38780.64696560081
aF25414.544272244486
aF6681.010078133848
aF13567.188824920784
aF0.0
aF20974.89718754457
aF449.96241933983725
aF0.0
aF7858.491315712046
aF0.0
aF19629.629629629624
aF52.85551943761726
aF16299.936379790712
aF2755.2312160250217
aF4130.3186754495255
aF86838.7402320625
aF21481.096212476798
aF2919.046780241072
aF13278.583948025249
aF22511.967750062988
aF57911.93222887211
aF18637.108629167164
aF31598.446795625394
aF106000.60264302012
aF7326.007326007326
aF90801.53800650696
aF50010.44932079415
aF38618.03449006753
asS'Bacteria.Firmicutes.Clostridia.uncultured.uncultured.uncultured'
p707
(lp708
F0.0
aF0.0
aF0.0
aF0.0
aF0.0
aF0.0
aF0.0
aF0.0
aF0.0
aF0.0
aF186.44541810385007
aF596.0767313319603
aF0.0
aF714.0625697326728
aF0.0
aF0.0
aF128.20158316386426
aF0.0
aF0.0
aF0.0
aF0.0
aF0.0
aF1294.3421889739598
aF0.0
aF0.0
aF0.0
aF0.0
aF0.0
aF0.0
aF390.5265810027715
aF0.0
aF0.0
aF0.0
aF0.0
aF0.0
aF0.0
aF0.0
aF114.665749340672
asS'Bacteria.Firmicutes.Clostridia.Clostridia_UCG_014'
p709
(lp710
F237773.68528749744
aF57091.09103038387
aF98925.23068476951
aF69996.88441167306
aF280151.8761167362
aF268069.607446378
aF36416.2792594405
aF61636.82864450126
aF92465.81860863493
aF223002.10211280148
aF53865.77624854868
aF334380.9833459772
aF131185.59619522138
aF97023.25166242692
aF74632.09530483534
aF5673.47457921088
aF35.192591456747046
aF0.0
aF9598.140937391947
aF0.0
aF488.88888888888874
aF0.0
aF394.8840576530725
aF1570.5494892329361
aF11527.505786006757
aF71001.65758939141
aF22796.17907115402
aF275044.6664485769
aF35741.93468472655
aF116036.78508440412
aF176627.05640847713
aF70611.49316526708
aF52010.9721776923
aF71284.0600921183
aF166287.7352532525
aF80449.57113280096
aF8.359456635318704
aF175469.86896832107
asS'Bacteria.Firmicutes.Clostridia.Oscillospirales.Ruminococcaceae._Eubacterium__siraeum_group'
p711
(lp712
F15264.98874565173
aF37.90405725028805
aF0.0
aF0.0
aF0.0
aF0.0
aF1549.6289046570425
aF16879.795396419435
aF0.0
aF0.0
aF0.0
aF234.81810628228737
aF23326.916543992756
aF1562.011871290222
aF0.0
aF0.0
aF0.0
aF0.0
aF719.4847200774898
aF0.0
aF0.0
aF0.0
aF0.0
aF0.0
aF46599.60833184971
aF615.676059673218
aF528.5702808188189
aF0.0
aF66405.30647888374
aF3300.5794910556815
aF4915.141527163384
aF0.0
aF0.0
aF17046.188282897852
aF0.0
aF0.0
aF0.0
aF3731.848933087325
asS'Bacteria.Firmicutes.Clostridia.Lachnospirales.Lachnospiraceae.Fusicatenibacter'
p713
(lp714
F0.0
aF0.0
aF0.0
aF33856.05981929587
aF0.0
aF16754.350465398624
aF0.0
aF0.0
aF0.0
aF0.0
aF0.0
aF188866.009175969
aF0.0
aF187619.94019725977
aF159425.3679046952
aF0.0
aF0.0
aF0.0
aF0.0
aF0.0
aF0.0
aF0.0
aF0.0
aF0.0
aF0.0
aF0.0
aF0.0
aF0.0
aF0.0
aF0.0
aF0.0
aF0.0
aF0.0
aF0.0
aF0.0
aF0.0
aF0.0
aF0.0
asS'Bacteria.Firmicutes.Clostridia.Oscillospirales.Ruminococcaceae.Fournierella'
p715
(lp716
F777.573153263761
aF30.323245800230445
aF0.0
aF0.0
aF0.0
aF0.0
aF0.0
aF0.0
aF329.9178377692477
aF0.0
aF0.0
aF0.0
aF0.0
aF0.0
aF0.0
aF928.8772918409118
aF0.0
aF0.0
aF0.0
aF0.0
aF0.0
aF0.0
aF0.0
aF0.0
aF1175.004450774434
aF0.0
aF186.05673884822423
aF0.0
aF154.83423446857802
aF0.0
aF0.0
aF6246.163031050585
aF1424.9581418545838
aF0.0
aF0.0
aF0.0
aF0.0
aF277.97757415920483
asS'Bacteria.Firmicutes.Bacilli.Erysipelotrichales.Erysipelotrichaceae.Turicibacter'
p717
(lp718
F16646.20421526499
aF81880.34447207225
aF64834.56154057307
aF109772.56205213418
aF20771.2924359738
aF5341.966815054635
aF83618.79128945436
aF5370.84398976982
aF4498.302826507627
aF88164.0360565789
aF107256.96416010575
aF4046.0966005563364
aF9568.565281395087
aF1071.093854599009
aF3854.239663629994
aF0.0
aF882.3285429513011
aF0.0
aF1007.2786081084857
aF0.0
aF0.0
aF0.0
aF213.8955312287476
aF0.0
aF0.0
aF9595.074591522613
aF1598.3965291961083
aF7071.139183170184
aF1127.1932269312479
aF5618.543713781809
aF100413.45014022608
aF8082.275878771497
aF783.726978020021
aF0.0
aF68018.18870784387
aF0.0
aF2892.3719958202714
aF8968.251486311347
asS'Bacteria.Actinobacteriota.Actinobacteria.Pseudonocardiales.Pseudonocardiaceae.Pseudonocardia'
p719
(lp720
F0.0
aF0.0
aF0.0
aF0.0
aF0.0
aF0.0
aF0.0
aF0.0
aF0.0
aF0.0
aF0.0
aF0.0
aF0.0
aF0.0
aF5255.781359495446
aF0.0
aF0.0
aF0.0
aF0.0
aF0.0
aF0.0
aF0.0
aF0.0
aF0.0
aF0.0
aF0.0
aF0.0
aF0.0
aF0.0
aF0.0
aF0.0
aF0.0
aF0.0
aF0.0
aF0.0
aF0.0
aF0.0
aF0.0
asS'Bacteria.Firmicutes.Bacilli.Lactobacillales.Enterococcaceae.Enterococcus'
p721
(lp722
F0.0
aF0.0
aF0.0
aF0.0
aF0.0
aF0.0
aF0.0
aF0.0
aF0.0
aF0.0
aF0.0
aF0.0
aF0.0
aF0.0
aF0.0
aF0.0
aF0.0
aF154.94133748805655
aF0.0
aF0.0
aF0.0
aF0.0
aF0.0
aF0.0
aF0.0
aF0.0
aF0.0
aF0.0
aF0.0
aF0.0
aF0.0
aF0.0
aF0.0
aF0.0
aF0.0
aF0.0
aF79.41483803552768
aF0.0
asS'Bacteria.Firmicutes.Clostridia.Eubacteriales'
p723
(lp724
F327.39922242684673
aF75.8081145005761
aF190.0377964061741
aF0.0
aF0.0
aF404.69445568595717
aF0.0
aF0.0
aF0.0
aF356.29030534079163
aF0.0
aF0.0
aF0.0
aF1695.898603115098
aF0.0
aF0.0
aF0.0
aF0.0
aF0.0
aF0.0
aF0.0
aF0.0
aF0.0
aF0.0
aF0.0
aF75.77551503670375
aF0.0
aF0.0
aF111.48064881737616
aF365.3313177122701
aF1185.4164859629338
aF0.0
aF0.0
aF0.0
aF0.0
aF0.0
aF91.95402298850574
aF0.0
asS'Bacteria.Firmicutes.Bacilli.Erysipelotrichales.Erysipelatoclostridiaceae.Coprobacillus'
p725
(lp726
F0.0
aF0.0
aF0.0
aF0.0
aF0.0
aF0.0
aF0.0
aF0.0
aF0.0
aF0.0
aF0.0
aF0.0
aF0.0
aF0.0
aF0.0
aF0.0
aF0.0
aF0.0
aF0.0
aF0.0
aF0.0
aF0.0
aF0.0
aF0.0
aF0.0
aF0.0
aF0.0
aF0.0
aF0.0
aF0.0
aF0.0
aF0.0
aF0.0
aF0.0
aF0.0
aF0.0
aF3276.9070010449323
aF0.0
asS'Bacteria.Proteobacteria.Alphaproteobacteria.Rhodospirillales.uncultured'
p727
(lp728
F0.0
aF0.0
aF0.0
aF0.0
aF0.0
aF0.0
aF0.0
aF0.0
aF0.0
aF0.0
aF0.0
aF0.0
aF0.0
aF0.0
aF0.0
aF0.0
aF693.7968030044418
aF0.0
aF11913.378335133839
aF0.0
aF0.0
aF0.0
aF0.0
aF0.0
aF133.5232330425493
aF0.0
aF334.05641747749354
aF0.0
aF0.0
aF0.0
aF0.0
aF174.59968797346093
aF0.0
aF0.0
aF0.0
aF0.0
aF1776.3845350052245
aF0.0
asS'Bacteria.Campilobacterota'
p729
(lp730
F0.0
aF0.0
aF0.0
aF0.0
aF0.0
aF0.0
aF0.0
aF0.0
aF0.0
aF0.0
aF0.0
aF2293.992269065423
aF0.0
aF0.0
aF0.0
aF0.0
aF17.596295728373523
aF0.0
aF0.0
aF0.0
aF0.0
aF0.0
aF38.39150560515982
aF0.0
aF0.0
aF66.30357565711579
aF0.0
aF327.1345529580512
aF0.0
aF0.0
aF0.0
aF0.0
aF0.0
aF193.70668503293015
aF0.0
aF0.0
aF639.498432601881
aF458.662997362688
asS'Bacteria.Acidobacteriota.Acidobacteriae'
p731
(lp732
F0.0
aF0.0
aF0.0
aF0.0
aF0.0
aF0.0
aF0.0
aF0.0
aF0.0
aF0.0
aF0.0
aF0.0
aF679.4247537085269
aF0.0
aF0.0
aF0.0
aF0.0
aF0.0
aF0.0
aF0.0
aF0.0
aF0.0
aF0.0
aF0.0
aF0.0
aF0.0
aF0.0
aF0.0
aF0.0
aF0.0
aF0.0
aF0.0
aF0.0
aF0.0
aF0.0
aF0.0
aF0.0
aF0.0
asS'Archaea.Euryarchaeota'
p733
(lp734
F0.0
aF0.0
aF0.0
aF0.0
aF0.0
aF0.0
aF0.0
aF0.0
aF0.0
aF0.0
aF0.0
aF0.0
aF0.0
aF0.0
aF0.0
aF0.0
aF0.0
aF0.0
aF0.0
aF0.0
aF0.0
aF0.0
aF0.0
aF0.0
aF0.0
aF0.0
aF0.0
aF0.0
aF0.0
aF0.0
aF0.0
aF0.0
aF0.0
aF0.0
aF0.0
aF0.0
aF83.59456635318705
aF462.1377170396781
asS'Bacteria.Chloroflexi.Chloroflexia.Chloroflexales.Chloroflexaceae.FFCH7168'
p735
(lp736
F0.0
aF0.0
aF0.0
aF0.0
aF0.0
aF0.0
aF0.0
aF0.0
aF0.0
aF0.0
aF0.0
aF0.0
aF0.0
aF0.0
aF0.0
aF0.0
aF0.0
aF0.0
aF0.0
aF0.0
aF0.0
aF0.0
aF0.0
aF0.0
aF0.0
aF0.0
aF0.0
aF0.0
aF179.6077119835505
aF0.0
aF0.0
aF0.0
aF0.0
aF0.0
aF0.0
aF0.0
aF0.0
aF0.0
asS'Bacteria.Firmicutes.Clostridia.Oscillospirales.Oscillospiraceae.Papillibacter'
p737
(lp738
F726.4170247595662
aF128.87379465097936
aF0.0
aF0.0
aF0.0
aF2347.2278429785515
aF0.0
aF0.0
aF3838.467150969132
aF1371.7176755620478
aF389.8404196716865
aF0.0
aF0.0
aF0.0
aF0.0
aF0.0
aF0.0
aF0.0
aF274.90759453707074
aF0.0
aF1022.2222222222221
aF0.0
aF0.0
aF907.1277222293683
aF8696.813245504713
aF1562.8699976320147
aF739.9983931463464
aF0.0
aF526.4363971931652
aF0.0
aF0.0
aF1278.5202958056655
aF1229.0263973495782
aF5165.511600878137
aF0.0
aF0.0
aF0.0
aF177.2107035264931
asS'Bacteria.Actinobacteriota.Coriobacteriia.Coriobacteriales.Coriobacteriales_Incertae_Sedis'
p739
(lp740
F0.0
aF0.0
aF0.0
aF0.0
aF446.69446098868383
aF0.0
aF387.40722616426063
aF0.0
aF0.0
aF0.0
aF0.0
aF505.76207506954205
aF0.0
aF0.0
aF1751.9271198318154
aF0.0
aF0.0
aF0.0
aF0.0
aF0.0
aF0.0
aF0.0
aF0.0
aF0.0
aF0.0
aF0.0
aF0.0
aF1535.0159792647019
aF0.0
aF0.0
aF0.0
aF0.0
aF0.0
aF0.0
aF0.0
aF0.0
aF0.0
aF0.0
asS'Bacteria.Bacteroidota.Bacteroidia.Bacteroidales.Rikenellaceae.Rikenella'
p741
(lp742
F0.0
aF0.0
aF0.0
aF0.0
aF0.0
aF0.0
aF0.0
aF0.0
aF0.0
aF0.0
aF0.0
aF0.0
aF0.0
aF0.0
aF0.0
aF0.0
aF0.0
aF0.0
aF0.0
aF0.0
aF0.0
aF0.0
aF0.0
aF0.0
aF0.0
aF0.0
aF0.0
aF0.0
aF0.0
aF0.0
aF0.0
aF0.0
aF0.0
aF0.0
aF0.0
aF0.0
aF392.8944618599791
aF0.0
asS'Bacteria.Verrucomicrobiota.Verrucomicrobiae.Verrucomicrobiales.Akkermansiaceae'
p743
(lp744
F91313.68937998773
aF3494.7540784765583
aF11001.076880846302
aF0.0
aF893.3889219773677
aF21205.989477944153
aF24365.875540331133
aF9974.424552429664
aF87123.68746629442
aF5326.540064844836
aF6152.698797427051
aF1065.712943896535
aF905.8996716113691
aF55295.22024367385
aF142606.86755430978
aF29993.871722431428
aF3453.9014758264602
aF152143.78556118882
aF3112.039878782934
aF135878.1746640094
aF0.0
aF0.0
aF268.74053923611876
aF40.617659204300075
aF587.502225387217
aF11764.148709448256
aF37515.80425139648
aF0.0
aF6701.225667800056
aF82615.26832955405
aF24575.70763581692
aF7913.308438797179
aF463.11139610273966
aF16701.820842839308
aF0.0
aF0.0
aF0.0
aF0.0
asS'Bacteria.Firmicutes.Clostridia.Clostridia_vadinBB60_group.Clostridia_vadinBB60_group'
p745
(lp746
F306.9367710251688
aF0.0
aF158.3648303384784
aF0.0
aF0.0
aF566.57223796034
aF0.0
aF0.0
aF387.0190019985406
aF338.47579007375214
aF67.79833385594547
aF559.950868826993
aF0.0
aF0.0
aF0.0
aF2351.1001992653783
aF223.72433140360624
aF38.73533437201414
aF2755.51909211767
aF0.0
aF474.07407407407396
aF114.5202921148374
aF351.0080512471755
aF264.0147848279505
aF738.8285561687728
aF947.1939379587968
aF401.7134134223023
aF0.0
aF12591.119946984763
aF0.0
aF0.0
aF816.6759598758655
aF0.0
aF731.7808101244028
aF315.77617784514337
aF0.0
aF3753.396029258098
aF173.73598384950304
asS'Bacteria.Actinobacteriota.Coriobacteriia.Coriobacteriales.uncultured'
p747
(lp748
F0.0
aF0.0
aF781.2664963364936
aF5296.500155779417
aF5955.926146515784
aF7932.011331444761
aF3894.462115651252
aF3324.8081841432218
aF596.3899375059477
aF267.21772900559375
aF220.3445850318228
aF7207.109569740974
aF2377.986637979844
aF3168.6526531887357
aF0.0
aF34.68836359571869
aF0.0
aF30.127482289344325
aF0.0
aF0.0
aF562.9629629629628
aF48.45089281781582
aF998.1791457341554
aF250.4755650931838
aF178.03097739006577
aF492.54084773857437
aF0.0
aF12003.32167392234
aF575.9833522231102
aF806.2484252960444
aF1127.5912915257175
aF146.43844797774142
aF0.0
aF624.1659851061083
aF5873.436907919667
aF0.0
aF0.0
aF531.6321105794793
asS'Bacteria.Firmicutes.Clostridia.Oscillospirales.Butyricicoccaceae.Butyricicoccus'
p749
(lp750
F112.54348270922857
aF447.26787555339905
aF0.0
aF0.0
aF0.0
aF0.0
aF285.45795612103416
aF0.0
aF406.05272340830487
aF0.0
aF0.0
aF0.0
aF509.5685652813952
aF0.0
aF0.0
aF1364.4089680982686
aF0.0
aF0.0
aF79.46547654587202
aF0.0
aF0.0
aF295.1099835266964
aF383.91505605159824
aF236.93634535841713
aF427.2743457361578
aF104.19133317546765
aF304.4564817516396
aF0.0
aF117.67401819611929
aF0.0
aF0.0
aF0.0
aF0.0
aF365.8904050622014
aF0.0
aF0.0
aF2904.9111807732497
aF0.0
asS'Bacteria.Firmicutes.Clostridia.Peptostreptococcales_Tissierellales.Anaerovoracaceae.Family_XIII_AD3011_group'
p751
(lp752
F992.4288929813792
aF0.0
aF137.2495196266813
aF0.0
aF0.0
aF0.0
aF0.0
aF0.0
aF0.0
aF195.95966793743543
aF305.09250235175466
aF0.0
aF0.0
aF0.0
aF0.0
aF88.64804030017
aF0.0
aF245.3237843560895
aF283.49845686635416
aF157.56213058068033
aF0.0
aF145.35267845344745
aF0.0
aF0.0
aF712.1239095602631
aF388.3495145631067
aF342.5135419705946
aF0.0
aF346.8286852096147
aF1826.6565885613506
aF0.0
aF382.99286394178523
aF0.0
aF0.0
aF0.0
aF0.0
aF0.0
aF448.2388383317178
asS'Bacteria.Firmicutes.Clostridia.Peptostreptococcales_Tissierellales.Anaerovoracaceae._Eubacterium__brachy_group'
p753
(lp754
F0.0
aF144.0354175510946
aF242.8260731856669
aF0.0
aF0.0
aF1295.022258195063
aF0.0
aF0.0
aF1230.847317831424
aF356.29030534079163
aF211.8697932998296
aF0.0
aF0.0
aF0.0
aF0.0
aF0.0
aF0.0
aF0.0
aF0.0
aF0.0
aF0.0
aF48.45089281781582
aF208.41103042801046
aF0.0
aF115.72013530354275
aF0.0
aF0.0
aF0.0
aF0.0
aF0.0
aF0.0
aF78.8514719880146
aF0.0
aF0.0
aF1705.1913603637743
aF0.0
aF0.0
aF59.07023450883103
asS'Bacteria.Firmicutes.Clostridia.Oscillospirales.Ruminococcaceae.uncultured'
p755
(lp756
F81.84980560671168
aF0.0
aF0.0
aF0.0
aF0.0
aF0.0
aF0.0
aF0.0
aF234.74923072042625
aF0.0
aF0.0
aF1282.4681189263388
aF1075.755860038501
aF0.0
aF0.0
aF1719.0011292989486
aF85.46772210924283
aF116.2060031160424
aF231.95328289065344
aF0.0
aF0.0
aF83.68790577622734
aF2539.323870741285
aF324.9412736344006
aF1424.2478191205262
aF502.01278711816235
aF0.0
aF880.7468733485994
aF2979.010671175441
aF390.5265810027715
aF433.6889582791221
aF844.8371998715851
aF0.0
aF129.13779002195346
aF0.0
aF0.0
aF530.8254963427377
aF59.07023450883103
asS'Bacteria.Proteobacteria.Alphaproteobacteria.Sphingomonadales.Sphingomonadaceae.Sphingobium'
p757
(lp758
F0.0
aF0.0
aF0.0
aF0.0
aF0.0
aF0.0
aF0.0
aF0.0
aF0.0
aF0.0
aF0.0
aF0.0
aF0.0
aF0.0
aF0.0
aF0.0
aF0.0
aF0.0
aF0.0
aF0.0
aF0.0
aF0.0
aF0.0
aF0.0
aF0.0
aF0.0
aF0.0
aF578.7765167719368
aF0.0
aF0.0
aF0.0
aF0.0
aF0.0
aF0.0
aF0.0
aF0.0
aF0.0
aF0.0
asS'Bacteria.Patescibacteria.Saccharimonadia.Saccharimonadales.Saccharimonadaceae.Candidatus_Saccharimonas'
p759
(lp760
F3795.7847350112547
aF5624.9620959427475
aF15361.388542832408
aF3738.705992314882
aF15187.61167361525
aF32456.495346013766
aF550.526058233423
aF12531.969309462913
aF2804.3016210386054
aF1175.7580076246127
aF3830.6058628609194
aF2293.992269065423
aF28196.127278903863
aF847.949301557549
aF0.0
aF0.0
aF37.706347989371835
aF0.0
aF1041.6420574256197
aF0.0
aF0.0
aF0.0
aF948.8186385275213
aF0.0
aF507.3882855616873
aF1288.1837556239636
aF1183.9974290341543
aF6341.377488109916
aF1486.408650898349
aF1234.567901234568
aF9830.283054326768
aF332.3026319494901
aF0.0
aF2173.8194653695496
aF15788.80889225717
aF2957.7048210588587
aF0.0
aF22815.009399116738
asS'Bacteria.Firmicutes.Clostridia.Peptostreptococcales_Tissierellales.Peptostreptococcaceae.Clostridioides'
p761
(lp762
F0.0
aF0.0
aF0.0
aF0.0
aF0.0
aF0.0
aF0.0
aF0.0
aF0.0
aF0.0
aF0.0
aF0.0
aF0.0
aF0.0
aF0.0
aF0.0
aF15919.620121112788
aF0.0
aF0.0
aF0.0
aF0.0
aF0.0
aF0.0
aF0.0
aF0.0
aF0.0
aF0.0
aF0.0
aF0.0
aF0.0
aF0.0
aF0.0
aF0.0
aF0.0
aF0.0
aF0.0
aF0.0
aF0.0
asS'Bacteria.Firmicutes.Clostridia.Oscillospirales.Ruminococcaceae.Anaerotruncus'
p763
(lp764
F0.0
aF0.0
aF0.0
aF0.0
aF0.0
aF0.0
aF0.0
aF0.0
aF310.8841163594834
aF0.0
aF0.0
aF0.0
aF0.0
aF0.0
aF0.0
aF285.2154340092426
aF0.0
aF0.0
aF19.329440240887784
aF0.0
aF0.0
aF0.0
aF0.0
aF0.0
aF0.0
aF0.0
aF0.0
aF0.0
aF0.0
aF0.0
aF0.0
aF0.0
aF0.0
aF0.0
aF0.0
aF0.0
aF0.0
aF0.0
asS'Bacteria.Firmicutes.Bacilli.Erysipelotrichales.Erysipelatoclostridiaceae.Erysipelatoclostridium'
p765
(lp766
F0.0
aF0.0
aF0.0
aF0.0
aF744.490768314473
aF1214.0833670578713
aF0.0
aF1790.2813299232732
aF0.0
aF0.0
aF0.0
aF1426.971568946208
aF0.0
aF0.0
aF0.0
aF0.0
aF1015.5576391804148
aF223.804154149415
aF195.44211799119873
aF140.5283867341203
aF0.0
aF321.537743245505
aF60.329508808108294
aF291.09322429748386
aF445.0774434751644
aF0.0
aF0.0
aF6391.705880872692
aF780.3645417216331
aF0.0
aF0.0
aF0.0
aF0.0
aF0.0
aF2273.5884804850325
aF0.0
aF656.2173458725183
aF0.0
asS'Bacteria.Patescibacteria.Saccharimonadia'
p767
(lp768
F3795.7847350112547
aF5624.9620959427475
aF15361.388542832408
aF3738.705992314882
aF15187.61167361525
aF32456.495346013766
aF550.526058233423
aF12531.969309462913
aF2804.3016210386054
aF1175.7580076246127
aF3830.6058628609194
aF2402.3698565803247
aF28196.127278903863
aF847.949301557549
aF0.0
aF0.0
aF37.706347989371835
aF0.0
aF1041.6420574256197
aF0.0
aF0.0
aF0.0
aF948.8186385275213
aF0.0
aF507.3882855616873
aF1288.1837556239636
aF1183.9974290341543
aF6341.377488109916
aF1486.408650898349
aF1234.567901234568
aF9830.283054326768
aF332.3026319494901
aF0.0
aF2173.8194653695496
aF15788.80889225717
aF2957.7048210588587
aF0.0
aF22815.009399116738
asS'Bacteria.Firmicutes.Clostridia.Lachnospirales.Lachnospiraceae._Eubacterium__fissicatena_group'
p769
(lp770
F0.0
aF0.0
aF0.0
aF0.0
aF0.0
aF0.0
aF0.0
aF0.0
aF0.0
aF0.0
aF0.0
aF0.0
aF0.0
aF0.0
aF0.0
aF0.0
aF0.0
aF0.0
aF0.0
aF0.0
aF0.0
aF0.0
aF0.0
aF0.0
aF0.0
aF0.0
aF0.0
aF0.0
aF0.0
aF0.0
aF0.0
aF0.0
aF0.0
aF0.0
aF0.0
aF0.0
aF96.13375130616511
aF0.0
asS'Bacteria.Proteobacteria.Gammaproteobacteria.Enterobacterales'
p771
(lp772
F3540.0040924902805
aF5533.992358542056
aF7780.99199729724
aF15577.941634645344
aF9008.338296605123
aF27842.97855119385
aF6647.092406818368
aF18414.32225063938
aF2017.5744694350149
aF7624.612534292942
aF6940.854428502418
aF5744.0121382898
aF21345.261012342886
aF12272.950417280314
aF30133.146461107226
aF2482.14512840476
aF1128.6766831485302
aF6980.968039045214
aF270.612163372429
aF8125.095814809138
aF1733.3333333333328
aF629.8616066316057
aF3109.7119540179456
aF1441.9269017526526
aF409.47124799715124
aF2349.040966137816
aF431.3133491481562
aF9864.364981504314
aF2025.2317868490002
aF4383.975812547242
aF10003.758637638417
aF1785.4226157286164
aF249.36767482455215
aF2582.7558004390685
aF27914.614121510673
aF11239.278320023663
aF1174.503657262278
aF1692.1884826941593
asS'Bacteria.Chloroflexi.Anaerolineae'
p773
(lp774
F0.0
aF0.0
aF0.0
aF0.0
aF0.0
aF0.0
aF0.0
aF0.0
aF0.0
aF0.0
aF0.0
aF0.0
aF452.94983580568453
aF0.0
aF0.0
aF0.0
aF0.0
aF0.0
aF0.0
aF0.0
aF0.0
aF0.0
aF0.0
aF0.0
aF0.0
aF0.0
aF0.0
aF0.0
aF0.0
aF0.0
aF0.0
aF0.0
aF0.0
aF0.0
aF0.0
aF0.0
aF0.0
aF0.0
asS'Bacteria.Proteobacteria.Gammaproteobacteria.Burkholderiales.Comamonadaceae.Delftia'
p775
(lp776
F0.0
aF386.6213839529381
aF0.0
aF1557.7941634645342
aF45786.18225134009
aF3561.311210036423
aF5627.599706386102
aF0.0
aF0.0
aF0.0
aF161.0210429078705
aF1914.6707127632665
aF2830.9364737855285
aF758.6914803409649
aF8409.250175192716
aF0.0
aF0.0
aF0.0
aF0.0
aF0.0
aF0.0
aF0.0
aF0.0
aF0.0
aF0.0
aF0.0
aF0.0
aF6492.362666398248
aF315.86183831589915
aF1914.8400100781053
aF1705.8432358978803
aF0.0
aF0.0
aF0.0
aF12946.823291650879
aF0.0
aF0.0
aF514.258512194529
asS'Bacteria.Firmicutes.Clostridia.Oscillospirales._Clostridium__methylpentosum_group'
p777
(lp778
F0.0
aF0.0
aF0.0
aF0.0
aF0.0
aF0.0
aF0.0
aF0.0
aF0.0
aF0.0
aF0.0
aF0.0
aF0.0
aF0.0
aF0.0
aF69.37672719143738
aF0.0
aF0.0
aF0.0
aF0.0
aF0.0
aF0.0
aF0.0
aF0.0
aF0.0
aF0.0
aF0.0
aF0.0
aF0.0
aF0.0
aF0.0
aF0.0
aF0.0
aF0.0
aF0.0
aF0.0
aF0.0
aF0.0
asS'Bacteria'
p779
(lp780
F1000000.0
aF1000000.0
aF1000000.0
aF1000000.0
aF1000000.0
aF1000000.0
aF1000000.0
aF1000000.0
aF1000000.0
aF1000000.0
aF1000000.0
aF1000000.0
aF1000000.0
aF1000000.0
aF1000000.0
aF1000000.0
aF1000000.0
aF1000000.0
aF1000000.0
aF1000000.0
aF1000000.0
aF1000000.0
aF1000000.0
aF1000000.0
aF1000000.0
aF1000000.0
aF1000000.0
aF1000000.0
aF998600.2985204041
aF1000000.0
aF1000000.0
aF1000000.0
aF1000000.0
aF1000000.0
aF1000000.0
aF1000000.0
aF999916.4054336468
aF999537.8622829604
assS'subclass_sl'
p781
(dp782
g28
(I0
I8
tp783
sg20
(I15
I19
tp784
sg26
(I19
I24
tp785
sg22
(I8
I15
tp786
sg24
(I31
I38
tp787
sg18
(I24
I31
tp788
ssS'norm'
p789
F1000000.0
sS'cls'
p790
(dp791
S'class'
p792
(S'HSD-NC'
p793
S'HSD-NC'
p794
S'HSD-NC'
p795
S'HSD-NC'
p796
S'HSD-NC'
p797
S'HSD-NC'
p798
S'HSD-NC'
p799
g13
S'HSD-NR'
p800
S'HSD-NR'
p801
S'HSD-NR'
p802
S'HSD-NR'
p803
S'HSD-NR'
p804
S'HSD-NR'
p805
g7
S'NC'
p806
S'NC'
p807
S'NC'
p808
g5
S'NR'
p809
S'NR'
p810
S'NR'
p811
S'NR'
p812
g11
S'STD-NC'
p813
S'STD-NC'
p814
S'STD-NC'
p815
S'STD-NC'
p816
S'STD-NC'
p817
S'STD-NC'
p818
g3
S'STD-NR'
p819
S'STD-NR'
p820
S'STD-NR'
p821
S'STD-NR'
p822
S'STD-NR'
p823
S'STD-NR'
p824
g9
tp825
sS'subclass'
p826
(lp827
S'HSD-NC_subcl'
p828
aS'HSD-NC_subcl'
p829
aS'HSD-NC_subcl'
p830
aS'HSD-NC_subcl'
p831
aS'HSD-NC_subcl'
p832
aS'HSD-NC_subcl'
p833
aS'HSD-NC_subcl'
p834
ag28
aS'HSD-NR_subcl'
p835
aS'HSD-NR_subcl'
p836
aS'HSD-NR_subcl'
p837
aS'HSD-NR_subcl'
p838
aS'HSD-NR_subcl'
p839
aS'HSD-NR_subcl'
p840
ag22
aS'NC_subcl'
p841
aS'NC_subcl'
p842
aS'NC_subcl'
p843
ag20
aS'NR_subcl'
p844
aS'NR_subcl'
p845
aS'NR_subcl'
p846
aS'NR_subcl'
p847
ag26
aS'STD-NC_subcl'
p848
aS'STD-NC_subcl'
p849
aS'STD-NC_subcl'
p850
aS'STD-NC_subcl'
p851
aS'STD-NC_subcl'
p852
aS'STD-NC_subcl'
p853
ag18
aS'STD-NR_subcl'
p854
aS'STD-NR_subcl'
p855
aS'STD-NR_subcl'
p856
aS'STD-NR_subcl'
p857
aS'STD-NR_subcl'
p858
aS'STD-NR_subcl'
p859
ag24
asS'subject'
p860
(S'S210421121688'
p861
S'S210421121689'
p862
S'S210421121690'
p863
S'S210421121698'
p864
S'S210421121699'
p865
S'S210421121700'
p866
S'S210421121701'
p867
S'S210421121702'
p868
S'S210421121691'
p869
S'S210421121692'
p870
S'S210421121693'
p871
S'S210421121707'
p872
S'S210421121708'
p873
S'S210421121709'
p874
S'S210421121710'
p875
S'S210421121673'
p876
S'S210421121674'
p877
S'S210421121675'
p878
S'S210421121676'
p879
S'S210421121677'
p880
S'S210421121678'
p881
S'S210421121679'
p882
S'S210421121680'
p883
S'S210421121681'
p884
S'S210421121682'
p885
S'S210421121683'
p886
S'S210421121684'
p887
S'S210421121694'
p888
S'S210421121695'
p889
S'S210421121696'
p890
S'S210421121697'
p891
S'S210421121685'
p892
S'S210421121686'
p893
S'S210421121687'
p894
S'S210421121703'
p895
S'S210421121704'
p896
S'S210421121705'
p897
S'S210421121706'
p898
tp899
ss.