(dp0
S'class_sl'
p1
(dp2
S'STD-NC'
p3
(I24
I31
tp4
sS'NC'
p5
(I15
I19
tp6
sS'HSD-NR'
p7
(I8
I15
tp8
sS'STD-NR'
p9
(I31
I38
tp10
sS'NR'
p11
(I19
I24
tp12
sS'HSD-NC'
p13
(I0
I8
tp14
ssS'class_hierarchy'
p15
(dp16
g3
(lp17
S'STD-NC_subcl'
p18
asg5
(lp19
S'NC_subcl'
p20
asg7
(lp21
S'HSD-NR_subcl'
p22
asg9
(lp23
S'STD-NR_subcl'
p24
asg11
(lp25
S'NR_subcl'
p26
asg13
(lp27
S'HSD-NC_subcl'
p28
assS'feats'
p29
(dp30
S'Eukaryota'
p31
(lp32
F0.0
aF0.0
aF0.0
aF0.0
aF0.0
aF0.0
aF0.0
aF0.0
aF0.0
aF0.0
aF0.0
aF0.0
aF0.0
aF0.0
aF0.0
aF0.0
aF0.0
aF0.0
aF0.0
aF0.0
aF0.0
aF0.0
aF0.0
aF0.0
aF0.0
aF0.0
aF0.0
aF0.0
aF1399.7014795959444
aF0.0
aF0.0
aF0.0
aF0.0
aF0.0
aF0.0
aF0.0
aF0.0
aF0.0
asS'Archaea'
p33
(lp34
F0.0
aF0.0
aF0.0
aF0.0
aF0.0
aF0.0
aF0.0
aF0.0
aF0.0
aF0.0
aF0.0
aF0.0
aF0.0
aF0.0
aF0.0
aF0.0
aF0.0
aF0.0
aF0.0
aF0.0
aF0.0
aF0.0
aF0.0
aF0.0
aF0.0
aF0.0
aF0.0
aF0.0
aF0.0
aF0.0
aF0.0
aF0.0
aF0.0
aF0.0
aF0.0
aF0.0
aF83.59456635318705
aF462.13771703967785
asS'Bacteria'
p35
(lp36
F1000000.0
aF1000000.0
aF1000000.0
aF1000000.0
aF1000000.0
aF1000000.0
aF1000000.0
aF1000000.0
aF1000000.0
aF1000000.0
aF1000000.0
aF1000000.0
aF1000000.0
aF1000000.0
aF1000000.0
aF1000000.0
aF1000000.0
aF1000000.0
aF1000000.0
aF1000000.0
aF1000000.0
aF1000000.0
aF1000000.0
aF1000000.0
aF1000000.0
aF1000000.0
aF1000000.0
aF1000000.0
aF998600.2985204041
aF1000000.0
aF1000000.0
aF1000000.0
aF1000000.0
aF1000000.0
aF1000000.0
aF1000000.0
aF999916.4054336468
aF999537.8622829603
assS'subclass_sl'
p37
(dp38
g28
(I0
I8
tp39
sg20
(I15
I19
tp40
sg26
(I19
I24
tp41
sg22
(I8
I15
tp42
sg24
(I31
I38
tp43
sg18
(I24
I31
tp44
ssS'norm'
p45
F1000000.0
sS'cls'
p46
(dp47
S'class'
p48
(S'HSD-NC'
p49
S'HSD-NC'
p50
S'HSD-NC'
p51
S'HSD-NC'
p52
S'HSD-NC'
p53
S'HSD-NC'
p54
S'HSD-NC'
p55
g13
S'HSD-NR'
p56
S'HSD-NR'
p57
S'HSD-NR'
p58
S'HSD-NR'
p59
S'HSD-NR'
p60
S'HSD-NR'
p61
g7
S'NC'
p62
S'NC'
p63
S'NC'
p64
g5
S'NR'
p65
S'NR'
p66
S'NR'
p67
S'NR'
p68
g11
S'STD-NC'
p69
S'STD-NC'
p70
S'STD-NC'
p71
S'STD-NC'
p72
S'STD-NC'
p73
S'STD-NC'
p74
g3
S'STD-NR'
p75
S'STD-NR'
p76
S'STD-NR'
p77
S'STD-NR'
p78
S'STD-NR'
p79
S'STD-NR'
p80
g9
tp81
sS'subclass'
p82
(lp83
S'HSD-NC_subcl'
p84
aS'HSD-NC_subcl'
p85
aS'HSD-NC_subcl'
p86
aS'HSD-NC_subcl'
p87
aS'HSD-NC_subcl'
p88
aS'HSD-NC_subcl'
p89
aS'HSD-NC_subcl'
p90
ag28
aS'HSD-NR_subcl'
p91
aS'HSD-NR_subcl'
p92
aS'HSD-NR_subcl'
p93
aS'HSD-NR_subcl'
p94
aS'HSD-NR_subcl'
p95
aS'HSD-NR_subcl'
p96
ag22
aS'NC_subcl'
p97
aS'NC_subcl'
p98
aS'NC_subcl'
p99
ag20
aS'NR_subcl'
p100
aS'NR_subcl'
p101
aS'NR_subcl'
p102
aS'NR_subcl'
p103
ag26
aS'STD-NC_subcl'
p104
aS'STD-NC_subcl'
p105
aS'STD-NC_subcl'
p106
aS'STD-NC_subcl'
p107
aS'STD-NC_subcl'
p108
aS'STD-NC_subcl'
p109
ag18
aS'STD-NR_subcl'
p110
aS'STD-NR_subcl'
p111
aS'STD-NR_subcl'
p112
aS'STD-NR_subcl'
p113
aS'STD-NR_subcl'
p114
aS'STD-NR_subcl'
p115
ag24
asS'subject'
p116
(S'S210421121688'
p117
S'S210421121689'
p118
S'S210421121690'
p119
S'S210421121698'
p120
S'S210421121699'
p121
S'S210421121700'
p122
S'S210421121701'
p123
S'S210421121702'
p124
S'S210421121691'
p125
S'S210421121692'
p126
S'S210421121693'
p127
S'S210421121707'
p128
S'S210421121708'
p129
S'S210421121709'
p130
S'S210421121710'
p131
S'S210421121673'
p132
S'S210421121674'
p133
S'S210421121675'
p134
S'S210421121676'
p135
S'S210421121677'
p136
S'S210421121678'
p137
S'S210421121679'
p138
S'S210421121680'
p139
S'S210421121681'
p140
S'S210421121682'
p141
S'S210421121683'
p142
S'S210421121684'
p143
S'S210421121694'
p144
S'S210421121695'
p145
S'S210421121696'
p146
S'S210421121697'
p147
S'S210421121685'
p148
S'S210421121686'
p149
S'S210421121687'
p150
S'S210421121703'
p151
S'S210421121704'
p152
S'S210421121705'
p153
S'S210421121706'
p154
tp155
ss.