(dp0
S'class_sl'
p1
(dp2
S'STD-NC'
p3
(I24
I31
tp4
sS'NC'
p5
(I15
I19
tp6
sS'HSD-NR'
p7
(I8
I15
tp8
sS'STD-NR'
p9
(I31
I38
tp10
sS'NR'
p11
(I19
I24
tp12
sS'HSD-NC'
p13
(I0
I8
tp14
ssS'class_hierarchy'
p15
(dp16
g3
(lp17
S'STD-NC_subcl'
p18
asg5
(lp19
S'NC_subcl'
p20
asg7
(lp21
S'HSD-NR_subcl'
p22
asg9
(lp23
S'STD-NR_subcl'
p24
asg11
(lp25
S'NR_subcl'
p26
asg13
(lp27
S'HSD-NC_subcl'
p28
assS'feats'
p29
(dp30
S'Bacteria.Chloroflexi'
p31
(lp32
F0.0
aF0.0
aF0.0
aF0.0
aF0.0
aF0.0
aF0.0
aF0.0
aF0.0
aF0.0
aF0.0
aF0.0
aF226.47491790284224
aF0.0
aF0.0
aF0.0
aF0.0
aF0.0
aF0.0
aF0.0
aF0.0
aF0.0
aF0.0
aF0.0
aF0.0
aF0.0
aF0.0
aF0.0
aF89.86674930275797
aF0.0
aF0.0
aF0.0
aF0.0
aF0.0
aF0.0
aF0.0
aF0.0
aF0.0
asS'Bacteria.Desulfobacterota'
p33
(lp34
F0.0
aF0.0
aF0.0
aF934.6764980787206
aF2307.921381774866
aF0.0
aF0.0
aF0.0
aF0.0
aF0.0
aF0.0
aF5987.861710198332
aF7162.269278677387
aF0.0
aF0.0
aF0.0
aF0.0
aF0.0
aF0.0
aF0.0
aF0.0
aF0.0
aF0.0
aF0.0
aF0.0
aF0.0
aF0.0
aF0.0
aF917.260613572978
aF0.0
aF0.0
aF0.0
aF0.0
aF0.0
aF0.0
aF0.0
aF1862.0689655172416
aF1704.3500015636241
asS'Bacteria.Actinobacteriota'
p35
(lp36
F13658.686310620009
aF7084.268300078841
aF6350.429696572984
aF13812.44158271887
aF12730.792138177487
aF11776.608660461352
aF9338.553135959546
aF1662.4040920716113
aF6106.652285632714
aF9637.652759468416
aF8712.085900488995
aF11171.922979661142
aF10700.939870909297
aF51747.221850314636
aF18920.812894183604
aF65.52246456969085
aF504.00818479127025
aF47.343186454683966
aF227.65785172601167
aF27.679833750660062
aF496.2962962962963
aF52.85551943761728
aF4582.300419015862
aF1177.9121169247019
aF289.30033825885704
aF1065.5931802036466
aF1765.4247379348546
aF21263.745942273334
aF390.4555314533622
aF529.1005291005292
aF4423.627374447046
aF1853.0095917183428
aF774.8209896334296
aF2722.6550729628507
aF13041.55614500442
aF0.0
aF292.5809822361547
aF2069.1955676475804
asS'Eukaryota'
p37
(lp38
F0.0
aF0.0
aF0.0
aF0.0
aF0.0
aF0.0
aF0.0
aF0.0
aF0.0
aF0.0
aF0.0
aF0.0
aF0.0
aF0.0
aF0.0
aF0.0
aF0.0
aF0.0
aF0.0
aF0.0
aF0.0
aF0.0
aF0.0
aF0.0
aF0.0
aF0.0
aF0.0
aF0.0
aF700.3408738766656
aF0.0
aF0.0
aF0.0
aF0.0
aF0.0
aF0.0
aF0.0
aF0.0
aF0.0
asS'Bacteria.Gemmatimonadota'
p39
(lp40
F0.0
aF0.0
aF0.0
aF0.0
aF0.0
aF0.0
aF0.0
aF1406.6496163682866
aF0.0
aF0.0
aF0.0
aF0.0
aF0.0
aF0.0
aF0.0
aF0.0
aF0.0
aF0.0
aF0.0
aF0.0
aF0.0
aF0.0
aF0.0
aF0.0
aF0.0
aF0.0
aF0.0
aF0.0
aF0.0
aF0.0
aF0.0
aF0.0
aF0.0
aF0.0
aF0.0
aF0.0
aF0.0
aF0.0
asS'Bacteria'
p41
(lp42
F499999.9999999999
aF500000.00000000006
aF499999.9999999999
aF499999.99999999994
aF499999.99999999994
aF500000.0
aF500000.0
aF500000.0
aF500000.0000000001
aF500000.00000000006
aF500000.0
aF500000.00000000006
aF500000.0
aF499999.99999999994
aF500000.00000000006
aF500000.0
aF500000.00000000006
aF500000.0
aF500000.00000000006
aF500000.00000000006
aF499999.99999999994
aF500000.0
aF500000.0
aF500000.00000000006
aF500000.0
aF500000.00000000006
aF500000.0
aF500000.00000000006
aF499649.8295630616
aF500000.00000000006
aF500000.0
aF500000.00000000006
aF500000.0
aF499999.9999999999
aF500000.0
aF500000.0
aF499958.2027168235
aF499768.93114148016
asS'Bacteria.Cyanobacteria'
p43
(lp44
F143.2371598117454
aF0.0
aF0.0
aF259.6323605774224
aF0.0
aF0.0
aF0.0
aF0.0
aF25.378295213019072
aF0.0
aF0.0
aF659.2969907156535
aF226.47491790284224
aF0.0
aF0.0
aF119.48214127414214
aF258.91692286035334
aF0.0
aF2372.1518606733953
aF0.0
aF407.4074074074074
aF0.0
aF82.26751201105677
aF220.0123206899587
aF146.87555634680436
aF0.0
aF372.1134776964484
aF1270.7919172601225
aF251.0071273628757
aF94.4822373393802
aF0.0
aF2202.2089676652645
aF3179.4378540130383
aF0.0
aF536.8195023367438
aF0.0
aF0.0
aF55.59551483184095
asS'Bacteria.Firmicutes'
p45
(lp46
F239538.5717208921
aF465067.62083813455
aF450558.49996832694
aF470713.46972686675
aF305613.46039309114
aF426912.18130311614
aF454469.45599869505
aF188618.92583120204
aF318649.87469466747
aF472627.99729219376
aF474982.41480715614
aF428362.4146526499
aF197854.15015287057
aF347681.52809389925
aF333917.30903994397
aF154846.92795997733
aF90669.94125350984
aF25713.806133955393
aF50487.424051407725
aF21611.562505323047
aF102740.74074074074
aF68745.20996855097
aF193027.00568194286
aF54512.283457104386
aF250262.59569165032
aF305924.6980819323
aF117672.43019700871
aF426986.08419940114
aF236656.33715525252
aF151618.79566641472
aF286321.45025587647
aF211076.94213991635
aF147634.5694845214
aF393385.99285437557
aF444612.8584059619
aF396332.446021887
aF108022.98850574714
aF221806.99322082193
asS'Bacteria.Bacteroidota'
p47
(lp48
F195759.1569470022
aF17379.010249257084
aF22878.43915623218
aF986.602970194205
aF106238.83263847527
aF16471.064346418454
aF11030.911018677107
aF281329.9232736573
aF128395.14005646674
aF8283.749599173409
aF6440.8417163148215
aF44434.81088110979
aF253170.6488506398
aF57816.75369304235
aF43973.37070777856
aF328140.3568276335
aF386764.06635311747
aF392115.63788487855
aF435392.41985262383
aF403474.032057506
aF395037.037037037
aF428867.48240351665
aF299538.75348265807
aF442556.47547031875
aF247080.2919708029
aF183836.13544873314
aF358264.93633899535
aF26044.94325473716
aF253538.8906104741
aF301001.5117157975
aF183609.44863677103
aF277968.33550174884
aF346950.5895764312
aF92247.42800568204
aF4736.642667677151
aF96569.06240757172
aF384447.2309299896
aF259453.8435611707
asS'Bacteria.Elusimicrobiota'
p49
(lp50
F0.0
aF0.0
aF0.0
aF0.0
aF0.0
aF0.0
aF0.0
aF0.0
aF0.0
aF0.0
aF0.0
aF0.0
aF0.0
aF0.0
aF0.0
aF0.0
aF0.0
aF0.0
aF0.0
aF0.0
aF0.0
aF0.0
aF0.0
aF0.0
aF0.0
aF0.0
aF0.0
aF0.0
aF0.0
aF0.0
aF0.0
aF0.0
aF0.0
aF0.0
aF0.0
aF0.0
aF45.97701149425288
aF95.55479111722663
asS'Bacteria.Campilobacterota'
p51
(lp52
F0.0
aF0.0
aF0.0
aF0.0
aF0.0
aF0.0
aF0.0
aF0.0
aF0.0
aF0.0
aF0.0
aF1146.9961345327122
aF0.0
aF0.0
aF0.0
aF0.0
aF8.798147864186763
aF0.0
aF0.0
aF0.0
aF0.0
aF0.0
aF19.19575280257991
aF0.0
aF0.0
aF33.1517878285579
aF0.0
aF163.56727647902565
aF0.0
aF0.0
aF0.0
aF0.0
aF0.0
aF96.85334251646503
aF0.0
aF0.0
aF319.7492163009405
aF229.3314986813439
asS'Archaea.Euryarchaeota'
p53
(lp54
F0.0
aF0.0
aF0.0
aF0.0
aF0.0
aF0.0
aF0.0
aF0.0
aF0.0
aF0.0
aF0.0
aF0.0
aF0.0
aF0.0
aF0.0
aF0.0
aF0.0
aF0.0
aF0.0
aF0.0
aF0.0
aF0.0
aF0.0
aF0.0
aF0.0
aF0.0
aF0.0
aF0.0
aF0.0
aF0.0
aF0.0
aF0.0
aF0.0
aF0.0
aF0.0
aF0.0
aF41.797283176593524
aF231.06885851983895
asS'Bacteria.Proteobacteria'
p55
(lp56
F3345.610804174339
aF5909.242525319911
aF7031.398467028441
aF11423.823865406584
aF65068.493150684924
aF18008.903278025093
aF12702.87904738602
aF15728.900255754477
aF1858.960124353647
aF5994.584387358821
aF4873.005245896082
aF6502.655250894116
aF15768.316158985392
aF14682.911590128086
aF31885.073580939035
aF1705.5112101228353
aF19931.575547181954
aF6051.320014116877
aF9375.852374621734
aF6947.638271415675
aF1318.5185185185185
aF2334.4521084947633
aF2097.8215562819473
aF1513.0078053601774
aF1335.232330425494
aF2614.25526876628
aF2575.194408149285
aF20911.447192933898
aF3709.3275488069407
aF4768.203577727388
aF8442.478387833578
aF2742.904775583079
aF1229.0263973495778
aF2109.250570358572
aF29177.71883289125
aF5619.639160011831
aF4967.60710553814
aF2946.5622860875706
asS'Bacteria.Acidobacteriota'
p57
(lp58
F0.0
aF0.0
aF0.0
aF0.0
aF0.0
aF0.0
aF0.0
aF0.0
aF0.0
aF0.0
aF0.0
aF0.0
aF339.71237685426337
aF0.0
aF0.0
aF0.0
aF0.0
aF0.0
aF0.0
aF0.0
aF0.0
aF0.0
aF0.0
aF0.0
aF0.0
aF0.0
aF0.0
aF188.73147286041424
aF0.0
aF0.0
aF0.0
aF0.0
aF0.0
aF0.0
aF0.0
aF0.0
aF0.0
aF0.0
asS'Bacteria.Deferribacterota'
p59
(lp60
F0.0
aF0.0
aF0.0
aF0.0
aF0.0
aF0.0
aF0.0
aF0.0
aF0.0
aF204.86692557095523
aF0.0
aF0.0
aF0.0
aF0.0
aF0.0
aF125.2635352067619
aF116.88967876705271
aF0.0
aF67.65304084310723
aF0.0
aF0.0
aF0.0
aF43.87600640589694
aF0.0
aF338.25885704112517
aF0.0
aF0.0
aF0.0
aF0.0
aF62.988158226253475
aF0.0
aF33.7934879948634
aF0.0
aF0.0
aF0.0
aF0.0
aF0.0
aF0.0
asS'Bacteria.Verrucomicrobiota'
p61
(lp62
F45656.84468999385
aF1747.3770392382803
aF5500.53844042315
aF0.0
aF446.6944609886837
aF10602.994738972075
aF12182.937770165567
aF4987.212276214834
aF43561.84373314724
aF2663.270032422418
aF3076.3493987135266
aF532.8564719482678
aF452.9498358056845
aF27647.610121836926
aF71303.43377715487
aF14996.93586121571
aF1726.9507379132303
aF76071.89278059445
aF1556.0199393914666
aF67939.08733200471
aF0.0
aF0.0
aF134.37026961805938
aF20.30882960215003
aF293.7511126936087
aF5882.07435472413
aF18757.90212569824
aF0.0
aF3352.959405020142
aF41307.634164777024
aF12287.853817908463
aF3956.654219398589
aF231.55569805136975
aF8350.910421419652
aF0.0
aF0.0
aF0.0
aF0.0
asS'Bacteria.Patescibacteria'
p63
(lp64
F1897.892367505627
aF2812.4810479713756
aF7680.694271416202
aF1869.352996157441
aF7593.805836807624
aF16228.247673006881
aF275.2630291167115
aF6265.984654731458
aF1402.1508105193036
aF587.8790038123063
aF1915.3029314304601
aF1201.184928290163
aF14098.06363945193
aF423.9746507787745
aF0.0
aF0.0
aF18.85317399468592
aF0.0
aF520.8210287128097
aF0.0
aF0.0
aF0.0
aF474.40931926376066
aF0.0
aF253.69414278084383
aF644.091877811982
aF591.998714517077
aF3170.688744054959
aF743.7248218159281
aF617.2839506172841
aF4915.141527163385
aF166.15131597474502
aF0.0
aF1086.9097326847743
aF7894.404446128585
aF1478.852410529429
aF0.0
aF11407.504699558365
asS'Archaea'
p65
(lp66
F0.0
aF0.0
aF0.0
aF0.0
aF0.0
aF0.0
aF0.0
aF0.0
aF0.0
aF0.0
aF0.0
aF0.0
aF0.0
aF0.0
aF0.0
aF0.0
aF0.0
aF0.0
aF0.0
aF0.0
aF0.0
aF0.0
aF0.0
aF0.0
aF0.0
aF0.0
aF0.0
aF0.0
aF0.0
aF0.0
aF0.0
aF0.0
aF0.0
aF0.0
aF0.0
aF0.0
aF41.797283176593524
aF231.06885851983895
assS'subclass_sl'
p67
(dp68
g28
(I0
I8
tp69
sg20
(I15
I19
tp70
sg26
(I19
I24
tp71
sg22
(I8
I15
tp72
sg24
(I31
I38
tp73
sg18
(I24
I31
tp74
ssS'norm'
p75
F1000000.0
sS'cls'
p76
(dp77
S'class'
p78
(S'HSD-NC'
p79
S'HSD-NC'
p80
S'HSD-NC'
p81
S'HSD-NC'
p82
S'HSD-NC'
p83
S'HSD-NC'
p84
S'HSD-NC'
p85
g13
S'HSD-NR'
p86
S'HSD-NR'
p87
S'HSD-NR'
p88
S'HSD-NR'
p89
S'HSD-NR'
p90
S'HSD-NR'
p91
g7
S'NC'
p92
S'NC'
p93
S'NC'
p94
g5
S'NR'
p95
S'NR'
p96
S'NR'
p97
S'NR'
p98
g11
S'STD-NC'
p99
S'STD-NC'
p100
S'STD-NC'
p101
S'STD-NC'
p102
S'STD-NC'
p103
S'STD-NC'
p104
g3
S'STD-NR'
p105
S'STD-NR'
p106
S'STD-NR'
p107
S'STD-NR'
p108
S'STD-NR'
p109
S'STD-NR'
p110
g9
tp111
sS'subclass'
p112
(lp113
S'HSD-NC_subcl'
p114
aS'HSD-NC_subcl'
p115
aS'HSD-NC_subcl'
p116
aS'HSD-NC_subcl'
p117
aS'HSD-NC_subcl'
p118
aS'HSD-NC_subcl'
p119
aS'HSD-NC_subcl'
p120
ag28
aS'HSD-NR_subcl'
p121
aS'HSD-NR_subcl'
p122
aS'HSD-NR_subcl'
p123
aS'HSD-NR_subcl'
p124
aS'HSD-NR_subcl'
p125
aS'HSD-NR_subcl'
p126
ag22
aS'NC_subcl'
p127
aS'NC_subcl'
p128
aS'NC_subcl'
p129
ag20
aS'NR_subcl'
p130
aS'NR_subcl'
p131
aS'NR_subcl'
p132
aS'NR_subcl'
p133
ag26
aS'STD-NC_subcl'
p134
aS'STD-NC_subcl'
p135
aS'STD-NC_subcl'
p136
aS'STD-NC_subcl'
p137
aS'STD-NC_subcl'
p138
aS'STD-NC_subcl'
p139
ag18
aS'STD-NR_subcl'
p140
aS'STD-NR_subcl'
p141
aS'STD-NR_subcl'
p142
aS'STD-NR_subcl'
p143
aS'STD-NR_subcl'
p144
aS'STD-NR_subcl'
p145
ag24
asS'subject'
p146
(S'S210421121688'
p147
S'S210421121689'
p148
S'S210421121690'
p149
S'S210421121698'
p150
S'S210421121699'
p151
S'S210421121700'
p152
S'S210421121701'
p153
S'S210421121702'
p154
S'S210421121691'
p155
S'S210421121692'
p156
S'S210421121693'
p157
S'S210421121707'
p158
S'S210421121708'
p159
S'S210421121709'
p160
S'S210421121710'
p161
S'S210421121673'
p162
S'S210421121674'
p163
S'S210421121675'
p164
S'S210421121676'
p165
S'S210421121677'
p166
S'S210421121678'
p167
S'S210421121679'
p168
S'S210421121680'
p169
S'S210421121681'
p170
S'S210421121682'
p171
S'S210421121683'
p172
S'S210421121684'
p173
S'S210421121694'
p174
S'S210421121695'
p175
S'S210421121696'
p176
S'S210421121697'
p177
S'S210421121685'
p178
S'S210421121686'
p179
S'S210421121687'
p180
S'S210421121703'
p181
S'S210421121704'
p182
S'S210421121705'
p183
S'S210421121706'
p184
tp185
ss.