(dp0
S'class_sl'
p1
(dp2
S'STD-NC'
p3
(I24
I31
tp4
sS'NC'
p5
(I15
I19
tp6
sS'HSD-NR'
p7
(I8
I15
tp8
sS'STD-NR'
p9
(I31
I38
tp10
sS'NR'
p11
(I19
I24
tp12
sS'HSD-NC'
p13
(I0
I8
tp14
ssS'class_hierarchy'
p15
(dp16
g3
(lp17
S'STD-NC_subcl'
p18
asg5
(lp19
S'NC_subcl'
p20
asg7
(lp21
S'HSD-NR_subcl'
p22
asg9
(lp23
S'STD-NR_subcl'
p24
asg11
(lp25
S'NR_subcl'
p26
asg13
(lp27
S'HSD-NC_subcl'
p28
assS'feats'
p29
(dp30
S'Bacteria.Chloroflexi'
p31
(lp32
F0.0
aF0.0
aF0.0
aF0.0
aF0.0
aF0.0
aF0.0
aF0.0
aF0.0
aF0.0
aF0.0
aF0.0
aF452.9498358056845
aF0.0
aF0.0
aF0.0
aF0.0
aF0.0
aF0.0
aF0.0
aF0.0
aF0.0
aF0.0
aF0.0
aF0.0
aF0.0
aF0.0
aF0.0
aF179.60771198355042
aF0.0
aF0.0
aF0.0
aF0.0
aF0.0
aF0.0
aF0.0
aF0.0
aF0.0
asS'Bacteria.Chloroflexi.Chloroflexia'
p33
(lp34
F0.0
aF0.0
aF0.0
aF0.0
aF0.0
aF0.0
aF0.0
aF0.0
aF0.0
aF0.0
aF0.0
aF0.0
aF0.0
aF0.0
aF0.0
aF0.0
aF0.0
aF0.0
aF0.0
aF0.0
aF0.0
aF0.0
aF0.0
aF0.0
aF0.0
aF0.0
aF0.0
aF0.0
aF179.60771198355042
aF0.0
aF0.0
aF0.0
aF0.0
aF0.0
aF0.0
aF0.0
aF0.0
aF0.0
asS'Eukaryota'
p35
(lp36
F0.0
aF0.0
aF0.0
aF0.0
aF0.0
aF0.0
aF0.0
aF0.0
aF0.0
aF0.0
aF0.0
aF0.0
aF0.0
aF0.0
aF0.0
aF0.0
aF0.0
aF0.0
aF0.0
aF0.0
aF0.0
aF0.0
aF0.0
aF0.0
aF0.0
aF0.0
aF0.0
aF0.0
aF1399.7014795959444
aF0.0
aF0.0
aF0.0
aF0.0
aF0.0
aF0.0
aF0.0
aF0.0
aF0.0
asS'Bacteria.Elusimicrobiota'
p37
(lp38
F0.0
aF0.0
aF0.0
aF0.0
aF0.0
aF0.0
aF0.0
aF0.0
aF0.0
aF0.0
aF0.0
aF0.0
aF0.0
aF0.0
aF0.0
aF0.0
aF0.0
aF0.0
aF0.0
aF0.0
aF0.0
aF0.0
aF0.0
aF0.0
aF0.0
aF0.0
aF0.0
aF0.0
aF0.0
aF0.0
aF0.0
aF0.0
aF0.0
aF0.0
aF0.0
aF0.0
aF91.95402298850576
aF191.10958223445326
asS'Bacteria.Campilobacterota'
p39
(lp40
F0.0
aF0.0
aF0.0
aF0.0
aF0.0
aF0.0
aF0.0
aF0.0
aF0.0
aF0.0
aF0.0
aF2293.992269065424
aF0.0
aF0.0
aF0.0
aF0.0
aF17.596295728373523
aF0.0
aF0.0
aF0.0
aF0.0
aF0.0
aF38.391505605159814
aF0.0
aF0.0
aF66.3035756571158
aF0.0
aF327.1345529580513
aF0.0
aF0.0
aF0.0
aF0.0
aF0.0
aF193.70668503293012
aF0.0
aF0.0
aF639.498432601881
aF458.6629973626878
asS'Bacteria.Firmicutes.Clostridia'
p41
(lp42
F429363.61776140786
aF819030.8690642247
aF776536.6667370511
aF765396.1989822411
aF494714.11554496724
aF797652.7721570214
aF811312.2910039964
aF367263.4271099744
aF618805.3167528472
aF819877.4361349628
aF771807.7578243515
aF826939.055669954
aF316102.3666628921
aF656848.3063328422
aF596355.9915907499
aF297136.6682983045
aF122605.96112224147
aF38455.57917932738
aF70318.35588076741
aF27598.923467388897
aF78103.70370370371
aF115154.55834808883
aF285100.80512471753
aF63586.94548433174
aF488009.6136727792
aF534908.8325834716
aF146058.76855810257
aF678628.0480132867
aF386850.2381350526
aF274426.80776014115
aF382744.9619799347
aF357056.3619057274
aF238128.317480674
aF492337.82445869746
aF606732.3481116585
aF393374.74120082817
aF185751.3061650993
aF348340.6476182534
asS'Archaea'
p43
(lp44
F0.0
aF0.0
aF0.0
aF0.0
aF0.0
aF0.0
aF0.0
aF0.0
aF0.0
aF0.0
aF0.0
aF0.0
aF0.0
aF0.0
aF0.0
aF0.0
aF0.0
aF0.0
aF0.0
aF0.0
aF0.0
aF0.0
aF0.0
aF0.0
aF0.0
aF0.0
aF0.0
aF0.0
aF0.0
aF0.0
aF0.0
aF0.0
aF0.0
aF0.0
aF0.0
aF0.0
aF83.59456635318705
aF462.1377170396779
asS'Bacteria.Campilobacterota.Campylobacteria'
p45
(lp46
F0.0
aF0.0
aF0.0
aF0.0
aF0.0
aF0.0
aF0.0
aF0.0
aF0.0
aF0.0
aF0.0
aF2293.992269065424
aF0.0
aF0.0
aF0.0
aF0.0
aF17.596295728373523
aF0.0
aF0.0
aF0.0
aF0.0
aF0.0
aF38.391505605159814
aF0.0
aF0.0
aF66.3035756571158
aF0.0
aF327.1345529580513
aF0.0
aF0.0
aF0.0
aF0.0
aF0.0
aF193.70668503293012
aF0.0
aF0.0
aF639.498432601881
aF458.6629973626878
asS'Bacteria.Proteobacteria.Alphaproteobacteria'
p47
(lp48
F61.38735420503377
aF310.8132694523622
aF316.7296606769569
aF934.6764980787206
aF7072.662298987492
aF647.5111290975315
aF1916.646276812658
aF0.0
aF0.0
aF0.0
aF135.59666771189097
aF216.75517502980384
aF1245.6120484656324
aF223.1445530414602
aF0.0
aF0.0
aF746.5856901895625
aF0.0
aF11913.378335133835
aF38.32592365476008
aF0.0
aF74.87865253662447
aF126.14351841695368
aF0.0
aF133.52323304254944
aF0.0
aF334.05641747749354
aF578.7765167719369
aF247.73477514972467
aF0.0
aF0.0
aF264.71565595976324
aF0.0
aF0.0
aF1894.6570670708602
aF0.0
aF1776.3845350052247
aF277.9775741592047
asS'Bacteria.Proteobacteria.Gammaproteobacteria'
p49
(lp50
F6629.834254143647
aF11507.671781187459
aF13746.06727337993
aF21912.97123273445
aF123064.32400238237
aF35370.29542695265
aF23489.111817959383
aF31457.800511508947
aF3717.920248707293
aF11989.16877471764
aF9610.413824080273
aF12788.555326758426
aF30291.020269505152
aF29142.678627214704
aF63770.14716187807
aF3411.0224202456707
aF39116.56540417435
aF12102.640028233754
aF6838.326414109632
aF13856.950619176589
aF2637.037037037037
aF4594.025564452901
aF4069.4995941469406
aF3026.0156107203543
aF2536.9414278084396
aF5228.51053753256
aF4816.332398821077
aF41244.11786909585
aF7165.728371205787
aF9536.407155454775
aF16884.95677566716
aF5221.093895206393
aF2458.0527946991556
aF4218.501140717145
aF56460.78059871163
aF11239.278320023663
aF8158.829676071057
aF5615.146998015935
asS'Bacteria.Deferribacterota.Deferribacteres'
p51
(lp52
F0.0
aF0.0
aF0.0
aF0.0
aF0.0
aF0.0
aF0.0
aF0.0
aF0.0
aF409.73385114191046
aF0.0
aF0.0
aF0.0
aF0.0
aF0.0
aF250.5270704135238
aF233.7793575341054
aF0.0
aF135.30608168621447
aF0.0
aF0.0
aF0.0
aF87.75201281179388
aF0.0
aF676.5177140822504
aF0.0
aF0.0
aF0.0
aF0.0
aF125.97631645250695
aF0.0
aF67.58697598972678
aF0.0
aF0.0
aF0.0
aF0.0
aF0.0
aF0.0
asS'Bacteria.Actinobacteriota'
p53
(lp54
F27317.37262124003
aF14168.53660015768
aF12700.859393145973
aF27624.883165437743
aF25461.584276354974
aF23553.217320922708
aF18677.106271919092
aF3324.8081841432218
aF12213.304571265426
aF19275.30551893683
aF17424.17180097799
aF22343.84595932228
aF21401.879741818593
aF103494.44370062924
aF37841.625788367215
aF131.0449291393817
aF1008.0163695825404
aF94.68637290936793
aF455.3157034520233
aF55.35966750132012
aF992.5925925925926
aF105.71103887523455
aF9164.600838031722
aF2355.8242338494033
aF578.6006765177142
aF2131.1863604072933
aF3530.8494758697097
aF42527.49188454667
aF780.3645417216328
aF1058.2010582010585
aF8847.254748894095
aF3706.019183436685
aF1549.6419792668592
aF5445.310145925703
aF26083.11229000884
aF0.0
aF585.1619644723094
aF4138.391135295161
asS'Bacteria'
p55
(lp56
F1000000.0
aF1000000.0
aF1000000.0
aF1000000.0
aF1000000.0
aF1000000.0
aF1000000.0
aF1000000.0
aF1000000.0
aF1000000.0
aF1000000.0
aF1000000.0
aF1000000.0
aF1000000.0
aF1000000.0
aF1000000.0
aF1000000.0
aF1000000.0
aF1000000.0
aF1000000.0
aF1000000.0
aF1000000.0
aF1000000.0
aF1000000.0
aF1000000.0
aF1000000.0
aF1000000.0
aF1000000.0
aF998600.2985204041
aF1000000.0
aF1000000.0
aF1000000.0
aF1000000.0
aF1000000.0
aF1000000.0
aF1000000.0
aF999916.4054336468
aF999537.8622829603
asS'Bacteria.Firmicutes'
p57
(lp58
F479077.14344178437
aF930135.2416762691
aF901116.9999366541
aF941426.9394537335
aF611226.9207861823
aF853824.3626062323
aF908938.9119973901
aF377237.851662404
aF637299.7493893348
aF945255.9945843874
aF949964.8296143123
aF856724.8293052996
aF395708.30030574114
aF695363.0561877983
aF667834.6180798879
aF309693.85591995466
aF181339.88250701965
aF51427.61226791079
aF100974.84810281543
aF43223.12501064609
aF205481.4814814815
aF137490.41993710192
aF386054.0113638856
aF109024.56691420874
aF500525.19138330076
aF611849.3961638645
aF235344.86039401748
aF853972.1683988022
aF472981.42608523316
aF303237.5913328295
aF572642.9005117532
aF422153.8842798326
aF295269.1389690428
aF786771.9857087511
aF889225.7168119238
aF792664.892043774
aF216045.9770114943
aF443613.9864416439
asS'Bacteria.Actinobacteriota.Actinobacteria'
p59
(lp60
F19122.16083486802
aF10825.398750682274
aF5996.748242150385
aF13604.735694256933
aF10422.87075640262
aF4613.516794819911
aF163.1188320691624
aF0.0
aF1497.319417568125
aF5914.419068657142
aF6864.581302914481
aF632.2025938369279
aF13758.351262597667
aF80956.84384344176
aF14365.802382620885
aF0.0
aF718.9343683306897
aF8.60785208266981
aF85.90862329283458
aF0.0
aF0.0
aF0.0
aF6115.218392821886
aF372.3285427060839
aF0.0
aF28.415818138763914
aF3327.878488035283
aF3321.67392234329
aF0.0
aF0.0
aF4597.102957758696
aF2917.5044635565396
aF1335.8982579886715
aF0.0
aF2652.519893899204
aF0.0
aF121.21212121212122
aF2112.6295636099558
asS'Bacteria.Patescibacteria'
p61
(lp62
F3795.784735011255
aF5624.96209594275
aF15361.38854283241
aF3738.705992314882
aF15187.611673615247
aF32456.495346013762
aF550.526058233423
aF12531.969309462913
aF2804.3016210386068
aF1175.7580076246127
aF3830.6058628609203
aF2402.369856580326
aF28196.12727890386
aF847.9493015575488
aF0.0
aF0.0
aF37.706347989371835
aF0.0
aF1041.6420574256194
aF0.0
aF0.0
aF0.0
aF948.8186385275212
aF0.0
aF507.3882855616878
aF1288.183755623964
aF1183.9974290341543
aF6341.377488109918
aF1486.4086508983482
aF1234.5679012345681
aF9830.283054326772
aF332.30263194949
aF0.0
aF2173.819465369549
aF15788.80889225717
aF2957.704821058858
aF0.0
aF22815.00939911673
asS'Bacteria.Acidobacteriota'
p63
(lp64
F0.0
aF0.0
aF0.0
aF0.0
aF0.0
aF0.0
aF0.0
aF0.0
aF0.0
aF0.0
aF0.0
aF0.0
aF679.4247537085267
aF0.0
aF0.0
aF0.0
aF0.0
aF0.0
aF0.0
aF0.0
aF0.0
aF0.0
aF0.0
aF0.0
aF0.0
aF0.0
aF0.0
aF377.46294572082843
aF0.0
aF0.0
aF0.0
aF0.0
aF0.0
aF0.0
aF0.0
aF0.0
aF0.0
aF0.0
asS'Bacteria.Elusimicrobiota.Elusimicrobia'
p65
(lp66
F0.0
aF0.0
aF0.0
aF0.0
aF0.0
aF0.0
aF0.0
aF0.0
aF0.0
aF0.0
aF0.0
aF0.0
aF0.0
aF0.0
aF0.0
aF0.0
aF0.0
aF0.0
aF0.0
aF0.0
aF0.0
aF0.0
aF0.0
aF0.0
aF0.0
aF0.0
aF0.0
aF0.0
aF0.0
aF0.0
aF0.0
aF0.0
aF0.0
aF0.0
aF0.0
aF0.0
aF91.95402298850576
aF191.10958223445326
asS'Bacteria.Gemmatimonadota.Gemmatimonadetes'
p67
(lp68
F0.0
aF0.0
aF0.0
aF0.0
aF0.0
aF0.0
aF0.0
aF2813.2992327365723
aF0.0
aF0.0
aF0.0
aF0.0
aF0.0
aF0.0
aF0.0
aF0.0
aF0.0
aF0.0
aF0.0
aF0.0
aF0.0
aF0.0
aF0.0
aF0.0
aF0.0
aF0.0
aF0.0
aF0.0
aF0.0
aF0.0
aF0.0
aF0.0
aF0.0
aF0.0
aF0.0
aF0.0
aF0.0
aF0.0
asS'Bacteria.Actinobacteriota.Coriobacteriia'
p69
(lp70
F8195.211786372007
aF3343.137849475408
aF6704.111150995588
aF14020.147471180808
aF15038.713519952353
aF18939.700526102795
aF18513.98743984993
aF3324.8081841432218
aF10715.9851536973
aF13360.886450279688
aF10559.59049806351
aF21711.64336548535
aF7643.528479220926
aF22537.59985718748
aF23475.823405746323
aF131.0449291393817
aF289.0820012518507
aF86.07852082669812
aF369.4070801591887
aF55.35966750132012
aF992.5925925925926
aF105.71103887523455
aF3049.382445209837
aF1983.4956911433196
aF578.6006765177142
aF2102.77054226853
aF202.97098783442644
aF39205.81796220338
aF780.3645417216328
aF1058.2010582010585
aF4250.151791135398
aF788.5147198801458
aF213.74372127818745
aF5445.310145925703
aF23430.592396109638
aF0.0
aF463.9498432601881
aF2025.7615716852047
asS'Bacteria.Cyanobacteria'
p71
(lp72
F286.47431962349094
aF0.0
aF0.0
aF519.2647211548448
aF0.0
aF0.0
aF0.0
aF0.0
aF50.75659042603813
aF0.0
aF0.0
aF1318.5939814313067
aF452.9498358056845
aF0.0
aF0.0
aF238.96428254828427
aF517.8338457207066
aF0.0
aF4744.30372134679
aF0.0
aF814.8148148148148
aF0.0
aF164.5350240221135
aF440.02464137991734
aF293.7511126936088
aF0.0
aF744.2269553928969
aF2541.5838345202446
aF501.6629196781925
aF188.9644746787604
aF0.0
aF4404.417935330528
aF6358.875708026077
aF0.0
aF1073.6390046734875
aF0.0
aF0.0
aF111.1910296636819
asS'Bacteria.Patescibacteria.Saccharimonadia'
p73
(lp74
F3795.784735011255
aF5624.96209594275
aF15361.38854283241
aF3738.705992314882
aF15187.611673615247
aF32456.495346013762
aF550.526058233423
aF12531.969309462913
aF2804.3016210386068
aF1175.7580076246127
aF3830.6058628609203
aF2402.369856580326
aF28196.12727890386
aF847.9493015575488
aF0.0
aF0.0
aF37.706347989371835
aF0.0
aF1041.6420574256194
aF0.0
aF0.0
aF0.0
aF948.8186385275212
aF0.0
aF507.3882855616878
aF1288.183755623964
aF1183.9974290341543
aF6341.377488109918
aF1486.4086508983482
aF1234.5679012345681
aF9830.283054326772
aF332.30263194949
aF0.0
aF2173.819465369549
aF15788.80889225717
aF2957.704821058858
aF0.0
aF22815.00939911673
asS'Bacteria.Verrucomicrobiota'
p75
(lp76
F91313.68937998773
aF3494.75407847656
aF11001.076880846304
aF0.0
aF893.3889219773674
aF21205.98947794415
aF24365.875540331133
aF9974.424552429664
aF87123.68746629445
aF5326.540064844836
aF6152.698797427053
aF1065.7129438965355
aF905.899671611369
aF55295.22024367384
aF142606.86755430975
aF29993.87172243142
aF3453.9014758264602
aF152143.7855611889
aF3112.0398787829326
aF135878.1746640094
aF0.0
aF0.0
aF268.7405392361187
aF40.61765920430006
aF587.5022253872175
aF11764.14870944826
aF37515.80425139648
aF0.0
aF6701.225667800053
aF82615.26832955405
aF24575.70763581693
aF7913.308438797177
aF463.1113961027395
aF16701.820842839308
aF0.0
aF0.0
aF0.0
aF0.0
asS'Bacteria.Proteobacteria'
p77
(lp78
F6691.221608348681
aF11818.48505063982
aF14062.796934056887
aF22847.64773081317
aF130136.98630136985
aF36017.806556050185
aF25405.75809477204
aF31457.800511508947
aF3717.920248707293
aF11989.16877471764
aF9746.010491792164
aF13005.31050178823
aF31536.632317970783
aF29365.823180256164
aF63770.14716187807
aF3411.0224202456707
aF39863.15109436391
aF12102.640028233754
aF18751.70474924347
aF13895.276542831349
aF2637.037037037037
aF4668.904216989525
aF4195.643112563895
aF3026.0156107203543
aF2670.464660850989
aF5228.51053753256
aF5150.38881629857
aF41822.89438586778
aF7413.4631463555115
aF9536.407155454775
aF16884.95677566716
aF5485.809551166158
aF2458.0527946991556
aF4218.501140717145
aF58355.4376657825
aF11239.278320023663
aF9935.214211076282
aF5893.124572175141
asS'Bacteria.Bacteroidota.Bacteroidia'
p79
(lp80
F391518.31389400456
aF34758.02049851416
aF45756.878312464374
aF1973.20594038841
aF212477.66527695055
aF32942.12869283691
aF22061.822037354214
aF562659.8465473144
aF256790.28011293343
aF16567.499198346814
aF12881.683432629643
aF88869.62176221957
aF506341.2977012796
aF115633.50738608468
aF87946.74141555712
aF656280.713655267
aF773528.1327062349
aF784231.2757697571
aF870784.8397052475
aF806948.0641150118
aF790074.074074074
aF857734.9648070333
aF599077.506965316
aF885112.9509406374
aF494160.58394160593
aF367672.2708974663
aF716529.8726779908
aF52089.886509474316
aF506722.9024606257
aF602003.023431595
aF367218.8972735421
aF555936.6710034977
aF693901.1791528624
aF184494.8560113641
aF9473.285335354301
aF193138.12481514344
aF768894.4618599792
aF518907.6871223414
asS'Bacteria.Bacteroidota'
p81
(lp82
F391518.31389400456
aF34758.02049851416
aF45756.878312464374
aF1973.20594038841
aF212477.66527695055
aF32942.12869283691
aF22061.822037354214
aF562659.8465473144
aF256790.28011293343
aF16567.499198346814
aF12881.683432629643
aF88869.62176221957
aF506341.2977012796
aF115633.50738608468
aF87946.74141555712
aF656280.713655267
aF773528.1327062349
aF784231.2757697571
aF870784.8397052475
aF806948.0641150118
aF790074.074074074
aF857734.9648070333
aF599077.506965316
aF885112.9509406374
aF494160.58394160593
aF367672.2708974663
aF716529.8726779908
aF52089.886509474316
aF506722.9024606257
aF602003.023431595
aF367218.8972735421
aF555936.6710034977
aF693901.1791528624
aF184494.8560113641
aF9473.285335354301
aF193138.12481514344
aF768894.4618599792
aF518907.6871223414
asS'Bacteria.Firmicutes.Negativicutes'
p83
(lp84
F0.0
aF0.0
aF0.0
aF0.0
aF0.0
aF0.0
aF0.0
aF0.0
aF0.0
aF0.0
aF0.0
aF0.0
aF0.0
aF0.0
aF0.0
aF0.0
aF0.0
aF0.0
aF0.0
aF0.0
aF0.0
aF0.0
aF0.0
aF0.0
aF0.0
aF0.0
aF0.0
aF0.0
aF0.0
aF0.0
aF0.0
aF0.0
aF0.0
aF0.0
aF0.0
aF0.0
aF7619.644723093
aF1198.7782885615704
asS'Bacteria.Desulfobacterota'
p85
(lp86
F0.0
aF0.0
aF0.0
aF1869.352996157441
aF4615.842763549732
aF0.0
aF0.0
aF0.0
aF0.0
aF0.0
aF0.0
aF11975.723420396662
aF14324.538557354774
aF0.0
aF0.0
aF0.0
aF0.0
aF0.0
aF0.0
aF0.0
aF0.0
aF0.0
aF0.0
aF0.0
aF0.0
aF0.0
aF0.0
aF0.0
aF1833.2373361079628
aF0.0
aF0.0
aF0.0
aF0.0
aF0.0
aF0.0
aF0.0
aF3724.1379310344832
aF3408.7000031272482
asS'Bacteria.Desulfobacterota.Desulfovibrionia'
p87
(lp88
F0.0
aF0.0
aF0.0
aF1869.352996157441
aF4615.842763549732
aF0.0
aF0.0
aF0.0
aF0.0
aF0.0
aF0.0
aF11975.723420396662
aF14324.538557354774
aF0.0
aF0.0
aF0.0
aF0.0
aF0.0
aF0.0
aF0.0
aF0.0
aF0.0
aF0.0
aF0.0
aF0.0
aF0.0
aF0.0
aF0.0
aF1833.2373361079628
aF0.0
aF0.0
aF0.0
aF0.0
aF0.0
aF0.0
aF0.0
aF3724.1379310344832
aF3408.7000031272482
asS'Bacteria.Cyanobacteria.Vampirivibrionia'
p89
(lp90
F286.47431962349094
aF0.0
aF0.0
aF519.2647211548448
aF0.0
aF0.0
aF0.0
aF0.0
aF50.75659042603813
aF0.0
aF0.0
aF1318.5939814313067
aF0.0
aF0.0
aF0.0
aF238.96428254828427
aF517.8338457207066
aF0.0
aF4744.30372134679
aF0.0
aF814.8148148148148
aF0.0
aF164.5350240221135
aF440.02464137991734
aF293.7511126936088
aF0.0
aF744.2269553928969
aF2189.285085180805
aF501.6629196781925
aF188.9644746787604
aF0.0
aF4404.417935330528
aF6358.875708026077
aF0.0
aF1073.6390046734875
aF0.0
aF0.0
aF111.1910296636819
asS'Archaea.Euryarchaeota.Methanobacteria'
p91
(lp92
F0.0
aF0.0
aF0.0
aF0.0
aF0.0
aF0.0
aF0.0
aF0.0
aF0.0
aF0.0
aF0.0
aF0.0
aF0.0
aF0.0
aF0.0
aF0.0
aF0.0
aF0.0
aF0.0
aF0.0
aF0.0
aF0.0
aF0.0
aF0.0
aF0.0
aF0.0
aF0.0
aF0.0
aF0.0
aF0.0
aF0.0
aF0.0
aF0.0
aF0.0
aF0.0
aF0.0
aF83.59456635318705
aF462.1377170396779
asS'Bacteria.Gemmatimonadota'
p93
(lp94
F0.0
aF0.0
aF0.0
aF0.0
aF0.0
aF0.0
aF0.0
aF2813.2992327365723
aF0.0
aF0.0
aF0.0
aF0.0
aF0.0
aF0.0
aF0.0
aF0.0
aF0.0
aF0.0
aF0.0
aF0.0
aF0.0
aF0.0
aF0.0
aF0.0
aF0.0
aF0.0
aF0.0
aF0.0
aF0.0
aF0.0
aF0.0
aF0.0
aF0.0
aF0.0
aF0.0
aF0.0
aF0.0
aF0.0
asS'Bacteria.Firmicutes.Bacilli'
p95
(lp96
F49713.525680376515
aF111104.37261204439
aF124580.33319960305
aF176030.74047149238
aF116512.805241215
aF56171.590449210846
aF97626.62099339368
aF9974.424552429664
aF18494.432636487647
aF125378.55844942458
aF178157.07178996076
aF29785.773635345544
aF79605.93364284905
aF38514.749854956026
aF71478.62648913806
aF12557.187621650164
aF58733.921384778194
aF12972.033088583405
aF30656.49222204802
aF15624.201543257192
aF127377.77777777778
aF22335.8615890131
aF100953.20623916811
aF45437.62142987701
aF12515.577710521635
aF76940.56358039309
aF89286.0918359149
aF175344.1203855155
aF86131.18795018054
aF28810.78357268834
aF189897.93853181833
aF65097.52237410518
aF57140.821488368776
aF294434.1612500538
aF282493.36870026524
aF399290.1508429459
aF22675.02612330199
aF94074.56053482887
asS'Bacteria.Acidobacteriota.Acidobacteriae'
p97
(lp98
F0.0
aF0.0
aF0.0
aF0.0
aF0.0
aF0.0
aF0.0
aF0.0
aF0.0
aF0.0
aF0.0
aF0.0
aF679.4247537085267
aF0.0
aF0.0
aF0.0
aF0.0
aF0.0
aF0.0
aF0.0
aF0.0
aF0.0
aF0.0
aF0.0
aF0.0
aF0.0
aF0.0
aF0.0
aF0.0
aF0.0
aF0.0
aF0.0
aF0.0
aF0.0
aF0.0
aF0.0
aF0.0
aF0.0
asS'Bacteria.Acidobacteriota.Blastocatellia'
p99
(lp100
F0.0
aF0.0
aF0.0
aF0.0
aF0.0
aF0.0
aF0.0
aF0.0
aF0.0
aF0.0
aF0.0
aF0.0
aF0.0
aF0.0
aF0.0
aF0.0
aF0.0
aF0.0
aF0.0
aF0.0
aF0.0
aF0.0
aF0.0
aF0.0
aF0.0
aF0.0
aF0.0
aF377.46294572082843
aF0.0
aF0.0
aF0.0
aF0.0
aF0.0
aF0.0
aF0.0
aF0.0
aF0.0
aF0.0
asS'Archaea.Euryarchaeota'
p101
(lp102
F0.0
aF0.0
aF0.0
aF0.0
aF0.0
aF0.0
aF0.0
aF0.0
aF0.0
aF0.0
aF0.0
aF0.0
aF0.0
aF0.0
aF0.0
aF0.0
aF0.0
aF0.0
aF0.0
aF0.0
aF0.0
aF0.0
aF0.0
aF0.0
aF0.0
aF0.0
aF0.0
aF0.0
aF0.0
aF0.0
aF0.0
aF0.0
aF0.0
aF0.0
aF0.0
aF0.0
aF83.59456635318705
aF462.1377170396779
asS'Bacteria.Verrucomicrobiota.Verrucomicrobiae'
p103
(lp104
F91313.68937998773
aF3494.75407847656
aF11001.076880846304
aF0.0
aF893.3889219773674
aF21205.98947794415
aF24365.875540331133
aF9974.424552429664
aF87123.68746629445
aF5326.540064844836
aF6152.698797427053
aF1065.7129438965355
aF905.899671611369
aF55295.22024367384
aF142606.86755430975
aF29993.87172243142
aF3453.9014758264602
aF152143.7855611889
aF3112.0398787829326
aF135878.1746640094
aF0.0
aF0.0
aF268.7405392361187
aF40.61765920430006
aF587.5022253872175
aF11764.14870944826
aF37515.80425139648
aF0.0
aF6701.225667800053
aF82615.26832955405
aF24575.70763581693
aF7913.308438797177
aF463.1113961027395
aF16701.820842839308
aF0.0
aF0.0
aF0.0
aF0.0
asS'Bacteria.Deferribacterota'
p105
(lp106
F0.0
aF0.0
aF0.0
aF0.0
aF0.0
aF0.0
aF0.0
aF0.0
aF0.0
aF409.73385114191046
aF0.0
aF0.0
aF0.0
aF0.0
aF0.0
aF250.5270704135238
aF233.7793575341054
aF0.0
aF135.30608168621447
aF0.0
aF0.0
aF0.0
aF87.75201281179388
aF0.0
aF676.5177140822504
aF0.0
aF0.0
aF0.0
aF0.0
aF125.97631645250695
aF0.0
aF67.58697598972678
aF0.0
aF0.0
aF0.0
aF0.0
aF0.0
aF0.0
asS'Bacteria.Cyanobacteria.Cyanobacteriia'
p107
(lp108
F0.0
aF0.0
aF0.0
aF0.0
aF0.0
aF0.0
aF0.0
aF0.0
aF0.0
aF0.0
aF0.0
aF0.0
aF452.9498358056845
aF0.0
aF0.0
aF0.0
aF0.0
aF0.0
aF0.0
aF0.0
aF0.0
aF0.0
aF0.0
aF0.0
aF0.0
aF0.0
aF0.0
aF352.29874933943984
aF0.0
aF0.0
aF0.0
aF0.0
aF0.0
aF0.0
aF0.0
aF0.0
aF0.0
aF0.0
asS'Bacteria.Chloroflexi.Anaerolineae'
p109
(lp110
F0.0
aF0.0
aF0.0
aF0.0
aF0.0
aF0.0
aF0.0
aF0.0
aF0.0
aF0.0
aF0.0
aF0.0
aF452.9498358056845
aF0.0
aF0.0
aF0.0
aF0.0
aF0.0
aF0.0
aF0.0
aF0.0
aF0.0
aF0.0
aF0.0
aF0.0
aF0.0
aF0.0
aF0.0
aF0.0
aF0.0
aF0.0
aF0.0
aF0.0
aF0.0
aF0.0
aF0.0
aF0.0
aF0.0
assS'subclass_sl'
p111
(dp112
g28
(I0
I8
tp113
sg20
(I15
I19
tp114
sg26
(I19
I24
tp115
sg22
(I8
I15
tp116
sg24
(I31
I38
tp117
sg18
(I24
I31
tp118
ssS'norm'
p119
F1000000.0
sS'cls'
p120
(dp121
S'class'
p122
(S'HSD-NC'
p123
S'HSD-NC'
p124
S'HSD-NC'
p125
S'HSD-NC'
p126
S'HSD-NC'
p127
S'HSD-NC'
p128
S'HSD-NC'
p129
g13
S'HSD-NR'
p130
S'HSD-NR'
p131
S'HSD-NR'
p132
S'HSD-NR'
p133
S'HSD-NR'
p134
S'HSD-NR'
p135
g7
S'NC'
p136
S'NC'
p137
S'NC'
p138
g5
S'NR'
p139
S'NR'
p140
S'NR'
p141
S'NR'
p142
g11
S'STD-NC'
p143
S'STD-NC'
p144
S'STD-NC'
p145
S'STD-NC'
p146
S'STD-NC'
p147
S'STD-NC'
p148
g3
S'STD-NR'
p149
S'STD-NR'
p150
S'STD-NR'
p151
S'STD-NR'
p152
S'STD-NR'
p153
S'STD-NR'
p154
g9
tp155
sS'subclass'
p156
(lp157
S'HSD-NC_subcl'
p158
aS'HSD-NC_subcl'
p159
aS'HSD-NC_subcl'
p160
aS'HSD-NC_subcl'
p161
aS'HSD-NC_subcl'
p162
aS'HSD-NC_subcl'
p163
aS'HSD-NC_subcl'
p164
ag28
aS'HSD-NR_subcl'
p165
aS'HSD-NR_subcl'
p166
aS'HSD-NR_subcl'
p167
aS'HSD-NR_subcl'
p168
aS'HSD-NR_subcl'
p169
aS'HSD-NR_subcl'
p170
ag22
aS'NC_subcl'
p171
aS'NC_subcl'
p172
aS'NC_subcl'
p173
ag20
aS'NR_subcl'
p174
aS'NR_subcl'
p175
aS'NR_subcl'
p176
aS'NR_subcl'
p177
ag26
aS'STD-NC_subcl'
p178
aS'STD-NC_subcl'
p179
aS'STD-NC_subcl'
p180
aS'STD-NC_subcl'
p181
aS'STD-NC_subcl'
p182
aS'STD-NC_subcl'
p183
ag18
aS'STD-NR_subcl'
p184
aS'STD-NR_subcl'
p185
aS'STD-NR_subcl'
p186
aS'STD-NR_subcl'
p187
aS'STD-NR_subcl'
p188
aS'STD-NR_subcl'
p189
ag24
asS'subject'
p190
(S'S210421121688'
p191
S'S210421121689'
p192
S'S210421121690'
p193
S'S210421121698'
p194
S'S210421121699'
p195
S'S210421121700'
p196
S'S210421121701'
p197
S'S210421121702'
p198
S'S210421121691'
p199
S'S210421121692'
p200
S'S210421121693'
p201
S'S210421121707'
p202
S'S210421121708'
p203
S'S210421121709'
p204
S'S210421121710'
p205
S'S210421121673'
p206
S'S210421121674'
p207
S'S210421121675'
p208
S'S210421121676'
p209
S'S210421121677'
p210
S'S210421121678'
p211
S'S210421121679'
p212
S'S210421121680'
p213
S'S210421121681'
p214
S'S210421121682'
p215
S'S210421121683'
p216
S'S210421121684'
p217
S'S210421121694'
p218
S'S210421121695'
p219
S'S210421121696'
p220
S'S210421121697'
p221
S'S210421121685'
p222
S'S210421121686'
p223
S'S210421121687'
p224
S'S210421121703'
p225
S'S210421121704'
p226
S'S210421121705'
p227
S'S210421121706'
p228
tp229
ss.