(dp0
S'class_sl'
p1
(dp2
S'NR'
p3
(I7
I12
tp4
sS'HSD-NR'
p5
(I0
I7
tp6
ssS'class_hierarchy'
p7
(dp8
g3
(lp9
S'NR_subcl'
p10
asg5
(lp11
S'HSD-NR_subcl'
p12
assS'feats'
p13
(dp14
S'Bacteria.Firmicutes.Bacilli.Acholeplasmatales'
p15
(lp16
F0.0
aF0.0
aF0.0
aF254.26807119505992
aF0.0
aF0.0
aF0.0
aF0.0
aF0.0
aF0.0
aF0.0
aF0.0
asS'Bacteria.Firmicutes.Bacilli.Lactobacillales.Streptococcaceae'
p17
(lp18
F0.0
aF0.0
aF0.0
aF980.7482746095168
aF0.0
aF624.6096189881322
aF0.0
aF414.42545953739756
aF2133.2385227323225
aF361.1666563895667
aF1877.7589879867348
aF2294.8666743387876
asS'Bacteria.Actinobacteriota.Actinobacteria.Bifidobacteriales'
p19
(lp20
F1497.9656864300812
aF5943.110824696131
aF6762.310710381589
aF0.0
aF13798.977853492335
aF48942.62514499865
aF5608.131791097093
aF0.0
aF0.0
aF0.0
aF6138.405112775349
aF0.0
asS'Bacteria.Acidobacteriota.Acidobacteriae.Bryobacterales'
p21
(lp22
F0.0
aF0.0
aF0.0
aF0.0
aF681.4310051107325
aF0.0
aF0.0
aF0.0
aF0.0
aF0.0
aF0.0
aF0.0
asS'Bacteria.Actinobacteriota.Actinobacteria.Streptomycetales'
p23
(lp24
F0.0
aF0.0
aF0.0
aF0.0
aF0.0
aF0.0
aF3505.0823694356827
aF0.0
aF0.0
aF0.0
aF0.0
aF0.0
asS'Bacteria.Firmicutes.Bacilli.RF39'
p25
(lp26
F2335.810900874025
aF5710.3986538495965
aF7008.058843966885
aF3432.618961133309
aF13912.549687677456
aF1115.3743196216647
aF0.0
aF0.0
aF0.0
aF726.7377841985184
aF0.0
aF0.0
asS'Bacteria.Firmicutes.Clostridia.Peptostreptococcales_Tissierellales.Anaerovoracaceae'
p27
(lp28
F4074.974452068272
aF1360.4711526412832
aF864.3555043344888
aF908.1002542680712
aF0.0
aF0.0
aF0.0
aF254.6989803406923
aF0.0
aF612.2215272945094
aF433.7513451782224
aF142.15988248116383
asS'Bacteria.Proteobacteria.Gammaproteobacteria'
p29
(lp30
F3719.5249671526594
aF12047.33007536294
aF9677.392019117511
aF12695.241554667637
aF30323.679727427596
aF29133.577228517883
aF63792.499123729416
aF14215.656648506772
aF2636.9198405996763
aF4593.863690418512
aF4073.9683306612787
aF3025.9746413847724
asS'Bacteria.Proteobacteria.Gammaproteobacteria.Pasteurellales'
p31
(lp32
F285.62905037861714
aF0.0
aF0.0
aF0.0
aF0.0
aF669.2245917729989
aF0.0
aF0.0
aF0.0
aF0.0
aF0.0
aF0.0
asS'Bacteria.Bacteroidota'
p33
(lp34
F256907.46253498952
aF16647.870683636753
aF12880.591829298266
aF89357.06501997822
aF507836.4565587734
aF115597.39448558935
aF87977.56747283562
aF804132.1671861374
aF790068.5895441682
aF857735.5731538659
aF599307.0959523862
aF885107.7368823661
asS'Bacteria.Bacteroidota.Bacteroidia.Chitinophagales.Chitinophagaceae'
p35
(lp36
F0.0
aF0.0
aF0.0
aF0.0
aF851.7887563884157
aF0.0
aF0.0
aF0.0
aF0.0
aF0.0
aF0.0
aF0.0
asS'Bacteria.Bacteroidota.Bacteroidia.Bacteroidales.Rikenellaceae'
p37
(lp38
F3922.638958533009
aF608.6318314447846
aF322.01479573245666
aF1144.2063203777698
aF0.0
aF4283.037387347193
aF0.0
aF0.0
aF2918.38881234908
aF11751.129746919072
aF444.7323918915951
aF1428.368343025027
asS'Bacteria.Acidobacteriota'
p39
(lp40
F0.0
aF0.0
aF0.0
aF0.0
aF681.4310051107325
aF0.0
aF0.0
aF0.0
aF0.0
aF0.0
aF0.0
aF0.0
asS'Bacteria.Actinobacteriota.Actinobacteria.Pseudonocardiales.Pseudonocardiaceae'
p41
(lp42
F0.0
aF0.0
aF101.68888286288104
aF0.0
aF0.0
aF31988.935486749346
aF5257.623554153524
aF0.0
aF0.0
aF0.0
aF0.0
aF0.0
asS'Bacteria.Firmicutes.Bacilli.Lactobacillales.Aerococcaceae'
p43
(lp44
F0.0
aF0.0
aF0.0
aF272.43007628042136
aF0.0
aF0.0
aF0.0
aF250.38204847051102
aF0.0
aF83.68495696831424
aF0.0
aF148.92940069455258
asS'Bacteria.Firmicutes.Clostridia.Clostridiales'
p45
(lp46
F25611.404850616007
aF190841.88103037787
aF293846.9751794386
aF10352.342898656012
aF14991.482112436117
aF1606.1390202551972
aF0.0
aF0.0
aF0.0
aF0.0
aF290.99773790437706
aF0.0
asS'Bacteria.Actinobacteriota.Actinobacteria.Micrococcales.Dermabacteraceae'
p47
(lp48
F0.0
aF0.0
aF0.0
aF217.9440610243371
aF0.0
aF0.0
aF0.0
aF0.0
aF0.0
aF0.0
aF0.0
aF0.0
asS'Bacteria.Cyanobacteria.Cyanobacteriia.Chloroplast.Chloroplast'
p49
(lp50
F0.0
aF0.0
aF0.0
aF0.0
aF454.28733674048834
aF0.0
aF0.0
aF0.0
aF0.0
aF0.0
aF0.0
aF0.0
asS'Bacteria.Proteobacteria'
p51
(lp52
F3719.5249671526594
aF12047.33007536294
aF9812.97719626802
aF12695.241554667637
aF31572.96990346394
aF29356.652092442215
aF63792.499123729416
aF14254.509035338404
aF2636.9198405996763
aF4668.739704548057
aF4200.250367865065
aF3025.9746413847724
asS'Bacteria.Bacteroidota.Bacteroidia'
p53
(lp54
F256907.46253498952
aF16647.870683636753
aF12880.591829298266
aF89357.06501997822
aF507836.4565587734
aF115597.39448558935
aF87977.56747283562
aF804132.1671861374
aF790068.5895441682
aF857735.5731538659
aF599307.0959523862
aF885107.7368823661
asS'Bacteria.Proteobacteria.Alphaproteobacteria.Rhizobiales.Rhizobiaceae'
p55
(lp56
F0.0
aF0.0
aF135.58517715050806
aF0.0
aF0.0
aF223.07486392433296
aF0.0
aF38.85238683163102
aF0.0
aF74.87601412954432
aF0.0
aF0.0
asS'Bacteria.Proteobacteria.Alphaproteobacteria.Rhodobacterales'
p57
(lp58
F0.0
aF0.0
aF0.0
aF0.0
aF1249.290176036343
aF0.0
aF0.0
aF0.0
aF0.0
aF0.0
aF0.0
aF0.0
asS'Bacteria.Desulfobacterota'
p59
(lp60
F0.0
aF0.0
aF0.0
aF12041.409371594624
aF14366.837024417944
aF0.0
aF0.0
aF0.0
aF0.0
aF0.0
aF0.0
aF0.0
asS'Bacteria.Desulfobacterota.Desulfovibrionia'
p61
(lp62
F0.0
aF0.0
aF0.0
aF12041.409371594624
aF14366.837024417944
aF0.0
aF0.0
aF0.0
aF0.0
aF0.0
aF0.0
aF0.0
asS'Bacteria.Firmicutes.Clostridia.Monoglobales'
p63
(lp64
F0.0
aF196.9102984086068
aF67.79258857525403
aF11569.197239375228
aF14310.051107325384
aF30204.336575354682
aF7360.672975814933
aF2011.690251504451
aF533.3096306830806
aF391.9979563252614
aF8510.311202863857
aF676.9518213388753
asS'Bacteria.Cyanobacteria.Vampirivibrionia'
p65
(lp66
F50.77849784508749
aF0.0
aF0.0
aF1325.826371231384
aF0.0
aF0.0
aF0.0
aF0.0
aF814.7786024324843
aF0.0
aF164.71570070059076
aF440.01868387026894
asS'Bacteria.Firmicutes.Bacilli.Staphylococcales.Staphylococcaceae'
p67
(lp68
F0.0
aF0.0
aF0.0
aF908.1002542680712
aF1930.7211811470754
aF0.0
aF0.0
aF0.0
aF414.7963794201738
aF273.07722800186747
aF466.6944853183406
aF1638.2234076400782
asS'Bacteria.Proteobacteria.Alphaproteobacteria.Rickettsiales'
p69
(lp70
F0.0
aF0.0
aF0.0
aF0.0
aF0.0
aF0.0
aF0.0
aF0.0
aF0.0
aF0.0
aF76.86732699360904
aF0.0
asS'Bacteria.Deferribacterota'
p71
(lp72
F0.0
aF411.7215330361778
aF0.0
aF0.0
aF0.0
aF0.0
aF0.0
aF0.0
aF0.0
aF0.0
aF87.84837370698175
aF0.0
asS'Bacteria.Actinobacteriota.Coriobacteriia.Coriobacteriales'
p73
(lp74
F10726.957669774732
aF13425.70216422319
aF10558.695670595815
aF21830.730112604433
aF7722.884724588302
aF22530.56125635763
aF23484.051875219076
aF56.12011431235592
aF992.5484793268445
aF105.70731406523903
aF3052.730986317616
aF1983.4688365229047
asS'Bacteria.Firmicutes.Bacilli.Erysipelotrichales'
p75
(lp76
F14903.48911753318
aF93335.4814456796
aF110162.95643478779
aF18089.357065019976
aF49574.10562180579
aF30516.641384848746
aF71503.68033648793
aF690.709099228996
aF1288.8316074841116
aF1233.2519974277886
aF5139.129861858432
aF1570.528225506191
asS'Bacteria.Actinobacteriota.Actinobacteria.Micrococcales'
p77
(lp78
F0.0
aF0.0
aF0.0
aF635.6701779876498
aF0.0
aF0.0
aF0.0
aF0.0
aF0.0
aF0.0
aF0.0
aF0.0
asS'Bacteria.Firmicutes.Clostridia.Clostridia_UCG_014.Clostridia_UCG_014'
p79
(lp80
F92473.99188813497
aF221506.18477346364
aF53861.21162303933
aF336251.36215038144
aF128506.53038046564
aF97037.56580708484
aF74658.25446898003
aF0.0
aF488.86716145949055
aF0.0
aF395.31768168141787
aF1570.528225506191
asS'Bacteria.Campilobacterota'
p81
(lp82
F0.0
aF0.0
aF0.0
aF2306.5746458409008
aF0.0
aF0.0
aF0.0
aF0.0
aF0.0
aF0.0
aF38.43366349680452
aF0.0
asS'Bacteria.Firmicutes.Bacilli.RF39.RF39'
p83
(lp84
F2335.810900874025
aF5710.3986538495965
aF7008.058843966885
aF3432.618961133309
aF13912.549687677456
aF1115.3743196216647
aF0.0
aF0.0
aF0.0
aF726.7377841985184
aF0.0
aF0.0
asS'Bacteria.Firmicutes.Clostridia.Clostridia_vadinBB60_group'
p85
(lp86
F387.18604606879217
aF340.1177881603208
aF67.79258857525403
aF563.0221576462042
aF0.0
aF0.0
aF0.0
aF0.0
aF474.0530050516272
aF114.51625690400894
aF351.393494827927
aF264.01121032216133
asS'Bacteria.Bacteroidota.Bacteroidia.Chitinophagales'
p87
(lp88
F0.0
aF0.0
aF0.0
aF0.0
aF851.7887563884157
aF0.0
aF0.0
aF0.0
aF0.0
aF0.0
aF0.0
aF0.0
asS'Bacteria.Bacteroidota.Bacteroidia.Bacteroidales.Tannerellaceae'
p89
(lp90
F7089.947761620341
aF0.0
aF152.53332429432155
aF217.9440610243371
aF0.0
aF5398.411706968857
aF0.0
aF25551.91973960267
aF2029.539427877279
aF27545.56425683354
aF1658.1380537192806
aF2321.944747192342
asS'Bacteria.Proteobacteria.Gammaproteobacteria.Burkholderiales.Sutterellaceae'
p91
(lp92
F107.90430792081094
aF0.0
aF0.0
aF472.212132219397
aF0.0
aF7986.08012849112
aF0.0
aF5776.054842302478
aF903.6635408796644
aF3483.936892733503
aF258.0545977642589
aF1299.7474969706407
asS'Bacteria.Bacteroidota.Bacteroidia.Bacteroidales.Muribaculaceae'
p93
(lp94
F237122.89031209736
aF15484.30982940408
aF11575.584499224624
aF78913.91209589539
aF462237.36513344693
aF82225.39484250914
aF67998.59796705224
aF490658.15943292785
aF437387.96794216544
aF396891.32407219807
aF528539.7404080557
aF497106.03096377634
asS'Bacteria.Campilobacterota.Campylobacteria.Campylobacterales'
p95
(lp96
F0.0
aF0.0
aF0.0
aF2306.5746458409008
aF0.0
aF0.0
aF0.0
aF0.0
aF0.0
aF0.0
aF38.43366349680452
aF0.0
asS'Bacteria.Proteobacteria.Gammaproteobacteria.Xanthomonadales.Xanthomonadaceae'
p97
(lp98
F0.0
aF89.50468109482127
aF0.0
aF0.0
aF0.0
aF0.0
aF0.0
aF0.0
aF0.0
aF0.0
aF0.0
aF0.0
asS'Bacteria.Proteobacteria.Alphaproteobacteria.Rhizobiales'
p99
(lp100
F0.0
aF0.0
aF135.58517715050806
aF0.0
aF0.0
aF223.07486392433296
aF0.0
aF38.85238683163102
aF0.0
aF74.87601412954432
aF0.0
aF0.0
asS'Bacteria.Cyanobacteria'
p101
(lp102
F50.77849784508749
aF0.0
aF0.0
aF1325.826371231384
aF454.28733674048834
aF0.0
aF0.0
aF0.0
aF814.7786024324843
aF0.0
aF164.71570070059076
aF440.01868387026894
asS'Bacteria.Firmicutes.Clostridia.Peptostreptococcales_Tissierellales'
p103
(lp104
F13881.571848400794
aF202602.7961262374
aF236697.82301049944
aF26207.773338176536
aF7041.453719477569
aF5086.106897474791
aF5257.623554153524
aF1381.418198457992
aF1748.0704561278753
aF3761.418592154755
aF53653.3942415391
aF4569.424794037409
asS'Bacteria.Actinobacteriota.Actinobacteria.Corynebacteriales'
p105
(lp106
F0.0
aF0.0
aF0.0
aF0.0
aF0.0
aF0.0
aF0.0
aF0.0
aF0.0
aF0.0
aF0.0
aF372.32350173638144
asS'Bacteria.Verrucomicrobiota'
p107
(lp108
F87161.29155109268
aF5352.379929470311
aF6152.177413204303
aF1071.558300036324
aF908.5746734809767
aF55277.951280449706
aF142656.85243603226
aF137744.66211374252
aF0.0
aF0.0
aF269.03564447763165
aF40.61710928033252
asS'Bacteria.Firmicutes.Bacilli.Staphylococcales'
p109
(lp110
F0.0
aF0.0
aF0.0
aF908.1002542680712
aF1930.7211811470754
aF0.0
aF0.0
aF0.0
aF414.7963794201738
aF273.07722800186747
aF466.6944853183406
aF1638.2234076400782
asS'Bacteria.Firmicutes.Clostridia.Oscillospirales.Butyricicoccaceae'
p111
(lp112
F406.22798276069994
aF1109.8580455757835
aF262.69628072910933
aF9607.700690156193
aF511.0732538330494
aF7183.010618363521
aF3505.0823694356827
aF0.0
aF0.0
aF532.94104174558
aF543.5618123119496
aF324.93687424266017
asS'Bacteria.Cyanobacteria.Vampirivibrionia.Gastranaerophilales'
p113
(lp114
F50.77849784508749
aF0.0
aF0.0
aF1325.826371231384
aF0.0
aF0.0
aF0.0
aF0.0
aF814.7786024324843
aF0.0
aF164.71570070059076
aF440.01868387026894
asS'Bacteria.Deferribacterota.Deferribacteres.Deferribacterales'
p115
(lp116
F0.0
aF411.7215330361778
aF0.0
aF0.0
aF0.0
aF0.0
aF0.0
aF0.0
aF0.0
aF0.0
aF87.84837370698175
aF0.0
asS'Bacteria.Bacteroidota.Bacteroidia.Bacteroidales'
p117
(lp118
F256907.46253498952
aF16647.870683636753
aF12880.591829298266
aF89102.79694878316
aF506984.66780238505
aF115597.39448558935
aF87977.56747283562
aF804132.1671861374
aF790068.5895441682
aF857735.5731538659
aF599307.0959523862
aF885107.7368823661
asS'Bacteria.Actinobacteriota.Coriobacteriia'
p119
(lp120
F10726.957669774732
aF13425.70216422319
aF10558.695670595815
aF21830.730112604433
aF7722.884724588302
aF22530.56125635763
aF23484.051875219076
aF56.12011431235592
aF992.5484793268445
aF105.70731406523903
aF3052.730986317616
aF1983.4688365229047
asS'Bacteria.Firmicutes.Bacilli.Lactobacillales'
p121
(lp122
F1294.8516950497312
aF25848.95190018438
aF59708.32238765499
aF6701.779876498365
aF13685.406019307211
aF5309.181761399124
aF0.0
aF9246.868065928184
aF124350.02888760496
aF18666.14987535346
aF89264.92873300685
aF39946.92697720703
asS'Bacteria.Firmicutes.Clostridia.Clostridia.Hungateiclostridiaceae'
p123
(lp124
F57.125810075723436
aF0.0
aF0.0
aF0.0
aF0.0
aF0.0
aF0.0
aF0.0
aF0.0
aF0.0
aF0.0
aF0.0
asS'Bacteria.Proteobacteria.Gammaproteobacteria.Pseudomonadales.Moraxellaceae'
p125
(lp126
F82.5150589982672
aF53.702808656892756
aF0.0
aF0.0
aF0.0
aF669.2245917729989
aF0.0
aF0.0
aF0.0
aF0.0
aF82.35785035029538
aF0.0
asS'Bacteria.Proteobacteria.Gammaproteobacteria.Xanthomonadales'
p127
(lp128
F0.0
aF89.50468109482127
aF0.0
aF0.0
aF0.0
aF0.0
aF0.0
aF0.0
aF0.0
aF0.0
aF0.0
aF0.0
asS'Bacteria.Firmicutes.Clostridia.Peptococcales'
p129
(lp130
F1072.6957669774733
aF0.0
aF483.02219359868496
aF780.9662186705413
aF0.0
aF847.6844829124652
aF0.0
aF228.7973891196049
aF0.0
aF1131.9491547819346
aF620.4291393055587
aF318.1673560292714
asS'Bacteria.Proteobacteria.Alphaproteobacteria.Rhodobacterales.Rhodobacteraceae'
p131
(lp132
F0.0
aF0.0
aF0.0
aF0.0
aF1249.290176036343
aF0.0
aF0.0
aF0.0
aF0.0
aF0.0
aF0.0
aF0.0
asS'Bacteria.Patescibacteria'
p133
(lp134
F2805.512005941084
aF1181.4617904516406
aF3830.2812545018523
aF2415.5466763530694
aF28279.386712095402
aF847.6844829124652
aF0.0
aF0.0
aF0.0
aF0.0
aF949.8605407067402
aF0.0
asS'Bacteria.Firmicutes.Clostridia.Lachnospirales.Defluviitaleaceae'
p135
(lp136
F82.5150589982672
aF554.9290227878918
aF0.0
aF1289.502361060661
aF0.0
aF0.0
aF0.0
aF0.0
aF518.4954742752172
aF0.0
aF43.92418685349087
aF385.86253816315894
asS'Bacteria.Bacteroidota.Bacteroidia.Bacteroidales.Bacteroidaceae'
p137
(lp138
F3294.2550477000514
aF250.61310706549955
aF720.296253612074
aF2088.630584816564
aF31289.040318001138
aF4149.192468992594
aF2804.0658955485465
aF71350.24995035528
aF239841.19224330765
aF340461.236247038
aF37577.14185316145
aF290100.93351656164
asS'Bacteria.Proteobacteria.Gammaproteobacteria.Enterobacterales.Enterobacteriaceae'
p139
(lp140
F2018.4452893422279
aF7661.600701716699
aF7008.058843966885
aF5775.517617144933
aF21408.290743895515
aF12269.117515838314
aF30143.70837714687
aF8284.19225887777
aF1733.2562997200118
aF629.8394129720492
aF3113.1267432411655
aF1441.9073794518044
asS'Bacteria.Proteobacteria.Alphaproteobacteria'
p141
(lp142
F0.0
aF0.0
aF135.58517715050806
aF0.0
aF1249.290176036343
aF223.07486392433296
aF0.0
aF38.85238683163102
aF0.0
aF74.87601412954432
aF126.28203720378627
aF0.0
asS'Bacteria.Firmicutes.Bacilli.Acholeplasmatales.Acholeplasmataceae'
p143
(lp144
F0.0
aF0.0
aF0.0
aF254.26807119505992
aF0.0
aF0.0
aF0.0
aF0.0
aF0.0
aF0.0
aF0.0
aF0.0
asS'Bacteria.Chloroflexi.Anaerolineae.Anaerolineales'
p145
(lp146
F0.0
aF0.0
aF0.0
aF0.0
aF454.28733674048834
aF0.0
aF0.0
aF0.0
aF0.0
aF0.0
aF0.0
aF0.0
asS'Bacteria.Firmicutes.Clostridia.Monoglobales.Monoglobaceae'
p147
(lp148
F0.0
aF196.9102984086068
aF67.79258857525403
aF11569.197239375228
aF14310.051107325384
aF30204.336575354682
aF7360.672975814933
aF2011.690251504451
aF533.3096306830806
aF391.9979563252614
aF8510.311202863857
aF676.9518213388753
asS'Bacteria.Cyanobacteria.Cyanobacteriia'
p149
(lp150
F0.0
aF0.0
aF0.0
aF0.0
aF454.28733674048834
aF0.0
aF0.0
aF0.0
aF0.0
aF0.0
aF0.0
aF0.0
asS'Bacteria.Chloroflexi.Anaerolineae.Anaerolineales.Anaerolineaceae'
p151
(lp152
F0.0
aF0.0
aF0.0
aF0.0
aF454.28733674048834
aF0.0
aF0.0
aF0.0
aF0.0
aF0.0
aF0.0
aF0.0
asS'Bacteria.Firmicutes.Clostridia.Peptococcales.Peptococcaceae'
p153
(lp154
F1072.6957669774733
aF0.0
aF483.02219359868496
aF780.9662186705413
aF0.0
aF847.6844829124652
aF0.0
aF228.7973891196049
aF0.0
aF1131.9491547819346
aF620.4291393055587
aF318.1673560292714
asS'Bacteria.Firmicutes.Bacilli.Lactobacillales.Lactobacillaceae'
p155
(lp156
F1294.8516950497312
aF25848.95190018438
aF59708.32238765499
aF5448.601525608427
aF13685.406019307211
aF4684.5721424109925
aF0.0
aF8582.060557920275
aF122216.79036487264
aF18221.29826199558
aF87387.1697450201
aF37503.130902173696
asS'Bacteria.Chloroflexi'
p157
(lp158
F0.0
aF0.0
aF0.0
aF0.0
aF454.28733674048834
aF0.0
aF0.0
aF0.0
aF0.0
aF0.0
aF0.0
aF0.0
asS'Bacteria.Firmicutes.Clostridia.Oscillospirales.UCG_010'
p159
(lp160
F615.6892863716859
aF0.0
aF322.01479573245666
aF653.8321830730113
aF0.0
aF0.0
aF0.0
aF0.0
aF399.98222301231044
aF0.0
aF422.77029846484965
aF284.31976496232767
asS'Bacteria.Proteobacteria.Alphaproteobacteria.Rickettsiales.Mitochondria'
p161
(lp162
F0.0
aF0.0
aF0.0
aF0.0
aF0.0
aF0.0
aF0.0
aF0.0
aF0.0
aF0.0
aF76.86732699360904
aF0.0
asS'Bacteria.Firmicutes.Clostridia.Eubacteriales.Anaerofustaceae'
p163
(lp164
F0.0
aF358.01872437928506
aF0.0
aF0.0
aF0.0
aF1695.3689658249305
aF0.0
aF0.0
aF0.0
aF0.0
aF0.0
aF0.0
asS'Bacteria.Proteobacteria.Gammaproteobacteria.Pseudomonadales.Pseudomonadaceae'
p165
(lp166
F272.9344259173453
aF1879.5983029912463
aF457.59997288296466
aF1634.5804576825283
aF0.0
aF2096.90372088873
aF15071.854188573436
aF0.0
aF0.0
aF290.69511367940737
aF82.35785035029538
aF148.92940069455258
asS'Bacteria.Proteobacteria.Alphaproteobacteria.Caulobacterales.Caulobacteraceae'
p167
(lp168
F0.0
aF0.0
aF0.0
aF0.0
aF0.0
aF0.0
aF0.0
aF0.0
aF0.0
aF0.0
aF49.41471021017723
aF0.0
asS'Bacteria.Firmicutes.Clostridia'
p169
(lp170
F618596.3553733171
aF819003.6338900524
aF771759.3024142637
aF826371.2313839447
aF314082.9074389551
aF656955.4742571606
aF596214.5110410096
aF27973.718518774334
aF78115.04673866346
aF115154.90525981974
aF284733.0507543979
aF63586.084578360555
asS'Bacteria.Actinobacteriota.Actinobacteria.Micrococcales.Micrococcaceae'
p171
(lp172
F0.0
aF0.0
aF0.0
aF417.72611696331273
aF0.0
aF0.0
aF0.0
aF0.0
aF0.0
aF0.0
aF0.0
aF0.0
asS'Bacteria.Campilobacterota.Campylobacteria'
p173
(lp174
F0.0
aF0.0
aF0.0
aF2306.5746458409008
aF0.0
aF0.0
aF0.0
aF0.0
aF0.0
aF0.0
aF38.43366349680452
aF0.0
asS'Bacteria.Patescibacteria.Saccharimonadia.Saccharimonadales.Saccharimonadaceae'
p175
(lp176
F2805.512005941084
aF1181.4617904516406
aF3830.2812545018523
aF2306.5746458409008
aF28279.386712095402
aF847.6844829124652
aF0.0
aF0.0
aF0.0
aF0.0
aF949.8605407067402
aF0.0
asS'Bacteria.Firmicutes.Bacilli.Erysipelotrichales.Erysipelotrichaceae'
p177
(lp178
F14903.48911753318
aF93335.4814456796
aF110162.95643478779
aF11169.633127497274
aF49574.10562180579
aF30516.641384848746
aF71503.68033648793
aF548.2503475130155
aF1288.8316074841116
aF885.2987552963768
aF5001.8667779412735
aF1279.4389423304744
asS'Bacteria.Actinobacteriota'
p179
(lp180
F12224.923356204816
aF19368.812988919322
aF17422.695263840287
aF22466.400290592082
aF21521.86257808064
aF103462.12188810563
aF37854.889589905375
aF56.12011431235592
aF992.5484793268445
aF105.70731406523903
aF9191.136099092966
aF2355.792338259286
asS'Bacteria.Proteobacteria.Gammaproteobacteria.Pasteurellales.Pasteurellaceae'
p181
(lp182
F285.62905037861714
aF0.0
aF0.0
aF0.0
aF0.0
aF669.2245917729989
aF0.0
aF0.0
aF0.0
aF0.0
aF0.0
aF0.0
asS'Bacteria.Proteobacteria.Gammaproteobacteria.Burkholderiales'
p183
(lp184
F1060.0011425162015
aF2362.923580903281
aF2211.733202267663
aF5285.143479840174
aF8915.388983532084
aF13429.106808244842
aF18576.936558009118
aF5810.590297263929
aF903.6635408796644
aF3673.3291637670563
aF796.1258867195222
aF1435.1378612384156
asS'Bacteria.Firmicutes'
p185
(lp186
F637130.507086774
aF944990.4229991229
aF949901.2770428874
aF856320.3777697058
aF393923.90687109594
aF695458.1957705006
aF667718.1913774975
aF43812.54155046925
aF205487.1635334725
aF137489.97982752087
aF385791.62365756696
aF109029.86034483927
asS'Bacteria.Firmicutes.Clostridia.Oscillospirales'
p187
(lp188
F0.0
aF0.0
aF0.0
aF326.91609153650563
aF0.0
aF0.0
aF0.0
aF0.0
aF0.0
aF0.0
aF0.0
aF0.0
asS'Bacteria.Actinobacteriota.Coriobacteriia.Coriobacteriales.Atopobiaceae'
p189
(lp190
F8308.631709902442
aF3723.3947335445646
aF3847.2294016456663
aF3577.9150018162004
aF681.4310051107325
aF12982.957080396178
aF5608.131791097093
aF0.0
aF429.6105358280372
aF0.0
aF1597.7422967957307
aF1732.996662627521
asS'Bacteria.Proteobacteria.Gammaproteobacteria.Burkholderiales.Comamonadaceae'
p191
(lp192
F0.0
aF0.0
aF161.00739786622833
aF2252.0886305848167
aF2839.2958546280524
aF758.4545373427321
aF8412.197686645637
aF0.0
aF0.0
aF0.0
aF0.0
aF0.0
asS'Bacteria.Firmicutes.Bacilli.Erysipelotrichales.Erysipelatoclostridiaceae'
p193
(lp194
F0.0
aF0.0
aF0.0
aF6919.723937522703
aF0.0
aF0.0
aF0.0
aF142.4587517159804
aF0.0
aF347.9532421314118
aF137.26308391715898
aF291.0892831757164
asS'Bacteria.Firmicutes.Clostridia.Oscillospirales._Eubacterium__coprostanoligenes_group'
p195
(lp196
F26392.124254984228
aF48815.85306911552
aF38785.83473861721
aF25553.941155103523
aF6700.738216922204
aF13562.951726599444
aF0.0
aF0.0
aF19643.571396826803
aF52.853657032619516
aF16317.83541607186
aF2755.193912849222
asS'Bacteria.Actinobacteriota.Coriobacteriia.Coriobacteriales.Eggerthellaceae'
p197
(lp198
F1821.6786101925138
aF9433.793387394162
aF6491.140356080573
aF10497.638939338904
aF4656.445201590005
aF6379.941108235922
aF16123.378899404139
aF56.12011431235592
aF0.0
aF57.25812845200447
aF455.71343860496785
aF0.0
asS'Bacteria.Firmicutes.Clostridia.Christensenellales'
p199
(lp200
F4785.873421899497
aF787.6411936344272
aF525.3925614582187
aF13893.933890301489
aF21294.71890971039
aF1561.5240474703305
aF0.0
aF146.77568358616165
aF0.0
aF0.0
aF263.5451211209453
aF74.46470034727629
asS'Bacteria.Firmicutes.Clostridia.Clostridia_UCG_014'
p201
(lp202
F92473.99188813497
aF221506.18477346364
aF53861.21162303933
aF336251.36215038144
aF128506.53038046564
aF97037.56580708484
aF74658.25446898003
aF0.0
aF488.86716145949055
aF0.0
aF395.31768168141787
aF1570.528225506191
asS'Bacteria.Proteobacteria.Alphaproteobacteria.Caulobacterales'
p203
(lp204
F0.0
aF0.0
aF0.0
aF0.0
aF0.0
aF0.0
aF0.0
aF0.0
aF0.0
aF0.0
aF49.41471021017723
aF0.0
asS'Bacteria.Firmicutes.Bacilli.Exiguobacterales.Exiguobacteraceae'
p205
(lp206
F0.0
aF0.0
aF0.0
aF0.0
aF0.0
aF713.8395645578654
aF0.0
aF0.0
aF0.0
aF0.0
aF0.0
aF0.0
asS'Bacteria.Firmicutes.Clostridia.Clostridia'
p207
(lp208
F57.125810075723436
aF0.0
aF0.0
aF0.0
aF0.0
aF0.0
aF0.0
aF0.0
aF0.0
aF0.0
aF0.0
aF0.0
asS'Bacteria.Acidobacteriota.Acidobacteriae.Bryobacterales.Bryobacteraceae'
p209
(lp210
F0.0
aF0.0
aF0.0
aF0.0
aF681.4310051107325
aF0.0
aF0.0
aF0.0
aF0.0
aF0.0
aF0.0
aF0.0
asS'Bacteria.Cyanobacteria.Vampirivibrionia.Gastranaerophilales.Gastranaerophilales'
p211
(lp212
F50.77849784508749
aF0.0
aF0.0
aF1325.826371231384
aF0.0
aF0.0
aF0.0
aF0.0
aF814.7786024324843
aF0.0
aF164.71570070059076
aF440.01868387026894
asS'Bacteria.Bacteroidota.Bacteroidia.Bacteroidales.Prevotellaceae'
p213
(lp214
F5477.730455038814
aF304.3159157223923
aF110.16295643478779
aF6738.103886669089
aF13458.262350936968
aF19541.35807977157
aF17174.903610234844
aF216571.8380632517
aF107891.50111846878
aF81086.3188308771
aF31087.343245558168
aF94150.45931181077
asS'Bacteria.Proteobacteria.Gammaproteobacteria.Burkholderiales.Alcaligenaceae'
p215
(lp216
F158.68280576589842
aF250.61310706549955
aF177.95554501004182
aF0.0
aF0.0
aF892.2994556973318
aF0.0
aF34.5354549614498
aF0.0
aF79.28048554892926
aF0.0
aF0.0
asS'Bacteria.Firmicutes.Bacilli.Exiguobacterales'
p217
(lp218
F0.0
aF0.0
aF0.0
aF0.0
aF0.0
aF713.8395645578654
aF0.0
aF0.0
aF0.0
aF0.0
aF0.0
aF0.0
asS'Bacteria.Firmicutes.Clostridia.Eubacteriales'
p219
(lp220
F0.0
aF358.01872437928506
aF0.0
aF0.0
aF0.0
aF1695.3689658249305
aF0.0
aF0.0
aF0.0
aF0.0
aF0.0
aF0.0
asS'Bacteria.Bacteroidota.Bacteroidia.Flavobacteriales'
p221
(lp222
F0.0
aF0.0
aF0.0
aF254.26807119505992
aF0.0
aF0.0
aF0.0
aF0.0
aF0.0
aF0.0
aF0.0
aF0.0
asS'Bacteria.Desulfobacterota.Desulfovibrionia.Desulfovibrionales'
p223
(lp224
F0.0
aF0.0
aF0.0
aF12041.409371594624
aF14366.837024417944
aF0.0
aF0.0
aF0.0
aF0.0
aF0.0
aF0.0
aF0.0
asS'Bacteria.Proteobacteria.Gammaproteobacteria.Burkholderiales.Burkholderiaceae'
p225
(lp226
F793.4140288294922
aF2112.3104738377815
aF1872.7702593913925
aF2560.842717035961
aF6076.093128904032
aF3792.2726867136603
aF10164.73887136348
aF0.0
aF0.0
aF110.111785484624
aF538.0712889552633
aF135.39036426777506
asS'Bacteria.Firmicutes.Bacilli'
p227
(lp228
F0.0
aF1091.9571093568193
aF1262.6369622141062
aF563.0221576462042
aF738.2169222032936
aF847.6844829124652
aF0.0
aF5901.245866537734
aF1318.4599202998384
aF1435.8576827194968
aF6187.819822985527
aF2288.097156125398
asS'Bacteria.Acidobacteriota.Acidobacteriae'
p229
(lp230
F0.0
aF0.0
aF0.0
aF0.0
aF681.4310051107325
aF0.0
aF0.0
aF0.0
aF0.0
aF0.0
aF0.0
aF0.0
asS'Bacteria.Verrucomicrobiota.Verrucomicrobiae'
p231
(lp232
F87161.29155109268
aF5352.379929470311
aF6152.177413204303
aF1071.558300036324
aF908.5746734809767
aF55277.951280449706
aF142656.85243603226
aF137744.66211374252
aF0.0
aF0.0
aF269.03564447763165
aF40.61710928033252
asS'Bacteria.Cyanobacteria.Cyanobacteriia.Chloroplast'
p233
(lp234
F0.0
aF0.0
aF0.0
aF0.0
aF454.28733674048834
aF0.0
aF0.0
aF0.0
aF0.0
aF0.0
aF0.0
aF0.0
asS'Bacteria.Actinobacteriota.Actinobacteria.Bifidobacteriales.Bifidobacteriaceae'
p235
(lp236
F1497.9656864300812
aF5943.110824696131
aF6762.310710381589
aF0.0
aF13798.977853492335
aF48942.62514499865
aF5608.131791097093
aF0.0
aF0.0
aF0.0
aF6138.405112775349
aF0.0
asS'Bacteria.Actinobacteriota.Coriobacteriia.Coriobacteriales.Coriobacteriales_Incertae_Sedis'
p237
(lp238
F0.0
aF0.0
aF0.0
aF508.53614239011983
aF0.0
aF0.0
aF1752.5411847178414
aF0.0
aF0.0
aF0.0
aF0.0
aF0.0
asS'Bacteria.Campilobacterota.Campylobacteria.Campylobacterales.Helicobacteraceae'
p239
(lp240
F0.0
aF0.0
aF0.0
aF2306.5746458409008
aF0.0
aF0.0
aF0.0
aF0.0
aF0.0
aF0.0
aF38.43366349680452
aF0.0
asS'Bacteria.Verrucomicrobiota.Verrucomicrobiae.Verrucomicrobiales.Akkermansiaceae'
p241
(lp242
F87161.29155109268
aF5352.379929470311
aF6152.177413204303
aF1071.558300036324
aF908.5746734809767
aF55277.951280449706
aF142656.85243603226
aF137744.66211374252
aF0.0
aF0.0
aF269.03564447763165
aF40.61710928033252
asS'Bacteria.Firmicutes.Clostridia.Clostridia_vadinBB60_group.Clostridia_vadinBB60_group'
p243
(lp244
F387.18604606879217
aF340.1177881603208
aF67.79258857525403
aF563.0221576462042
aF0.0
aF0.0
aF0.0
aF0.0
aF474.0530050516272
aF114.51625690400894
aF351.393494827927
aF264.01121032216133
asS'Bacteria.Desulfobacterota.Desulfovibrionia.Desulfovibrionales.Desulfovibrionaceae'
p245
(lp246
F0.0
aF0.0
aF0.0
aF12041.409371594624
aF14366.837024417944
aF0.0
aF0.0
aF0.0
aF0.0
aF0.0
aF0.0
aF0.0
asS'Bacteria.Proteobacteria.Gammaproteobacteria.Pseudomonadales'
p247
(lp248
F355.44948491561246
aF1933.301111648139
aF457.59997288296466
aF1634.5804576825283
aF0.0
aF2766.1283126617286
aF15071.854188573436
aF0.0
aF0.0
aF290.69511367940737
aF164.71570070059076
aF148.92940069455258
asS'Bacteria.Firmicutes.Clostridia.Christensenellales.Christensenellaceae'
p249
(lp250
F4785.873421899497
aF787.6411936344272
aF525.3925614582187
aF13893.933890301489
aF21294.71890971039
aF1561.5240474703305
aF0.0
aF146.77568358616165
aF0.0
aF0.0
aF263.5451211209453
aF74.46470034727629
asS'Bacteria.Deferribacterota.Deferribacteres'
p251
(lp252
F0.0
aF411.7215330361778
aF0.0
aF0.0
aF0.0
aF0.0
aF0.0
aF0.0
aF0.0
aF0.0
aF87.84837370698175
aF0.0
asS'Bacteria.Actinobacteriota.Actinobacteria'
p253
(lp254
F1497.9656864300812
aF5943.110824696131
aF6863.99959324447
aF635.6701779876498
aF13798.977853492335
aF80931.560631748
aF14370.837714686299
aF0.0
aF0.0
aF0.0
aF6138.405112775349
aF372.32350173638144
asS'Bacteria.Actinobacteriota.Coriobacteriia.Coriobacteriales.uncultured'
p255
(lp256
F596.6473496797781
aF268.51404328446375
aF220.32591286957557
aF7246.640029059208
aF2385.0085178875643
aF3167.663067725528
aF0.0
aF0.0
aF562.9379434988073
aF48.449185613234555
aF999.2752509169175
aF250.4721738953839
asS'Bacteria.Firmicutes.Clostridia.uncultured.uncultured'
p257
(lp258
F0.0
aF0.0
aF186.42961858194857
aF599.3461678169269
aF0.0
aF713.8395645578654
aF0.0
aF0.0
aF0.0
aF0.0
aF1295.7635121779806
aF0.0
asS'Bacteria.Firmicutes.Clostridia.Oscillospirales.Ruminococcaceae'
p259
(lp260
F57436.8283750246
aF27818.05488427045
aF32735.346208275783
aF35415.90991645477
aF48495.17319704713
aF199473.5433211385
aF255520.5047318613
aF1869.2314997884705
aF27820.985733967373
aF2263.898309563869
aF19200.3601783322
aF28628.29252442104
asS'Bacteria.Bacteroidota.Bacteroidia.Flavobacteriales.Weeksellaceae'
p261
(lp262
F0.0
aF0.0
aF0.0
aF254.26807119505992
aF0.0
aF0.0
aF0.0
aF0.0
aF0.0
aF0.0
aF0.0
aF0.0
asS'Bacteria.Firmicutes.Clostridia.Lachnospirales.Lachnospiraceae'
p263
(lp264
F356173.07850990497
aF99511.30444122228
aF106290.3048124264
aF290810.0254268071
aF37705.84894946053
aF287900.4193807441
aF249912.37294076415
aF16106.472807646149
aF16636.297646030544
aF79187.99164912218
aF139107.8997650056
aF17986.609892973916
asS'Bacteria.Patescibacteria.Saccharimonadia'
p265
(lp266
F2805.512005941084
aF1181.4617904516406
aF3830.2812545018523
aF2415.5466763530694
aF28279.386712095402
aF847.6844829124652
aF0.0
aF0.0
aF0.0
aF0.0
aF949.8605407067402
aF0.0
asS'Bacteria.Firmicutes.Clostridia.Peptostreptococcales_Tissierellales.Peptostreptococcaceae'
p267
(lp268
F9806.597396332523
aF201242.3249735961
aF235833.46750616495
aF25299.673083908467
aF7041.453719477569
aF5086.106897474791
aF5257.623554153524
aF1126.7192181172995
aF1748.0704561278753
aF3149.197064860246
aF53219.64289636088
aF4427.264911556244
asS'Bacteria.Firmicutes.Clostridia.Lachnospirales'
p269
(lp270
F356255.5935689032
aF100066.23346401016
aF106290.3048124264
aF292099.5277878678
aF37705.84894946053
aF287900.4193807441
aF249912.37294076415
aF16106.472807646149
aF17154.79312030576
aF79187.99164912218
aF139151.82395185909
aF18372.472431137077
asS'Bacteria.Verrucomicrobiota.Verrucomicrobiae.Verrucomicrobiales'
p271
(lp272
F87161.29155109268
aF5352.379929470311
aF6152.177413204303
aF1071.558300036324
aF908.5746734809767
aF55277.951280449706
aF142656.85243603226
aF137744.66211374252
aF0.0
aF0.0
aF269.03564447763165
aF40.61710928033252
asS'Bacteria.Firmicutes.Clostridia.Clostridiales.Clostridiaceae'
p273
(lp274
F25611.404850616007
aF190841.88103037787
aF293846.9751794386
aF10352.342898656012
aF14991.482112436117
aF1606.1390202551972
aF0.0
aF0.0
aF0.0
aF0.0
aF290.99773790437706
aF0.0
asS'Bacteria.Proteobacteria.Gammaproteobacteria.Enterobacterales.Morganellaceae'
p275
(lp276
F0.0
aF0.0
aF0.0
aF0.0
aF0.0
aF0.0
aF0.0
aF120.8740923650743
aF0.0
aF0.0
aF0.0
aF0.0
asS'Bacteria.Patescibacteria.Saccharimonadia.Saccharimonadales'
p277
(lp278
F0.0
aF0.0
aF0.0
aF108.97203051216854
aF0.0
aF0.0
aF0.0
aF0.0
aF0.0
aF0.0
aF0.0
aF0.0
asS'Bacteria.Firmicutes.Clostridia.uncultured'
p279
(lp280
F0.0
aF0.0
aF186.42961858194857
aF599.3461678169269
aF0.0
aF713.8395645578654
aF0.0
aF0.0
aF0.0
aF0.0
aF1295.7635121779806
aF0.0
asS'Bacteria.Proteobacteria.Gammaproteobacteria.Enterobacterales'
p281
(lp282
F2018.4452893422279
aF7661.600701716699
aF7008.058843966885
aF5775.517617144933
aF21408.290743895515
aF12269.117515838314
aF30143.70837714687
aF8405.066351242845
aF1733.2562997200118
aF629.8394129720492
aF3113.1267432411655
aF1441.9073794518044
asS'Bacteria'
p283
(lp284
F1000000.0
aF1000000.0
aF1000000.0
aF1000000.0
aF1000000.0
aF1000000.0
aF1000000.0
aF1000000.0
aF1000000.0
aF1000000.0
aF1000000.0
aF1000000.0
asS'Bacteria.Deferribacterota.Deferribacteres.Deferribacterales.Deferribacteraceae'
p285
(lp286
F0.0
aF411.7215330361778
aF0.0
aF0.0
aF0.0
aF0.0
aF0.0
aF0.0
aF0.0
aF0.0
aF87.84837370698175
aF0.0
asS'Bacteria.Actinobacteriota.Actinobacteria.Corynebacteriales.Corynebacteriaceae'
p287
(lp288
F0.0
aF0.0
aF0.0
aF0.0
aF0.0
aF0.0
aF0.0
aF0.0
aF0.0
aF0.0
aF0.0
aF372.32350173638144
asS'Bacteria.Firmicutes.Clostridia.Oscillospirales.Oscillospiraceae'
p289
(lp290
F39220.042273099454
aF24560.08449241895
aF7626.666214716078
aF62495.45949872866
aF34525.837592277116
aF10082.983849379849
aF0.0
aF6229.332688671508
aF9851.414011229128
aF27717.33864218955
aF43715.54696593679
aF5747.320963167052
asS'Bacteria.Actinobacteriota.Actinobacteria.Pseudonocardiales'
p291
(lp292
F0.0
aF0.0
aF101.68888286288104
aF0.0
aF0.0
aF31988.935486749346
aF5257.623554153524
aF0.0
aF0.0
aF0.0
aF0.0
aF0.0
asS'Bacteria.Chloroflexi.Anaerolineae'
p293
(lp294
F0.0
aF0.0
aF0.0
aF0.0
aF454.28733674048834
aF0.0
aF0.0
aF0.0
aF0.0
aF0.0
aF0.0
aF0.0
asS'Bacteria.Actinobacteriota.Actinobacteria.Streptomycetales.Streptomycetaceae'
p295
(lp296
F0.0
aF0.0
aF0.0
aF0.0
aF0.0
aF0.0
aF3505.0823694356827
aF0.0
aF0.0
aF0.0
aF0.0
aF0.0
assS'subclass_sl'
p297
(dp298
g12
(I0
I7
tp299
sg10
(I7
I12
tp300
ssS'norm'
p301
F1000000.0
sS'cls'
p302
(dp303
S'class'
p304
(S'HSD-NR'
p305
S'HSD-NR'
p306
S'HSD-NR'
p307
S'HSD-NR'
p308
S'HSD-NR'
p309
S'HSD-NR'
p310
g5
S'NR'
p311
S'NR'
p312
S'NR'
p313
S'NR'
p314
g3
tp315
sS'subclass'
p316
(lp317
S'HSD-NR_subcl'
p318
aS'HSD-NR_subcl'
p319
aS'HSD-NR_subcl'
p320
aS'HSD-NR_subcl'
p321
aS'HSD-NR_subcl'
p322
aS'HSD-NR_subcl'
p323
ag12
aS'NR_subcl'
p324
aS'NR_subcl'
p325
aS'NR_subcl'
p326
aS'NR_subcl'
p327
ag10
asS'subject'
p328
(S'S210421121691'
p329
S'S210421121692'
p330
S'S210421121693'
p331
S'S210421121707'
p332
S'S210421121708'
p333
S'S210421121709'
p334
S'S210421121710'
p335
S'S210421121677'
p336
S'S210421121678'
p337
S'S210421121679'
p338
S'S210421121680'
p339
S'S210421121681'
p340
tp341
ss.