(dp0
S'class_sl'
p1
(dp2
S'NR'
p3
(I7
I12
tp4
sS'HSD-NR'
p5
(I0
I7
tp6
ssS'class_hierarchy'
p7
(dp8
g3
(lp9
S'NR_subcl'
p10
asg5
(lp11
S'HSD-NR_subcl'
p12
assS'feats'
p13
(dp14
S'Bacteria.Firmicutes.Clostridia.Lachnospirales.Lachnospiraceae._Eubacterium__ventriosum_group.uncultured_Clostridiales'
p15
(lp16
F1212.3366360514638
aF0.0
aF0.0
aF236.1060661096985
aF0.0
aF0.0
aF0.0
aF0.0
aF0.0
aF0.0
aF0.0
aF0.0
asS'Bacteria.Firmicutes.Bacilli.Acholeplasmatales'
p17
(lp18
F0.0
aF0.0
aF0.0
aF254.26807119505992
aF0.0
aF0.0
aF0.0
aF0.0
aF0.0
aF0.0
aF0.0
aF0.0
asS'Bacteria.Firmicutes.Bacilli.Lactobacillales.Streptococcaceae'
p19
(lp20
F0.0
aF0.0
aF0.0
aF980.7482746095168
aF0.0
aF624.6096189881324
aF0.0
aF414.42545953739744
aF2133.238522732323
aF361.16665638956675
aF1877.7589879867346
aF2294.866674338787
asS'Bacteria.Cyanobacteria.Vampirivibrionia.Gastranaerophilales.Gastranaerophilales'
p21
(lp22
F50.778497845087486
aF0.0
aF0.0
aF1325.826371231384
aF0.0
aF0.0
aF0.0
aF0.0
aF814.7786024324845
aF0.0
aF164.71570070059073
aF440.01868387026883
asS'Bacteria.Firmicutes.Clostridia.Oscillospirales.Ruminococcaceae.uncultured.uncultured_bacterium'
p23
(lp24
F158.6828057658984
aF0.0
aF0.0
aF508.53614239011983
aF1135.718341851221
aF0.0
aF0.0
aF0.0
aF0.0
aF0.0
aF576.5049524520676
aF182.77699176149628
asS'Bacteria.Firmicutes.Clostridia.Clostridiales.Clostridiaceae.Candidatus_Arthromitus'
p25
(lp26
F736.2882187537685
aF0.0
aF0.0
aF599.3461678169269
aF0.0
aF0.0
aF0.0
aF0.0
aF0.0
aF0.0
aF0.0
aF0.0
asS'Bacteria.Acidobacteriota.Acidobacteriae.Bryobacterales'
p27
(lp28
F0.0
aF0.0
aF0.0
aF0.0
aF681.4310051107326
aF0.0
aF0.0
aF0.0
aF0.0
aF0.0
aF0.0
aF0.0
asS'Bacteria.Firmicutes.Clostridia.Lachnospirales.Lachnospiraceae.Lachnospiraceae_UCG_006'
p29
(lp30
F1148.8635137451042
aF4546.837799616921
aF3398.1035023346085
aF4431.5292408281875
aF0.0
aF0.0
aF0.0
aF0.0
aF0.0
aF0.0
aF911.4268772099355
aF419.7101292301026
asS'Bacteria.Firmicutes.Clostridia.Lachnospirales.Lachnospiraceae.Lachnospiraceae_UCG_001'
p31
(lp32
F0.0
aF2810.4469863773884
aF5703.051513893246
aF0.0
aF0.0
aF0.0
aF0.0
aF0.0
aF0.0
aF0.0
aF0.0
aF0.0
asS'Bacteria.Actinobacteriota.Actinobacteria.Bifidobacteriales.Bifidobacteriaceae.Bifidobacterium.Bifidobacterium_animalis'
p33
(lp34
F0.0
aF912.9477471671771
aF711.8221800401674
aF0.0
aF0.0
aF48942.62514499866
aF5608.131791097093
aF0.0
aF0.0
aF0.0
aF6138.405112775348
aF0.0
asS'Bacteria.Verrucomicrobiota.Verrucomicrobiae.Verrucomicrobiales.Akkermansiaceae.Akkermansia'
p35
(lp36
F87161.29155109267
aF5352.379929470313
aF6152.177413204304
aF1071.558300036324
aF908.5746734809768
aF55277.95128044972
aF142656.85243603226
aF137744.6621137425
aF0.0
aF0.0
aF269.03564447763154
aF40.61710928033251
asS'Bacteria.Firmicutes.Clostridia.Lachnospirales.Lachnospiraceae.Lachnospiraceae_UCG_001.unidentified'
p37
(lp38
F0.0
aF2810.4469863773884
aF5567.466336742737
aF0.0
aF0.0
aF0.0
aF0.0
aF0.0
aF0.0
aF0.0
aF0.0
aF0.0
asS'Bacteria.Firmicutes.Bacilli.Exiguobacterales.Exiguobacteraceae.Exiguobacterium'
p39
(lp40
F0.0
aF0.0
aF0.0
aF0.0
aF0.0
aF713.8395645578656
aF0.0
aF0.0
aF0.0
aF0.0
aF0.0
aF0.0
asS'Bacteria.Firmicutes.Clostridia.Oscillospirales.Ruminococcaceae.Negativibacillus.uncultured_bacterium'
p41
(lp42
F0.0
aF0.0
aF0.0
aF671.9941881583726
aF0.0
aF0.0
aF0.0
aF0.0
aF0.0
aF0.0
aF0.0
aF0.0
asS'Bacteria.Firmicutes.Bacilli.Lactobacillales.Lactobacillaceae.Lactobacillus'
p43
(lp44
F1294.8516950497308
aF25848.951900184387
aF59708.32238765499
aF5448.601525608427
aF13685.406019307213
aF4684.572142410993
aF0.0
aF6285.452802983861
aF14888.227189902671
aF6540.640057786664
aF17789.295675663798
aF6403.964229865759
asS'Bacteria.Firmicutes.Clostridia.Oscillospirales.Ruminococcaceae.Incertae_Sedis.uncultured_organism'
p45
(lp46
F16896.54515795286
aF0.0
aF0.0
aF0.0
aF0.0
aF0.0
aF0.0
aF0.0
aF0.0
aF0.0
aF0.0
aF0.0
asS'Bacteria.Actinobacteriota.Actinobacteria.Bifidobacteriales'
p47
(lp48
F1497.9656864300807
aF5943.110824696133
aF6762.31071038159
aF0.0
aF13798.977853492335
aF48942.62514499866
aF5608.131791097093
aF0.0
aF0.0
aF0.0
aF6138.405112775348
aF0.0
asS'Bacteria.Firmicutes.Clostridia.Oscillospirales.Oscillospiraceae.UCG_003.uncultured_bacterium'
p49
(lp50
F158.6828057658984
aF0.0
aF0.0
aF0.0
aF0.0
aF0.0
aF0.0
aF0.0
aF814.7786024324845
aF0.0
aF0.0
aF0.0
asS'Bacteria.Desulfobacterota.Desulfovibrionia'
p51
(lp52
F0.0
aF0.0
aF0.0
aF12041.409371594624
aF14366.837024417946
aF0.0
aF0.0
aF0.0
aF0.0
aF0.0
aF0.0
aF0.0
asS'Bacteria.Firmicutes.Bacilli.Erysipelotrichales.Erysipelotrichaceae.Faecalibaculum'
p53
(lp54
F774.3720921375841
aF3490.68256269803
aF2423.5850415653317
aF635.6701779876498
aF0.0
aF0.0
aF0.0
aF0.0
aF0.0
aF0.0
aF488.6565787450859
aF0.0
asS'Bacteria.Cyanobacteria.Vampirivibrionia'
p55
(lp56
F50.778497845087486
aF0.0
aF0.0
aF1325.826371231384
aF0.0
aF0.0
aF0.0
aF0.0
aF814.7786024324845
aF0.0
aF164.71570070059073
aF440.01868387026883
asS'Bacteria.Firmicutes.Clostridia.Lachnospirales.Lachnospiraceae.Anaerostipes.Anaerostipes_sp_'
p57
(lp58
F0.0
aF0.0
aF0.0
aF3051.2168543407192
aF0.0
aF0.0
aF0.0
aF0.0
aF0.0
aF57.25812845200447
aF0.0
aF0.0
asS'Bacteria.Bacteroidota.Bacteroidia.Bacteroidales.Muribaculaceae.Muribaculaceae'
p59
(lp60
F28677.15665801316
aF1038.2543006999267
aF110.1629564347878
aF14584.090083545223
aF29471.890971039185
aF1873.8288569643973
aF0.0
aF105920.2403667665
aF175755.15162289081
aF43348.80770958678
aF34529.9013902005
aF80773.8913221546
asS'Bacteria.Firmicutes.Clostridia.Lachnospirales.Lachnospiraceae.Frisingicoccus'
p61
(lp62
F564.9107885265984
aF0.0
aF0.0
aF0.0
aF0.0
aF0.0
aF0.0
aF0.0
aF666.6370383538509
aF110.111785484624
aF0.0
aF162.46843712133003
asS'Bacteria.Proteobacteria.Gammaproteobacteria.Pasteurellales'
p63
(lp64
F285.6290503786171
aF0.0
aF0.0
aF0.0
aF0.0
aF669.224591772999
aF0.0
aF0.0
aF0.0
aF0.0
aF0.0
aF0.0
asS'Bacteria.Proteobacteria.Gammaproteobacteria.Pseudomonadales.Moraxellaceae.Acinetobacter'
p65
(lp66
F0.0
aF53.70280865689277
aF0.0
aF0.0
aF0.0
aF669.224591772999
aF0.0
aF0.0
aF0.0
aF0.0
aF0.0
aF0.0
asS'Bacteria.Firmicutes.Clostridia.Clostridia_vadinBB60_group'
p67
(lp68
F387.1860460687921
aF340.11778816032086
aF67.79258857525403
aF563.022157646204
aF0.0
aF0.0
aF0.0
aF0.0
aF474.05300505162734
aF114.51625690400894
aF351.3934948279269
aF264.0112103221613
asS'Bacteria.Firmicutes.Bacilli.Erysipelotrichales.Erysipelatoclostridiaceae.UCG_004'
p69
(lp70
F0.0
aF0.0
aF0.0
aF0.0
aF0.0
aF0.0
aF0.0
aF0.0
aF0.0
aF26.426828516309758
aF76.86732699360901
aF0.0
asS'Bacteria.Firmicutes.Clostridia.Oscillospirales.Oscillospiraceae.Colidextribacter'
p71
(lp72
F2380.2420864884757
aF0.0
aF372.85923716389715
aF0.0
aF851.7887563884158
aF0.0
aF0.0
aF595.736598085009
aF770.3361332088944
aF1752.979624915214
aF905.9363538532491
aF1008.658213794924
asS'Bacteria.Bacteroidota.Bacteroidia.Bacteroidales.Tannerellaceae'
p73
(lp74
F7089.94776162034
aF0.0
aF152.53332429432157
aF217.9440610243371
aF0.0
aF5398.411706968859
aF0.0
aF25551.919739602665
aF2029.5394278772794
aF27545.56425683354
aF1658.1380537192802
aF2321.9447471923418
asS'Bacteria.Firmicutes.Clostridia.Peptostreptococcales_Tissierellales.Anaerovoracaceae.Family_XIII_UCG_001.uncultured_bacterium'
p75
(lp76
F0.0
aF0.0
aF0.0
aF0.0
aF0.0
aF0.0
aF0.0
aF0.0
aF0.0
aF0.0
aF148.24413063053169
aF0.0
asS'Bacteria.Bacteroidota.Bacteroidia.Bacteroidales.Muribaculaceae'
p77
(lp78
F237122.8903120973
aF15484.309829404081
aF11575.584499224628
aF78913.91209589537
aF462237.365133447
aF82225.39484250914
aF67998.59796705224
aF490658.15943292767
aF437387.96794216556
aF396891.3240721981
aF528539.7404080556
aF497106.0309637762
asS'Bacteria.Proteobacteria.Alphaproteobacteria.Rhizobiales'
p79
(lp80
F0.0
aF0.0
aF135.58517715050806
aF0.0
aF0.0
aF223.07486392433302
aF0.0
aF38.852386831631016
aF0.0
aF74.87601412954432
aF0.0
aF0.0
asS'Bacteria.Bacteroidota.Bacteroidia.Bacteroidales.Muribaculaceae.Muribaculaceae.uncultured_Bacteroidales'
p81
(lp82
F2469.104457717379
aF0.0
aF152.53332429432157
aF0.0
aF0.0
aF0.0
aF0.0
aF3747.0968633173025
aF2296.19424321882
aF1118.7357405237797
aF17547.7126479696
aF7622.477508275734
asS'Bacteria.Firmicutes.Clostridia.Lachnospirales.Defluviitaleaceae.Defluviitaleaceae_UCG_011'
p83
(lp84
F0.0
aF554.929022787892
aF0.0
aF1144.2063203777698
aF0.0
aF0.0
aF0.0
aF0.0
aF0.0
aF0.0
aF0.0
aF385.86253816315883
asS'Bacteria.Actinobacteriota.Actinobacteria.Corynebacteriales'
p85
(lp86
F0.0
aF0.0
aF0.0
aF0.0
aF0.0
aF0.0
aF0.0
aF0.0
aF0.0
aF0.0
aF0.0
aF372.32350173638133
asS'Bacteria.Verrucomicrobiota'
p87
(lp88
F87161.29155109267
aF5352.379929470313
aF6152.177413204304
aF1071.558300036324
aF908.5746734809768
aF55277.95128044972
aF142656.85243603226
aF137744.6621137425
aF0.0
aF0.0
aF269.03564447763154
aF40.61710928033251
asS'Bacteria.Firmicutes.Bacilli.Lactobacillales'
p89
(lp90
F1294.8516950497308
aF25848.951900184387
aF59708.32238765499
aF6701.779876498365
aF13685.406019307213
aF5309.181761399126
aF0.0
aF9246.868065928182
aF124350.02888760499
aF18666.149875353458
aF89264.9287330068
aF39946.92697720702
asS'Bacteria.Bacteroidota.Bacteroidia.Bacteroidales.Muribaculaceae.Muribaculaceae.uncultured_Barnesiella'
p91
(lp92
F0.0
aF0.0
aF0.0
aF508.53614239011983
aF0.0
aF0.0
aF0.0
aF0.0
aF0.0
aF0.0
aF0.0
aF0.0
asS'Bacteria.Bacteroidota.Bacteroidia.Bacteroidales'
p93
(lp94
F256907.46253498952
aF16647.870683636756
aF12880.591829298268
aF89102.79694878316
aF506984.6678023851
aF115597.39448558935
aF87977.56747283562
aF804132.1671861373
aF790068.5895441682
aF857735.5731538659
aF599307.095952386
aF885107.736882366
asS'Bacteria.Cyanobacteria'
p95
(lp96
F50.778497845087486
aF0.0
aF0.0
aF1325.826371231384
aF454.2873367404884
aF0.0
aF0.0
aF0.0
aF814.7786024324845
aF0.0
aF164.71570070059073
aF440.01868387026883
asS'Bacteria.Cyanobacteria.Cyanobacteriia.Chloroplast.Chloroplast.Chloroplast'
p97
(lp98
F0.0
aF0.0
aF0.0
aF0.0
aF454.2873367404884
aF0.0
aF0.0
aF0.0
aF0.0
aF0.0
aF0.0
aF0.0
asS'Bacteria.Firmicutes.Bacilli.RF39.RF39.RF39.unidentified'
p99
(lp100
F469.70110506705925
aF0.0
aF110.1629564347878
aF254.26807119505992
aF0.0
aF0.0
aF0.0
aF0.0
aF0.0
aF0.0
aF0.0
aF0.0
asS'Bacteria.Firmicutes.Clostridia.Peptococcales'
p101
(lp102
F1072.695766977473
aF0.0
aF483.022193598685
aF780.9662186705413
aF0.0
aF847.6844829124655
aF0.0
aF228.79738911960487
aF0.0
aF1131.9491547819346
aF620.4291393055585
aF318.16735602927133
asS'Bacteria.Firmicutes.Bacilli.Staphylococcales.Staphylococcaceae.Jeotgalicoccus'
p103
(lp104
F0.0
aF0.0
aF0.0
aF0.0
aF0.0
aF0.0
aF0.0
aF0.0
aF0.0
aF176.17885677539837
aF214.13041091076798
aF582.1785663514327
asS'Bacteria.Firmicutes.Clostridia.Oscillospirales.Ruminococcaceae.UBA1819'
p105
(lp106
F50.778497845087486
aF250.6131070654996
aF220.3259128695756
aF0.0
aF0.0
aF0.0
aF0.0
aF0.0
aF0.0
aF0.0
aF0.0
aF0.0
asS'Bacteria.Proteobacteria.Alphaproteobacteria.Rhodobacterales.Rhodobacteraceae.Rubellimicrobium'
p107
(lp108
F0.0
aF0.0
aF0.0
aF0.0
aF1249.2901760363432
aF0.0
aF0.0
aF0.0
aF0.0
aF0.0
aF0.0
aF0.0
asS'Bacteria.Firmicutes.Clostridia.Clostridia_UCG_014.Clostridia_UCG_014.Clostridia_UCG_014.uncultured_bacterium'
p109
(lp110
F19365.64961567024
aF13676.315271288693
aF2211.733202267663
aF43498.002179440606
aF9653.60590573538
aF0.0
aF7360.672975814933
aF0.0
aF0.0
aF0.0
aF82.35785035029537
aF0.0
asS'Bacteria.Firmicutes.Clostridia.Oscillospirales.UCG_010'
p111
(lp112
F615.6892863716857
aF0.0
aF322.01479573245666
aF653.8321830730113
aF0.0
aF0.0
aF0.0
aF0.0
aF399.98222301231056
aF0.0
aF422.7702984648496
aF284.31976496232755
asS'Bacteria.Firmicutes.Clostridia.Oscillospirales.UCG_010.UCG_010.unidentified'
p113
(lp114
F380.83873383815614
aF0.0
aF0.0
aF0.0
aF0.0
aF0.0
aF0.0
aF0.0
aF399.98222301231056
aF0.0
aF131.7725605604726
aF169.2379553347188
asS'Bacteria.Proteobacteria.Alphaproteobacteria.Rickettsiales.Mitochondria'
p115
(lp116
F0.0
aF0.0
aF0.0
aF0.0
aF0.0
aF0.0
aF0.0
aF0.0
aF0.0
aF0.0
aF76.86732699360901
aF0.0
asS'Bacteria.Firmicutes.Clostridia.Eubacteriales.Anaerofustaceae'
p117
(lp118
F0.0
aF358.0187243792851
aF0.0
aF0.0
aF0.0
aF1695.368965824931
aF0.0
aF0.0
aF0.0
aF0.0
aF0.0
aF0.0
asS'Bacteria.Proteobacteria.Gammaproteobacteria.Pseudomonadales.Pseudomonadaceae'
p119
(lp120
F272.9344259173452
aF1879.5983029912468
aF457.5999728829647
aF1634.5804576825283
aF0.0
aF2096.9037208887303
aF15071.854188573436
aF0.0
aF0.0
aF290.69511367940737
aF82.35785035029537
aF148.92940069455256
asS'Bacteria.Firmicutes.Clostridia.Eubacteriales.Anaerofustaceae.Anaerofustis.Anaerofustis_stercorihominis'
p121
(lp122
F0.0
aF0.0
aF0.0
aF0.0
aF0.0
aF1695.368965824931
aF0.0
aF0.0
aF0.0
aF0.0
aF0.0
aF0.0
asS'Bacteria.Proteobacteria.Gammaproteobacteria.Pseudomonadales.Pseudomonadaceae.Pseudomonas'
p123
(lp124
F272.9344259173452
aF1879.5983029912468
aF457.5999728829647
aF1634.5804576825283
aF0.0
aF2096.9037208887303
aF15071.854188573436
aF0.0
aF0.0
aF290.69511367940737
aF82.35785035029537
aF148.92940069455256
asS'Bacteria.Firmicutes.Bacilli.Staphylococcales.Staphylococcaceae.Jeotgalicoccus.Jeotgalicoccus_schoeneichii'
p125
(lp126
F0.0
aF0.0
aF0.0
aF345.0780966218671
aF0.0
aF0.0
aF0.0
aF0.0
aF0.0
aF0.0
aF0.0
aF0.0
asS'Bacteria.Firmicutes.Clostridia.uncultured.uncultured.uncultured.uncultured_bacterium'
p127
(lp128
F0.0
aF0.0
aF186.42961858194857
aF599.3461678169269
aF0.0
aF713.8395645578656
aF0.0
aF0.0
aF0.0
aF0.0
aF1295.7635121779804
aF0.0
asS'Bacteria.Firmicutes.Clostridia.Clostridia.Hungateiclostridiaceae.Ruminiclostridium'
p129
(lp130
F57.12581007572342
aF0.0
aF0.0
aF0.0
aF0.0
aF0.0
aF0.0
aF0.0
aF0.0
aF0.0
aF0.0
aF0.0
asS'Bacteria.Actinobacteriota.Actinobacteria.Micrococcales.Micrococcaceae'
p131
(lp132
F0.0
aF0.0
aF0.0
aF417.72611696331273
aF0.0
aF0.0
aF0.0
aF0.0
aF0.0
aF0.0
aF0.0
aF0.0
asS'Bacteria.Actinobacteriota'
p133
(lp134
F12224.923356204812
aF19368.812988919326
aF17422.695263840287
aF22466.40029059208
aF21521.862578080636
aF103462.12188810566
aF37854.889589905375
aF56.12011431235591
aF992.5484793268447
aF105.70731406523903
aF9191.136099092964
aF2355.7923382592858
asS'Bacteria.Proteobacteria.Gammaproteobacteria.Burkholderiales'
p135
(lp136
F1060.0011425162013
aF2362.9235809032816
aF2211.733202267663
aF5285.143479840174
aF8915.388983532084
aF13429.106808244846
aF18576.936558009118
aF5810.590297263928
aF903.6635408796647
aF3673.3291637670563
aF796.125886719522
aF1435.1378612384153
asS'Bacteria.Firmicutes.Clostridia.Oscillospirales.Ruminococcaceae.Ruminococcus'
p137
(lp138
F2132.6969094936744
aF26618.69215759985
aF30404.975976001435
aF11205.957137668
aF6076.093128904033
aF10038.368876594985
aF4556.607080266387
aF0.0
aF22339.74786305794
aF924.9389980708415
aF3200.9751169481465
aF25697.091138023698
asS'Bacteria.Firmicutes.Clostridia.Lachnospirales.Lachnospiraceae.A2.unidentified'
p139
(lp140
F6372.70147955848
aF1790.0936218964257
aF1796.503597244232
aF0.0
aF0.0
aF0.0
aF0.0
aF0.0
aF0.0
aF0.0
aF0.0
aF0.0
asS'Bacteria.Firmicutes.Clostridia.Christensenellales'
p141
(lp142
F4785.873421899496
aF787.6411936344273
aF525.3925614582187
aF13893.933890301489
aF21294.718909710395
aF1561.524047470331
aF0.0
aF146.7756835861616
aF0.0
aF0.0
aF263.5451211209452
aF74.46470034727628
asS'Bacteria.Patescibacteria.Saccharimonadia.Saccharimonadales.Saccharimonadaceae.Candidatus_Saccharimonas.uncultured_bacterium'
p143
(lp144
F2805.5120059410838
aF1181.4617904516408
aF3830.281254501853
aF2306.5746458409008
aF28279.386712095402
aF847.6844829124655
aF0.0
aF0.0
aF0.0
aF0.0
aF949.8605407067399
aF0.0
asS'Bacteria.Bacteroidota.Bacteroidia.Bacteroidales.Prevotellaceae.Prevotella'
p145
(lp146
F0.0
aF0.0
aF0.0
aF599.3461678169269
aF0.0
aF0.0
aF0.0
aF0.0
aF0.0
aF0.0
aF0.0
aF0.0
asS'Bacteria.Acidobacteriota.Acidobacteriae.Bryobacterales.Bryobacteraceae'
p147
(lp148
F0.0
aF0.0
aF0.0
aF0.0
aF681.4310051107326
aF0.0
aF0.0
aF0.0
aF0.0
aF0.0
aF0.0
aF0.0
asS'Bacteria.Firmicutes.Bacilli.Lactobacillales.Streptococcaceae.Streptococcus'
p149
(lp150
F0.0
aF0.0
aF0.0
aF980.7482746095168
aF0.0
aF624.6096189881324
aF0.0
aF414.42545953739744
aF1970.2828022458261
aF268.6727565824826
aF1877.7589879867346
aF2294.866674338787
asS'Bacteria.Bacteroidota.Bacteroidia.Bacteroidales.Prevotellaceae'
p151
(lp152
F5477.730455038813
aF304.31591572239233
aF110.1629564347878
aF6738.103886669089
aF13458.26235093697
aF19541.35807977157
aF17174.903610234844
aF216571.8380632516
aF107891.5011184688
aF81086.3188308771
aF31087.34324555816
aF94150.45931181077
asS'Bacteria.Firmicutes.Clostridia.Oscillospirales.Ruminococcaceae.Incertae_Sedis'
p153
(lp154
F0.0
aF0.0
aF161.00739786622833
aF0.0
aF0.0
aF0.0
aF0.0
aF315.1360265232293
aF0.0
aF0.0
aF0.0
aF324.93687424266005
asS'Bacteria.Bacteroidota.Bacteroidia.Bacteroidales.Muribaculaceae.Muribaculum'
p155
(lp156
F875.9290878277591
aF0.0
aF0.0
aF0.0
aF0.0
aF0.0
aF0.0
aF13447.242775614512
aF5896.034250329615
aF13521.727257511828
aF5402.674982979376
aF11156.166015664661
asS'Bacteria.Proteobacteria.Gammaproteobacteria.Burkholderiales.Burkholderiaceae'
p157
(lp158
F793.4140288294919
aF2112.310473837782
aF1872.7702593913928
aF2560.842717035961
aF6076.093128904033
aF3792.2726867136607
aF10164.73887136348
aF0.0
aF0.0
aF110.111785484624
aF538.0712889552631
aF135.39036426777503
asS'Bacteria.Proteobacteria.Gammaproteobacteria.Enterobacterales.Morganellaceae.Proteus'
p159
(lp160
F0.0
aF0.0
aF0.0
aF0.0
aF0.0
aF0.0
aF0.0
aF120.87409236507428
aF0.0
aF0.0
aF0.0
aF0.0
asS'Bacteria.Firmicutes.Clostridia.Oscillospirales.Ruminococcaceae.Anaerotruncus.uncultured_bacterium'
p161
(lp162
F311.0182993011609
aF0.0
aF0.0
aF0.0
aF0.0
aF0.0
aF0.0
aF0.0
aF0.0
aF0.0
aF0.0
aF0.0
asS'Bacteria.Firmicutes.Clostridia.Lachnospirales.Lachnospiraceae.Eisenbergiella'
p163
(lp164
F0.0
aF0.0
aF0.0
aF508.53614239011983
aF0.0
aF0.0
aF0.0
aF0.0
aF0.0
aF0.0
aF0.0
aF0.0
asS'Bacteria.Firmicutes.Clostridia.Oscillospirales.Ruminococcaceae.uncultured._Clostridium__leptum'
p165
(lp166
F0.0
aF0.0
aF0.0
aF0.0
aF0.0
aF0.0
aF0.0
aF0.0
aF0.0
aF0.0
aF1597.7422967957302
aF0.0
asS'Bacteria.Desulfobacterota.Desulfovibrionia.Desulfovibrionales.Desulfovibrionaceae'
p167
(lp168
F0.0
aF0.0
aF0.0
aF12041.409371594624
aF14366.837024417946
aF0.0
aF0.0
aF0.0
aF0.0
aF0.0
aF0.0
aF0.0
asS'Bacteria.Proteobacteria.Gammaproteobacteria.Pseudomonadales'
p169
(lp170
F355.4494849156124
aF1933.3011116481396
aF457.5999728829647
aF1634.5804576825283
aF0.0
aF2766.1283126617295
aF15071.854188573436
aF0.0
aF0.0
aF290.69511367940737
aF164.71570070059073
aF148.92940069455256
asS'Bacteria.Firmicutes.Clostridia.Oscillospirales.Butyricicoccaceae.UCG_008'
p171
(lp172
F0.0
aF0.0
aF0.0
aF0.0
aF0.0
aF0.0
aF3505.0823694356827
aF0.0
aF0.0
aF0.0
aF0.0
aF0.0
asS'Bacteria.Firmicutes.Clostridia.Oscillospirales.Butyricicoccaceae.UCG_009'
p173
(lp174
F0.0
aF1109.858045575784
aF262.69628072910933
aF1107.8823102070469
aF0.0
aF0.0
aF0.0
aF0.0
aF0.0
aF237.84145664678783
aF159.22517734390436
aF88.00373677405376
asS'Bacteria.Actinobacteriota.Actinobacteria.Corynebacteriales.Corynebacteriaceae.Corynebacterium'
p175
(lp176
F0.0
aF0.0
aF0.0
aF0.0
aF0.0
aF0.0
aF0.0
aF0.0
aF0.0
aF0.0
aF0.0
aF372.32350173638133
asS'Bacteria.Firmicutes.Bacilli.Lactobacillales.Lactobacillaceae.Lactobacillus.Lactobacillus_intestinalis'
p177
(lp178
F0.0
aF0.0
aF0.0
aF0.0
aF0.0
aF0.0
aF0.0
aF2296.607754936411
aF2014.7252714694162
aF4910.98563261423
aF22181.714361012888
aF2870.2757224768307
asS'Bacteria.Firmicutes.Clostridia.Monoglobales.Monoglobaceae.Monoglobus.uncultured_rumen'
p179
(lp180
F0.0
aF0.0
aF0.0
aF581.1841627315655
aF0.0
aF356.9197822789328
aF0.0
aF0.0
aF0.0
aF0.0
aF0.0
aF0.0
asS'Bacteria.Deferribacterota.Deferribacteres'
p181
(lp182
F0.0
aF411.7215330361779
aF0.0
aF0.0
aF0.0
aF0.0
aF0.0
aF0.0
aF0.0
aF0.0
aF87.84837370698172
aF0.0
asS'Bacteria.Firmicutes.Clostridia.Oscillospirales.Oscillospiraceae.Colidextribacter.uncultured_bacterium'
p183
(lp184
F0.0
aF0.0
aF0.0
aF1634.5804576825283
aF0.0
aF0.0
aF0.0
aF0.0
aF0.0
aF0.0
aF0.0
aF0.0
asS'Bacteria.Deferribacterota.Deferribacteres.Deferribacterales.Deferribacteraceae.Mucispirillum.Mucispirillum_schaedleri'
p185
(lp186
F0.0
aF411.7215330361779
aF0.0
aF0.0
aF0.0
aF0.0
aF0.0
aF0.0
aF0.0
aF0.0
aF87.84837370698172
aF0.0
asS'Bacteria.Actinobacteriota.Actinobacteria.Micrococcales.Dermabacteraceae'
p187
(lp188
F0.0
aF0.0
aF0.0
aF217.9440610243371
aF0.0
aF0.0
aF0.0
aF0.0
aF0.0
aF0.0
aF0.0
aF0.0
asS'Bacteria.Firmicutes.Clostridia.Lachnospirales.Lachnospiraceae.Lachnospiraceae_NK4A136_group.uncultured_bacterium'
p189
(lp190
F793.4140288294919
aF6641.247337235739
aF2745.5998372977883
aF0.0
aF0.0
aF0.0
aF0.0
aF0.0
aF0.0
aF0.0
aF263.5451211209452
aF0.0
asS'Bacteria.Verrucomicrobiota.Verrucomicrobiae.Verrucomicrobiales'
p191
(lp192
F87161.29155109267
aF5352.379929470313
aF6152.177413204304
aF1071.558300036324
aF908.5746734809768
aF55277.95128044972
aF142656.85243603226
aF137744.6621137425
aF0.0
aF0.0
aF269.03564447763154
aF40.61710928033251
asS'Bacteria.Actinobacteriota.Actinobacteria.Micrococcales.Dermabacteraceae.Brachybacterium'
p193
(lp194
F0.0
aF0.0
aF0.0
aF217.9440610243371
aF0.0
aF0.0
aF0.0
aF0.0
aF0.0
aF0.0
aF0.0
aF0.0
asS'Bacteria.Firmicutes.Clostridia.Lachnospirales.Lachnospiraceae.Lachnospiraceae_UCG_001.uncultured_bacterium'
p195
(lp196
F0.0
aF0.0
aF135.58517715050806
aF0.0
aF0.0
aF0.0
aF0.0
aF0.0
aF0.0
aF0.0
aF0.0
aF0.0
asS'Bacteria.Firmicutes.Clostridia.Lachnospirales.Lachnospiraceae.Blautia'
p197
(lp198
F0.0
aF0.0
aF0.0
aF43897.56629131856
aF1078.9324247586599
aF73213.17033996609
aF51174.202593760965
aF64.75397805271835
aF0.0
aF709.1198985209785
aF98.82942042035444
aF0.0
asS'Bacteria.Firmicutes.Clostridia.Oscillospirales.Oscillospiraceae.NK4A214_group.unidentified'
p199
(lp200
F2177.128095108126
aF322.21685194135665
aF796.5629157592349
aF2869.596803487105
aF1987.5070982396367
aF0.0
aF0.0
aF172.67727480724895
aF0.0
aF268.6727565824826
aF109.81046713372716
aF88.00373677405376
asS'Bacteria.Deferribacterota.Deferribacteres.Deferribacterales.Deferribacteraceae'
p201
(lp202
F0.0
aF411.7215330361779
aF0.0
aF0.0
aF0.0
aF0.0
aF0.0
aF0.0
aF0.0
aF0.0
aF87.84837370698172
aF0.0
asS'Bacteria.Firmicutes.Clostridia.Oscillospirales.Oscillospiraceae.UCG_003'
p203
(lp204
F158.6828057658984
aF0.0
aF0.0
aF0.0
aF0.0
aF0.0
aF0.0
aF0.0
aF814.7786024324845
aF0.0
aF0.0
aF0.0
asS'Bacteria.Firmicutes.Clostridia.Oscillospirales.Oscillospiraceae.UCG_005'
p205
(lp206
F253.89248922543743
aF0.0
aF50.84444143144053
aF1144.2063203777698
aF2668.9381033503696
aF0.0
aF0.0
aF0.0
aF385.1680666044472
aF409.61584200280123
aF603.9575692354995
aF128.62084605438628
asS'Bacteria.Firmicutes.Clostridia.Christensenellales.Christensenellaceae.uncultured.uncultured_bacterium'
p207
(lp208
F0.0
aF0.0
aF0.0
aF0.0
aF0.0
aF0.0
aF0.0
aF0.0
aF0.0
aF0.0
aF115.30099049041353
aF0.0
asS'Bacteria.Firmicutes.Clostridia.Peptostreptococcales_Tissierellales.Anaerovoracaceae'
p209
(lp210
F0.0
aF805.5421298533914
aF347.4370164481769
aF490.3741373047584
aF0.0
aF0.0
aF0.0
aF0.0
aF0.0
aF0.0
aF0.0
aF0.0
asS'Bacteria.Actinobacteriota.Actinobacteria.Streptomycetales'
p211
(lp212
F0.0
aF0.0
aF0.0
aF0.0
aF0.0
aF0.0
aF3505.0823694356827
aF0.0
aF0.0
aF0.0
aF0.0
aF0.0
asS'Bacteria.Proteobacteria.Gammaproteobacteria.Pseudomonadales.Moraxellaceae.Psychrobacter'
p213
(lp214
F82.51505899826716
aF0.0
aF0.0
aF0.0
aF0.0
aF0.0
aF0.0
aF0.0
aF0.0
aF0.0
aF0.0
aF0.0
asS'Bacteria.Firmicutes.Bacilli.RF39'
p215
(lp216
F2335.8109008740244
aF5710.398653849597
aF7008.058843966886
aF3432.6189611333093
aF13912.549687677458
aF1115.374319621665
aF0.0
aF0.0
aF0.0
aF726.7377841985184
aF0.0
aF0.0
asS'Bacteria.Bacteroidota.Bacteroidia.Bacteroidales.Rikenellaceae.Alistipes.Alistipes_finegoldii'
p217
(lp218
F768.0247799069483
aF0.0
aF0.0
aF0.0
aF0.0
aF0.0
aF0.0
aF0.0
aF2103.6102099165964
aF237.84145664678783
aF0.0
aF1428.3683430250267
asS'Bacteria.Firmicutes.Clostridia.Oscillospirales.Oscillospiraceae.uncultured.uncultured_Clostridiales'
p219
(lp220
F387.18604606879205
aF0.0
aF0.0
aF0.0
aF5053.946621237933
aF0.0
aF0.0
aF0.0
aF0.0
aF0.0
aF0.0
aF0.0
asS'Bacteria.Firmicutes.Clostridia.Lachnospirales.Lachnospiraceae.Tyzzerella'
p221
(lp222
F120.59893238208278
aF0.0
aF0.0
aF0.0
aF0.0
aF0.0
aF0.0
aF0.0
aF0.0
aF0.0
aF0.0
aF0.0
asS'Bacteria.Bacteroidota.Bacteroidia.Chitinophagales.Chitinophagaceae'
p223
(lp224
F0.0
aF0.0
aF0.0
aF0.0
aF851.7887563884158
aF0.0
aF0.0
aF0.0
aF0.0
aF0.0
aF0.0
aF0.0
asS'Bacteria.Firmicutes.Clostridia.Peptostreptococcales_Tissierellales.Peptostreptococcaceae.Romboutsia'
p225
(lp226
F9806.59739633252
aF201242.32497359617
aF235833.46750616495
aF25299.673083908467
aF7041.45371947757
aF5086.106897474792
aF5257.623554153524
aF1126.7192181172993
aF1748.0704561278758
aF3149.197064860246
aF53219.64289636086
aF4427.2649115562435
asS'Bacteria.Firmicutes.Bacilli.Lactobacillales.Aerococcaceae'
p227
(lp228
F0.0
aF0.0
aF0.0
aF272.43007628042136
aF0.0
aF0.0
aF0.0
aF250.38204847051097
aF0.0
aF83.68495696831424
aF0.0
aF148.92940069455256
asS'Bacteria.Firmicutes.Clostridia.Lachnospirales.Lachnospiraceae.Roseburia'
p229
(lp230
F17169.479583870205
aF769.740257415463
aF1593.1258315184698
aF599.3461678169269
aF0.0
aF0.0
aF0.0
aF4999.007105669857
aF0.0
aF6628.729486174365
aF1273.801418751235
aF0.0
asS'Bacteria.Firmicutes.Clostridia.Peptococcales.Peptococcaceae.Peptococcus'
p231
(lp232
F0.0
aF0.0
aF203.37776572576212
aF0.0
aF0.0
aF0.0
aF0.0
aF0.0
aF0.0
aF0.0
aF0.0
aF0.0
asS'Bacteria.Firmicutes.Clostridia.Lachnospirales.Lachnospiraceae.Roseburia.uncultured_bacterium'
p233
(lp234
F495.09035398960305
aF0.0
aF0.0
aF1434.7984017435524
aF0.0
aF356.9197822789328
aF0.0
aF0.0
aF0.0
aF0.0
aF0.0
aF0.0
asS'Bacteria.Firmicutes.Clostridia.Peptostreptococcales_Tissierellales.Anaerovoracaceae.Family_XIII_AD3011_group.uncultured_bacterium'
p235
(lp236
F0.0
aF196.91029840860682
aF0.0
aF0.0
aF0.0
aF0.0
aF0.0
aF86.33863740362447
aF0.0
aF145.34755683970369
aF0.0
aF0.0
asS'Bacteria.Proteobacteria'
p237
(lp238
F3719.5249671526585
aF12047.330075362943
aF9812.97719626802
aF12695.241554667637
aF31572.969903463945
aF29356.652092442226
aF63792.49912372943
aF14254.5090353384
aF2636.9198405996767
aF4668.739704548057
aF4200.250367865064
aF3025.974641384772
asS'Bacteria.Bacteroidota.Bacteroidia'
p239
(lp240
F256907.46253498952
aF16647.870683636756
aF12880.591829298268
aF89357.06501997822
aF507836.45655877347
aF115597.39448558935
aF87977.56747283562
aF804132.1671861373
aF790068.5895441682
aF857735.5731538659
aF599307.095952386
aF885107.736882366
asS'Bacteria.Firmicutes.Clostridia.Clostridia_vadinBB60_group.Clostridia_vadinBB60_group.Clostridia_vadinBB60_group.unidentified'
p241
(lp242
F107.90430792081091
aF340.11778816032086
aF67.79258857525403
aF308.7540864511442
aF0.0
aF0.0
aF0.0
aF0.0
aF0.0
aF0.0
aF131.7725605604726
aF162.46843712133003
asS'Bacteria.Proteobacteria.Gammaproteobacteria.Xanthomonadales.Xanthomonadaceae.Stenotrophomonas'
p243
(lp244
F0.0
aF89.50468109482128
aF0.0
aF0.0
aF0.0
aF0.0
aF0.0
aF0.0
aF0.0
aF0.0
aF0.0
aF0.0
asS'Bacteria.Proteobacteria.Gammaproteobacteria.Xanthomonadales.Xanthomonadaceae.Stenotrophomonas.Stenotrophomonas_rhizophila'
p245
(lp246
F0.0
aF89.50468109482128
aF0.0
aF0.0
aF0.0
aF0.0
aF0.0
aF0.0
aF0.0
aF0.0
aF0.0
aF0.0
asS'Bacteria.Proteobacteria.Alphaproteobacteria.Rhizobiales.Rhizobiaceae'
p247
(lp248
F0.0
aF0.0
aF135.58517715050806
aF0.0
aF0.0
aF223.07486392433302
aF0.0
aF38.852386831631016
aF0.0
aF74.87601412954432
aF0.0
aF0.0
asS'Bacteria.Proteobacteria.Alphaproteobacteria.Rhodobacterales'
p249
(lp250
F0.0
aF0.0
aF0.0
aF0.0
aF1249.2901760363432
aF0.0
aF0.0
aF0.0
aF0.0
aF0.0
aF0.0
aF0.0
asS'Bacteria.Firmicutes.Bacilli.Erysipelotrichales.Erysipelotrichaceae.Dubosiella.uncultured_bacterium'
p251
(lp252
F7591.385427840579
aF447.5234054741064
aF161.00739786622833
aF2488.194696694515
aF23906.8710959682
aF7049.165700008923
aF11566.771819137752
aF0.0
aF0.0
aF559.3678702618898
aF3409.6150045022287
aF0.0
asS'Bacteria.Firmicutes.Clostridia.Oscillospirales.Ruminococcaceae.Harryflintia.uncultured_bacterium'
p253
(lp254
F177.7247424578062
aF0.0
aF0.0
aF0.0
aF0.0
aF0.0
aF0.0
aF0.0
aF0.0
aF189.39227103355327
aF1054.180484483781
aF0.0
asS'Bacteria.Actinobacteriota.Coriobacteriia.Coriobacteriales'
p255
(lp256
F10726.95766977473
aF13425.702164223194
aF10558.695670595815
aF21830.730112604433
aF7722.884724588303
aF22530.561256357632
aF23484.051875219073
aF56.12011431235591
aF992.5484793268447
aF105.70731406523903
aF3052.7309863176156
aF1983.4688365229042
asS'Bacteria.Proteobacteria.Alphaproteobacteria.Rhizobiales.Rhizobiaceae.Allorhizobium_Neorhizobium_Pararhizobium_Rhizobium'
p257
(lp258
F0.0
aF0.0
aF135.58517715050806
aF0.0
aF0.0
aF223.07486392433302
aF0.0
aF38.852386831631016
aF0.0
aF74.87601412954432
aF0.0
aF0.0
asS'Bacteria.Bacteroidota.Bacteroidia.Bacteroidales.Bacteroidaceae.Bacteroides.Bacteroides_caecimuris'
p259
(lp260
F0.0
aF0.0
aF0.0
aF0.0
aF0.0
aF1115.374319621665
aF0.0
aF0.0
aF9747.714916374087
aF14636.058526616222
aF4650.473283113345
aF6451.35085735948
asS'Bacteria.Firmicutes.Bacilli.Acholeplasmatales.Acholeplasmataceae.Anaeroplasma.uncultured_bacterium'
p261
(lp262
F0.0
aF0.0
aF0.0
aF254.26807119505992
aF0.0
aF0.0
aF0.0
aF0.0
aF0.0
aF0.0
aF0.0
aF0.0
asS'Bacteria.Firmicutes.Bacilli.Erysipelotrichales.Erysipelotrichaceae.uncultured.uncultured_Allobaculum'
p263
(lp264
F57.12581007572342
aF805.5421298533914
aF330.4888693043634
aF0.0
aF13628.620102214652
aF0.0
aF0.0
aF0.0
aF903.6635408796647
aF110.111785484624
aF499.6376254584586
aF737.8774852593739
asS'Bacteria.Firmicutes.Clostridia.Oscillospirales.Oscillospiraceae.UCG_005.uncultured_Clostridiales'
p265
(lp266
F1104.4323281306529
aF0.0
aF0.0
aF0.0
aF0.0
aF0.0
aF0.0
aF0.0
aF0.0
aF0.0
aF0.0
aF0.0
asS'Bacteria.Firmicutes.Clostridia.Clostridia_UCG_014.Clostridia_UCG_014'
p267
(lp268
F92473.99188813496
aF221506.1847734637
aF53861.21162303933
aF336251.36215038144
aF128506.53038046566
aF97037.56580708484
aF74658.25446898003
aF0.0
aF488.8671614594908
aF0.0
aF395.31768168141775
aF1570.5282255061904
asS'Bacteria.Firmicutes.Clostridia.Lachnospirales.Lachnospiraceae.Coprococcus'
p269
(lp270
F0.0
aF0.0
aF0.0
aF0.0
aF0.0
aF4238.4224145623275
aF4907.115317209956
aF0.0
aF0.0
aF0.0
aF0.0
aF0.0
asS'Bacteria.Deferribacterota.Deferribacteres.Deferribacterales.Deferribacteraceae.Mucispirillum'
p271
(lp272
F0.0
aF411.7215330361779
aF0.0
aF0.0
aF0.0
aF0.0
aF0.0
aF0.0
aF0.0
aF0.0
aF87.84837370698172
aF0.0
asS'Bacteria.Firmicutes.Bacilli.RF39.RF39'
p273
(lp274
F2335.8109008740244
aF5710.398653849597
aF7008.058843966886
aF3432.6189611333093
aF13912.549687677458
aF1115.374319621665
aF0.0
aF0.0
aF0.0
aF726.7377841985184
aF0.0
aF0.0
asS'Bacteria.Proteobacteria.Gammaproteobacteria.Burkholderiales.Alcaligenaceae.Achromobacter'
p275
(lp276
F158.6828057658984
aF0.0
aF177.95554501004185
aF0.0
aF0.0
aF892.2994556973321
aF0.0
aF0.0
aF0.0
aF79.28048554892926
aF0.0
aF0.0
asS'Bacteria.Actinobacteriota.Actinobacteria.Pseudonocardiales.Pseudonocardiaceae.Prauserella'
p277
(lp278
F0.0
aF0.0
aF101.68888286288106
aF0.0
aF0.0
aF0.0
aF0.0
aF0.0
aF0.0
aF0.0
aF0.0
aF0.0
asS'Bacteria.Proteobacteria.Gammaproteobacteria.Xanthomonadales.Xanthomonadaceae'
p279
(lp280
F0.0
aF89.50468109482128
aF0.0
aF0.0
aF0.0
aF0.0
aF0.0
aF0.0
aF0.0
aF0.0
aF0.0
aF0.0
asS'Bacteria.Firmicutes.Bacilli.Erysipelotrichales.Erysipelotrichaceae.Turicibacter.uncultured_bacterium'
p281
(lp282
F4500.244371520878
aF88591.7333476541
aF107247.87512605188
aF4068.2891391209587
aF9596.819988642817
aF1070.7593468367984
aF3855.590606379251
aF0.0
aF0.0
aF0.0
aF208.6398875540816
aF0.0
asS'Bacteria.Firmicutes.Clostridia.Peptostreptococcales_Tissierellales.Anaerovoracaceae.Family_XIII_UCG_001'
p283
(lp284
F0.0
aF0.0
aF0.0
aF0.0
aF0.0
aF0.0
aF0.0
aF0.0
aF0.0
aF0.0
aF148.24413063053169
aF0.0
asS'Bacteria.Firmicutes.Clostridia.Oscillospirales.Butyricicoccaceae'
p285
(lp286
F406.2279827606999
aF1109.858045575784
aF262.69628072910933
aF9607.700690156193
aF511.0732538330495
aF7183.010618363523
aF3505.0823694356827
aF0.0
aF0.0
aF532.94104174558
aF543.5618123119494
aF324.93687424266005
asS'Bacteria.Firmicutes.Clostridia.Oscillospirales._Eubacterium__coprostanoligenes_group._Eubacterium__coprostanoligenes_group.uncultured_Clostridium'
p287
(lp288
F0.0
aF0.0
aF0.0
aF0.0
aF0.0
aF0.0
aF0.0
aF0.0
aF0.0
aF0.0
aF0.0
aF304.6283196024938
asS'Bacteria.Firmicutes.Clostridia.Oscillospirales.Butyricicoccaceae.Butyricicoccus.uncultured_bacterium'
p289
(lp290
F406.2279827606999
aF0.0
aF0.0
aF0.0
aF511.0732538330495
aF0.0
aF0.0
aF0.0
aF0.0
aF295.09958509879226
aF384.3366349680451
aF236.9331374686063
asS'Bacteria.Firmicutes.Clostridia.Lachnospirales.Lachnospiraceae.Lachnospiraceae_NK4A136_group.Trichinella_pseudospiralis'
p291
(lp292
F2557.966828946282
aF3096.8619658808166
aF508.44441431440526
aF0.0
aF2101.078932424759
aF0.0
aF0.0
aF0.0
aF0.0
aF0.0
aF71.37680363692266
aF0.0
asS'Bacteria.Firmicutes.Clostridia.Oscillospirales.Oscillospiraceae.uncultured'
p293
(lp294
F6886.83377023999
aF483.3252779120349
aF296.5925750167364
aF2633.4907373774067
aF3577.5127768313464
aF0.0
aF0.0
aF2426.1157110418476
aF2607.2915277839506
aF1193.611754653324
aF31235.58737618869
aF0.0
asS'Bacteria.Firmicutes.Clostridia.Oscillospirales.Ruminococcaceae.Paludicola'
p295
(lp296
F0.0
aF0.0
aF0.0
aF0.0
aF0.0
aF0.0
aF0.0
aF0.0
aF0.0
aF0.0
aF280.01669119100427
aF0.0
asS'Bacteria.Proteobacteria.Gammaproteobacteria.Xanthomonadales'
p297
(lp298
F0.0
aF89.50468109482128
aF0.0
aF0.0
aF0.0
aF0.0
aF0.0
aF0.0
aF0.0
aF0.0
aF0.0
aF0.0
asS'Bacteria.Firmicutes.Clostridia.Clostridia_vadinBB60_group.Clostridia_vadinBB60_group.Clostridia_vadinBB60_group.uncultured_bacterium'
p299
(lp300
F279.2817381479812
aF0.0
aF0.0
aF254.26807119505992
aF0.0
aF0.0
aF0.0
aF0.0
aF237.02650252581367
aF0.0
aF82.35785035029537
aF101.54277320083128
asS'Bacteria.Proteobacteria.Alphaproteobacteria.Rhodobacterales.Rhodobacteraceae'
p301
(lp302
F0.0
aF0.0
aF0.0
aF0.0
aF1249.2901760363432
aF0.0
aF0.0
aF0.0
aF0.0
aF0.0
aF0.0
aF0.0
asS'Bacteria.Patescibacteria'
p303
(lp304
F2805.5120059410838
aF1181.4617904516408
aF3830.281254501853
aF2415.5466763530694
aF28279.386712095402
aF847.6844829124655
aF0.0
aF0.0
aF0.0
aF0.0
aF949.8605407067399
aF0.0
asS'Bacteria.Firmicutes.Clostridia.Oscillospirales.Oscillospiraceae.Papillibacter.uncultured_bacterium'
p305
(lp306
F3840.1238995347408
aF1378.3720888602477
aF389.80738430771066
aF0.0
aF0.0
aF0.0
aF0.0
aF0.0
aF1022.1767921425715
aF0.0
aF0.0
aF907.1154405940927
asS'Bacteria.Firmicutes.Clostridia.Oscillospirales.UCG_010.UCG_010'
p307
(lp308
F234.85055253352962
aF0.0
aF0.0
aF326.91609153650563
aF0.0
aF0.0
aF0.0
aF0.0
aF0.0
aF0.0
aF87.84837370698172
aF0.0
asS'Bacteria.Bacteroidota.Bacteroidia.Bacteroidales.Bacteroidaceae'
p309
(lp310
F3294.2550477000505
aF250.6131070654996
aF720.2962536120741
aF2088.630584816564
aF31289.04031800114
aF4149.1924689925945
aF2804.0658955485465
aF71350.24995035527
aF239841.19224330768
aF340461.236247038
aF37577.14185316144
aF290100.9335165616
asS'Bacteria.Bacteroidota.Bacteroidia.Bacteroidales.Bacteroidaceae.Bacteroides.Bacteroides_fragilis'
p311
(lp312
F2634.1345757139134
aF0.0
aF0.0
aF1289.502361060661
aF0.0
aF0.0
aF0.0
aF5098.296538684025
aF229471.28275780333
aF306128.3815329323
aF30774.383414227035
aF281611.95767697203
asS'Bacteria.Firmicutes.Clostridia.Oscillospirales.Ruminococcaceae.Incertae_Sedis.uncultured_Clostridiales'
p313
(lp314
F0.0
aF161.10842597067833
aF0.0
aF0.0
aF0.0
aF892.2994556973321
aF0.0
aF0.0
aF370.35391019658385
aF0.0
aF329.43140140118146
aF0.0
asS'Bacteria.Proteobacteria.Alphaproteobacteria'
p315
(lp316
F0.0
aF0.0
aF135.58517715050806
aF0.0
aF1249.2901760363432
aF223.07486392433302
aF0.0
aF38.852386831631016
aF0.0
aF74.87601412954432
aF126.28203720378625
aF0.0
asS'Bacteria.Actinobacteriota.Coriobacteriia.Coriobacteriales.Eggerthellaceae.Enterorhabdus.mouse_gut'
p317
(lp318
F0.0
aF554.929022787892
aF0.0
aF0.0
aF0.0
aF0.0
aF0.0
aF0.0
aF0.0
aF0.0
aF0.0
aF0.0
asS'Bacteria.Firmicutes.Clostridia.Oscillospirales.Ruminococcaceae.Ruminococcus.uncultured_Ruminococcus'
p319
(lp320
F0.0
aF179.00936218964256
aF271.1703543010161
aF0.0
aF5394.6621237932995
aF0.0
aF0.0
aF1182.8393324296553
aF1614.7430484571055
aF158.56097109785853
aF2009.531548547207
aF568.6395299246551
asS'Bacteria.Firmicutes.Clostridia.uncultured'
p321
(lp322
F0.0
aF0.0
aF186.42961858194857
aF599.3461678169269
aF0.0
aF713.8395645578656
aF0.0
aF0.0
aF0.0
aF0.0
aF1295.7635121779804
aF0.0
asS'Bacteria.Proteobacteria.Gammaproteobacteria.Pasteurellales.Pasteurellaceae.Rodentibacter'
p323
(lp324
F0.0
aF0.0
aF0.0
aF0.0
aF0.0
aF669.224591772999
aF0.0
aF0.0
aF0.0
aF0.0
aF0.0
aF0.0
asS'Bacteria.Proteobacteria.Alphaproteobacteria.Caulobacterales.Caulobacteraceae'
p325
(lp326
F0.0
aF0.0
aF0.0
aF0.0
aF0.0
aF0.0
aF0.0
aF0.0
aF0.0
aF0.0
aF49.41471021017722
aF0.0
asS'Bacteria.Proteobacteria.Gammaproteobacteria.Pseudomonadales.Moraxellaceae.Acinetobacter.Acinetobacter_ursingii'
p327
(lp328
F0.0
aF0.0
aF0.0
aF0.0
aF0.0
aF0.0
aF0.0
aF0.0
aF0.0
aF0.0
aF82.35785035029537
aF0.0
asS'Bacteria.Firmicutes.Clostridia.Lachnospirales.Lachnospiraceae.Marvinbryantia'
p329
(lp330
F0.0
aF0.0
aF0.0
aF0.0
aF0.0
aF1204.6042651913983
aF0.0
aF2555.623667147285
aF162.95572048649692
aF0.0
aF0.0
aF0.0
asS'Bacteria.Campilobacterota.Campylobacteria'
p331
(lp332
F0.0
aF0.0
aF0.0
aF2306.5746458409008
aF0.0
aF0.0
aF0.0
aF0.0
aF0.0
aF0.0
aF38.433663496804506
aF0.0
asS'Bacteria.Patescibacteria.Saccharimonadia.Saccharimonadales.Saccharimonadaceae'
p333
(lp334
F2805.5120059410838
aF1181.4617904516408
aF3830.281254501853
aF2306.5746458409008
aF28279.386712095402
aF847.6844829124655
aF0.0
aF0.0
aF0.0
aF0.0
aF949.8605407067399
aF0.0
asS'Bacteria.Firmicutes.Clostridia.Oscillospirales.UCG_010.UCG_010.uncultured_bacterium'
p335
(lp336
F0.0
aF0.0
aF110.1629564347878
aF326.91609153650563
aF0.0
aF0.0
aF0.0
aF0.0
aF0.0
aF0.0
aF203.14936419739524
aF115.08180962760878
asS'Bacteria.Firmicutes'
p337
(lp338
F637130.5070867739
aF944990.422999123
aF949901.2770428875
aF856320.3777697058
aF393923.906871096
aF695458.1957705006
aF667718.1913774976
aF43812.54155046923
aF205487.1635334726
aF137489.97982752093
aF385791.6236575668
aF109029.86034483921
asS'Bacteria.Proteobacteria.Gammaproteobacteria.Burkholderiales.Alcaligenaceae.Alcaligenes'
p339
(lp340
F0.0
aF250.6131070654996
aF0.0
aF0.0
aF0.0
aF0.0
aF0.0
aF34.535454961449794
aF0.0
aF0.0
aF0.0
aF0.0
asS'Bacteria.Firmicutes.Clostridia.Oscillospirales'
p341
(lp342
F0.0
aF0.0
aF0.0
aF326.91609153650563
aF0.0
aF0.0
aF0.0
aF0.0
aF0.0
aF0.0
aF0.0
aF0.0
asS'Bacteria.Actinobacteriota.Coriobacteriia.Coriobacteriales.Atopobiaceae'
p343
(lp344
F8308.631709902438
aF3723.3947335445655
aF3847.2294016456667
aF3577.9150018162004
aF681.4310051107326
aF12982.957080396181
aF5608.131791097093
aF0.0
aF429.6105358280373
aF0.0
aF1597.7422967957302
aF1732.9966626275204
asS'Bacteria.Firmicutes.Clostridia.Oscillospirales.Oscillospiraceae.Intestinimonas.uncultured_bacterium'
p345
(lp346
F0.0
aF0.0
aF0.0
aF0.0
aF0.0
aF0.0
aF0.0
aF90.65556927380571
aF0.0
aF0.0
aF0.0
aF0.0
asS'Bacteria.Firmicutes.Bacilli.Erysipelotrichales.Erysipelatoclostridiaceae'
p347
(lp348
F0.0
aF0.0
aF0.0
aF6919.723937522703
aF0.0
aF0.0
aF0.0
aF142.45875171598038
aF0.0
aF347.9532421314118
aF137.26308391715895
aF291.08928317571633
asS'Bacteria.Firmicutes.Bacilli.Acholeplasmatales.Acholeplasmataceae.Anaeroplasma'
p349
(lp350
F0.0
aF0.0
aF0.0
aF254.26807119505992
aF0.0
aF0.0
aF0.0
aF0.0
aF0.0
aF0.0
aF0.0
aF0.0
asS'Bacteria.Firmicutes.Clostridia.Lachnospirales.Lachnospiraceae.Lachnospiraceae_UCG_010.uncultured_bacterium'
p351
(lp352
F0.0
aF0.0
aF0.0
aF0.0
aF0.0
aF0.0
aF0.0
aF0.0
aF0.0
aF118.92072832339392
aF0.0
aF0.0
asS'Bacteria.Firmicutes.Clostridia.Lachnospirales.Lachnospiraceae.uncultured'
p353
(lp354
F139.6408690739906
aF0.0
aF347.4370164481769
aF0.0
aF0.0
aF0.0
aF0.0
aF0.0
aF0.0
aF0.0
aF0.0
aF0.0
asS'Bacteria.Proteobacteria.Gammaproteobacteria.Burkholderiales.Sutterellaceae.Parasutterella'
p355
(lp356
F107.90430792081091
aF0.0
aF0.0
aF472.212132219397
aF0.0
aF7986.080128491122
aF0.0
aF5776.0548423024775
aF903.6635408796647
aF3483.936892733503
aF258.05459776425886
aF1299.7474969706402
asS'Bacteria.Firmicutes.Bacilli.Erysipelotrichales.Erysipelotrichaceae.Dubosiella'
p357
(lp358
F7591.385427840579
aF447.5234054741064
aF161.00739786622833
aF2488.194696694515
aF23906.8710959682
aF7049.165700008923
aF11566.771819137752
aF0.0
aF0.0
aF559.3678702618898
aF3409.6150045022287
aF0.0
asS'Bacteria.Proteobacteria.Alphaproteobacteria.Caulobacterales'
p359
(lp360
F0.0
aF0.0
aF0.0
aF0.0
aF0.0
aF0.0
aF0.0
aF0.0
aF0.0
aF0.0
aF49.41471021017722
aF0.0
asS'Bacteria.Firmicutes.Bacilli.Exiguobacterales.Exiguobacteraceae'
p361
(lp362
F0.0
aF0.0
aF0.0
aF0.0
aF0.0
aF713.8395645578656
aF0.0
aF0.0
aF0.0
aF0.0
aF0.0
aF0.0
asS'Bacteria.Firmicutes.Clostridia.Clostridia'
p363
(lp364
F57.12581007572342
aF0.0
aF0.0
aF0.0
aF0.0
aF0.0
aF0.0
aF0.0
aF0.0
aF0.0
aF0.0
aF0.0
asS'Bacteria.Firmicutes.Clostridia.Lachnospirales.Lachnospiraceae.A2'
p365
(lp366
F7191.504757310515
aF3150.564774537709
aF1025.3629022007171
aF0.0
aF0.0
aF0.0
aF0.0
aF0.0
aF0.0
aF0.0
aF0.0
aF0.0
asS'Bacteria.Firmicutes.Clostridia.Lachnospirales.Lachnospiraceae._Eubacterium__hallii_group'
p367
(lp368
F0.0
aF0.0
aF0.0
aF0.0
aF0.0
aF0.0
aF0.0
aF781.3646685028016
aF0.0
aF167.36991393662848
aF0.0
aF352.01494709621505
asS'Bacteria.Firmicutes.Bacilli.Exiguobacterales'
p369
(lp370
F0.0
aF0.0
aF0.0
aF0.0
aF0.0
aF713.8395645578656
aF0.0
aF0.0
aF0.0
aF0.0
aF0.0
aF0.0
asS'Bacteria.Firmicutes.Clostridia.Lachnospirales.Lachnospiraceae.uncultured.uncultured_bacterium'
p371
(lp372
F0.0
aF250.6131070654996
aF0.0
aF0.0
aF0.0
aF0.0
aF0.0
aF0.0
aF0.0
aF0.0
aF0.0
aF0.0
asS'Bacteria.Firmicutes.Clostridia.Oscillospirales.Ruminococcaceae.Negativibacillus'
p373
(lp374
F0.0
aF0.0
aF0.0
aF671.9941881583726
aF0.0
aF0.0
aF0.0
aF0.0
aF0.0
aF0.0
aF0.0
aF0.0
asS'Bacteria.Verrucomicrobiota.Verrucomicrobiae'
p375
(lp376
F87161.29155109267
aF5352.379929470313
aF6152.177413204304
aF1071.558300036324
aF908.5746734809768
aF55277.95128044972
aF142656.85243603226
aF137744.6621137425
aF0.0
aF0.0
aF269.03564447763154
aF40.61710928033251
asS'Bacteria.Cyanobacteria.Cyanobacteriia.Chloroplast'
p377
(lp378
F0.0
aF0.0
aF0.0
aF0.0
aF454.2873367404884
aF0.0
aF0.0
aF0.0
aF0.0
aF0.0
aF0.0
aF0.0
asS'Bacteria.Actinobacteriota.Actinobacteria.Bifidobacteriales.Bifidobacteriaceae'
p379
(lp380
F1497.9656864300807
aF5943.110824696133
aF6762.31071038159
aF0.0
aF13798.977853492335
aF48942.62514499866
aF5608.131791097093
aF0.0
aF0.0
aF0.0
aF6138.405112775348
aF0.0
asS'Bacteria.Firmicutes.Bacilli.Erysipelotrichales.Erysipelotrichaceae.Faecalitalea'
p381
(lp382
F0.0
aF0.0
aF0.0
aF0.0
aF0.0
aF0.0
aF0.0
aF69.07090992289959
aF0.0
aF0.0
aF0.0
aF0.0
asS'Bacteria.Campilobacterota.Campylobacteria.Campylobacterales.Helicobacteraceae'
p383
(lp384
F0.0
aF0.0
aF0.0
aF2306.5746458409008
aF0.0
aF0.0
aF0.0
aF0.0
aF0.0
aF0.0
aF38.433663496804506
aF0.0
asS'Bacteria.Firmicutes.Clostridia.Oscillospirales._Eubacterium__coprostanoligenes_group._Eubacterium__coprostanoligenes_group'
p385
(lp386
F26271.525322602138
aF48815.85306911553
aF37023.22743566061
aF24863.78496185979
aF1817.1493469619536
aF535.3796734183992
aF0.0
aF0.0
aF19643.571396826806
aF0.0
aF16317.835416071857
aF182.77699176149628
asS'Bacteria.Bacteroidota.Bacteroidia.Bacteroidales.Prevotellaceae.Prevotellaceae_UCG_001.uncultured_bacterium'
p387
(lp388
F5027.071286663661
aF304.31591572239233
aF0.0
aF2560.842717035961
aF5053.946621237933
aF758.4545373427322
aF0.0
aF86299.78501679284
aF62486.11172836763
aF71916.20933571762
aF25031.295983133106
aF65454.47160525584
asS'Bacteria.Firmicutes.Clostridia.Oscillospirales.Ruminococcaceae.Subdoligranulum'
p389
(lp390
F0.0
aF0.0
aF0.0
aF417.72611696331273
aF454.2873367404884
aF172972.24948692782
aF239747.6340694007
aF0.0
aF0.0
aF0.0
aF0.0
aF0.0
asS'Bacteria.Proteobacteria.Gammaproteobacteria.Enterobacterales.Enterobacteriaceae.Escherichia_Shigella'
p391
(lp392
F2018.4452893422274
aF7661.600701716701
aF7008.058843966886
aF5775.517617144933
aF21408.290743895515
aF12269.117515838316
aF30143.70837714687
aF8284.192258877769
aF1733.2562997200123
aF629.8394129720492
aF3113.126743241165
aF1441.9073794518042
asS'Bacteria.Bacteroidota.Bacteroidia.Bacteroidales.Bacteroidaceae.Bacteroides'
p393
(lp394
F660.1204719861373
aF250.6131070654996
aF720.2962536120741
aF472.212132219397
aF31289.04031800114
aF3033.818149370929
aF2804.0658955485465
aF66251.95341167125
aF622.1945691302609
aF19696.79618748954
aF2152.2851558210523
aF2037.6249822300144
asS'Bacteria.Firmicutes.Clostridia.Lachnospirales.Lachnospiraceae.Lachnospiraceae_UCG_006.uncultured_bacterium'
p395
(lp396
F1148.8635137451042
aF4546.837799616921
aF3398.1035023346085
aF4431.5292408281875
aF0.0
aF0.0
aF0.0
aF0.0
aF0.0
aF0.0
aF911.4268772099355
aF419.7101292301026
asS'Bacteria.Actinobacteriota.Actinobacteria'
p397
(lp398
F1497.9656864300807
aF5943.110824696133
aF6863.999593244471
aF635.6701779876498
aF13798.977853492335
aF80931.56063174801
aF14370.837714686299
aF0.0
aF0.0
aF0.0
aF6138.405112775348
aF372.32350173638133
asS'Bacteria.Actinobacteriota.Actinobacteria.Pseudonocardiales.Pseudonocardiaceae.Pseudonocardia.Pseudonocardia_spinosispora'
p399
(lp400
F0.0
aF0.0
aF0.0
aF0.0
aF0.0
aF0.0
aF5257.623554153524
aF0.0
aF0.0
aF0.0
aF0.0
aF0.0
asS'Bacteria.Proteobacteria.Gammaproteobacteria.Enterobacterales.Morganellaceae'
p401
(lp402
F0.0
aF0.0
aF0.0
aF0.0
aF0.0
aF0.0
aF0.0
aF120.87409236507428
aF0.0
aF0.0
aF0.0
aF0.0
asS'Bacteria.Firmicutes.Clostridia.uncultured.uncultured'
p403
(lp404
F0.0
aF0.0
aF186.42961858194857
aF599.3461678169269
aF0.0
aF713.8395645578656
aF0.0
aF0.0
aF0.0
aF0.0
aF1295.7635121779804
aF0.0
asS'Bacteria.Bacteroidota.Bacteroidia.Bacteroidales.Muribaculaceae.Muribaculaceae.uncultured_bacterium'
p405
(lp406
F205100.700108539
aF14446.055528704155
aF11312.888218495518
aF63821.28586996004
aF432765.4741624078
aF80351.56598554474
aF67998.59796705224
aF367543.5794272294
aF253440.58782572625
aF338902.0533645757
aF471059.4513869061
aF397553.4961176812
asS'Bacteria.Firmicutes.Clostridia.Clostridia.Hungateiclostridiaceae.Ruminiclostridium.uncultured_organism'
p407
(lp408
F57.12581007572342
aF0.0
aF0.0
aF0.0
aF0.0
aF0.0
aF0.0
aF0.0
aF0.0
aF0.0
aF0.0
aF0.0
asS'Bacteria.Bacteroidota.Bacteroidia.Flavobacteriales.Weeksellaceae'
p409
(lp410
F0.0
aF0.0
aF0.0
aF254.26807119505992
aF0.0
aF0.0
aF0.0
aF0.0
aF0.0
aF0.0
aF0.0
aF0.0
asS'Bacteria.Firmicutes.Clostridia.Oscillospirales.Ruminococcaceae.DTU089'
p411
(lp412
F0.0
aF0.0
aF0.0
aF0.0
aF0.0
aF0.0
aF0.0
aF0.0
aF0.0
aF70.47154271015934
aF0.0
aF0.0
asS'Bacteria.Acidobacteriota.Acidobacteriae.Bryobacterales.Bryobacteraceae.Bryobacter'
p413
(lp414
F0.0
aF0.0
aF0.0
aF0.0
aF681.4310051107326
aF0.0
aF0.0
aF0.0
aF0.0
aF0.0
aF0.0
aF0.0
asS'Bacteria.Firmicutes.Clostridia.Oscillospirales.Oscillospiraceae.Oscillibacter'
p415
(lp416
F1745.5108634248825
aF286.4149795034281
aF127.11110357860132
aF835.4522339266255
aF567.8591709256106
aF490.76470063353264
aF0.0
aF185.6280704177926
aF0.0
aF2065.6970956915457
aF0.0
aF0.0
asS'Bacteria.Actinobacteriota.Coriobacteriia.Coriobacteriales.Coriobacteriales_Incertae_Sedis.uncultured'
p417
(lp418
F0.0
aF0.0
aF0.0
aF508.53614239011983
aF0.0
aF0.0
aF1752.5411847178414
aF0.0
aF0.0
aF0.0
aF0.0
aF0.0
asS'Bacteria.Firmicutes.Clostridia.Clostridia_UCG_014.Clostridia_UCG_014.Clostridia_UCG_014.unidentified_rumen'
p419
(lp420
F0.0
aF0.0
aF0.0
aF1525.6084271703596
aF4486.087450312323
aF22619.791201927368
aF0.0
aF0.0
aF0.0
aF0.0
aF0.0
aF0.0
asS'Bacteria.Firmicutes.Clostridia.Lachnospirales.Lachnospiraceae.Lachnospiraceae_FCS020_group'
p421
(lp422
F0.0
aF0.0
aF0.0
aF0.0
aF0.0
aF0.0
aF0.0
aF0.0
aF0.0
aF0.0
aF0.0
aF169.2379553347188
asS'Bacteria.Firmicutes.Clostridia.Lachnospirales.Lachnospiraceae'
p423
(lp424
F120224.44096047526
aF21892.844995793283
aF26057.776233613273
aF36796.222302942246
aF26859.738784781377
aF16016.775229767109
aF24185.06834910621
aF2715.3501463439898
aF2459.1499637053166
aF37596.56803587001
aF42370.36874354863
aF1827.7699176149629
asS'Bacteria.Firmicutes.Clostridia.Peptostreptococcales_Tissierellales.Peptostreptococcaceae'
p425
(lp426
F9806.59739633252
aF201242.32497359617
aF235833.46750616495
aF25299.673083908467
aF7041.45371947757
aF5086.106897474792
aF5257.623554153524
aF1126.7192181172993
aF1748.0704561278758
aF3149.197064860246
aF53219.64289636086
aF4427.2649115562435
asS'Bacteria.Firmicutes.Bacilli.Erysipelotrichales.Erysipelotrichaceae.Holdemania'
p427
(lp428
F0.0
aF0.0
aF0.0
aF0.0
aF0.0
aF1249.2192379762648
aF0.0
aF479.1794375901158
aF0.0
aF0.0
aF0.0
aF0.0
asS'Bacteria.Actinobacteriota.Coriobacteriia.Coriobacteriales.Eggerthellaceae.uncultured'
p429
(lp430
F260.2398014560734
aF0.0
aF0.0
aF0.0
aF0.0
aF0.0
aF0.0
aF0.0
aF0.0
aF0.0
aF0.0
aF0.0
asS'Bacteria.Firmicutes.Clostridia.Clostridiales.Clostridiaceae'
p431
(lp432
F25611.404850616003
aF190841.88103037793
aF293846.97517943865
aF10352.342898656012
aF14991.482112436119
aF1606.1390202551977
aF0.0
aF0.0
aF0.0
aF0.0
aF290.997737904377
aF0.0
asS'Bacteria.Firmicutes.Clostridia.Oscillospirales.Oscillospiraceae.Oscillibacter.uncultured_bacterium'
p433
(lp434
F1745.5108634248825
aF286.4149795034281
aF127.11110357860132
aF835.4522339266255
aF567.8591709256106
aF490.76470063353264
aF0.0
aF185.6280704177926
aF0.0
aF2065.6970956915457
aF0.0
aF0.0
asS'Bacteria.Firmicutes.Bacilli.Erysipelotrichales.Erysipelotrichaceae.Allobaculum.uncultured_bacterium'
p435
(lp436
F1345.6301928948183
aF0.0
aF0.0
aF0.0
aF0.0
aF0.0
aF0.0
aF0.0
aF0.0
aF0.0
aF395.31768168141775
aF291.08928317571633
asS'Bacteria.Firmicutes.Clostridia.Eubacteriales.Anaerofustaceae.Anaerofustis'
p437
(lp438
F0.0
aF358.0187243792851
aF0.0
aF0.0
aF0.0
aF1695.368965824931
aF0.0
aF0.0
aF0.0
aF0.0
aF0.0
aF0.0
asS'Bacteria.Firmicutes.Bacilli.RF39.RF39.RF39.uncultured_bacterium'
p439
(lp440
F787.066716598856
aF3007.357284785995
aF3567.584973772744
aF563.0221576462042
aF0.0
aF0.0
aF0.0
aF0.0
aF0.0
aF0.0
aF0.0
aF0.0
asS'Bacteria.Firmicutes.Clostridia.Clostridia_UCG_014.Clostridia_UCG_014.Clostridia_UCG_014.uncultured_Clostridiales'
p441
(lp442
F1542.3968720445323
aF0.0
aF0.0
aF1616.4184525971666
aF0.0
aF0.0
aF0.0
aF0.0
aF162.95572048649692
aF0.0
aF0.0
aF0.0
asS'Bacteria.Firmicutes.Clostridia.Oscillospirales.Oscillospiraceae.UCG_005.uncultured_bacterium'
p443
(lp444
F0.0
aF13389.900291785263
aF2008.3554365419009
aF0.0
aF0.0
aF3390.737931649862
aF0.0
aF0.0
aF0.0
aF0.0
aF0.0
aF0.0
asS'Bacteria.Firmicutes.Clostridia.Oscillospirales.Oscillospiraceae'
p445
(lp446
F13557.858924638358
aF8699.855002416629
aF3584.533120916557
aF50944.42426443879
aF18625.780806360024
aF2810.7432854465956
aF0.0
aF2529.7220759261972
aF4251.662889056783
aF22026.761568344184
aF8027.145147475455
aF3357.681033840821
asS'Bacteria.Firmicutes.Clostridia.Christensenellales.Christensenellaceae.uncultured'
p447
(lp448
F0.0
aF0.0
aF0.0
aF0.0
aF0.0
aF0.0
aF0.0
aF0.0
aF0.0
aF0.0
aF115.30099049041353
aF0.0
asS'Bacteria.Actinobacteriota.Actinobacteria.Streptomycetales.Streptomycetaceae'
p449
(lp450
F0.0
aF0.0
aF0.0
aF0.0
aF0.0
aF0.0
aF3505.0823694356827
aF0.0
aF0.0
aF0.0
aF0.0
aF0.0
asS'Bacteria.Campilobacterota.Campylobacteria.Campylobacterales.Helicobacteraceae.Helicobacter'
p451
(lp452
F0.0
aF0.0
aF0.0
aF2306.5746458409008
aF0.0
aF0.0
aF0.0
aF0.0
aF0.0
aF0.0
aF38.433663496804506
aF0.0
asS'Bacteria.Bacteroidota.Bacteroidia.Bacteroidales.Rikenellaceae.Alistipes.uncultured_bacterium'
p453
(lp454
F3154.61417862606
aF608.6318314447847
aF322.01479573245666
aF1144.2063203777698
aF0.0
aF713.8395645578656
aF0.0
aF0.0
aF0.0
aF10403.361492587275
aF148.24413063053169
aF0.0
asS'Bacteria.Desulfobacterota.Desulfovibrionia.Desulfovibrionales.Desulfovibrionaceae.Desulfovibrio'
p455
(lp456
F0.0
aF0.0
aF0.0
aF12041.409371594624
aF14366.837024417946
aF0.0
aF0.0
aF0.0
aF0.0
aF0.0
aF0.0
aF0.0
asS'Bacteria.Cyanobacteria.Vampirivibrionia.Gastranaerophilales.Gastranaerophilales.Gastranaerophilales.uncultured_bacterium'
p457
(lp458
F50.778497845087486
aF0.0
aF0.0
aF1325.826371231384
aF0.0
aF0.0
aF0.0
aF0.0
aF814.7786024324845
aF0.0
aF164.71570070059073
aF440.01868387026883
asS'Bacteria.Bacteroidota.Bacteroidia.Bacteroidales.Rikenellaceae.Alistipes.Alistipes_timonensis'
p459
(lp460
F0.0
aF0.0
aF0.0
aF0.0
aF0.0
aF0.0
aF0.0
aF0.0
aF414.79637942017393
aF761.973555553598
aF296.48826126106337
aF0.0
asS'Bacteria.Firmicutes.Clostridia.Oscillospirales.Oscillospiraceae.Intestinimonas'
p461
(lp462
F0.0
aF0.0
aF0.0
aF0.0
aF0.0
aF0.0
aF0.0
aF90.65556927380571
aF0.0
aF0.0
aF0.0
aF0.0
asS'Bacteria.Bacteroidota.Bacteroidia.Bacteroidales.Prevotellaceae.Prevotellaceae_UCG_003'
p463
(lp464
F0.0
aF0.0
aF0.0
aF0.0
aF0.0
aF0.0
aF3154.574132492114
aF0.0
aF0.0
aF0.0
aF0.0
aF0.0
asS'Bacteria.Bacteroidota.Bacteroidia.Bacteroidales.Prevotellaceae.Prevotellaceae_UCG_001'
p465
(lp466
F5027.071286663661
aF304.31591572239233
aF0.0
aF2560.842717035961
aF5053.946621237933
aF758.4545373427322
aF0.0
aF86299.78501679284
aF62486.11172836763
aF71916.20933571762
aF25031.295983133106
aF65454.47160525584
asS'Bacteria.Proteobacteria.Gammaproteobacteria'
p467
(lp468
F3719.5249671526585
aF12047.330075362943
aF9677.392019117515
aF12695.241554667637
aF30323.6797274276
aF29133.57722851789
aF63792.49912372943
aF14215.656648506769
aF2636.9198405996767
aF4593.863690418512
aF4073.968330661278
aF3025.974641384772
asS'Bacteria.Bacteroidota'
p469
(lp470
F256907.46253498952
aF16647.870683636756
aF12880.591829298268
aF89357.06501997822
aF507836.45655877347
aF115597.39448558935
aF87977.56747283562
aF804132.1671861373
aF790068.5895441682
aF857735.5731538659
aF599307.095952386
aF885107.736882366
asS'Bacteria.Bacteroidota.Bacteroidia.Bacteroidales.Rikenellaceae'
p471
(lp472
F3922.638958533008
aF608.6318314447847
aF322.01479573245666
aF1144.2063203777698
aF0.0
aF4283.0373873471935
aF0.0
aF0.0
aF2918.388812349081
aF11751.129746919072
aF444.732391891595
aF1428.3683430250267
asS'Bacteria.Acidobacteriota'
p473
(lp474
F0.0
aF0.0
aF0.0
aF0.0
aF681.4310051107326
aF0.0
aF0.0
aF0.0
aF0.0
aF0.0
aF0.0
aF0.0
asS'Bacteria.Actinobacteriota.Actinobacteria.Pseudonocardiales.Pseudonocardiaceae'
p475
(lp476
F0.0
aF0.0
aF101.68888286288106
aF0.0
aF0.0
aF31988.935486749353
aF5257.623554153524
aF0.0
aF0.0
aF0.0
aF0.0
aF0.0
asS'Bacteria.Firmicutes.Clostridia.Oscillospirales.Butyricicoccaceae.UCG_009.uncultured_bacterium'
p477
(lp478
F0.0
aF1109.858045575784
aF262.69628072910933
aF1107.8823102070469
aF0.0
aF0.0
aF0.0
aF0.0
aF0.0
aF237.84145664678783
aF159.22517734390436
aF88.00373677405376
asS'Bacteria.Firmicutes.Clostridia.Clostridia_vadinBB60_group.Clostridia_vadinBB60_group.Clostridia_vadinBB60_group'
p479
(lp480
F387.1860460687921
aF340.11778816032086
aF67.79258857525403
aF563.022157646204
aF0.0
aF0.0
aF0.0
aF0.0
aF474.05300505162734
aF114.51625690400894
aF351.3934948279269
aF264.0112103221613
asS'Bacteria.Bacteroidota.Bacteroidia.Bacteroidales.Rikenellaceae.Alistipes'
p481
(lp482
F0.0
aF0.0
aF0.0
aF0.0
aF0.0
aF3569.1978227893283
aF0.0
aF0.0
aF399.98222301231056
aF347.9532421314118
aF0.0
aF0.0
asS'Bacteria.Firmicutes.Clostridia.Lachnospirales.Lachnospiraceae.Lachnospiraceae_NK4A136_group'
p483
(lp484
F107022.03152075251
aF37932.08384798526
aF37565.568144262645
aF4086.45114420632
aF6189.664963089154
aF5309.181761399126
aF0.0
aF328.086822133773
aF9555.130883071864
aF28699.535768712398
aF62097.81916412271
aF11325.403970999381
asS'Bacteria.Firmicutes.Clostridia.Eubacteriales.Anaerofustaceae.Anaerofustis.uncultured_bacterium'
p485
(lp486
F0.0
aF358.0187243792851
aF0.0
aF0.0
aF0.0
aF0.0
aF0.0
aF0.0
aF0.0
aF0.0
aF0.0
aF0.0
asS'Bacteria.Firmicutes.Clostridia.Lachnospirales.Lachnospiraceae.Anaerostipes'
p487
(lp488
F0.0
aF0.0
aF0.0
aF3051.2168543407192
aF0.0
aF0.0
aF0.0
aF0.0
aF0.0
aF57.25812845200447
aF0.0
aF0.0
asS'Bacteria.Firmicutes.Clostridia.Christensenellales.Christensenellaceae'
p489
(lp490
F4785.873421899496
aF787.6411936344273
aF525.3925614582187
aF13893.933890301489
aF21294.718909710395
aF1561.524047470331
aF0.0
aF146.7756835861616
aF0.0
aF0.0
aF263.5451211209452
aF74.46470034727628
asS'Bacteria.Actinobacteriota.Actinobacteria.Bifidobacteriales.Bifidobacteriaceae.Bifidobacterium'
p491
(lp492
F1497.9656864300807
aF5030.163077528956
aF6050.488530341423
aF0.0
aF13798.977853492335
aF0.0
aF0.0
aF0.0
aF0.0
aF0.0
aF0.0
aF0.0
asS'Bacteria.Firmicutes.Bacilli.Erysipelotrichales.Erysipelotrichaceae.Allobaculum'
p493
(lp494
F0.0
aF0.0
aF0.0
aF1307.6643661460225
aF1703.5775127768316
aF21147.49710002677
aF56081.31791097092
aF0.0
aF0.0
aF215.819099549863
aF0.0
aF148.92940069455256
asS'Bacteria.Desulfobacterota'
p495
(lp496
F0.0
aF0.0
aF0.0
aF12041.409371594624
aF14366.837024417946
aF0.0
aF0.0
aF0.0
aF0.0
aF0.0
aF0.0
aF0.0
asS'Bacteria.Actinobacteriota.Coriobacteriia.Coriobacteriales.uncultured.uncultured'
p497
(lp498
F596.647349679778
aF268.5140432844638
aF220.3259128695756
aF7246.640029059208
aF2385.0085178875643
aF3167.6630677255284
aF0.0
aF0.0
aF562.9379434988074
aF48.449185613234555
aF999.2752509169172
aF250.47217389538383
asS'Bacteria.Firmicutes.Bacilli.Staphylococcales.Staphylococcaceae'
p499
(lp500
F0.0
aF0.0
aF0.0
aF908.1002542680712
aF1930.7211811470756
aF0.0
aF0.0
aF0.0
aF414.79637942017393
aF273.07722800186747
aF466.69448531834047
aF1638.2234076400778
asS'Bacteria.Firmicutes.Bacilli.Erysipelotrichales'
p501
(lp502
F14903.489117533176
aF93335.48144567963
aF110162.95643478779
aF18089.357065019976
aF49574.10562180579
aF30516.641384848754
aF71503.68033648793
aF690.7090992289958
aF1288.8316074841118
aF1233.2519974277884
aF5139.1298618584315
aF1570.5282255061904
asS'Bacteria.Bacteroidota.Bacteroidia.Bacteroidales.Prevotellaceae.Prevotellaceae_NK3B31_group'
p503
(lp504
F450.65916837515147
aF0.0
aF110.1629564347878
aF3577.9150018162004
aF8404.315729699036
aF18782.903542428838
aF14020.32947774273
aF130272.05304645878
aF45405.389390101176
aF9170.109495159486
aF6056.047262425052
aF28695.98770655492
asS'Bacteria.Bacteroidota.Bacteroidia.Bacteroidales.Tannerellaceae.Parabacteroides'
p505
(lp506
F7089.94776162034
aF0.0
aF152.53332429432157
aF217.9440610243371
aF0.0
aF5398.411706968859
aF0.0
aF25551.919739602665
aF2029.5394278772794
aF27545.56425683354
aF1658.1380537192802
aF2321.9447471923418
asS'Bacteria.Actinobacteriota.Coriobacteriia.Coriobacteriales.Eggerthellaceae.Enterorhabdus.uncultured_bacterium'
p507
(lp508
F755.3301554456764
aF3419.0788178221733
aF2279.5257908429166
aF1925.172539048311
aF4656.445201590006
aF1293.8342107611313
aF0.0
aF0.0
aF0.0
aF0.0
aF0.0
aF0.0
asS'Bacteria.Actinobacteriota.Coriobacteriia.Coriobacteriales.Eggerthellaceae.Parvibacter.uncultured_bacterium'
p509
(lp510
F0.0
aF0.0
aF0.0
aF0.0
aF0.0
aF0.0
aF0.0
aF0.0
aF0.0
aF57.25812845200447
aF455.71343860496773
aF0.0
asS'Bacteria.Firmicutes.Clostridia.Lachnospirales.Lachnospiraceae._Eubacterium__xylanophilum_group.uncultured_bacterium'
p511
(lp512
F22209.24549499514
aF966.6505558240698
aF1864.296185819486
aF3686.887032328369
aF0.0
aF0.0
aF10515.247108307049
aF4662.2864197957215
aF2844.318030309764
aF3228.4775504091754
aF25799.969253069197
aF2606.2645121546693
asS'Bacteria.Acidobacteriota.Acidobacteriae'
p513
(lp514
F0.0
aF0.0
aF0.0
aF0.0
aF681.4310051107326
aF0.0
aF0.0
aF0.0
aF0.0
aF0.0
aF0.0
aF0.0
asS'Bacteria.Proteobacteria.Gammaproteobacteria.Burkholderiales.Sutterellaceae'
p515
(lp516
F107.90430792081091
aF0.0
aF0.0
aF472.212132219397
aF0.0
aF7986.080128491122
aF0.0
aF5776.0548423024775
aF903.6635408796647
aF3483.936892733503
aF258.05459776425886
aF1299.7474969706402
asS'Bacteria.Patescibacteria.Saccharimonadia.Saccharimonadales'
p517
(lp518
F0.0
aF0.0
aF0.0
aF108.97203051216854
aF0.0
aF0.0
aF0.0
aF0.0
aF0.0
aF0.0
aF0.0
aF0.0
asS'Bacteria.Campilobacterota.Campylobacteria.Campylobacterales'
p519
(lp520
F0.0
aF0.0
aF0.0
aF2306.5746458409008
aF0.0
aF0.0
aF0.0
aF0.0
aF0.0
aF0.0
aF38.433663496804506
aF0.0
asS'Bacteria.Firmicutes.Clostridia.Peptostreptococcales_Tissierellales.Anaerovoracaceae.Anaerovorax'
p521
(lp522
F2843.595879324899
aF0.0
aF0.0
aF0.0
aF0.0
aF0.0
aF0.0
aF94.97250114398692
aF0.0
aF0.0
aF0.0
aF0.0
asS'Bacteria.Firmicutes.Clostridia.Oscillospirales.Ruminococcaceae._Eubacterium__siraeum_group.uncultured_bacterium'
p523
(lp524
F0.0
aF0.0
aF0.0
aF236.1060661096985
aF23395.79784213515
aF1561.524047470331
aF0.0
aF0.0
aF0.0
aF0.0
aF0.0
aF0.0
asS'Bacteria.Firmicutes.Bacilli.Staphylococcales'
p525
(lp526
F0.0
aF0.0
aF0.0
aF908.1002542680712
aF1930.7211811470756
aF0.0
aF0.0
aF0.0
aF414.79637942017393
aF273.07722800186747
aF466.69448531834047
aF1638.2234076400778
asS'Bacteria.Firmicutes.Clostridia.Christensenellales.Christensenellaceae.Christensenellaceae_R_7_group'
p527
(lp528
F4785.873421899496
aF358.0187243792851
aF152.53332429432157
aF13657.82782419179
aF21294.718909710395
aF1561.524047470331
aF0.0
aF146.7756835861616
aF0.0
aF0.0
aF148.24413063053169
aF74.46470034727628
asS'Bacteria.Firmicutes.Clostridia.Clostridia.Hungateiclostridiaceae'
p529
(lp530
F57.12581007572342
aF0.0
aF0.0
aF0.0
aF0.0
aF0.0
aF0.0
aF0.0
aF0.0
aF0.0
aF0.0
aF0.0
asS'Bacteria.Deferribacterota.Deferribacteres.Deferribacterales'
p531
(lp532
F0.0
aF411.7215330361779
aF0.0
aF0.0
aF0.0
aF0.0
aF0.0
aF0.0
aF0.0
aF0.0
aF87.84837370698172
aF0.0
asS'Bacteria.Proteobacteria.Gammaproteobacteria.Pseudomonadales.Moraxellaceae'
p533
(lp534
F82.51505899826716
aF53.70280865689277
aF0.0
aF0.0
aF0.0
aF669.224591772999
aF0.0
aF0.0
aF0.0
aF0.0
aF82.35785035029537
aF0.0
asS'Bacteria.Actinobacteriota.Coriobacteriia.Coriobacteriales.Eggerthellaceae.uncultured.uncultured_Coriobacteriales'
p535
(lp536
F260.2398014560734
aF0.0
aF0.0
aF0.0
aF0.0
aF0.0
aF0.0
aF0.0
aF0.0
aF0.0
aF0.0
aF0.0
asS'Bacteria.Firmicutes.Clostridia.Oscillospirales.Butyricicoccaceae.UCG_008.uncultured_bacterium'
p537
(lp538
F0.0
aF0.0
aF0.0
aF0.0
aF0.0
aF0.0
aF3505.0823694356827
aF0.0
aF0.0
aF0.0
aF0.0
aF0.0
asS'Bacteria.Firmicutes.Clostridia.Lachnospirales.Defluviitaleaceae'
p539
(lp540
F82.51505899826716
aF554.929022787892
aF0.0
aF1289.502361060661
aF0.0
aF0.0
aF0.0
aF0.0
aF518.4954742752174
aF0.0
aF43.92418685349086
aF385.86253816315883
asS'Bacteria.Firmicutes.Clostridia.Lachnospirales.Lachnospiraceae.Acetatifactor'
p541
(lp542
F133.29355684335465
aF0.0
aF0.0
aF0.0
aF0.0
aF0.0
aF0.0
aF0.0
aF0.0
aF0.0
aF0.0
aF0.0
asS'Bacteria.Proteobacteria.Alphaproteobacteria.Rickettsiales.Mitochondria.Mitochondria'
p543
(lp544
F0.0
aF0.0
aF0.0
aF0.0
aF0.0
aF0.0
aF0.0
aF0.0
aF0.0
aF0.0
aF76.86732699360901
aF0.0
asS'Bacteria.Actinobacteriota.Coriobacteriia.Coriobacteriales.uncultured.uncultured.uncultured_bacterium'
p545
(lp546
F596.647349679778
aF268.5140432844638
aF220.3259128695756
aF7246.640029059208
aF2385.0085178875643
aF3167.6630677255284
aF0.0
aF0.0
aF562.9379434988074
aF48.449185613234555
aF999.2752509169172
aF250.47217389538383
asS'Bacteria.Firmicutes.Clostridia.Oscillospirales._Eubacterium__coprostanoligenes_group._Eubacterium__coprostanoligenes_group.uncultured_bacterium'
p547
(lp548
F120.59893238208278
aF0.0
aF1762.6073029566048
aF690.1561932437342
aF4883.588869960251
aF13027.572053181048
aF0.0
aF0.0
aF0.0
aF52.853657032619516
aF0.0
aF2267.788601485232
asS'Bacteria.Firmicutes.Bacilli.Acholeplasmatales.Acholeplasmataceae'
p549
(lp550
F0.0
aF0.0
aF0.0
aF254.26807119505992
aF0.0
aF0.0
aF0.0
aF0.0
aF0.0
aF0.0
aF0.0
aF0.0
asS'Bacteria.Firmicutes.Clostridia.Peptococcales.Peptococcaceae'
p551
(lp552
F1072.695766977473
aF0.0
aF483.022193598685
aF780.9662186705413
aF0.0
aF847.6844829124655
aF0.0
aF228.79738911960487
aF0.0
aF1131.9491547819346
aF620.4291393055585
aF318.16735602927133
asS'Bacteria.Firmicutes.Clostridia.Clostridia_UCG_014.Clostridia_UCG_014.Clostridia_UCG_014'
p553
(lp554
F64495.03957549174
aF174355.11877271187
aF45251.55287398207
aF267871.41300399567
aF101760.36342986941
aF74417.77460515748
aF67297.5814931651
aF0.0
aF325.91144097299383
aF0.0
aF312.9598313311224
aF1570.5282255061904
asS'Bacteria.Actinobacteriota.Coriobacteriia.Coriobacteriales.Atopobiaceae.Coriobacteriaceae_UCG_002'
p555
(lp556
F8308.631709902438
aF3723.3947335445655
aF3847.2294016456667
aF3577.9150018162004
aF681.4310051107326
aF12982.957080396181
aF5608.131791097093
aF0.0
aF429.6105358280373
aF0.0
aF1597.7422967957302
aF1732.9966626275204
asS'Bacteria.Firmicutes.Clostridia.Oscillospirales.Ruminococcaceae.Paludicola.uncultured_bacterium'
p557
(lp558
F0.0
aF0.0
aF0.0
aF0.0
aF0.0
aF0.0
aF0.0
aF0.0
aF0.0
aF0.0
aF153.73465398721802
aF0.0
asS'Bacteria.Proteobacteria.Gammaproteobacteria.Pasteurellales.Pasteurellaceae'
p559
(lp560
F285.6290503786171
aF0.0
aF0.0
aF0.0
aF0.0
aF669.224591772999
aF0.0
aF0.0
aF0.0
aF0.0
aF0.0
aF0.0
asS'Bacteria.Firmicutes.Clostridia.Lachnospirales.Lachnospiraceae._Bacteroides__pectinophilus_group'
p561
(lp562
F2868.985128247443
aF0.0
aF0.0
aF0.0
aF0.0
aF0.0
aF0.0
aF0.0
aF0.0
aF0.0
aF0.0
aF0.0
asS'Bacteria.Firmicutes.Clostridia.Monoglobales.Monoglobaceae.Monoglobus'
p563
(lp564
F0.0
aF196.91029840860682
aF67.79258857525403
aF10388.666908826734
aF14310.051107325386
aF29847.416793075758
aF7360.672975814933
aF332.40375400395425
aF533.3096306830807
aF391.9979563252614
aF8510.311202863855
aF676.9518213388752
asS'Bacteria.Firmicutes.Clostridia.Oscillospirales.Ruminococcaceae.Subdoligranulum.uncultured_bacterium'
p565
(lp566
F0.0
aF0.0
aF0.0
aF526.6981474754813
aF0.0
aF3524.5828500044613
aF7010.164738871365
aF0.0
aF0.0
aF0.0
aF0.0
aF0.0
asS'Bacteria.Firmicutes.Clostridia.Lachnospirales.Lachnospiraceae.Roseburia.uncultured_Clostridiales'
p567
(lp568
F387.18604606879205
aF0.0
aF0.0
aF0.0
aF0.0
aF0.0
aF0.0
aF0.0
aF0.0
aF0.0
aF0.0
aF0.0
asS'Bacteria.Firmicutes.Bacilli.RF39.RF39.RF39.uncultured_Paenibacillaceae'
p569
(lp570
F0.0
aF0.0
aF0.0
aF0.0
aF397.5014196479274
aF0.0
aF0.0
aF0.0
aF0.0
aF0.0
aF0.0
aF0.0
asS'Bacteria.Firmicutes.Clostridia.Oscillospirales.Ruminococcaceae.UBA1819.uncultured_bacterium'
p571
(lp572
F6182.282112639401
aF0.0
aF0.0
aF0.0
aF0.0
aF0.0
aF0.0
aF0.0
aF0.0
aF0.0
aF0.0
aF0.0
asS'Bacteria.Firmicutes.Clostridia.Lachnospirales.Lachnospiraceae.Acetatifactor.uncultured_bacterium'
p573
(lp574
F215.80861584162182
aF0.0
aF0.0
aF0.0
aF0.0
aF0.0
aF0.0
aF0.0
aF0.0
aF0.0
aF0.0
aF0.0
asS'Bacteria.Actinobacteriota.Coriobacteriia.Coriobacteriales.Eggerthellaceae'
p575
(lp576
F1821.6786101925134
aF9433.793387394164
aF6491.140356080573
aF10497.638939338904
aF4656.445201590006
aF6379.941108235924
aF16123.378899404139
aF56.12011431235591
aF0.0
aF57.25812845200447
aF455.71343860496773
aF0.0
asS'Bacteria.Actinobacteriota.Coriobacteriia.Coriobacteriales.Coriobacteriales_Incertae_Sedis.uncultured.gut_metagenome'
p577
(lp578
F0.0
aF0.0
aF0.0
aF508.53614239011983
aF0.0
aF0.0
aF1752.5411847178414
aF0.0
aF0.0
aF0.0
aF0.0
aF0.0
asS'Bacteria.Proteobacteria.Gammaproteobacteria.Burkholderiales.Comamonadaceae.Comamonas'
p579
(lp580
F0.0
aF0.0
aF0.0
aF326.91609153650563
aF0.0
aF0.0
aF0.0
aF0.0
aF0.0
aF0.0
aF0.0
aF0.0
asS'Bacteria.Proteobacteria.Gammaproteobacteria.Burkholderiales.Alcaligenaceae'
p581
(lp582
F158.6828057658984
aF250.6131070654996
aF177.95554501004185
aF0.0
aF0.0
aF892.2994556973321
aF0.0
aF34.535454961449794
aF0.0
aF79.28048554892926
aF0.0
aF0.0
asS'Bacteria.Firmicutes.Clostridia.Christensenellales.Christensenellaceae.Christensenellaceae_R_7_group.uncultured_prokaryote'
p583
(lp584
F0.0
aF429.62246925514216
aF372.85923716389715
aF236.1060661096985
aF0.0
aF0.0
aF0.0
aF0.0
aF0.0
aF0.0
aF0.0
aF0.0
asS'Bacteria.Bacteroidota.Bacteroidia.Flavobacteriales'
p585
(lp586
F0.0
aF0.0
aF0.0
aF254.26807119505992
aF0.0
aF0.0
aF0.0
aF0.0
aF0.0
aF0.0
aF0.0
aF0.0
asS'Bacteria.Firmicutes.Bacilli'
p587
(lp588
F0.0
aF1091.9571093568195
aF1262.6369622141062
aF563.0221576462042
aF738.2169222032937
aF847.6844829124655
aF0.0
aF5901.245866537733
aF1318.4599202998386
aF1435.8576827194968
aF6187.819822985525
aF2288.0971561253978
asS'Bacteria.Firmicutes.Clostridia.Peptostreptococcales_Tissierellales.Anaerovoracaceae._Eubacterium__nodatum_group'
p589
(lp590
F0.0
aF0.0
aF0.0
aF417.72611696331273
aF0.0
aF0.0
aF0.0
aF0.0
aF0.0
aF246.65039948555776
aF71.37680363692266
aF142.15988248116378
asS'Bacteria.Actinobacteriota.Coriobacteriia.Coriobacteriales.Atopobiaceae.Coriobacteriaceae_UCG_002.uncultured_bacterium'
p591
(lp592
F8308.631709902438
aF3723.3947335445655
aF3847.2294016456667
aF3577.9150018162004
aF681.4310051107326
aF12982.957080396181
aF5608.131791097093
aF0.0
aF429.6105358280373
aF0.0
aF1597.7422967957302
aF1732.9966626275204
asS'Bacteria.Bacteroidota.Bacteroidia.Bacteroidales.Muribaculaceae.Muribaculum.uncultured_bacterium'
p593
(lp594
F875.9290878277591
aF0.0
aF0.0
aF0.0
aF0.0
aF0.0
aF0.0
aF13447.242775614512
aF5896.034250329615
aF13521.727257511828
aF5402.674982979376
aF11156.166015664661
asS'Bacteria.Firmicutes.Bacilli.Erysipelotrichales.Erysipelotrichaceae.Faecalibaculum.uncultured_bacterium'
p595
(lp596
F774.3720921375841
aF3490.68256269803
aF2423.5850415653317
aF635.6701779876498
aF0.0
aF0.0
aF0.0
aF0.0
aF0.0
aF0.0
aF488.6565787450859
aF0.0
asS'Bacteria.Bacteroidota.Bacteroidia.Flavobacteriales.Weeksellaceae.Chryseobacterium'
p597
(lp598
F0.0
aF0.0
aF0.0
aF254.26807119505992
aF0.0
aF0.0
aF0.0
aF0.0
aF0.0
aF0.0
aF0.0
aF0.0
asS'Bacteria.Firmicutes.Clostridia.Clostridiales'
p599
(lp600
F25611.404850616003
aF190841.88103037793
aF293846.97517943865
aF10352.342898656012
aF14991.482112436119
aF1606.1390202551977
aF0.0
aF0.0
aF0.0
aF0.0
aF290.997737904377
aF0.0
asS'Bacteria.Actinobacteriota.Actinobacteria.Pseudonocardiales.Pseudonocardiaceae.Saccharopolyspora'
p601
(lp602
F0.0
aF0.0
aF0.0
aF0.0
aF0.0
aF31988.935486749353
aF0.0
aF0.0
aF0.0
aF0.0
aF0.0
aF0.0
asS'Bacteria.Firmicutes.Clostridia.Oscillospirales.Oscillospiraceae.UCG_005.uncultured_prokaryote'
p603
(lp604
F0.0
aF0.0
aF0.0
aF0.0
aF0.0
aF1026.144374051932
aF0.0
aF0.0
aF0.0
aF0.0
aF0.0
aF0.0
asS'Bacteria.Firmicutes.Bacilli.Erysipelotrichales.Erysipelotrichaceae.uncultured'
p605
(lp606
F691.857033139317
aF805.5421298533914
aF330.4888693043634
aF2669.814747548129
aF14366.837024417946
aF0.0
aF0.0
aF0.0
aF1288.8316074841118
aF110.111785484624
aF499.6376254584586
aF839.4202584602052
asS'Bacteria.Firmicutes.Clostridia.Lachnospirales.Lachnospiraceae.Lachnospiraceae_NC2004_group.uncultured_Clostridiaceae'
p607
(lp608
F380.83873383815614
aF0.0
aF0.0
aF0.0
aF0.0
aF0.0
aF0.0
aF0.0
aF0.0
aF149.75202825908863
aF0.0
aF0.0
asS'Bacteria.Proteobacteria.Gammaproteobacteria.Burkholderiales.Burkholderiaceae.Burkholderia_Caballeronia_Paraburkholderia'
p609
(lp610
F793.4140288294919
aF2112.310473837782
aF1872.7702593913928
aF2560.842717035961
aF6076.093128904033
aF3792.2726867136607
aF10164.73887136348
aF0.0
aF0.0
aF110.111785484624
aF538.0712889552631
aF135.39036426777503
asS'Bacteria.Firmicutes.Clostridia.Oscillospirales.Ruminococcaceae.Incertae_Sedis.uncultured_bacterium'
p611
(lp612
F1009.2226446711137
aF0.0
aF0.0
aF19324.373410824555
aF8290.743895513913
aF1070.7593468367984
aF0.0
aF116.55716049489304
aF3496.1409122557516
aF836.8495696831424
aF1932.664221553598
aF1550.219670866024
asS'Bacteria.Firmicutes.Bacilli.Erysipelotrichales.Erysipelotrichaceae.uncultured.uncultured_bacterium'
p613
(lp614
F215.80861584162182
aF0.0
aF0.0
aF2397.3846712677077
aF738.2169222032937
aF0.0
aF0.0
aF0.0
aF385.1680666044472
aF0.0
aF0.0
aF101.54277320083128
asS'Bacteria.Firmicutes.Clostridia.Lachnospirales'
p615
(lp616
F356255.59356890316
aF100066.2334640102
aF106290.30481242643
aF292099.5277878678
aF37705.84894946054
aF287900.41938074416
aF249912.37294076412
aF16106.472807646147
aF17154.793120305763
aF79187.99164912218
aF139151.82395185906
aF18372.47243113707
asS'Bacteria.Firmicutes.Clostridia.Peptococcales.Peptococcaceae.uncultured'
p617
(lp618
F545.8688518346904
aF0.0
aF0.0
aF454.0501271340356
aF0.0
aF0.0
aF0.0
aF69.07090992289959
aF0.0
aF0.0
aF0.0
aF0.0
asS'Bacteria.Actinobacteriota.Actinobacteria.Corynebacteriales.Corynebacteriaceae.Corynebacterium.Corynebacterium_stationis'
p619
(lp620
F0.0
aF0.0
aF0.0
aF0.0
aF0.0
aF0.0
aF0.0
aF0.0
aF0.0
aF0.0
aF0.0
aF372.32350173638133
asS'Bacteria.Firmicutes.Clostridia.Oscillospirales.Oscillospiraceae.uncultured.Clostridium_sp_'
p621
(lp622
F0.0
aF0.0
aF0.0
aF0.0
aF0.0
aF0.0
aF0.0
aF228.79738911960484
aF0.0
aF0.0
aF0.0
aF155.69891890794128
asS'Bacteria.Firmicutes.Clostridia.Peptococcales.Peptococcaceae.uncultured.unidentified'
p623
(lp624
F304.6709870705249
aF0.0
aF0.0
aF0.0
aF0.0
aF0.0
aF0.0
aF120.87409236507428
aF0.0
aF991.0060693616158
aF549.0523356686358
aF318.16735602927133
asS'Bacteria.Firmicutes.Clostridia.Oscillospirales.Ruminococcaceae.Harryflintia'
p625
(lp626
F177.7247424578062
aF0.0
aF0.0
aF0.0
aF0.0
aF0.0
aF0.0
aF0.0
aF0.0
aF189.39227103355327
aF1054.180484483781
aF0.0
asS'Bacteria.Actinobacteriota.Actinobacteria.Corynebacteriales.Corynebacteriaceae'
p627
(lp628
F0.0
aF0.0
aF0.0
aF0.0
aF0.0
aF0.0
aF0.0
aF0.0
aF0.0
aF0.0
aF0.0
aF372.32350173638133
asS'Bacteria.Actinobacteriota.Coriobacteriia.Coriobacteriales.Eggerthellaceae.Adlercreutzia'
p629
(lp630
F806.1086532907638
aF5459.785546784098
aF4211.614565237656
aF1852.5245187068651
aF0.0
aF0.0
aF0.0
aF56.12011431235591
aF0.0
aF0.0
aF0.0
aF0.0
asS'Bacteria.Actinobacteriota.Actinobacteria.Pseudonocardiales'
p631
(lp632
F0.0
aF0.0
aF101.68888286288106
aF0.0
aF0.0
aF31988.935486749353
aF5257.623554153524
aF0.0
aF0.0
aF0.0
aF0.0
aF0.0
asS'Bacteria.Firmicutes.Clostridia.Oscillospirales.Ruminococcaceae.Ruminococcaceae'
p633
(lp634
F0.0
aF0.0
aF0.0
aF0.0
aF0.0
aF0.0
aF0.0
aF0.0
aF0.0
aF0.0
aF982.803680846858
aF0.0
asS'Bacteria.Firmicutes.Clostridia.Peptostreptococcales_Tissierellales.Anaerovoracaceae._Eubacterium__brachy_group.uncultured_bacterium'
p635
(lp636
F1231.3785727433715
aF358.0187243792851
aF211.85183929766887
aF0.0
aF0.0
aF0.0
aF0.0
aF0.0
aF0.0
aF48.449185613234555
aF214.13041091076798
aF0.0
asS'Bacteria.Firmicutes.Clostridia.Peptococcales.Peptococcaceae.uncultured.uncultured_bacterium'
p637
(lp638
F222.15592807225775
aF0.0
aF279.6444278729229
aF326.91609153650563
aF0.0
aF847.6844829124655
aF0.0
aF38.852386831631016
aF0.0
aF140.94308542031868
aF71.37680363692266
aF0.0
asS'Bacteria.Proteobacteria.Alphaproteobacteria.Caulobacterales.Caulobacteraceae.Brevundimonas'
p639
(lp640
F0.0
aF0.0
aF0.0
aF0.0
aF0.0
aF0.0
aF0.0
aF0.0
aF0.0
aF0.0
aF49.41471021017722
aF0.0
asS'Bacteria.Firmicutes.Clostridia.Lachnospirales.Lachnospiraceae._Eubacterium__hallii_group.Clostridium_sp_'
p641
(lp642
F0.0
aF0.0
aF0.0
aF0.0
aF0.0
aF0.0
aF0.0
aF781.3646685028016
aF0.0
aF167.36991393662848
aF0.0
aF352.01494709621505
asS'Bacteria.Firmicutes.Bacilli.Lactobacillales.Streptococcaceae.Streptococcus.Streptococcus_agalactiae'
p643
(lp644
F0.0
aF0.0
aF0.0
aF0.0
aF0.0
aF0.0
aF0.0
aF0.0
aF162.95572048649692
aF92.49389980708415
aF0.0
aF0.0
asS'Bacteria.Actinobacteriota.Actinobacteria.Micrococcales.Micrococcaceae.Rothia'
p645
(lp646
F0.0
aF0.0
aF0.0
aF417.72611696331273
aF0.0
aF0.0
aF0.0
aF0.0
aF0.0
aF0.0
aF0.0
aF0.0
asS'Bacteria.Proteobacteria.Gammaproteobacteria.Pasteurellales.Pasteurellaceae.Rodentibacter.Pasteurellaceae_bacterium'
p647
(lp648
F285.6290503786171
aF0.0
aF0.0
aF0.0
aF0.0
aF0.0
aF0.0
aF0.0
aF0.0
aF0.0
aF0.0
aF0.0
asS'Bacteria.Firmicutes.Bacilli.Erysipelotrichales.Erysipelatoclostridiaceae.Erysipelotrichaceae_UCG_003'
p649
(lp650
F0.0
aF0.0
aF0.0
aF5484.92553577915
aF0.0
aF0.0
aF0.0
aF0.0
aF0.0
aF0.0
aF0.0
aF0.0
asS'Bacteria.Firmicutes.Clostridia.Lachnospirales.Lachnospiraceae._Eubacterium__ruminantium_group.uncultured_bacterium'
p651
(lp652
F50162.8085587158
aF14392.352720047262
aF18541.27297533198
aF0.0
aF0.0
aF0.0
aF0.0
aF0.0
aF0.0
aF0.0
aF0.0
aF0.0
asS'Bacteria.Firmicutes.Bacilli.RF39.RF39.RF39.uncultured_Lachnospiraceae'
p653
(lp654
F234.85055253352962
aF572.8299590068563
aF432.1777521672444
aF0.0
aF11243.611584327089
aF0.0
aF0.0
aF0.0
aF0.0
aF726.7377841985184
aF0.0
aF0.0
asS'Bacteria.Bacteroidota.Bacteroidia.Bacteroidales.Bacteroidaceae.Bacteroides.Bacteroides_sartorii'
p655
(lp656
F0.0
aF0.0
aF0.0
aF326.91609153650563
aF0.0
aF0.0
aF0.0
aF0.0
aF0.0
aF0.0
aF0.0
aF0.0
asS'Bacteria.Firmicutes.Clostridia.Lachnospirales.Defluviitaleaceae.Defluviitaleaceae_UCG_011.uncultured_bacterium'
p657
(lp658
F82.51505899826716
aF0.0
aF0.0
aF145.29604068289137
aF0.0
aF0.0
aF0.0
aF0.0
aF518.4954742752174
aF0.0
aF43.92418685349086
aF0.0
asS'Bacteria.Firmicutes.Clostridia.Oscillospirales.Ruminococcaceae'
p659
(lp660
F19543.374358128047
aF608.6318314447847
aF1677.8665672375373
aF1743.5524881946967
aF3747.8705281090297
aF9413.759257606853
aF4206.0988433228185
aF254.69898034069223
aF0.0
aF0.0
aF3722.574835833351
aF162.46843712133003
asS'Bacteria.Firmicutes.Bacilli.Erysipelotrichales.Erysipelatoclostridiaceae.UCG_004.uncultured_bacterium'
p661
(lp662
F0.0
aF0.0
aF0.0
aF0.0
aF0.0
aF0.0
aF0.0
aF0.0
aF0.0
aF26.426828516309758
aF76.86732699360901
aF0.0
asS'Bacteria.Firmicutes.Clostridia.Lachnospirales.Lachnospiraceae.Lachnospiraceae_NC2004_group'
p663
(lp664
F380.83873383815614
aF0.0
aF0.0
aF0.0
aF0.0
aF0.0
aF0.0
aF0.0
aF0.0
aF149.75202825908863
aF0.0
aF0.0
asS'Bacteria.Cyanobacteria.Cyanobacteriia.Chloroplast.Chloroplast'
p665
(lp666
F0.0
aF0.0
aF0.0
aF0.0
aF454.2873367404884
aF0.0
aF0.0
aF0.0
aF0.0
aF0.0
aF0.0
aF0.0
asS'Bacteria.Firmicutes.Bacilli.Erysipelotrichales.Erysipelatoclostridiaceae.Erysipelotrichaceae_UCG_003.uncultured_bacterium'
p667
(lp668
F0.0
aF0.0
aF0.0
aF5484.92553577915
aF0.0
aF0.0
aF0.0
aF0.0
aF0.0
aF0.0
aF0.0
aF0.0
asS'Bacteria.Firmicutes.Bacilli.Staphylococcales.Staphylococcaceae.Staphylococcus'
p669
(lp670
F0.0
aF0.0
aF0.0
aF563.0221576462042
aF1930.7211811470756
aF0.0
aF0.0
aF0.0
aF414.79637942017393
aF96.89837122646911
aF252.5640744075725
aF1056.044841288645
asS'Bacteria.Firmicutes.Bacilli.RF39.RF39.RF39'
p671
(lp672
F844.1925266745794
aF2130.2114100567464
aF2898.13316159211
aF2615.328732292045
aF2271.436683702442
aF1115.374319621665
aF0.0
aF0.0
aF0.0
aF0.0
aF0.0
aF0.0
asS'Bacteria.Firmicutes.Clostridia.Lachnospirales.Lachnospiraceae.Lachnospiraceae_UCG_010'
p673
(lp674
F0.0
aF0.0
aF0.0
aF0.0
aF0.0
aF0.0
aF0.0
aF0.0
aF0.0
aF118.92072832339392
aF0.0
aF0.0
asS'Bacteria.Firmicutes.Bacilli.Lactobacillales.Aerococcaceae.Aerococcus'
p675
(lp676
F0.0
aF0.0
aF0.0
aF272.43007628042136
aF0.0
aF0.0
aF0.0
aF250.38204847051097
aF0.0
aF83.68495696831424
aF0.0
aF148.92940069455256
asS'Bacteria.Firmicutes.Clostridia.Monoglobales'
p677
(lp678
F0.0
aF196.91029840860682
aF67.79258857525403
aF11569.197239375228
aF14310.051107325386
aF30204.33657535469
aF7360.672975814933
aF2011.6902515044505
aF533.3096306830807
aF391.9979563252614
aF8510.311202863855
aF676.9518213388752
asS'Bacteria.Firmicutes.Clostridia.Lachnospirales.Lachnospiraceae._Bacteroides__pectinophilus_group.uncultured_bacterium'
p679
(lp680
F2868.985128247443
aF0.0
aF0.0
aF0.0
aF0.0
aF0.0
aF0.0
aF0.0
aF0.0
aF0.0
aF0.0
aF0.0
asS'Bacteria.Proteobacteria.Alphaproteobacteria.Rickettsiales'
p681
(lp682
F0.0
aF0.0
aF0.0
aF0.0
aF0.0
aF0.0
aF0.0
aF0.0
aF0.0
aF0.0
aF76.86732699360901
aF0.0
asS'Bacteria.Firmicutes.Clostridia.Monoglobales.Monoglobaceae.Monoglobus.unidentified'
p683
(lp684
F0.0
aF0.0
aF0.0
aF599.3461678169269
aF0.0
aF0.0
aF0.0
aF1679.2864975004961
aF0.0
aF0.0
aF0.0
aF0.0
asS'Bacteria.Actinobacteriota.Actinobacteria.Micrococcales'
p685
(lp686
F0.0
aF0.0
aF0.0
aF635.6701779876498
aF0.0
aF0.0
aF0.0
aF0.0
aF0.0
aF0.0
aF0.0
aF0.0
asS'Bacteria.Chloroflexi.Anaerolineae.Anaerolineales.Anaerolineaceae.uncultured'
p687
(lp688
F0.0
aF0.0
aF0.0
aF0.0
aF454.2873367404884
aF0.0
aF0.0
aF0.0
aF0.0
aF0.0
aF0.0
aF0.0
asS'Bacteria.Bacteroidota.Bacteroidia.Bacteroidales.Prevotellaceae.Prevotellaceae_UCG_003.uncultured_bacterium'
p689
(lp690
F0.0
aF0.0
aF0.0
aF0.0
aF0.0
aF0.0
aF3154.574132492114
aF0.0
aF0.0
aF0.0
aF0.0
aF0.0
asS'Bacteria.Firmicutes.Clostridia.Oscillospirales.Oscillospiraceae.NK4A214_group'
p691
(lp692
F6728.150964474092
aF0.0
aF0.0
aF2433.708681438431
aF1192.5042589437821
aF2364.59355759793
aF0.0
aF0.0
aF0.0
aF0.0
aF2833.1100520501604
aF101.54277320083128
asS'Bacteria.Desulfobacterota.Desulfovibrionia.Desulfovibrionales'
p693
(lp694
F0.0
aF0.0
aF0.0
aF12041.409371594624
aF14366.837024417946
aF0.0
aF0.0
aF0.0
aF0.0
aF0.0
aF0.0
aF0.0
asS'Bacteria.Bacteroidota.Bacteroidia.Chitinophagales'
p695
(lp696
F0.0
aF0.0
aF0.0
aF0.0
aF851.7887563884158
aF0.0
aF0.0
aF0.0
aF0.0
aF0.0
aF0.0
aF0.0
asS'Bacteria.Firmicutes.Clostridia.Clostridiales.Clostridiaceae.Clostridium_sensu_stricto_1'
p697
(lp698
F24875.116631862234
aF190841.88103037793
aF293846.97517943865
aF9752.996730839086
aF14991.482112436119
aF1606.1390202551977
aF0.0
aF0.0
aF0.0
aF0.0
aF290.997737904377
aF0.0
asS'Bacteria.Firmicutes.Clostridia.Lachnospirales.Lachnospiraceae.Lachnospiraceae_NK4A136_group.uncultured_Clostridiales'
p699
(lp700
F0.0
aF0.0
aF499.9703407424985
aF0.0
aF0.0
aF0.0
aF0.0
aF0.0
aF0.0
aF0.0
aF0.0
aF0.0
asS'Bacteria.Bacteroidota.Bacteroidia.Bacteroidales.Prevotellaceae.Prevotellaceae_NK3B31_group.uncultured_bacterium'
p701
(lp702
F450.65916837515147
aF0.0
aF110.1629564347878
aF3577.9150018162004
aF8404.315729699036
aF18782.903542428838
aF14020.32947774273
aF130272.05304645878
aF45405.389390101176
aF9170.109495159486
aF6056.047262425052
aF28695.98770655492
asS'Bacteria.Firmicutes.Clostridia.Peptostreptococcales_Tissierellales'
p703
(lp704
F13881.571848400792
aF202602.79612623743
aF236697.82301049947
aF26207.77333817654
aF7041.45371947757
aF5086.106897474792
aF5257.623554153524
aF1381.4181984579916
aF1748.0704561278758
aF3761.4185921547555
aF53653.3942415391
aF4569.424794037408
asS'Bacteria.Cyanobacteria.Vampirivibrionia.Gastranaerophilales'
p705
(lp706
F50.778497845087486
aF0.0
aF0.0
aF1325.826371231384
aF0.0
aF0.0
aF0.0
aF0.0
aF814.7786024324845
aF0.0
aF164.71570070059073
aF440.01868387026883
asS'Bacteria.Actinobacteriota.Coriobacteriia.Coriobacteriales.Eggerthellaceae.Parvibacter'
p707
(lp708
F0.0
aF0.0
aF0.0
aF0.0
aF0.0
aF0.0
aF0.0
aF0.0
aF0.0
aF57.25812845200447
aF455.71343860496773
aF0.0
asS'Bacteria.Actinobacteriota.Coriobacteriia'
p709
(lp710
F10726.95766977473
aF13425.702164223194
aF10558.695670595815
aF21830.730112604433
aF7722.884724588303
aF22530.561256357632
aF23484.051875219073
aF56.12011431235591
aF992.5484793268447
aF105.70731406523903
aF3052.7309863176156
aF1983.4688365229042
asS'Bacteria.Firmicutes.Clostridia.Lachnospirales.Lachnospiraceae.Tuzzerella'
p711
(lp712
F0.0
aF196.91029840860682
aF0.0
aF0.0
aF0.0
aF0.0
aF0.0
aF0.0
aF0.0
aF0.0
aF0.0
aF0.0
asS'Bacteria.Firmicutes.Bacilli.Erysipelotrichales.Erysipelatoclostridiaceae.Erysipelatoclostridium'
p713
(lp714
F0.0
aF0.0
aF0.0
aF0.0
aF0.0
aF0.0
aF0.0
aF142.45875171598038
aF0.0
aF303.9085279375622
aF60.39575692354994
aF291.08928317571633
asS'Bacteria.Firmicutes.Clostridia.Lachnospirales.Lachnospiraceae._Eubacterium__ventriosum_group'
p715
(lp716
F0.0
aF0.0
aF0.0
aF744.6422084998185
aF0.0
aF0.0
aF0.0
aF0.0
aF0.0
aF57.25812845200447
aF0.0
aF0.0
asS'Bacteria.Firmicutes.Clostridia.Lachnospirales.Lachnospiraceae.Lachnoclostridium'
p717
(lp718
F2151.738846185582
aF0.0
aF186.42961858194857
aF690.1561932437342
aF0.0
aF0.0
aF0.0
aF0.0
aF0.0
aF0.0
aF0.0
aF162.46843712133003
asS'Bacteria.Deferribacterota'
p719
(lp720
F0.0
aF411.7215330361779
aF0.0
aF0.0
aF0.0
aF0.0
aF0.0
aF0.0
aF0.0
aF0.0
aF87.84837370698172
aF0.0
asS'Bacteria.Actinobacteriota.Actinobacteria.Streptomycetales.Streptomycetaceae.Streptomyces'
p721
(lp722
F0.0
aF0.0
aF0.0
aF0.0
aF0.0
aF0.0
aF3505.0823694356827
aF0.0
aF0.0
aF0.0
aF0.0
aF0.0
asS'Bacteria.Cyanobacteria.Vampirivibrionia.Gastranaerophilales.Gastranaerophilales.Gastranaerophilales'
p723
(lp724
F50.778497845087486
aF0.0
aF0.0
aF1325.826371231384
aF0.0
aF0.0
aF0.0
aF0.0
aF814.7786024324845
aF0.0
aF164.71570070059073
aF440.01868387026883
asS'Bacteria.Proteobacteria.Gammaproteobacteria.Enterobacterales.Enterobacteriaceae'
p725
(lp726
F2018.4452893422274
aF7661.600701716701
aF7008.058843966886
aF5775.517617144933
aF21408.290743895515
aF12269.117515838316
aF30143.70837714687
aF8284.192258877769
aF1733.2562997200123
aF629.8394129720492
aF3113.126743241165
aF1441.9073794518042
asS'Bacteria.Chloroflexi.Anaerolineae.Anaerolineales'
p727
(lp728
F0.0
aF0.0
aF0.0
aF0.0
aF454.2873367404884
aF0.0
aF0.0
aF0.0
aF0.0
aF0.0
aF0.0
aF0.0
asS'Bacteria.Firmicutes.Clostridia.Monoglobales.Monoglobaceae'
p729
(lp730
F0.0
aF196.91029840860682
aF67.79258857525403
aF11569.197239375228
aF14310.051107325386
aF30204.33657535469
aF7360.672975814933
aF2011.6902515044505
aF533.3096306830807
aF391.9979563252614
aF8510.311202863855
aF676.9518213388752
asS'Bacteria.Firmicutes.Clostridia.Oscillospirales.Butyricicoccaceae.uncultured'
p731
(lp732
F0.0
aF0.0
aF0.0
aF8499.818379949145
aF0.0
aF7183.010618363523
aF0.0
aF0.0
aF0.0
aF0.0
aF0.0
aF0.0
asS'Bacteria.Firmicutes.Clostridia.Oscillospirales.UCG_010.UCG_010.uncultured_organism'
p733
(lp734
F0.0
aF0.0
aF211.85183929766887
aF0.0
aF0.0
aF0.0
aF0.0
aF0.0
aF0.0
aF0.0
aF0.0
aF0.0
asS'Bacteria.Cyanobacteria.Cyanobacteriia'
p735
(lp736
F0.0
aF0.0
aF0.0
aF0.0
aF454.2873367404884
aF0.0
aF0.0
aF0.0
aF0.0
aF0.0
aF0.0
aF0.0
asS'Bacteria.Chloroflexi.Anaerolineae.Anaerolineales.Anaerolineaceae'
p737
(lp738
F0.0
aF0.0
aF0.0
aF0.0
aF454.2873367404884
aF0.0
aF0.0
aF0.0
aF0.0
aF0.0
aF0.0
aF0.0
asS'Bacteria.Firmicutes.Bacilli.Lactobacillales.Lactobacillaceae'
p739
(lp740
F1294.8516950497308
aF25848.951900184387
aF59708.32238765499
aF5448.601525608427
aF13685.406019307213
aF4684.572142410993
aF0.0
aF8582.060557920273
aF122216.79036487268
aF18221.29826199558
aF87387.16974502007
aF37503.13090217368
asS'Bacteria.Chloroflexi'
p741
(lp742
F0.0
aF0.0
aF0.0
aF0.0
aF454.2873367404884
aF0.0
aF0.0
aF0.0
aF0.0
aF0.0
aF0.0
aF0.0
asS'Bacteria.Firmicutes.Clostridia.Lachnospirales.Lachnospiraceae._Eubacterium__xylanophilum_group'
p743
(lp744
F0.0
aF0.0
aF2830.340573016856
aF0.0
aF1476.4338444065875
aF0.0
aF0.0
aF0.0
aF0.0
aF0.0
aF0.0
aF0.0
asS'Bacteria.Firmicutes.Clostridia.Lachnospirales.Lachnospiraceae.GCA_900066575.uncultured_bacterium'
p745
(lp746
F8118.212342983362
aF0.0
aF228.79998644148236
aF871.7762440973484
aF0.0
aF0.0
aF0.0
aF0.0
aF607.3804127223975
aF1233.2519974277886
aF0.0
aF0.0
asS'Bacteria.Firmicutes.Clostridia.Oscillospirales.Butyricicoccaceae.uncultured.uncultured_bacterium'
p747
(lp748
F0.0
aF0.0
aF0.0
aF8499.818379949145
aF0.0
aF7183.010618363523
aF0.0
aF0.0
aF0.0
aF0.0
aF0.0
aF0.0
asS'Bacteria.Firmicutes.Clostridia.Peptostreptococcales_Tissierellales.Anaerovoracaceae.Anaerovorax.uncultured_bacterium'
p749
(lp750
F0.0
aF0.0
aF0.0
aF0.0
aF0.0
aF0.0
aF0.0
aF0.0
aF0.0
aF171.77438535601343
aF0.0
aF0.0
asS'Bacteria.Firmicutes.Clostridia'
p751
(lp752
F618596.355373317
aF819003.6338900526
aF771759.3024142637
aF826371.231383945
aF314082.9074389552
aF656955.4742571608
aF596214.5110410096
aF27973.718518774327
aF78115.04673866347
aF115154.90525981976
aF284733.0507543977
aF63586.084578360525
asS'Bacteria.Proteobacteria.Alphaproteobacteria.Rhodobacterales.Rhodobacteraceae.Rubellimicrobium.uncultured_bacterium'
p753
(lp754
F0.0
aF0.0
aF0.0
aF0.0
aF1249.2901760363432
aF0.0
aF0.0
aF0.0
aF0.0
aF0.0
aF0.0
aF0.0
asS'Bacteria.Firmicutes.Clostridia.Lachnospirales.Lachnospiraceae.GCA_900066575'
p755
(lp756
F8118.212342983362
aF0.0
aF228.79998644148236
aF871.7762440973484
aF0.0
aF0.0
aF0.0
aF0.0
aF607.3804127223975
aF1233.2519974277886
aF0.0
aF0.0
asS'Bacteria.Bacteroidota.Bacteroidia.Chitinophagales.Chitinophagaceae.Sediminibacterium'
p757
(lp758
F0.0
aF0.0
aF0.0
aF0.0
aF851.7887563884158
aF0.0
aF0.0
aF0.0
aF0.0
aF0.0
aF0.0
aF0.0
asS'Bacteria.Firmicutes.Bacilli.Erysipelotrichales.Erysipelotrichaceae'
p759
(lp760
F14903.489117533176
aF93335.48144567963
aF110162.95643478779
aF11169.633127497276
aF49574.10562180579
aF30516.641384848754
aF71503.68033648793
aF548.2503475130154
aF1288.8316074841118
aF885.298755296377
aF5001.866777941273
aF1279.4389423304742
asS'Bacteria.Actinobacteriota.Coriobacteriia.Coriobacteriales.Eggerthellaceae.Enterorhabdus'
p761
(lp762
F755.3301554456764
aF3974.007840610065
aF2279.5257908429166
aF1925.172539048311
aF4656.445201590006
aF1293.8342107611313
aF0.0
aF0.0
aF0.0
aF0.0
aF0.0
aF0.0
asS'Bacteria.Bacteroidota.Bacteroidia.Chitinophagales.Chitinophagaceae.Sediminibacterium.Sediminibacterium_sp_'
p763
(lp764
F0.0
aF0.0
aF0.0
aF0.0
aF851.7887563884158
aF0.0
aF0.0
aF0.0
aF0.0
aF0.0
aF0.0
aF0.0
asS'Bacteria.Firmicutes.Clostridia.Oscillospirales.Ruminococcaceae.Incertae_Sedis.Clostridium_sp_'
p765
(lp766
F983.8333957485701
aF0.0
aF0.0
aF0.0
aF0.0
aF0.0
aF0.0
aF0.0
aF0.0
aF0.0
aF3058.2215096743016
aF0.0
asS'Bacteria.Proteobacteria.Gammaproteobacteria.Burkholderiales.Comamonadaceae'
p767
(lp768
F0.0
aF0.0
aF161.00739786622833
aF2252.0886305848167
aF2839.2958546280524
aF758.4545373427322
aF8412.197686645637
aF0.0
aF0.0
aF0.0
aF0.0
aF0.0
asS'Bacteria.Firmicutes.Clostridia.Oscillospirales._Eubacterium__coprostanoligenes_group'
p769
(lp770
F26392.12425498422
aF48815.85306911553
aF38785.83473861722
aF25553.941155103523
aF6700.738216922205
aF13562.951726599447
aF0.0
aF0.0
aF19643.571396826806
aF52.853657032619516
aF16317.835416071857
aF2755.1939128492218
asS'Bacteria.Firmicutes.Clostridia.uncultured.uncultured.uncultured'
p771
(lp772
F0.0
aF0.0
aF186.42961858194857
aF599.3461678169269
aF0.0
aF713.8395645578656
aF0.0
aF0.0
aF0.0
aF0.0
aF1295.7635121779804
aF0.0
asS'Bacteria.Firmicutes.Clostridia.Lachnospirales.Lachnospiraceae.A2.uncultured_bacterium'
p773
(lp774
F4531.980932674058
aF0.0
aF0.0
aF0.0
aF0.0
aF0.0
aF0.0
aF0.0
aF0.0
aF0.0
aF0.0
aF0.0
asS'Bacteria.Firmicutes.Clostridia.Clostridia_UCG_014'
p775
(lp776
F92473.99188813496
aF221506.1847734637
aF53861.21162303933
aF336251.36215038144
aF128506.53038046566
aF97037.56580708484
aF74658.25446898003
aF0.0
aF488.8671614594908
aF0.0
aF395.31768168141775
aF1570.5282255061904
asS'Bacteria.Firmicutes.Clostridia.Oscillospirales.Ruminococcaceae._Eubacterium__siraeum_group'
p777
(lp778
F0.0
aF0.0
aF0.0
aF236.1060661096985
aF23395.79784213515
aF1561.524047470331
aF0.0
aF0.0
aF0.0
aF0.0
aF0.0
aF0.0
asS'Bacteria.Firmicutes.Clostridia.Lachnospirales.Lachnospiraceae.Fusicatenibacter'
p779
(lp780
F0.0
aF0.0
aF0.0
aF189774.79113694152
aF0.0
aF187561.34558757918
aF159130.73957237997
aF0.0
aF0.0
aF0.0
aF0.0
aF0.0
asS'Bacteria.Firmicutes.Clostridia.Oscillospirales.Ruminococcaceae.Fournierella'
p781
(lp782
F330.06023599306866
aF0.0
aF0.0
aF0.0
aF0.0
aF0.0
aF0.0
aF0.0
aF0.0
aF0.0
aF0.0
aF0.0
asS'Bacteria.Firmicutes.Bacilli.Erysipelotrichales.Erysipelatoclostridiaceae.Erysipelatoclostridium.uncultured_bacterium'
p783
(lp784
F0.0
aF0.0
aF0.0
aF1434.7984017435524
aF0.0
aF0.0
aF0.0
aF0.0
aF0.0
aF17.617885677539835
aF0.0
aF0.0
asS'Bacteria.Actinobacteriota.Actinobacteria.Pseudonocardiales.Pseudonocardiaceae.Pseudonocardia'
p785
(lp786
F0.0
aF0.0
aF0.0
aF0.0
aF0.0
aF0.0
aF5257.623554153524
aF0.0
aF0.0
aF0.0
aF0.0
aF0.0
asS'Bacteria.Firmicutes.Clostridia.Peptococcales.Peptococcaceae.Peptococcus.uncultured_bacterium'
p787
(lp788
F0.0
aF0.0
aF203.37776572576212
aF0.0
aF0.0
aF0.0
aF0.0
aF0.0
aF0.0
aF0.0
aF0.0
aF0.0
asS'Bacteria.Bacteroidota.Bacteroidia.Bacteroidales.Tannerellaceae.Parabacteroides.Parabacteroides_goldsteinii'
p789
(lp790
F7089.94776162034
aF0.0
aF152.53332429432157
aF217.9440610243371
aF0.0
aF5398.411706968859
aF0.0
aF25551.919739602665
aF2029.5394278772794
aF27545.56425683354
aF1658.1380537192802
aF2321.9447471923418
asS'Bacteria.Firmicutes.Clostridia.Eubacteriales'
p791
(lp792
F0.0
aF358.0187243792851
aF0.0
aF0.0
aF0.0
aF1695.368965824931
aF0.0
aF0.0
aF0.0
aF0.0
aF0.0
aF0.0
asS'Bacteria.Campilobacterota'
p793
(lp794
F0.0
aF0.0
aF0.0
aF2306.5746458409008
aF0.0
aF0.0
aF0.0
aF0.0
aF0.0
aF0.0
aF38.433663496804506
aF0.0
asS'Bacteria.Firmicutes.Clostridia.Lachnospirales.Lachnospiraceae.Blautia.Lachnospiraceae_bacterium'
p795
(lp796
F0.0
aF1074.0561731378552
aF1398.2221393646146
aF0.0
aF0.0
aF0.0
aF0.0
aF0.0
aF340.72559738085715
aF431.638199099726
aF6220.762963125644
aF961.2715863012028
asS'Bacteria.Chloroflexi.Anaerolineae.Anaerolineales.Anaerolineaceae.uncultured.uncultured_sludge'
p797
(lp798
F0.0
aF0.0
aF0.0
aF0.0
aF454.2873367404884
aF0.0
aF0.0
aF0.0
aF0.0
aF0.0
aF0.0
aF0.0
asS'Bacteria.Firmicutes.Clostridia.Oscillospirales.Oscillospiraceae.Papillibacter'
p799
(lp800
F3840.1238995347408
aF1378.3720888602477
aF389.80738430771066
aF0.0
aF0.0
aF0.0
aF0.0
aF0.0
aF1022.1767921425715
aF0.0
aF0.0
aF907.1154405940927
asS'Bacteria.Proteobacteria.Gammaproteobacteria.Enterobacterales'
p801
(lp802
F2018.4452893422274
aF7661.600701716701
aF7008.058843966886
aF5775.517617144933
aF21408.290743895515
aF12269.117515838316
aF30143.70837714687
aF8405.066351242844
aF1733.2562997200123
aF629.8394129720492
aF3113.126743241165
aF1441.9073794518042
asS'Bacteria.Firmicutes.Bacilli.Erysipelotrichales.Erysipelotrichaceae.uncultured.unidentified'
p803
(lp804
F418.92260722197176
aF0.0
aF0.0
aF272.43007628042136
aF0.0
aF0.0
aF0.0
aF0.0
aF0.0
aF0.0
aF0.0
aF0.0
asS'Bacteria.Verrucomicrobiota.Verrucomicrobiae.Verrucomicrobiales.Akkermansiaceae'
p805
(lp806
F87161.29155109267
aF5352.379929470313
aF6152.177413204304
aF1071.558300036324
aF908.5746734809768
aF55277.95128044972
aF142656.85243603226
aF137744.6621137425
aF0.0
aF0.0
aF269.03564447763154
aF40.61710928033251
asS'Bacteria.Firmicutes.Clostridia.Clostridia_vadinBB60_group.Clostridia_vadinBB60_group'
p807
(lp808
F387.1860460687921
aF340.11778816032086
aF67.79258857525403
aF563.022157646204
aF0.0
aF0.0
aF0.0
aF0.0
aF474.05300505162734
aF114.51625690400894
aF351.3934948279269
aF264.0112103221613
asS'Bacteria.Actinobacteriota.Coriobacteriia.Coriobacteriales.uncultured'
p809
(lp810
F596.647349679778
aF268.5140432844638
aF220.3259128695756
aF7246.640029059208
aF2385.0085178875643
aF3167.6630677255284
aF0.0
aF0.0
aF562.9379434988074
aF48.449185613234555
aF999.2752509169172
aF250.47217389538383
asS'Bacteria.Firmicutes.Clostridia.Lachnospirales.Lachnospiraceae._Eubacterium__ruminantium_group'
p811
(lp812
F50162.8085587158
aF14392.352720047262
aF18541.27297533198
aF0.0
aF0.0
aF0.0
aF0.0
aF0.0
aF0.0
aF0.0
aF0.0
aF0.0
asS'Bacteria.Firmicutes.Clostridia.Oscillospirales.Butyricicoccaceae.Butyricicoccus'
p813
(lp814
F406.2279827606999
aF0.0
aF0.0
aF0.0
aF511.0732538330495
aF0.0
aF0.0
aF0.0
aF0.0
aF295.09958509879226
aF384.3366349680451
aF236.9331374686063
asS'Bacteria.Firmicutes.Clostridia.Peptostreptococcales_Tissierellales.Anaerovoracaceae.Family_XIII_AD3011_group'
p815
(lp816
F0.0
aF0.0
aF305.06664858864315
aF0.0
aF0.0
aF0.0
aF0.0
aF73.3878417930808
aF0.0
aF0.0
aF0.0
aF0.0
asS'Bacteria.Firmicutes.Clostridia.Oscillospirales.Ruminococcaceae.Ruminococcaceae.uncultured_bacterium'
p817
(lp818
F0.0
aF0.0
aF0.0
aF0.0
aF0.0
aF0.0
aF0.0
aF0.0
aF0.0
aF0.0
aF982.803680846858
aF0.0
asS'Bacteria.Firmicutes.Clostridia.Clostridia_UCG_014.Clostridia_UCG_014.Clostridia_UCG_014.unidentified'
p819
(lp820
F7070.905824928433
aF33474.750729463165
aF6397.9255467896
aF21739.920087177627
aF12606.473594548554
aF0.0
aF0.0
aF0.0
aF0.0
aF0.0
aF0.0
aF0.0
asS'Bacteria.Firmicutes.Clostridia.Peptostreptococcales_Tissierellales.Anaerovoracaceae._Eubacterium__brachy_group'
p821
(lp822
F1231.3785727433715
aF358.0187243792851
aF211.85183929766887
aF0.0
aF0.0
aF0.0
aF0.0
aF0.0
aF0.0
aF48.449185613234555
aF214.13041091076798
aF0.0
asS'Bacteria.Firmicutes.Clostridia.Oscillospirales.Ruminococcaceae.Ruminococcus.unidentified'
p823
(lp824
F9584.441468260262
aF0.0
aF0.0
aF0.0
aF0.0
aF0.0
aF0.0
aF0.0
aF0.0
aF0.0
aF0.0
aF0.0
asS'Bacteria.Firmicutes.Clostridia.Oscillospirales.Ruminococcaceae.uncultured'
p825
(lp826
F76.16774676763123
aF0.0
aF0.0
aF780.9662186705413
aF0.0
aF0.0
aF0.0
aF0.0
aF0.0
aF83.68495696831424
aF301.97878461774974
aF142.15988248116378
asS'Bacteria.Patescibacteria.Saccharimonadia.Saccharimonadales.Saccharimonadaceae.Candidatus_Saccharimonas'
p827
(lp828
F2805.5120059410838
aF1181.4617904516408
aF3830.281254501853
aF2306.5746458409008
aF28279.386712095402
aF847.6844829124655
aF0.0
aF0.0
aF0.0
aF0.0
aF949.8605407067399
aF0.0
asS'Bacteria.Firmicutes.Bacilli.Lactobacillales.Lactobacillaceae.Lactobacillus.Lactobacillus_faecis'
p829
(lp830
F0.0
aF0.0
aF0.0
aF0.0
aF0.0
aF0.0
aF0.0
aF0.0
aF105313.8379035006
aF6769.672571594683
aF47416.15970834339
aF28228.890949831097
asS'Bacteria.Firmicutes.Clostridia.Oscillospirales.Ruminococcaceae.Anaerotruncus'
p831
(lp832
F311.0182993011609
aF0.0
aF0.0
aF0.0
aF0.0
aF0.0
aF0.0
aF0.0
aF0.0
aF0.0
aF0.0
aF0.0
asS'Bacteria.Firmicutes.Bacilli.Erysipelotrichales.Erysipelotrichaceae.Turicibacter'
p833
(lp834
F4500.244371520878
aF88591.7333476541
aF107247.87512605188
aF4068.2891391209587
aF9596.819988642817
aF1070.7593468367984
aF3855.590606379251
aF0.0
aF0.0
aF0.0
aF208.6398875540816
aF0.0
asS'Bacteria.Firmicutes.Clostridia.Lachnospirales.Lachnospiraceae.Tuzzerella.uncultured_bacterium'
p835
(lp836
F0.0
aF196.91029840860682
aF0.0
aF0.0
aF0.0
aF0.0
aF0.0
aF0.0
aF0.0
aF0.0
aF0.0
aF0.0
asS'Bacteria.Patescibacteria.Saccharimonadia'
p837
(lp838
F2805.5120059410838
aF1181.4617904516408
aF3830.281254501853
aF2415.5466763530694
aF28279.386712095402
aF847.6844829124655
aF0.0
aF0.0
aF0.0
aF0.0
aF949.8605407067399
aF0.0
asS'Bacteria.Campilobacterota.Campylobacteria.Campylobacterales.Helicobacteraceae.Helicobacter.Helicobacter_rodentium'
p839
(lp840
F0.0
aF0.0
aF0.0
aF2306.5746458409008
aF0.0
aF0.0
aF0.0
aF0.0
aF0.0
aF0.0
aF38.433663496804506
aF0.0
asS'Bacteria.Actinobacteriota.Coriobacteriia.Coriobacteriales.Eggerthellaceae.Adlercreutzia.uncultured_bacterium'
p841
(lp842
F0.0
aF0.0
aF0.0
aF6719.941881583727
aF0.0
aF5086.106897474792
aF16123.378899404139
aF0.0
aF0.0
aF0.0
aF0.0
aF0.0
asS'Bacteria.Actinobacteriota.Coriobacteriia.Coriobacteriales.Coriobacteriales_Incertae_Sedis'
p843
(lp844
F0.0
aF0.0
aF0.0
aF508.53614239011983
aF0.0
aF0.0
aF1752.5411847178414
aF0.0
aF0.0
aF0.0
aF0.0
aF0.0
asS'Bacteria'
p845
(lp846
F1000000.0
aF1000000.0
aF1000000.0
aF1000000.0
aF1000000.0
aF1000000.0
aF1000000.0
aF1000000.0
aF1000000.0
aF1000000.0
aF1000000.0
aF1000000.0
asS'Bacteria.Proteobacteria.Gammaproteobacteria.Burkholderiales.Comamonadaceae.Delftia'
p847
(lp848
F0.0
aF0.0
aF161.00739786622833
aF1925.172539048311
aF2839.2958546280524
aF758.4545373427322
aF8412.197686645637
aF0.0
aF0.0
aF0.0
aF0.0
aF0.0
asS'Bacteria.Firmicutes.Clostridia.Clostridia_vadinBB60_group.Clostridia_vadinBB60_group.Clostridia_vadinBB60_group.uncultured_Clostridia'
p849
(lp850
F0.0
aF0.0
aF0.0
aF0.0
aF0.0
aF0.0
aF0.0
aF0.0
aF237.02650252581367
aF114.51625690400894
aF137.26308391715895
aF0.0
asS'Bacteria.Chloroflexi.Anaerolineae'
p851
(lp852
F0.0
aF0.0
aF0.0
aF0.0
aF454.2873367404884
aF0.0
aF0.0
aF0.0
aF0.0
aF0.0
aF0.0
aF0.0
assS'subclass_sl'
p853
(dp854
g12
(I0
I7
tp855
sg10
(I7
I12
tp856
ssS'norm'
p857
F1000000.0
sS'cls'
p858
(dp859
S'class'
p860
(S'HSD-NR'
p861
S'HSD-NR'
p862
S'HSD-NR'
p863
S'HSD-NR'
p864
S'HSD-NR'
p865
S'HSD-NR'
p866
g5
S'NR'
p867
S'NR'
p868
S'NR'
p869
S'NR'
p870
g3
tp871
sS'subclass'
p872
(lp873
S'HSD-NR_subcl'
p874
aS'HSD-NR_subcl'
p875
aS'HSD-NR_subcl'
p876
aS'HSD-NR_subcl'
p877
aS'HSD-NR_subcl'
p878
aS'HSD-NR_subcl'
p879
ag12
aS'NR_subcl'
p880
aS'NR_subcl'
p881
aS'NR_subcl'
p882
aS'NR_subcl'
p883
ag10
asS'subject'
p884
(S'S210421121691'
p885
S'S210421121692'
p886
S'S210421121693'
p887
S'S210421121707'
p888
S'S210421121708'
p889
S'S210421121709'
p890
S'S210421121710'
p891
S'S210421121677'
p892
S'S210421121678'
p893
S'S210421121679'
p894
S'S210421121680'
p895
S'S210421121681'
p896
tp897
ss.