(dp0
S'class_sl'
p1
(dp2
S'NR'
p3
(I7
I12
tp4
sS'HSD-NR'
p5
(I0
I7
tp6
ssS'class_hierarchy'
p7
(dp8
g3
(lp9
S'NR_subcl'
p10
asg5
(lp11
S'HSD-NR_subcl'
p12
assS'feats'
p13
(dp14
S'Bacteria.Chloroflexi'
p15
(lp16
F0.0
aF0.0
aF0.0
aF0.0
aF454.28733674048834
aF0.0
aF0.0
aF0.0
aF0.0
aF0.0
aF0.0
aF0.0
asS'Bacteria.Actinobacteriota'
p17
(lp18
F12224.923356204816
aF19368.812988919322
aF17422.695263840276
aF22466.400290592082
aF21521.862578080636
aF103462.12188810566
aF37854.88958990537
aF56.12011431235593
aF992.5484793268447
aF105.70731406523905
aF9191.136099092964
aF2355.792338259286
asS'Bacteria.Firmicutes.Bacilli.Acholeplasmatales'
p19
(lp20
F0.0
aF0.0
aF0.0
aF254.26807119505992
aF0.0
aF0.0
aF0.0
aF0.0
aF0.0
aF0.0
aF0.0
aF0.0
asS'Bacteria.Actinobacteriota.Actinobacteria.Micrococcales'
p21
(lp22
F0.0
aF0.0
aF0.0
aF635.6701779876498
aF0.0
aF0.0
aF0.0
aF0.0
aF0.0
aF0.0
aF0.0
aF0.0
asS'Bacteria.Actinobacteriota.Actinobacteria.Streptomycetales'
p23
(lp24
F0.0
aF0.0
aF0.0
aF0.0
aF0.0
aF0.0
aF3505.0823694356823
aF0.0
aF0.0
aF0.0
aF0.0
aF0.0
asS'Bacteria.Firmicutes'
p25
(lp26
F637130.507086774
aF944990.422999123
aF949901.2770428872
aF856320.3777697057
aF393923.9068710959
aF695458.1957705006
aF667718.1913774974
aF43812.541550469265
aF205487.16353347257
aF137489.97982752096
aF385791.6236575669
aF109029.86034483925
asS'Bacteria.Actinobacteriota.Actinobacteria.Bifidobacteriales'
p27
(lp28
F1497.9656864300812
aF5943.110824696132
aF6762.3107103815855
aF0.0
aF13798.977853492335
aF48942.62514499866
aF5608.131791097092
aF0.0
aF0.0
aF0.0
aF6138.405112775348
aF0.0
asS'Bacteria.Desulfobacterota.Desulfovibrionia.Desulfovibrionales'
p29
(lp30
F0.0
aF0.0
aF0.0
aF12041.409371594624
aF14366.837024417944
aF0.0
aF0.0
aF0.0
aF0.0
aF0.0
aF0.0
aF0.0
asS'Bacteria.Proteobacteria.Gammaproteobacteria.Pseudomonadales'
p31
(lp32
F355.44948491561246
aF1933.3011116481393
aF457.59997288296444
aF1634.5804576825283
aF0.0
aF2766.1283126617295
aF15071.854188573434
aF0.0
aF0.0
aF290.69511367940737
aF164.71570070059073
aF148.92940069455258
asS'Bacteria.Firmicutes.Clostridia.Peptococcales'
p33
(lp34
F1072.6957669774733
aF0.0
aF483.02219359868474
aF780.9662186705413
aF0.0
aF847.6844829124655
aF0.0
aF228.79738911960493
aF0.0
aF1131.9491547819348
aF620.4291393055585
aF318.1673560292714
asS'Bacteria.Acidobacteriota'
p35
(lp36
F0.0
aF0.0
aF0.0
aF0.0
aF681.4310051107325
aF0.0
aF0.0
aF0.0
aF0.0
aF0.0
aF0.0
aF0.0
asS'Bacteria.Firmicutes.Clostridia'
p37
(lp38
F618596.3553733171
aF819003.6338900526
aF771759.3024142635
aF826371.2313839449
aF314082.9074389551
aF656955.4742571607
aF596214.5110410094
aF27973.71851877434
aF78115.04673866347
aF115154.90525981977
aF284733.0507543979
aF63586.08457836057
asS'Bacteria.Cyanobacteria.Cyanobacteriia'
p39
(lp40
F0.0
aF0.0
aF0.0
aF0.0
aF454.28733674048834
aF0.0
aF0.0
aF0.0
aF0.0
aF0.0
aF0.0
aF0.0
asS'Bacteria.Firmicutes.Clostridia.Clostridia_vadinBB60_group'
p41
(lp42
F387.18604606879217
aF340.1177881603208
aF67.79258857525399
aF563.0221576462042
aF0.0
aF0.0
aF0.0
aF0.0
aF474.05300505162734
aF114.51625690400896
aF351.3934948279269
aF264.01121032216133
asS'Bacteria.Firmicutes.Bacilli.RF39'
p43
(lp44
F2335.810900874025
aF5710.3986538495965
aF7008.058843966882
aF3432.618961133309
aF13912.549687677456
aF1115.374319621665
aF0.0
aF0.0
aF0.0
aF726.7377841985185
aF0.0
aF0.0
asS'Bacteria.Proteobacteria.Gammaproteobacteria.Pasteurellales'
p45
(lp46
F285.62905037861714
aF0.0
aF0.0
aF0.0
aF0.0
aF669.224591772999
aF0.0
aF0.0
aF0.0
aF0.0
aF0.0
aF0.0
asS'Bacteria.Acidobacteriota.Acidobacteriae'
p47
(lp48
F0.0
aF0.0
aF0.0
aF0.0
aF681.4310051107325
aF0.0
aF0.0
aF0.0
aF0.0
aF0.0
aF0.0
aF0.0
asS'Bacteria.Proteobacteria.Gammaproteobacteria'
p49
(lp50
F3719.5249671526594
aF12047.330075362943
aF9677.392019117508
aF12695.241554667637
aF30323.679727427596
aF29133.577228517894
aF63792.49912372941
aF14215.656648506774
aF2636.9198405996767
aF4593.863690418513
aF4073.968330661278
aF3025.9746413847724
asS'Bacteria.Deferribacterota.Deferribacteres'
p51
(lp52
F0.0
aF411.72153303617785
aF0.0
aF0.0
aF0.0
aF0.0
aF0.0
aF0.0
aF0.0
aF0.0
aF87.84837370698172
aF0.0
asS'Bacteria.Patescibacteria.Saccharimonadia.Saccharimonadales'
p53
(lp54
F2805.512005941084
aF1181.4617904516406
aF3830.2812545018505
aF2415.5466763530694
aF28279.386712095402
aF847.6844829124655
aF0.0
aF0.0
aF0.0
aF0.0
aF949.8605407067399
aF0.0
asS'Bacteria.Proteobacteria.Gammaproteobacteria.Burkholderiales'
p55
(lp56
F1060.0011425162015
aF2362.923580903281
aF2211.733202267662
aF5285.143479840174
aF8915.388983532084
aF13429.106808244847
aF18576.936558009114
aF5810.59029726393
aF903.6635408796647
aF3673.329163767057
aF796.1258867195219
aF1435.1378612384156
asS'Bacteria.Campilobacterota.Campylobacteria.Campylobacterales'
p57
(lp58
F0.0
aF0.0
aF0.0
aF2306.5746458409008
aF0.0
aF0.0
aF0.0
aF0.0
aF0.0
aF0.0
aF38.433663496804506
aF0.0
asS'Bacteria.Actinobacteriota.Actinobacteria'
p59
(lp60
F1497.9656864300812
aF5943.110824696132
aF6863.999593244466
aF635.6701779876498
aF13798.977853492335
aF80931.56063174801
aF14370.837714686297
aF0.0
aF0.0
aF0.0
aF6138.405112775348
aF372.32350173638144
asS'Bacteria.Patescibacteria'
p61
(lp62
F2805.512005941084
aF1181.4617904516406
aF3830.2812545018505
aF2415.5466763530694
aF28279.386712095402
aF847.6844829124655
aF0.0
aF0.0
aF0.0
aF0.0
aF949.8605407067399
aF0.0
asS'Bacteria.Proteobacteria.Alphaproteobacteria.Rhizobiales'
p63
(lp64
F0.0
aF0.0
aF135.58517715050797
aF0.0
aF0.0
aF223.07486392433302
aF0.0
aF38.85238683163103
aF0.0
aF74.87601412954433
aF0.0
aF0.0
asS'Bacteria.Firmicutes.Clostridia.Oscillospirales'
p65
(lp66
F124070.91217224067
aF102303.85049138071
aF79732.5582380706
aF134053.75953505267
aF90232.8222600795
aF230302.4895154814
aF259025.5871012969
aF8098.564188459978
aF57715.953365035624
aF30567.031650531622
aF80200.07467111763
aF37740.0640396423
asS'Bacteria.Campilobacterota.Campylobacteria'
p67
(lp68
F0.0
aF0.0
aF0.0
aF2306.5746458409008
aF0.0
aF0.0
aF0.0
aF0.0
aF0.0
aF0.0
aF38.433663496804506
aF0.0
asS'Bacteria.Firmicutes.Clostridia.Clostridiales'
p69
(lp70
F25611.404850616007
aF190841.8810303779
aF293846.9751794385
aF10352.342898656012
aF14991.482112436117
aF1606.1390202551977
aF0.0
aF0.0
aF0.0
aF0.0
aF290.997737904377
aF0.0
asS'Bacteria'
p71
(lp72
F1000000.0
aF1000000.0
aF1000000.0
aF1000000.0
aF1000000.0
aF1000000.0
aF1000000.0
aF1000000.0
aF1000000.0
aF1000000.0
aF1000000.0
aF1000000.0
asS'Bacteria.Firmicutes.Clostridia.Peptostreptococcales_Tissierellales'
p73
(lp74
F13881.571848400794
aF202602.79612623743
aF236697.82301049933
aF26207.773338176536
aF7041.453719477569
aF5086.106897474792
aF5257.623554153523
aF1381.418198457992
aF1748.0704561278758
aF3761.418592154756
aF53653.39424153909
aF4569.424794037409
asS'Bacteria.Actinobacteriota.Actinobacteria.Corynebacteriales'
p75
(lp76
F0.0
aF0.0
aF0.0
aF0.0
aF0.0
aF0.0
aF0.0
aF0.0
aF0.0
aF0.0
aF0.0
aF372.32350173638144
asS'Bacteria.Verrucomicrobiota'
p77
(lp78
F87161.29155109268
aF5352.379929470312
aF6152.1774132043
aF1071.558300036324
aF908.5746734809767
aF55277.95128044972
aF142656.85243603226
aF137744.66211374255
aF0.0
aF0.0
aF269.03564447763154
aF40.61710928033252
asS'Bacteria.Firmicutes.Bacilli.Staphylococcales'
p79
(lp80
F0.0
aF0.0
aF0.0
aF908.1002542680712
aF1930.7211811470754
aF0.0
aF0.0
aF0.0
aF414.79637942017393
aF273.0772280018675
aF466.69448531834047
aF1638.2234076400782
asS'Bacteria.Chloroflexi.Anaerolineae.Anaerolineales'
p81
(lp82
F0.0
aF0.0
aF0.0
aF0.0
aF454.28733674048834
aF0.0
aF0.0
aF0.0
aF0.0
aF0.0
aF0.0
aF0.0
asS'Bacteria.Proteobacteria.Alphaproteobacteria'
p83
(lp84
F0.0
aF0.0
aF135.58517715050797
aF0.0
aF1249.290176036343
aF223.07486392433302
aF0.0
aF38.85238683163103
aF0.0
aF74.87601412954433
aF126.28203720378625
aF0.0
asS'Bacteria.Verrucomicrobiota.Verrucomicrobiae.Verrucomicrobiales'
p85
(lp86
F87161.29155109268
aF5352.379929470312
aF6152.1774132043
aF1071.558300036324
aF908.5746734809767
aF55277.95128044972
aF142656.85243603226
aF137744.66211374255
aF0.0
aF0.0
aF269.03564447763154
aF40.61710928033252
asS'Bacteria.Firmicutes.Clostridia.Christensenellales'
p87
(lp88
F4785.873421899497
aF787.6411936344272
aF525.3925614582184
aF13893.933890301489
aF21294.71890971039
aF1561.524047470331
aF0.0
aF146.77568358616165
aF0.0
aF0.0
aF263.5451211209452
aF74.46470034727629
asS'Bacteria.Bacteroidota.Bacteroidia.Bacteroidales'
p89
(lp90
F256907.46253498958
aF16647.870683636756
aF12880.591829298259
aF89102.79694878314
aF506984.66780238505
aF115597.39448558936
aF87977.56747283562
aF804132.1671861375
aF790068.5895441683
aF857735.573153866
aF599307.095952386
aF885107.7368823661
asS'Bacteria.Actinobacteriota.Coriobacteriia'
p91
(lp92
F10726.957669774734
aF13425.70216422319
aF10558.69567059581
aF21830.730112604433
aF7722.884724588302
aF22530.561256357632
aF23484.05187521907
aF56.12011431235593
aF992.5484793268447
aF105.70731406523905
aF3052.730986317615
aF1983.4688365229047
asS'Bacteria.Firmicutes.Bacilli.Lactobacillales'
p93
(lp94
F1294.8516950497312
aF25848.951900184384
aF59708.32238765496
aF6701.779876498365
aF13685.406019307211
aF5309.181761399126
aF0.0
aF9246.868065928184
aF124350.02888760499
aF18666.14987535346
aF89264.9287330068
aF39946.92697720703
asS'Bacteria.Firmicutes.Clostridia.Clostridia_UCG_014'
p95
(lp96
F92473.99188813497
aF221506.18477346367
aF53861.2116230393
aF336251.36215038144
aF128506.53038046564
aF97037.56580708486
aF74658.25446898003
aF0.0
aF488.86716145949066
aF0.0
aF395.31768168141775
aF1570.528225506191
asS'Bacteria.Cyanobacteria'
p97
(lp98
F50.77849784508749
aF0.0
aF0.0
aF1325.826371231384
aF454.28733674048834
aF0.0
aF0.0
aF0.0
aF814.7786024324845
aF0.0
aF164.71570070059073
aF440.01868387026894
asS'Bacteria.Chloroflexi.Anaerolineae'
p99
(lp100
F0.0
aF0.0
aF0.0
aF0.0
aF454.28733674048834
aF0.0
aF0.0
aF0.0
aF0.0
aF0.0
aF0.0
aF0.0
asS'Bacteria.Proteobacteria.Alphaproteobacteria.Caulobacterales'
p101
(lp102
F0.0
aF0.0
aF0.0
aF0.0
aF0.0
aF0.0
aF0.0
aF0.0
aF0.0
aF0.0
aF49.41471021017722
aF0.0
asS'Bacteria.Firmicutes.Clostridia.Clostridia'
p103
(lp104
F57.125810075723436
aF0.0
aF0.0
aF0.0
aF0.0
aF0.0
aF0.0
aF0.0
aF0.0
aF0.0
aF0.0
aF0.0
asS'Bacteria.Proteobacteria'
p105
(lp106
F3719.5249671526594
aF12047.330075362943
aF9812.977196268015
aF12695.241554667637
aF31572.96990346394
aF29356.652092442226
aF63792.49912372941
aF14254.509035338406
aF2636.9198405996767
aF4668.7397045480575
aF4200.250367865063
aF3025.9746413847724
asS'Bacteria.Campilobacterota'
p107
(lp108
F0.0
aF0.0
aF0.0
aF2306.5746458409008
aF0.0
aF0.0
aF0.0
aF0.0
aF0.0
aF0.0
aF38.433663496804506
aF0.0
asS'Bacteria.Bacteroidota.Bacteroidia'
p109
(lp110
F256907.46253498958
aF16647.870683636756
aF12880.591829298259
aF89357.06501997821
aF507836.4565587734
aF115597.39448558936
aF87977.56747283562
aF804132.1671861375
aF790068.5895441683
aF857735.573153866
aF599307.095952386
aF885107.7368823661
asS'Bacteria.Firmicutes.Clostridia.Lachnospirales'
p111
(lp112
F356255.5935689032
aF100066.23346401018
aF106290.30481242636
aF292099.5277878678
aF37705.84894946053
aF287900.41938074416
aF249912.37294076412
aF16106.47280764615
aF17154.793120305763
aF79187.9916491222
aF139151.82395185906
aF18372.472431137074
asS'Bacteria.Desulfobacterota.Desulfovibrionia'
p113
(lp114
F0.0
aF0.0
aF0.0
aF12041.409371594624
aF14366.837024417944
aF0.0
aF0.0
aF0.0
aF0.0
aF0.0
aF0.0
aF0.0
asS'Bacteria.Bacteroidota.Bacteroidia.Chitinophagales'
p115
(lp116
F0.0
aF0.0
aF0.0
aF0.0
aF851.7887563884157
aF0.0
aF0.0
aF0.0
aF0.0
aF0.0
aF0.0
aF0.0
asS'Bacteria.Bacteroidota'
p117
(lp118
F256907.46253498958
aF16647.870683636756
aF12880.591829298259
aF89357.06501997821
aF507836.4565587734
aF115597.39448558936
aF87977.56747283562
aF804132.1671861375
aF790068.5895441683
aF857735.573153866
aF599307.095952386
aF885107.7368823661
asS'Bacteria.Desulfobacterota'
p119
(lp120
F0.0
aF0.0
aF0.0
aF12041.409371594624
aF14366.837024417944
aF0.0
aF0.0
aF0.0
aF0.0
aF0.0
aF0.0
aF0.0
asS'Bacteria.Patescibacteria.Saccharimonadia'
p121
(lp122
F2805.512005941084
aF1181.4617904516406
aF3830.2812545018505
aF2415.5466763530694
aF28279.386712095402
aF847.6844829124655
aF0.0
aF0.0
aF0.0
aF0.0
aF949.8605407067399
aF0.0
asS'Bacteria.Actinobacteriota.Coriobacteriia.Coriobacteriales'
p123
(lp124
F10726.957669774734
aF13425.70216422319
aF10558.69567059581
aF21830.730112604433
aF7722.884724588302
aF22530.561256357632
aF23484.05187521907
aF56.12011431235593
aF992.5484793268447
aF105.70731406523905
aF3052.730986317615
aF1983.4688365229047
asS'Bacteria.Proteobacteria.Alphaproteobacteria.Rhodobacterales'
p125
(lp126
F0.0
aF0.0
aF0.0
aF0.0
aF1249.290176036343
aF0.0
aF0.0
aF0.0
aF0.0
aF0.0
aF0.0
aF0.0
asS'Bacteria.Firmicutes.Bacilli.Exiguobacterales'
p127
(lp128
F0.0
aF0.0
aF0.0
aF0.0
aF0.0
aF713.8395645578656
aF0.0
aF0.0
aF0.0
aF0.0
aF0.0
aF0.0
asS'Bacteria.Firmicutes.Clostridia.Eubacteriales'
p129
(lp130
F0.0
aF358.0187243792851
aF0.0
aF0.0
aF0.0
aF1695.368965824931
aF0.0
aF0.0
aF0.0
aF0.0
aF0.0
aF0.0
asS'Bacteria.Cyanobacteria.Cyanobacteriia.Chloroplast'
p131
(lp132
F0.0
aF0.0
aF0.0
aF0.0
aF454.28733674048834
aF0.0
aF0.0
aF0.0
aF0.0
aF0.0
aF0.0
aF0.0
asS'Bacteria.Bacteroidota.Bacteroidia.Flavobacteriales'
p133
(lp134
F0.0
aF0.0
aF0.0
aF254.26807119505992
aF0.0
aF0.0
aF0.0
aF0.0
aF0.0
aF0.0
aF0.0
aF0.0
asS'Bacteria.Proteobacteria.Gammaproteobacteria.Enterobacterales'
p135
(lp136
F2018.4452893422279
aF7661.6007017167
aF7008.058843966882
aF5775.517617144933
aF21408.290743895515
aF12269.117515838316
aF30143.708377146868
aF8405.066351242845
aF1733.2562997200123
aF629.8394129720493
aF3113.126743241165
aF1441.9073794518044
asS'Bacteria.Firmicutes.Clostridia.Monoglobales'
p137
(lp138
F0.0
aF196.9102984086068
aF67.79258857525399
aF11569.197239375228
aF14310.051107325384
aF30204.33657535469
aF7360.672975814933
aF2011.6902515044512
aF533.3096306830807
aF391.99795632526144
aF8510.311202863855
aF676.9518213388753
asS'Bacteria.Firmicutes.Bacilli'
p139
(lp140
F0.0
aF1091.9571093568195
aF1262.6369622141056
aF563.0221576462042
aF738.2169222032936
aF847.6844829124655
aF0.0
aF5901.245866537735
aF1318.4599202998386
aF1435.857682719497
aF6187.819822985525
aF2288.097156125398
asS'Bacteria.Cyanobacteria.Vampirivibrionia'
p141
(lp142
F50.77849784508749
aF0.0
aF0.0
aF1325.826371231384
aF0.0
aF0.0
aF0.0
aF0.0
aF814.7786024324845
aF0.0
aF164.71570070059073
aF440.01868387026894
asS'Bacteria.Proteobacteria.Gammaproteobacteria.Xanthomonadales'
p143
(lp144
F0.0
aF89.50468109482128
aF0.0
aF0.0
aF0.0
aF0.0
aF0.0
aF0.0
aF0.0
aF0.0
aF0.0
aF0.0
asS'Bacteria.Cyanobacteria.Vampirivibrionia.Gastranaerophilales'
p145
(lp146
F50.77849784508749
aF0.0
aF0.0
aF1325.826371231384
aF0.0
aF0.0
aF0.0
aF0.0
aF814.7786024324845
aF0.0
aF164.71570070059073
aF440.01868387026894
asS'Bacteria.Deferribacterota.Deferribacteres.Deferribacterales'
p147
(lp148
F0.0
aF411.72153303617785
aF0.0
aF0.0
aF0.0
aF0.0
aF0.0
aF0.0
aF0.0
aF0.0
aF87.84837370698172
aF0.0
asS'Bacteria.Verrucomicrobiota.Verrucomicrobiae'
p149
(lp150
F87161.29155109268
aF5352.379929470312
aF6152.1774132043
aF1071.558300036324
aF908.5746734809767
aF55277.95128044972
aF142656.85243603226
aF137744.66211374255
aF0.0
aF0.0
aF269.03564447763154
aF40.61710928033252
asS'Bacteria.Proteobacteria.Alphaproteobacteria.Rickettsiales'
p151
(lp152
F0.0
aF0.0
aF0.0
aF0.0
aF0.0
aF0.0
aF0.0
aF0.0
aF0.0
aF0.0
aF76.86732699360901
aF0.0
asS'Bacteria.Deferribacterota'
p153
(lp154
F0.0
aF411.72153303617785
aF0.0
aF0.0
aF0.0
aF0.0
aF0.0
aF0.0
aF0.0
aF0.0
aF87.84837370698172
aF0.0
asS'Bacteria.Actinobacteriota.Actinobacteria.Pseudonocardiales'
p155
(lp156
F0.0
aF0.0
aF101.688882862881
aF0.0
aF0.0
aF31988.935486749353
aF5257.623554153523
aF0.0
aF0.0
aF0.0
aF0.0
aF0.0
asS'Bacteria.Firmicutes.Clostridia.uncultured'
p157
(lp158
F0.0
aF0.0
aF186.4296185819485
aF599.3461678169269
aF0.0
aF713.8395645578656
aF0.0
aF0.0
aF0.0
aF0.0
aF1295.7635121779804
aF0.0
asS'Bacteria.Firmicutes.Bacilli.Erysipelotrichales'
p159
(lp160
F14903.48911753318
aF93335.48144567962
aF110162.95643478775
aF18089.35706501998
aF49574.10562180579
aF30516.641384848754
aF71503.68033648792
aF690.709099228996
aF1288.8316074841118
aF1233.2519974277889
aF5139.129861858431
aF1570.528225506191
asS'Bacteria.Acidobacteriota.Acidobacteriae.Bryobacterales'
p161
(lp162
F0.0
aF0.0
aF0.0
aF0.0
aF681.4310051107325
aF0.0
aF0.0
aF0.0
aF0.0
aF0.0
aF0.0
aF0.0
assS'subclass_sl'
p163
(dp164
g12
(I0
I7
tp165
sg10
(I7
I12
tp166
ssS'norm'
p167
F1000000.0
sS'cls'
p168
(dp169
S'class'
p170
(S'HSD-NR'
p171
S'HSD-NR'
p172
S'HSD-NR'
p173
S'HSD-NR'
p174
S'HSD-NR'
p175
S'HSD-NR'
p176
g5
S'NR'
p177
S'NR'
p178
S'NR'
p179
S'NR'
p180
g3
tp181
sS'subclass'
p182
(lp183
S'HSD-NR_subcl'
p184
aS'HSD-NR_subcl'
p185
aS'HSD-NR_subcl'
p186
aS'HSD-NR_subcl'
p187
aS'HSD-NR_subcl'
p188
aS'HSD-NR_subcl'
p189
ag12
aS'NR_subcl'
p190
aS'NR_subcl'
p191
aS'NR_subcl'
p192
aS'NR_subcl'
p193
ag10
asS'subject'
p194
(S'S210421121691'
p195
S'S210421121692'
p196
S'S210421121693'
p197
S'S210421121707'
p198
S'S210421121708'
p199
S'S210421121709'
p200
S'S210421121710'
p201
S'S210421121677'
p202
S'S210421121678'
p203
S'S210421121679'
p204
S'S210421121680'
p205
S'S210421121681'
p206
tp207
ss.