(dp0
S'class_sl'
p1
(dp2
S'NR'
p3
(I7
I12
tp4
sS'HSD-NR'
p5
(I0
I7
tp6
ssS'class_hierarchy'
p7
(dp8
g3
(lp9
S'NR_subcl'
p10
asg5
(lp11
S'HSD-NR_subcl'
p12
assS'feats'
p13
(dp14
S'Bacteria.Firmicutes.Clostridia.Oscillospirales.Ruminococcaceae.Ruminococcaceae'
p15
(lp16
F0.0
aF0.0
aF0.0
aF0.0
aF0.0
aF0.0
aF0.0
aF0.0
aF0.0
aF0.0
aF982.8036808468584
aF0.0
asS'Bacteria.Firmicutes.Bacilli.Acholeplasmatales'
p17
(lp18
F0.0
aF0.0
aF0.0
aF254.26807119505992
aF0.0
aF0.0
aF0.0
aF0.0
aF0.0
aF0.0
aF0.0
aF0.0
asS'Bacteria.Campilobacterota.Campylobacteria.Campylobacterales.Helicobacteraceae.Helicobacter'
p19
(lp20
F0.0
aF0.0
aF0.0
aF2306.5746458409008
aF0.0
aF0.0
aF0.0
aF0.0
aF0.0
aF0.0
aF38.43366349680452
aF0.0
asS'Bacteria.Firmicutes.Clostridia.Oscillospirales.UCG_010'
p21
(lp22
F615.6892863716859
aF0.0
aF322.0147957324568
aF653.8321830730113
aF0.0
aF0.0
aF0.0
aF0.0
aF399.98222301231056
aF0.0
aF422.7702984648497
aF284.31976496232767
asS'Bacteria.Firmicutes.Clostridia.Oscillospirales.Butyricicoccaceae'
p23
(lp24
F406.22798276069994
aF1109.8580455757835
aF262.69628072910945
aF9607.700690156193
aF511.0732538330495
aF7183.010618363523
aF3505.0823694356823
aF0.0
aF0.0
aF532.9410417455802
aF543.5618123119497
aF324.93687424266017
asS'Bacteria.Desulfobacterota.Desulfovibrionia.Desulfovibrionales.Desulfovibrionaceae.Desulfovibrio'
p25
(lp26
F0.0
aF0.0
aF0.0
aF12041.409371594624
aF14366.837024417946
aF0.0
aF0.0
aF0.0
aF0.0
aF0.0
aF0.0
aF0.0
asS'Bacteria.Actinobacteriota.Actinobacteria.Bifidobacteriales'
p27
(lp28
F1497.9656864300812
aF5943.110824696131
aF6762.310710381592
aF0.0
aF13798.977853492335
aF48942.62514499866
aF5608.131791097092
aF0.0
aF0.0
aF0.0
aF6138.40511277535
aF0.0
asS'Bacteria.Cyanobacteria.Vampirivibrionia.Gastranaerophilales.Gastranaerophilales'
p29
(lp30
F50.77849784508749
aF0.0
aF0.0
aF1325.826371231384
aF0.0
aF0.0
aF0.0
aF0.0
aF814.7786024324845
aF0.0
aF164.7157007005908
aF440.018683870269
asS'Bacteria.Firmicutes.Clostridia.Clostridiales.Clostridiaceae.Candidatus_Arthromitus'
p31
(lp32
F736.2882187537688
aF0.0
aF0.0
aF599.3461678169269
aF0.0
aF0.0
aF0.0
aF0.0
aF0.0
aF0.0
aF0.0
aF0.0
asS'Bacteria.Acidobacteriota.Acidobacteriae.Bryobacterales'
p33
(lp34
F0.0
aF0.0
aF0.0
aF0.0
aF681.4310051107326
aF0.0
aF0.0
aF0.0
aF0.0
aF0.0
aF0.0
aF0.0
asS'Bacteria.Proteobacteria.Alphaproteobacteria.Caulobacterales.Caulobacteraceae.Brevundimonas'
p35
(lp36
F0.0
aF0.0
aF0.0
aF0.0
aF0.0
aF0.0
aF0.0
aF0.0
aF0.0
aF0.0
aF49.41471021017724
aF0.0
asS'Bacteria.Actinobacteriota.Actinobacteria.Streptomycetales'
p37
(lp38
F0.0
aF0.0
aF0.0
aF0.0
aF0.0
aF0.0
aF3505.0823694356823
aF0.0
aF0.0
aF0.0
aF0.0
aF0.0
asS'Bacteria.Firmicutes.Clostridia.Lachnospirales.Lachnospiraceae.Lachnospiraceae_UCG_006'
p39
(lp40
F1148.8635137451047
aF4546.83779961692
aF3398.10350233461
aF4431.5292408281875
aF0.0
aF0.0
aF0.0
aF0.0
aF0.0
aF0.0
aF911.4268772099358
aF419.7101292301027
asS'Bacteria.Firmicutes.Clostridia.Oscillospirales.Oscillospiraceae.Intestinimonas'
p41
(lp42
F0.0
aF0.0
aF0.0
aF0.0
aF0.0
aF0.0
aF0.0
aF90.65556927380574
aF0.0
aF0.0
aF0.0
aF0.0
asS'Bacteria.Bacteroidota.Bacteroidia.Bacteroidales.Prevotellaceae.Prevotellaceae_UCG_003'
p43
(lp44
F0.0
aF0.0
aF0.0
aF0.0
aF0.0
aF0.0
aF3154.5741324921137
aF0.0
aF0.0
aF0.0
aF0.0
aF0.0
asS'Bacteria.Proteobacteria.Gammaproteobacteria.Xanthomonadales.Xanthomonadaceae.Stenotrophomonas'
p45
(lp46
F0.0
aF89.50468109482127
aF0.0
aF0.0
aF0.0
aF0.0
aF0.0
aF0.0
aF0.0
aF0.0
aF0.0
aF0.0
asS'Bacteria.Bacteroidota.Bacteroidia.Bacteroidales.Prevotellaceae.Prevotellaceae_UCG_001'
p47
(lp48
F5027.071286663662
aF304.3159157223923
aF0.0
aF2560.842717035961
aF5053.946621237933
aF758.4545373427322
aF0.0
aF86299.78501679287
aF62486.11172836763
aF71916.20933571763
aF25031.295983133114
aF65454.471605255865
asS'Bacteria.Firmicutes.Clostridia.Lachnospirales.Lachnospiraceae.Lachnospiraceae_UCG_001'
p49
(lp50
F0.0
aF2810.4469863773875
aF5703.051513893248
aF0.0
aF0.0
aF0.0
aF0.0
aF0.0
aF0.0
aF0.0
aF0.0
aF0.0
asS'Bacteria.Proteobacteria.Gammaproteobacteria'
p51
(lp52
F3719.5249671526594
aF12047.33007536294
aF9677.392019117518
aF12695.241554667637
aF30323.6797274276
aF29133.57722851789
aF63792.49912372942
aF14215.656648506774
aF2636.9198405996767
aF4593.863690418513
aF4073.968330661279
aF3025.9746413847733
asS'Bacteria.Firmicutes.Clostridia.Clostridia_vadinBB60_group.Clostridia_vadinBB60_group'
p53
(lp54
F387.18604606879217
aF340.1177881603208
aF67.79258857525406
aF563.0221576462042
aF0.0
aF0.0
aF0.0
aF0.0
aF474.05300505162734
aF114.51625690400897
aF351.39349482792704
aF264.0112103221614
asS'Bacteria.Actinobacteriota.Actinobacteria.Micrococcales.Micrococcaceae.Rothia'
p55
(lp56
F0.0
aF0.0
aF0.0
aF417.72611696331273
aF0.0
aF0.0
aF0.0
aF0.0
aF0.0
aF0.0
aF0.0
aF0.0
asS'Bacteria.Firmicutes.Clostridia.Lachnospirales.Lachnospiraceae.Tyzzerella'
p57
(lp58
F120.59893238208281
aF0.0
aF0.0
aF0.0
aF0.0
aF0.0
aF0.0
aF0.0
aF0.0
aF0.0
aF0.0
aF0.0
asS'Bacteria.Bacteroidota'
p59
(lp60
F256907.46253498952
aF16647.870683636753
aF12880.591829298271
aF89357.06501997821
aF507836.45655877347
aF115597.39448558938
aF87977.56747283562
aF804132.1671861376
aF790068.5895441684
aF857735.573153866
aF599307.0959523863
aF885107.7368823662
asS'Bacteria.Firmicutes.Bacilli.Erysipelotrichales.Erysipelatoclostridiaceae.Erysipelotrichaceae_UCG_003'
p61
(lp62
F0.0
aF0.0
aF0.0
aF5484.92553577915
aF0.0
aF0.0
aF0.0
aF0.0
aF0.0
aF0.0
aF0.0
aF0.0
asS'Bacteria.Bacteroidota.Bacteroidia.Chitinophagales.Chitinophagaceae'
p63
(lp64
F0.0
aF0.0
aF0.0
aF0.0
aF851.7887563884158
aF0.0
aF0.0
aF0.0
aF0.0
aF0.0
aF0.0
aF0.0
asS'Bacteria.Bacteroidota.Bacteroidia.Bacteroidales.Rikenellaceae'
p65
(lp66
F3922.638958533009
aF608.6318314447846
aF322.0147957324568
aF1144.2063203777698
aF0.0
aF4283.0373873471935
aF0.0
aF0.0
aF2918.388812349081
aF11751.129746919076
aF444.73239189159517
aF1428.3683430250271
asS'Bacteria.Acidobacteriota'
p67
(lp68
F0.0
aF0.0
aF0.0
aF0.0
aF681.4310051107326
aF0.0
aF0.0
aF0.0
aF0.0
aF0.0
aF0.0
aF0.0
asS'Bacteria.Verrucomicrobiota.Verrucomicrobiae.Verrucomicrobiales.Akkermansiaceae.Akkermansia'
p69
(lp70
F87161.29155109268
aF5352.379929470311
aF6152.177413204306
aF1071.558300036324
aF908.5746734809768
aF55277.95128044972
aF142656.85243603226
aF137744.66211374255
aF0.0
aF0.0
aF269.03564447763165
aF40.61710928033252
asS'Bacteria.Bacteroidota.Bacteroidia.Bacteroidales.Muribaculaceae.Muribaculum'
p71
(lp72
F875.9290878277593
aF0.0
aF0.0
aF0.0
aF0.0
aF0.0
aF0.0
aF13447.242775614517
aF5896.034250329615
aF13521.72725751183
aF5402.674982979378
aF11156.166015664665
asS'Bacteria.Bacteroidota.Bacteroidia.Bacteroidales.Rikenellaceae.Alistipes'
p73
(lp74
F3922.638958533009
aF608.6318314447846
aF322.0147957324568
aF1144.2063203777698
aF0.0
aF4283.0373873471935
aF0.0
aF0.0
aF2918.388812349081
aF11751.129746919076
aF444.73239189159517
aF1428.3683430250271
asS'Bacteria.Firmicutes.Clostridia.Lachnospirales.Lachnospiraceae.Lachnospiraceae_NK4A136_group'
p75
(lp76
F110373.41237852832
aF47670.193151101805
aF41319.58273661735
aF4086.45114420632
aF8290.743895513913
aF5309.181761399126
aF0.0
aF328.0868221337731
aF9555.130883071864
aF28699.535768712405
aF62432.7410888806
aF11325.403970999387
asS'Bacteria.Firmicutes.Bacilli.Exiguobacterales.Exiguobacteraceae.Exiguobacterium'
p77
(lp78
F0.0
aF0.0
aF0.0
aF0.0
aF0.0
aF713.8395645578656
aF0.0
aF0.0
aF0.0
aF0.0
aF0.0
aF0.0
asS'Bacteria.Firmicutes.Clostridia.Lachnospirales.Lachnospiraceae.Roseburia'
p79
(lp80
F18051.755983928604
aF769.7402574154628
aF1593.1258315184702
aF2034.1445695604793
aF0.0
aF356.9197822789328
aF0.0
aF4999.007105669859
aF0.0
aF6628.729486174366
aF1273.8014187512354
aF0.0
asS'Bacteria.Firmicutes.Clostridia.Lachnospirales.Lachnospiraceae.Anaerostipes'
p81
(lp82
F0.0
aF0.0
aF0.0
aF3051.2168543407192
aF0.0
aF0.0
aF0.0
aF0.0
aF0.0
aF57.258128452004485
aF0.0
aF0.0
asS'Bacteria.Firmicutes.Clostridia.Peptococcales.Peptococcaceae.Peptococcus'
p83
(lp84
F0.0
aF0.0
aF203.37776572576217
aF0.0
aF0.0
aF0.0
aF0.0
aF0.0
aF0.0
aF0.0
aF0.0
aF0.0
asS'Bacteria.Firmicutes.Bacilli.Erysipelotrichales.Erysipelotrichaceae.uncultured'
p85
(lp86
F691.8570331393172
aF805.5421298533913
aF330.4888693043635
aF2669.814747548129
aF14366.837024417946
aF0.0
aF0.0
aF0.0
aF1288.8316074841118
aF110.11178548462401
aF499.6376254584588
aF839.4202584602054
asS'Bacteria.Firmicutes.Clostridia.Lachnospirales.Lachnospiraceae.Lachnospiraceae_NC2004_group'
p87
(lp88
F380.83873383815626
aF0.0
aF0.0
aF0.0
aF0.0
aF0.0
aF0.0
aF0.0
aF0.0
aF149.75202825908866
aF0.0
aF0.0
asS'Bacteria.Cyanobacteria.Cyanobacteriia.Chloroplast.Chloroplast'
p89
(lp90
F0.0
aF0.0
aF0.0
aF0.0
aF454.2873367404884
aF0.0
aF0.0
aF0.0
aF0.0
aF0.0
aF0.0
aF0.0
asS'Bacteria.Actinobacteriota.Actinobacteria.Bifidobacteriales.Bifidobacteriaceae.Bifidobacterium'
p91
(lp92
F1497.9656864300812
aF5943.110824696131
aF6762.310710381592
aF0.0
aF13798.977853492335
aF48942.62514499866
aF5608.131791097092
aF0.0
aF0.0
aF0.0
aF6138.40511277535
aF0.0
asS'Bacteria.Bacteroidota.Bacteroidia'
p93
(lp94
F256907.46253498952
aF16647.870683636753
aF12880.591829298271
aF89357.06501997821
aF507836.45655877347
aF115597.39448558938
aF87977.56747283562
aF804132.1671861376
aF790068.5895441684
aF857735.573153866
aF599307.0959523863
aF885107.7368823662
asS'Bacteria.Firmicutes.Bacilli.Lactobacillales.Lactobacillaceae.Lactobacillus'
p95
(lp96
F1294.8516950497312
aF25848.95190018438
aF59708.32238765501
aF5448.601525608427
aF13685.406019307213
aF4684.572142410993
aF0.0
aF8582.060557920277
aF122216.79036487266
aF18221.298261995584
aF87387.16974502012
aF37503.130902173696
asS'Bacteria.Firmicutes.Bacilli.Staphylococcales.Staphylococcaceae.Staphylococcus'
p97
(lp98
F0.0
aF0.0
aF0.0
aF563.0221576462042
aF1930.7211811470756
aF0.0
aF0.0
aF0.0
aF414.79637942017393
aF96.89837122646914
aF252.56407440757258
aF1056.0448412886456
asS'Bacteria.Firmicutes.Bacilli.RF39.RF39.RF39'
p99
(lp100
F2335.810900874025
aF5710.3986538495965
aF7008.058843966888
aF3432.618961133309
aF13912.549687677458
aF1115.374319621665
aF0.0
aF0.0
aF0.0
aF726.7377841985185
aF0.0
aF0.0
asS'Bacteria.Firmicutes.Clostridia.Lachnospirales.Lachnospiraceae.Lachnospiraceae_UCG_010'
p101
(lp102
F0.0
aF0.0
aF0.0
aF0.0
aF0.0
aF0.0
aF0.0
aF0.0
aF0.0
aF118.92072832339394
aF0.0
aF0.0
asS'Bacteria.Firmicutes.Bacilli.Erysipelotrichales.Erysipelotrichaceae.Allobaculum'
p103
(lp104
F1345.6301928948187
aF0.0
aF0.0
aF1307.6643661460225
aF1703.5775127768316
aF21147.49710002677
aF56081.317910970916
aF0.0
aF0.0
aF215.81909954986307
aF395.3176816814179
aF440.018683870269
asS'Bacteria.Proteobacteria.Alphaproteobacteria.Rhizobiales.Rhizobiaceae'
p105
(lp106
F0.0
aF0.0
aF135.58517715050812
aF0.0
aF0.0
aF223.07486392433302
aF0.0
aF38.85238683163103
aF0.0
aF74.87601412954433
aF0.0
aF0.0
asS'Bacteria.Proteobacteria.Alphaproteobacteria.Rhodobacterales'
p107
(lp108
F0.0
aF0.0
aF0.0
aF0.0
aF1249.2901760363432
aF0.0
aF0.0
aF0.0
aF0.0
aF0.0
aF0.0
aF0.0
asS'Bacteria.Desulfobacterota'
p109
(lp110
F0.0
aF0.0
aF0.0
aF12041.409371594624
aF14366.837024417946
aF0.0
aF0.0
aF0.0
aF0.0
aF0.0
aF0.0
aF0.0
asS'Bacteria.Firmicutes.Bacilli.Lactobacillales.Aerococcaceae.Aerococcus'
p111
(lp112
F0.0
aF0.0
aF0.0
aF272.43007628042136
aF0.0
aF0.0
aF0.0
aF250.38204847051105
aF0.0
aF83.68495696831425
aF0.0
aF148.9294006945526
asS'Bacteria.Actinobacteriota.Coriobacteriia.Coriobacteriales.uncultured.uncultured'
p113
(lp114
F596.6473496797781
aF268.51404328446375
aF220.3259128695757
aF7246.640029059208
aF2385.0085178875643
aF3167.6630677255284
aF0.0
aF0.0
aF562.9379434988074
aF48.44918561323457
aF999.2752509169176
aF250.47217389538392
asS'Bacteria.Firmicutes.Bacilli.Erysipelotrichales.Erysipelotrichaceae.Faecalibaculum'
p115
(lp116
F774.3720921375843
aF3490.682562698029
aF2423.5850415653326
aF635.6701779876498
aF0.0
aF0.0
aF0.0
aF0.0
aF0.0
aF0.0
aF488.65657874508605
aF0.0
asS'Bacteria.Firmicutes.Clostridia.Monoglobales'
p117
(lp118
F0.0
aF196.9102984086068
aF67.79258857525406
aF11569.197239375228
aF14310.051107325386
aF30204.33657535469
aF7360.672975814933
aF2011.6902515044512
aF533.3096306830807
aF391.9979563252615
aF8510.311202863859
aF676.9518213388754
asS'Bacteria.Firmicutes.Bacilli.Staphylococcales'
p119
(lp120
F0.0
aF0.0
aF0.0
aF908.1002542680712
aF1930.7211811470756
aF0.0
aF0.0
aF0.0
aF414.79637942017393
aF273.0772280018675
aF466.6944853183406
aF1638.2234076400784
asS'Bacteria.Cyanobacteria.Vampirivibrionia'
p121
(lp122
F50.77849784508749
aF0.0
aF0.0
aF1325.826371231384
aF0.0
aF0.0
aF0.0
aF0.0
aF814.7786024324845
aF0.0
aF164.7157007005908
aF440.018683870269
asS'Bacteria.Cyanobacteria.Vampirivibrionia.Gastranaerophilales'
p123
(lp124
F50.77849784508749
aF0.0
aF0.0
aF1325.826371231384
aF0.0
aF0.0
aF0.0
aF0.0
aF814.7786024324845
aF0.0
aF164.7157007005908
aF440.018683870269
asS'Bacteria.Bacteroidota.Bacteroidia.Bacteroidales.Muribaculaceae.Muribaculaceae'
p125
(lp126
F236246.9612242696
aF15484.30982940408
aF11575.58449922463
aF78913.91209589539
aF462237.365133447
aF82225.39484250915
aF67998.59796705224
aF477210.91665731336
aF431491.9336918359
aF383369.5968146863
aF523137.0654250764
aF485949.8649481117
asS'Bacteria.Proteobacteria.Alphaproteobacteria.Rickettsiales'
p127
(lp128
F0.0
aF0.0
aF0.0
aF0.0
aF0.0
aF0.0
aF0.0
aF0.0
aF0.0
aF0.0
aF76.86732699360904
aF0.0
asS'Bacteria.Deferribacterota'
p129
(lp130
F0.0
aF411.7215330361778
aF0.0
aF0.0
aF0.0
aF0.0
aF0.0
aF0.0
aF0.0
aF0.0
aF87.84837370698176
aF0.0
asS'Bacteria.Actinobacteriota.Coriobacteriia.Coriobacteriales'
p131
(lp132
F10726.957669774732
aF13425.70216422319
aF10558.695670595818
aF21830.730112604433
aF7722.884724588303
aF22530.561256357632
aF23484.05187521907
aF56.12011431235593
aF992.5484793268447
aF105.70731406523906
aF3052.7309863176165
aF1983.468836522905
asS'Bacteria.Deferribacterota.Deferribacteres.Deferribacterales'
p133
(lp134
F0.0
aF411.7215330361778
aF0.0
aF0.0
aF0.0
aF0.0
aF0.0
aF0.0
aF0.0
aF0.0
aF87.84837370698176
aF0.0
asS'Bacteria.Proteobacteria.Alphaproteobacteria.Rhizobiales.Rhizobiaceae.Allorhizobium_Neorhizobium_Pararhizobium_Rhizobium'
p135
(lp136
F0.0
aF0.0
aF135.58517715050812
aF0.0
aF0.0
aF223.07486392433302
aF0.0
aF38.85238683163103
aF0.0
aF74.87601412954433
aF0.0
aF0.0
asS'Bacteria.Bacteroidota.Bacteroidia.Bacteroidales.Prevotellaceae.Prevotellaceae_NK3B31_group'
p137
(lp138
F450.6591683751516
aF0.0
aF110.16295643478784
aF3577.9150018162004
aF8404.315729699036
aF18782.903542428838
aF14020.329477742729
aF130272.05304645882
aF45405.389390101176
aF9170.109495159488
aF6056.047262425055
aF28695.98770655493
asS'Bacteria.Bacteroidota.Bacteroidia.Bacteroidales.Tannerellaceae.Parabacteroides'
p139
(lp140
F7089.947761620341
aF0.0
aF152.53332429432163
aF217.9440610243371
aF0.0
aF5398.411706968859
aF0.0
aF25551.919739602672
aF2029.5394278772794
aF27545.564256833546
aF1658.1380537192806
aF2321.944747192342
asS'Bacteria.Bacteroidota.Bacteroidia.Chitinophagales.Chitinophagaceae.Sediminibacterium'
p141
(lp142
F0.0
aF0.0
aF0.0
aF0.0
aF851.7887563884158
aF0.0
aF0.0
aF0.0
aF0.0
aF0.0
aF0.0
aF0.0
asS'Bacteria.Chloroflexi.Anaerolineae.Anaerolineales.Anaerolineaceae.uncultured'
p143
(lp144
F0.0
aF0.0
aF0.0
aF0.0
aF454.2873367404884
aF0.0
aF0.0
aF0.0
aF0.0
aF0.0
aF0.0
aF0.0
asS'Bacteria.Firmicutes.Clostridia.Lachnospirales.Lachnospiraceae.Frisingicoccus'
p145
(lp146
F564.9107885265985
aF0.0
aF0.0
aF0.0
aF0.0
aF0.0
aF0.0
aF0.0
aF666.6370383538509
aF110.11178548462401
aF0.0
aF162.46843712133008
asS'Bacteria.Desulfobacterota.Desulfovibrionia'
p147
(lp148
F0.0
aF0.0
aF0.0
aF12041.409371594624
aF14366.837024417946
aF0.0
aF0.0
aF0.0
aF0.0
aF0.0
aF0.0
aF0.0
asS'Bacteria.Firmicutes.Clostridia.Clostridia_UCG_014.Clostridia_UCG_014'
p149
(lp150
F92473.99188813497
aF221506.18477346364
aF53861.21162303935
aF336251.36215038144
aF128506.53038046566
aF97037.56580708486
aF74658.25446898003
aF0.0
aF488.86716145949066
aF0.0
aF395.3176816814179
aF1570.5282255061911
asS'Bacteria.Actinobacteriota.Coriobacteriia.Coriobacteriales.Coriobacteriales_Incertae_Sedis'
p151
(lp152
F0.0
aF0.0
aF0.0
aF508.53614239011983
aF0.0
aF0.0
aF1752.5411847178411
aF0.0
aF0.0
aF0.0
aF0.0
aF0.0
asS'Bacteria.Firmicutes.Clostridia.Oscillospirales.Oscillospiraceae.NK4A214_group'
p153
(lp154
F8905.279059582219
aF322.21685194135654
aF796.5629157592351
aF5303.305484925536
aF3180.011357183419
aF2364.59355759793
aF0.0
aF172.677274807249
aF0.0
aF268.67275658248263
aF2942.9205191838887
aF189.5465099748851
asS'Bacteria.Desulfobacterota.Desulfovibrionia.Desulfovibrionales'
p155
(lp156
F0.0
aF0.0
aF0.0
aF12041.409371594624
aF14366.837024417946
aF0.0
aF0.0
aF0.0
aF0.0
aF0.0
aF0.0
aF0.0
asS'Bacteria.Actinobacteriota.Coriobacteriia.Coriobacteriales.Coriobacteriales_Incertae_Sedis.uncultured'
p157
(lp158
F0.0
aF0.0
aF0.0
aF508.53614239011983
aF0.0
aF0.0
aF1752.5411847178411
aF0.0
aF0.0
aF0.0
aF0.0
aF0.0
asS'Bacteria.Deferribacterota.Deferribacteres.Deferribacterales.Deferribacteraceae.Mucispirillum'
p159
(lp160
F0.0
aF411.7215330361778
aF0.0
aF0.0
aF0.0
aF0.0
aF0.0
aF0.0
aF0.0
aF0.0
aF87.84837370698176
aF0.0
asS'Bacteria.Firmicutes.Bacilli.RF39.RF39'
p161
(lp162
F2335.810900874025
aF5710.3986538495965
aF7008.058843966888
aF3432.618961133309
aF13912.549687677458
aF1115.374319621665
aF0.0
aF0.0
aF0.0
aF726.7377841985185
aF0.0
aF0.0
asS'Bacteria.Proteobacteria.Gammaproteobacteria.Pseudomonadales.Moraxellaceae.Acinetobacter'
p163
(lp164
F0.0
aF53.702808656892756
aF0.0
aF0.0
aF0.0
aF669.224591772999
aF0.0
aF0.0
aF0.0
aF0.0
aF82.3578503502954
aF0.0
asS'Bacteria.Firmicutes.Clostridia.Clostridia_vadinBB60_group'
p165
(lp166
F387.18604606879217
aF340.1177881603208
aF67.79258857525406
aF563.0221576462042
aF0.0
aF0.0
aF0.0
aF0.0
aF474.05300505162734
aF114.51625690400897
aF351.39349482792704
aF264.0112103221614
asS'Bacteria.Firmicutes.Bacilli.Erysipelotrichales.Erysipelatoclostridiaceae.UCG_004'
p167
(lp168
F0.0
aF0.0
aF0.0
aF0.0
aF0.0
aF0.0
aF0.0
aF0.0
aF0.0
aF26.426828516309765
aF76.86732699360904
aF0.0
asS'Bacteria.Bacteroidota.Bacteroidia.Chitinophagales'
p169
(lp170
F0.0
aF0.0
aF0.0
aF0.0
aF851.7887563884158
aF0.0
aF0.0
aF0.0
aF0.0
aF0.0
aF0.0
aF0.0
asS'Bacteria.Proteobacteria.Gammaproteobacteria.Burkholderiales.Alcaligenaceae.Achromobacter'
p171
(lp172
F158.68280576589842
aF0.0
aF177.9555450100419
aF0.0
aF0.0
aF892.2994556973321
aF0.0
aF0.0
aF0.0
aF79.28048554892929
aF0.0
aF0.0
asS'Bacteria.Firmicutes.Clostridia.Oscillospirales.Oscillospiraceae.Colidextribacter'
p173
(lp174
F2380.2420864884766
aF0.0
aF372.8592371638973
aF1634.5804576825283
aF851.7887563884158
aF0.0
aF0.0
aF595.7365980850092
aF770.3361332088944
aF1752.9796249152143
aF905.9363538532494
aF1008.6582137949243
asS'Bacteria.Proteobacteria.Gammaproteobacteria.Pseudomonadales.Moraxellaceae.Psychrobacter'
p175
(lp176
F82.5150589982672
aF0.0
aF0.0
aF0.0
aF0.0
aF0.0
aF0.0
aF0.0
aF0.0
aF0.0
aF0.0
aF0.0
asS'Bacteria.Proteobacteria.Gammaproteobacteria.Burkholderiales.Sutterellaceae'
p177
(lp178
F107.90430792081094
aF0.0
aF0.0
aF472.212132219397
aF0.0
aF7986.080128491122
aF0.0
aF5776.054842302479
aF903.6635408796647
aF3483.936892733504
aF258.0545977642589
aF1299.7474969706407
asS'Bacteria.Firmicutes.Clostridia.Clostridiales.Clostridiaceae.Clostridium_sensu_stricto_1'
p179
(lp180
F24875.116631862238
aF190841.88103037787
aF293846.9751794387
aF9752.996730839086
aF14991.482112436119
aF1606.1390202551977
aF0.0
aF0.0
aF0.0
aF0.0
aF290.9977379043771
aF0.0
asS'Bacteria.Actinobacteriota.Actinobacteria.Pseudonocardiales.Pseudonocardiaceae.Prauserella'
p181
(lp182
F0.0
aF0.0
aF101.68888286288109
aF0.0
aF0.0
aF0.0
aF0.0
aF0.0
aF0.0
aF0.0
aF0.0
aF0.0
asS'Bacteria.Proteobacteria.Gammaproteobacteria.Pseudomonadales.Moraxellaceae'
p183
(lp184
F82.5150589982672
aF53.702808656892756
aF0.0
aF0.0
aF0.0
aF669.224591772999
aF0.0
aF0.0
aF0.0
aF0.0
aF82.3578503502954
aF0.0
asS'Bacteria.Campilobacterota.Campylobacteria.Campylobacterales'
p185
(lp186
F0.0
aF0.0
aF0.0
aF2306.5746458409008
aF0.0
aF0.0
aF0.0
aF0.0
aF0.0
aF0.0
aF38.43366349680452
aF0.0
asS'Bacteria.Proteobacteria.Gammaproteobacteria.Xanthomonadales.Xanthomonadaceae'
p187
(lp188
F0.0
aF89.50468109482127
aF0.0
aF0.0
aF0.0
aF0.0
aF0.0
aF0.0
aF0.0
aF0.0
aF0.0
aF0.0
asS'Bacteria.Firmicutes.Clostridia.Peptostreptococcales_Tissierellales.Anaerovoracaceae.Anaerovorax'
p189
(lp190
F2843.5958793248997
aF0.0
aF0.0
aF0.0
aF0.0
aF0.0
aF0.0
aF94.97250114398696
aF0.0
aF171.77438535601348
aF0.0
aF0.0
asS'Bacteria.Proteobacteria.Alphaproteobacteria.Rhizobiales'
p191
(lp192
F0.0
aF0.0
aF135.58517715050812
aF0.0
aF0.0
aF223.07486392433302
aF0.0
aF38.85238683163103
aF0.0
aF74.87601412954433
aF0.0
aF0.0
asS'Bacteria.Firmicutes.Clostridia.Lachnospirales'
p193
(lp194
F356255.5935689032
aF100066.23346401016
aF106290.30481242645
aF292099.5277878678
aF37705.84894946054
aF287900.41938074416
aF249912.3729407641
aF16106.472807646154
aF17154.793120305763
aF79187.99164912221
aF139151.8239518591
aF18372.472431137077
asS'Bacteria.Firmicutes.Clostridia.Lachnospirales.Defluviitaleaceae.Defluviitaleaceae_UCG_011'
p195
(lp196
F82.5150589982672
aF554.9290227878918
aF0.0
aF1289.502361060661
aF0.0
aF0.0
aF0.0
aF0.0
aF518.4954742752174
aF0.0
aF43.92418685349088
aF385.862538163159
asS'Bacteria.Firmicutes.Bacilli.RF39'
p197
(lp198
F2335.810900874025
aF5710.3986538495965
aF7008.058843966888
aF3432.618961133309
aF13912.549687677458
aF1115.374319621665
aF0.0
aF0.0
aF0.0
aF726.7377841985185
aF0.0
aF0.0
asS'Bacteria.Firmicutes.Clostridia.Peptostreptococcales_Tissierellales'
p199
(lp200
F13881.571848400794
aF202602.7961262374
aF236697.82301049956
aF26207.77333817654
aF7041.45371947757
aF5086.106897474792
aF5257.623554153523
aF1381.418198457992
aF1748.0704561278758
aF3761.4185921547564
aF53653.394241539114
aF4569.424794037409
asS'Bacteria.Patescibacteria.Saccharimonadia.Saccharimonadales.Saccharimonadaceae'
p201
(lp202
F2805.512005941084
aF1181.4617904516406
aF3830.281254501854
aF2306.5746458409008
aF28279.386712095402
aF847.6844829124655
aF0.0
aF0.0
aF0.0
aF0.0
aF949.8605407067403
aF0.0
asS'Bacteria.Verrucomicrobiota'
p203
(lp204
F87161.29155109268
aF5352.379929470311
aF6152.177413204306
aF1071.558300036324
aF908.5746734809768
aF55277.95128044972
aF142656.85243603226
aF137744.66211374255
aF0.0
aF0.0
aF269.03564447763165
aF40.61710928033252
asS'Bacteria.Firmicutes.Clostridia.Peptostreptococcales_Tissierellales.Anaerovoracaceae.Family_XIII_UCG_001'
p205
(lp206
F0.0
aF0.0
aF0.0
aF0.0
aF0.0
aF0.0
aF0.0
aF0.0
aF0.0
aF0.0
aF148.24413063053174
aF0.0
asS'Bacteria.Firmicutes.Clostridia.Christensenellales.Christensenellaceae.Christensenellaceae_R_7_group'
p207
(lp208
F4785.873421899497
aF787.6411936344272
aF525.3925614582189
aF13893.933890301489
aF21294.718909710395
aF1561.524047470331
aF0.0
aF146.77568358616165
aF0.0
aF0.0
aF148.24413063053174
aF74.4647003472763
asS'Bacteria.Actinobacteriota.Coriobacteriia.Coriobacteriales.Eggerthellaceae.Parvibacter'
p209
(lp210
F0.0
aF0.0
aF0.0
aF0.0
aF0.0
aF0.0
aF0.0
aF0.0
aF0.0
aF57.258128452004485
aF455.7134386049679
aF0.0
asS'Bacteria.Firmicutes.Clostridia.Oscillospirales.Ruminococcaceae.Anaerotruncus'
p211
(lp212
F311.01829930116094
aF0.0
aF0.0
aF0.0
aF0.0
aF0.0
aF0.0
aF0.0
aF0.0
aF0.0
aF0.0
aF0.0
asS'Bacteria.Actinobacteriota.Actinobacteria.Micrococcales.Dermabacteraceae'
p213
(lp214
F0.0
aF0.0
aF0.0
aF217.9440610243371
aF0.0
aF0.0
aF0.0
aF0.0
aF0.0
aF0.0
aF0.0
aF0.0
asS'Bacteria.Bacteroidota.Bacteroidia.Bacteroidales'
p215
(lp216
F256907.46253498952
aF16647.870683636753
aF12880.591829298271
aF89102.79694878314
aF506984.6678023851
aF115597.39448558938
aF87977.56747283562
aF804132.1671861376
aF790068.5895441684
aF857735.573153866
aF599307.0959523863
aF885107.7368823662
asS'Bacteria.Actinobacteriota.Coriobacteriia'
p217
(lp218
F10726.957669774732
aF13425.70216422319
aF10558.695670595818
aF21830.730112604433
aF7722.884724588303
aF22530.561256357632
aF23484.05187521907
aF56.12011431235593
aF992.5484793268447
aF105.70731406523906
aF3052.7309863176165
aF1983.468836522905
asS'Bacteria.Firmicutes.Clostridia.Lachnospirales.Lachnospiraceae.Tuzzerella'
p219
(lp220
F0.0
aF196.9102984086068
aF0.0
aF0.0
aF0.0
aF0.0
aF0.0
aF0.0
aF0.0
aF0.0
aF0.0
aF0.0
asS'Bacteria.Firmicutes.Clostridia.Clostridia.Hungateiclostridiaceae'
p221
(lp222
F57.125810075723436
aF0.0
aF0.0
aF0.0
aF0.0
aF0.0
aF0.0
aF0.0
aF0.0
aF0.0
aF0.0
aF0.0
asS'Bacteria.Cyanobacteria'
p223
(lp224
F50.77849784508749
aF0.0
aF0.0
aF1325.826371231384
aF454.2873367404884
aF0.0
aF0.0
aF0.0
aF814.7786024324845
aF0.0
aF164.7157007005908
aF440.018683870269
asS'Bacteria.Firmicutes.Clostridia.Oscillospirales.Oscillospiraceae.uncultured'
p225
(lp226
F7274.019816308784
aF483.3252779120348
aF296.59257501673653
aF2633.4907373774067
aF8631.459398069279
aF0.0
aF0.0
aF2654.9131001614537
aF2607.2915277839506
aF1193.6117546533244
aF31235.5873761887
aF155.69891890794133
asS'Bacteria.Firmicutes.Clostridia.Oscillospirales.Ruminococcaceae.Paludicola'
p227
(lp228
F0.0
aF0.0
aF0.0
aF0.0
aF0.0
aF0.0
aF0.0
aF0.0
aF0.0
aF0.0
aF433.75134517822244
aF0.0
asS'Bacteria.Proteobacteria.Gammaproteobacteria.Xanthomonadales'
p229
(lp230
F0.0
aF89.50468109482127
aF0.0
aF0.0
aF0.0
aF0.0
aF0.0
aF0.0
aF0.0
aF0.0
aF0.0
aF0.0
asS'Bacteria.Cyanobacteria.Cyanobacteriia.Chloroplast.Chloroplast.Chloroplast'
p231
(lp232
F0.0
aF0.0
aF0.0
aF0.0
aF454.2873367404884
aF0.0
aF0.0
aF0.0
aF0.0
aF0.0
aF0.0
aF0.0
asS'Bacteria.Firmicutes.Clostridia.Lachnospirales.Lachnospiraceae._Eubacterium__ventriosum_group'
p233
(lp234
F1212.336636051464
aF0.0
aF0.0
aF980.7482746095168
aF0.0
aF0.0
aF0.0
aF0.0
aF0.0
aF57.258128452004485
aF0.0
aF0.0
asS'Bacteria.Campilobacterota'
p235
(lp236
F0.0
aF0.0
aF0.0
aF2306.5746458409008
aF0.0
aF0.0
aF0.0
aF0.0
aF0.0
aF0.0
aF38.43366349680452
aF0.0
asS'Bacteria.Firmicutes.Clostridia.Lachnospirales.Lachnospiraceae.Lachnoclostridium'
p237
(lp238
F2151.7388461855826
aF0.0
aF186.42961858194866
aF690.1561932437342
aF0.0
aF0.0
aF0.0
aF0.0
aF0.0
aF0.0
aF0.0
aF162.46843712133008
asS'Bacteria.Proteobacteria.Alphaproteobacteria.Rhodobacterales.Rhodobacteraceae'
p239
(lp240
F0.0
aF0.0
aF0.0
aF0.0
aF1249.2901760363432
aF0.0
aF0.0
aF0.0
aF0.0
aF0.0
aF0.0
aF0.0
asS'Bacteria.Patescibacteria'
p241
(lp242
F2805.512005941084
aF1181.4617904516406
aF3830.281254501854
aF2415.5466763530694
aF28279.386712095402
aF847.6844829124655
aF0.0
aF0.0
aF0.0
aF0.0
aF949.8605407067403
aF0.0
asS'Bacteria.Firmicutes.Clostridia.Lachnospirales.Defluviitaleaceae'
p243
(lp244
F82.5150589982672
aF554.9290227878918
aF0.0
aF1289.502361060661
aF0.0
aF0.0
aF0.0
aF0.0
aF518.4954742752174
aF0.0
aF43.92418685349088
aF385.862538163159
asS'Bacteria.Firmicutes.Clostridia.Lachnospirales.Lachnospiraceae.Acetatifactor'
p245
(lp246
F349.10217268497655
aF0.0
aF0.0
aF0.0
aF0.0
aF0.0
aF0.0
aF0.0
aF0.0
aF0.0
aF0.0
aF0.0
asS'Bacteria.Firmicutes.Clostridia.Lachnospirales.Lachnospiraceae.GCA_900066575'
p247
(lp248
F8118.212342983364
aF0.0
aF228.79998644148245
aF871.7762440973484
aF0.0
aF0.0
aF0.0
aF0.0
aF607.3804127223975
aF1233.2519974277889
aF0.0
aF0.0
asS'Bacteria.Firmicutes.Clostridia.Oscillospirales.UCG_010.UCG_010'
p249
(lp250
F615.6892863716859
aF0.0
aF322.0147957324568
aF653.8321830730113
aF0.0
aF0.0
aF0.0
aF0.0
aF399.98222301231056
aF0.0
aF422.7702984648497
aF284.31976496232767
asS'Bacteria.Bacteroidota.Bacteroidia.Bacteroidales.Bacteroidaceae'
p251
(lp252
F3294.2550477000514
aF250.61310706549955
aF720.2962536120743
aF2088.630584816564
aF31289.04031800114
aF4149.1924689925945
aF2804.065895548546
aF71350.2499503553
aF239841.1922433077
aF340461.23624703806
aF37577.14185316145
aF290100.9335165617
asS'Bacteria.Firmicutes.Bacilli.Staphylococcales.Staphylococcaceae.Jeotgalicoccus'
p253
(lp254
F0.0
aF0.0
aF0.0
aF345.0780966218671
aF0.0
aF0.0
aF0.0
aF0.0
aF0.0
aF176.17885677539843
aF214.13041091076803
aF582.1785663514329
asS'Bacteria.Proteobacteria.Alphaproteobacteria.Rickettsiales.Mitochondria.Mitochondria'
p255
(lp256
F0.0
aF0.0
aF0.0
aF0.0
aF0.0
aF0.0
aF0.0
aF0.0
aF0.0
aF0.0
aF76.86732699360904
aF0.0
asS'Bacteria.Firmicutes.Clostridia.Oscillospirales.Ruminococcaceae.UBA1819'
p257
(lp258
F6233.060610484491
aF250.61310706549955
aF220.3259128695757
aF0.0
aF0.0
aF0.0
aF0.0
aF0.0
aF0.0
aF0.0
aF0.0
aF0.0
asS'Bacteria.Cyanobacteria.Vampirivibrionia.Gastranaerophilales.Gastranaerophilales.Gastranaerophilales'
p259
(lp260
F50.77849784508749
aF0.0
aF0.0
aF1325.826371231384
aF0.0
aF0.0
aF0.0
aF0.0
aF814.7786024324845
aF0.0
aF164.7157007005908
aF440.018683870269
asS'Bacteria.Proteobacteria.Gammaproteobacteria.Enterobacterales.Enterobacteriaceae'
p261
(lp262
F2018.4452893422279
aF7661.600701716699
aF7008.058843966888
aF5775.517617144933
aF21408.290743895515
aF12269.117515838316
aF30143.708377146868
aF8284.192258877772
aF1733.2562997200123
aF629.8394129720493
aF3113.126743241166
aF1441.9073794518047
asS'Bacteria.Firmicutes.Bacilli.Erysipelotrichales'
p263
(lp264
F14903.48911753318
aF93335.4814456796
aF110162.95643478785
aF18089.35706501998
aF49574.1056218058
aF30516.641384848754
aF71503.68033648792
aF690.709099228996
aF1288.8316074841118
aF1233.2519974277889
aF5139.129861858433
aF1570.5282255061911
asS'Bacteria.Proteobacteria.Alphaproteobacteria.Rhodobacterales.Rhodobacteraceae.Rubellimicrobium'
p265
(lp266
F0.0
aF0.0
aF0.0
aF0.0
aF1249.2901760363432
aF0.0
aF0.0
aF0.0
aF0.0
aF0.0
aF0.0
aF0.0
asS'Bacteria.Firmicutes.Bacilli.Acholeplasmatales.Acholeplasmataceae'
p267
(lp268
F0.0
aF0.0
aF0.0
aF254.26807119505992
aF0.0
aF0.0
aF0.0
aF0.0
aF0.0
aF0.0
aF0.0
aF0.0
asS'Bacteria.Firmicutes.Clostridia.Eubacteriales'
p269
(lp270
F0.0
aF358.01872437928506
aF0.0
aF0.0
aF0.0
aF1695.368965824931
aF0.0
aF0.0
aF0.0
aF0.0
aF0.0
aF0.0
asS'Bacteria.Firmicutes.Bacilli.Staphylococcales.Staphylococcaceae'
p271
(lp272
F0.0
aF0.0
aF0.0
aF908.1002542680712
aF1930.7211811470756
aF0.0
aF0.0
aF0.0
aF414.79637942017393
aF273.0772280018675
aF466.6944853183406
aF1638.2234076400784
asS'Bacteria.Chloroflexi.Anaerolineae.Anaerolineales'
p273
(lp274
F0.0
aF0.0
aF0.0
aF0.0
aF454.2873367404884
aF0.0
aF0.0
aF0.0
aF0.0
aF0.0
aF0.0
aF0.0
asS'Bacteria.Firmicutes.Clostridia.Monoglobales.Monoglobaceae'
p275
(lp276
F0.0
aF196.9102984086068
aF67.79258857525406
aF11569.197239375228
aF14310.051107325386
aF30204.33657535469
aF7360.672975814933
aF2011.6902515044512
aF533.3096306830807
aF391.9979563252615
aF8510.311202863859
aF676.9518213388754
asS'Bacteria.Firmicutes.Clostridia.Oscillospirales.Butyricicoccaceae.uncultured'
p277
(lp278
F0.0
aF0.0
aF0.0
aF8499.818379949145
aF0.0
aF7183.010618363523
aF0.0
aF0.0
aF0.0
aF0.0
aF0.0
aF0.0
asS'Bacteria.Cyanobacteria.Cyanobacteriia'
p279
(lp280
F0.0
aF0.0
aF0.0
aF0.0
aF454.2873367404884
aF0.0
aF0.0
aF0.0
aF0.0
aF0.0
aF0.0
aF0.0
asS'Bacteria.Chloroflexi.Anaerolineae.Anaerolineales.Anaerolineaceae'
p281
(lp282
F0.0
aF0.0
aF0.0
aF0.0
aF454.2873367404884
aF0.0
aF0.0
aF0.0
aF0.0
aF0.0
aF0.0
aF0.0
asS'Bacteria.Firmicutes.Clostridia.Peptococcales.Peptococcaceae'
p283
(lp284
F1072.6957669774733
aF0.0
aF483.0221935986852
aF780.9662186705413
aF0.0
aF847.6844829124655
aF0.0
aF228.79738911960493
aF0.0
aF1131.9491547819348
aF620.4291393055587
aF318.16735602927145
asS'Bacteria.Firmicutes.Bacilli.Lactobacillales.Lactobacillaceae'
p285
(lp286
F1294.8516950497312
aF25848.95190018438
aF59708.32238765501
aF5448.601525608427
aF13685.406019307213
aF4684.572142410993
aF0.0
aF8582.060557920277
aF122216.79036487266
aF18221.298261995584
aF87387.16974502012
aF37503.130902173696
asS'Bacteria.Chloroflexi'
p287
(lp288
F0.0
aF0.0
aF0.0
aF0.0
aF454.2873367404884
aF0.0
aF0.0
aF0.0
aF0.0
aF0.0
aF0.0
aF0.0
asS'Bacteria.Firmicutes.Clostridia.Clostridia_UCG_014.Clostridia_UCG_014.Clostridia_UCG_014'
p289
(lp290
F92473.99188813497
aF221506.18477346364
aF53861.21162303935
aF336251.36215038144
aF128506.53038046566
aF97037.56580708486
aF74658.25446898003
aF0.0
aF488.86716145949066
aF0.0
aF395.3176816814179
aF1570.5282255061911
asS'Bacteria.Proteobacteria.Alphaproteobacteria.Rickettsiales.Mitochondria'
p291
(lp292
F0.0
aF0.0
aF0.0
aF0.0
aF0.0
aF0.0
aF0.0
aF0.0
aF0.0
aF0.0
aF76.86732699360904
aF0.0
asS'Bacteria.Firmicutes.Clostridia.Lachnospirales.Lachnospiraceae._Eubacterium__xylanophilum_group'
p293
(lp294
F22209.245494995146
aF966.6505558240696
aF4694.636758836344
aF3686.887032328369
aF1476.4338444065875
aF0.0
aF10515.247108307047
aF4662.286419795723
aF2844.318030309764
aF3228.477550409176
aF25799.96925306921
aF2606.2645121546702
asS'Bacteria.Proteobacteria.Gammaproteobacteria.Pasteurellales.Pasteurellaceae.Rodentibacter'
p295
(lp296
F285.62905037861714
aF0.0
aF0.0
aF0.0
aF0.0
aF669.224591772999
aF0.0
aF0.0
aF0.0
aF0.0
aF0.0
aF0.0
asS'Bacteria.Firmicutes.Clostridia.Eubacteriales.Anaerofustaceae'
p297
(lp298
F0.0
aF358.01872437928506
aF0.0
aF0.0
aF0.0
aF1695.368965824931
aF0.0
aF0.0
aF0.0
aF0.0
aF0.0
aF0.0
asS'Bacteria.Actinobacteriota.Coriobacteriia.Coriobacteriales.Atopobiaceae.Coriobacteriaceae_UCG_002'
p299
(lp300
F8308.631709902442
aF3723.3947335445646
aF3847.229401645668
aF3577.9150018162004
aF681.4310051107326
aF12982.957080396181
aF5608.131791097092
aF0.0
aF429.6105358280373
aF0.0
aF1597.742296795731
aF1732.9966626275211
asS'Bacteria.Proteobacteria.Gammaproteobacteria.Pseudomonadales.Pseudomonadaceae'
p301
(lp302
F272.9344259173453
aF1879.5983029912463
aF457.5999728829649
aF1634.5804576825283
aF0.0
aF2096.9037208887303
aF15071.854188573434
aF0.0
aF0.0
aF290.6951136794074
aF82.3578503502954
aF148.9294006945526
asS'Bacteria.Proteobacteria.Alphaproteobacteria.Caulobacterales.Caulobacteraceae'
p303
(lp304
F0.0
aF0.0
aF0.0
aF0.0
aF0.0
aF0.0
aF0.0
aF0.0
aF0.0
aF0.0
aF49.41471021017724
aF0.0
asS'Bacteria.Firmicutes.Clostridia.Peptococcales'
p305
(lp306
F1072.6957669774733
aF0.0
aF483.0221935986852
aF780.9662186705413
aF0.0
aF847.6844829124655
aF0.0
aF228.79738911960493
aF0.0
aF1131.9491547819348
aF620.4291393055587
aF318.16735602927145
asS'Bacteria.Proteobacteria.Gammaproteobacteria.Pseudomonadales.Pseudomonadaceae.Pseudomonas'
p307
(lp308
F272.9344259173453
aF1879.5983029912463
aF457.5999728829649
aF1634.5804576825283
aF0.0
aF2096.9037208887303
aF15071.854188573434
aF0.0
aF0.0
aF290.6951136794074
aF82.3578503502954
aF148.9294006945526
asS'Bacteria.Firmicutes.Clostridia'
p309
(lp310
F618596.355373317
aF819003.6338900523
aF771759.3024142638
aF826371.2313839449
aF314082.90743895515
aF656955.4742571608
aF596214.5110410094
aF27973.718518774338
aF78115.04673866344
aF115154.90525981977
aF284733.0507543979
aF63586.08457836056
asS'Bacteria.Firmicutes.Clostridia.Clostridia.Hungateiclostridiaceae.Ruminiclostridium'
p311
(lp312
F57.125810075723436
aF0.0
aF0.0
aF0.0
aF0.0
aF0.0
aF0.0
aF0.0
aF0.0
aF0.0
aF0.0
aF0.0
asS'Bacteria.Firmicutes.Clostridia.Lachnospirales.Lachnospiraceae.Marvinbryantia'
p313
(lp314
F0.0
aF0.0
aF0.0
aF0.0
aF0.0
aF1204.6042651913983
aF0.0
aF2555.6236671472857
aF162.95572048649692
aF0.0
aF0.0
aF0.0
asS'Bacteria.Campilobacterota.Campylobacteria'
p315
(lp316
F0.0
aF0.0
aF0.0
aF2306.5746458409008
aF0.0
aF0.0
aF0.0
aF0.0
aF0.0
aF0.0
aF38.43366349680452
aF0.0
asS'Bacteria.Actinobacteriota.Actinobacteria.Micrococcales'
p317
(lp318
F0.0
aF0.0
aF0.0
aF635.6701779876498
aF0.0
aF0.0
aF0.0
aF0.0
aF0.0
aF0.0
aF0.0
aF0.0
asS'Bacteria.Firmicutes.Bacilli.Erysipelotrichales.Erysipelotrichaceae'
p319
(lp320
F14903.48911753318
aF93335.4814456796
aF110162.95643478785
aF11169.633127497276
aF49574.1056218058
aF30516.641384848754
aF71503.68033648792
aF548.2503475130156
aF1288.8316074841118
aF885.2987552963771
aF5001.866777941274
aF1279.4389423304747
asS'Bacteria.Cyanobacteria.Cyanobacteriia.Chloroplast'
p321
(lp322
F0.0
aF0.0
aF0.0
aF0.0
aF454.2873367404884
aF0.0
aF0.0
aF0.0
aF0.0
aF0.0
aF0.0
aF0.0
asS'Bacteria.Actinobacteriota'
p323
(lp324
F12224.923356204812
aF19368.812988919322
aF17422.695263840295
aF22466.400290592082
aF21521.862578080636
aF103462.12188810566
aF37854.88958990537
aF56.12011431235593
aF992.5484793268447
aF105.70731406523906
aF9191.136099092966
aF2355.7923382592867
asS'Bacteria.Proteobacteria.Gammaproteobacteria.Pasteurellales.Pasteurellaceae'
p325
(lp326
F285.62905037861714
aF0.0
aF0.0
aF0.0
aF0.0
aF669.224591772999
aF0.0
aF0.0
aF0.0
aF0.0
aF0.0
aF0.0
asS'Bacteria.Actinobacteriota.Coriobacteriia.Coriobacteriales.Eggerthellaceae.Enterorhabdus'
p327
(lp328
F755.3301554456765
aF3974.0078406100642
aF2279.5257908429176
aF1925.172539048311
aF4656.445201590006
aF1293.8342107611313
aF0.0
aF0.0
aF0.0
aF0.0
aF0.0
aF0.0
asS'Bacteria.Firmicutes.Clostridia.Lachnospirales.Lachnospiraceae._Bacteroides__pectinophilus_group'
p329
(lp330
F2868.9851282474438
aF0.0
aF0.0
aF0.0
aF0.0
aF0.0
aF0.0
aF0.0
aF0.0
aF0.0
aF0.0
aF0.0
asS'Bacteria.Proteobacteria.Gammaproteobacteria.Burkholderiales'
p331
(lp332
F1060.0011425162015
aF2362.923580903281
aF2211.7332022676633
aF5285.143479840174
aF8915.388983532084
aF13429.106808244846
aF18576.936558009114
aF5810.59029726393
aF903.6635408796647
aF3673.3291637670573
aF796.1258867195223
aF1435.1378612384158
asS'Bacteria.Firmicutes.Clostridia.Peptostreptococcales_Tissierellales.Anaerovoracaceae'
p333
(lp334
F0.0
aF805.5421298533913
aF347.437016448177
aF490.3741373047584
aF0.0
aF0.0
aF0.0
aF0.0
aF0.0
aF0.0
aF0.0
aF0.0
asS'Bacteria.Firmicutes'
p335
(lp336
F637130.507086774
aF944990.4229991229
aF949901.2770428875
aF856320.377769706
aF393923.90687109594
aF695458.1957705006
aF667718.1913774974
aF43812.54155046926
aF205487.1635334725
aF137489.97982752093
aF385791.6236575671
aF109029.86034483924
asS'Bacteria.Firmicutes.Clostridia.Oscillospirales.Ruminococcaceae.Ruminococcus'
p337
(lp338
F11717.13837775394
aF26797.701519789487
aF30676.14633030246
aF11205.957137668
aF11470.755252697332
aF10038.368876594985
aF4556.607080266387
aF1182.8393324296558
aF23954.490911515044
aF1083.4999691687003
aF5210.506665495356
aF26265.730667948363
asS'Bacteria.Firmicutes.Clostridia.Monoglobales.Monoglobaceae.Monoglobus'
p339
(lp340
F0.0
aF196.9102984086068
aF67.79258857525406
aF11569.197239375228
aF14310.051107325386
aF30204.33657535469
aF7360.672975814933
aF2011.6902515044512
aF533.3096306830807
aF391.9979563252615
aF8510.311202863859
aF676.9518213388754
asS'Bacteria.Proteobacteria'
p341
(lp342
F3719.5249671526594
aF12047.33007536294
aF9812.977196268024
aF12695.241554667637
aF31572.969903463945
aF29356.652092442226
aF63792.49912372942
aF14254.509035338406
aF2636.9198405996767
aF4668.739704548058
aF4200.2503678650655
aF3025.9746413847733
asS'Bacteria.Proteobacteria.Gammaproteobacteria.Burkholderiales.Alcaligenaceae.Alcaligenes'
p343
(lp344
F0.0
aF250.61310706549955
aF0.0
aF0.0
aF0.0
aF0.0
aF0.0
aF34.53545496144981
aF0.0
aF0.0
aF0.0
aF0.0
asS'Bacteria.Firmicutes.Clostridia.Oscillospirales'
p345
(lp346
F0.0
aF0.0
aF0.0
aF326.91609153650563
aF0.0
aF0.0
aF0.0
aF0.0
aF0.0
aF0.0
aF0.0
aF0.0
asS'Bacteria.Actinobacteriota.Coriobacteriia.Coriobacteriales.Atopobiaceae'
p347
(lp348
F8308.631709902442
aF3723.3947335445646
aF3847.229401645668
aF3577.9150018162004
aF681.4310051107326
aF12982.957080396181
aF5608.131791097092
aF0.0
aF429.6105358280373
aF0.0
aF1597.742296795731
aF1732.9966626275211
asS'Bacteria.Firmicutes.Clostridia.Peptostreptococcales_Tissierellales.Peptostreptococcaceae'
p349
(lp350
F9806.597396332523
aF201242.3249735961
aF235833.46750616503
aF25299.673083908467
aF7041.45371947757
aF5086.106897474792
aF5257.623554153523
aF1126.7192181172998
aF1748.0704561278758
aF3149.197064860247
aF53219.642896360885
aF4427.264911556245
asS'Bacteria.Proteobacteria.Gammaproteobacteria.Burkholderiales.Comamonadaceae'
p351
(lp352
F0.0
aF0.0
aF161.0073978662284
aF2252.0886305848167
aF2839.2958546280524
aF758.4545373427322
aF8412.197686645637
aF0.0
aF0.0
aF0.0
aF0.0
aF0.0
asS'Bacteria.Firmicutes.Bacilli.Erysipelotrichales.Erysipelatoclostridiaceae'
p353
(lp354
F0.0
aF0.0
aF0.0
aF6919.723937522703
aF0.0
aF0.0
aF0.0
aF142.4587517159804
aF0.0
aF347.9532421314119
aF137.263083917159
aF291.08928317571645
asS'Bacteria.Firmicutes.Clostridia.Oscillospirales._Eubacterium__coprostanoligenes_group'
p355
(lp356
F26392.124254984228
aF48815.85306911552
aF38785.834738617225
aF25553.941155103523
aF6700.738216922205
aF13562.951726599447
aF0.0
aF0.0
aF19643.571396826806
aF52.85365703261953
aF16317.835416071863
aF2755.1939128492227
asS'Bacteria.Firmicutes.Bacilli.Acholeplasmatales.Acholeplasmataceae.Anaeroplasma'
p357
(lp358
F0.0
aF0.0
aF0.0
aF254.26807119505992
aF0.0
aF0.0
aF0.0
aF0.0
aF0.0
aF0.0
aF0.0
aF0.0
asS'Bacteria.Actinobacteriota.Coriobacteriia.Coriobacteriales.Eggerthellaceae'
p359
(lp360
F1821.6786101925138
aF9433.793387394162
aF6491.140356080576
aF10497.638939338902
aF4656.445201590006
aF6379.941108235924
aF16123.378899404137
aF56.12011431235593
aF0.0
aF57.258128452004485
aF455.7134386049679
aF0.0
asS'Bacteria.Firmicutes.Clostridia.Lachnospirales.Lachnospiraceae._Eubacterium__ruminantium_group'
p361
(lp362
F50162.80855871581
aF14392.352720047258
aF18541.272975331984
aF0.0
aF0.0
aF0.0
aF0.0
aF0.0
aF0.0
aF0.0
aF0.0
aF0.0
asS'Bacteria.Firmicutes.Clostridia.Christensenellales'
p363
(lp364
F4785.873421899497
aF787.6411936344272
aF525.3925614582189
aF13893.933890301489
aF21294.718909710395
aF1561.524047470331
aF0.0
aF146.77568358616165
aF0.0
aF0.0
aF263.5451211209453
aF74.4647003472763
asS'Bacteria.Proteobacteria.Gammaproteobacteria.Burkholderiales.Sutterellaceae.Parasutterella'
p365
(lp366
F107.90430792081094
aF0.0
aF0.0
aF472.212132219397
aF0.0
aF7986.080128491122
aF0.0
aF5776.054842302479
aF903.6635408796647
aF3483.936892733504
aF258.0545977642589
aF1299.7474969706407
asS'Bacteria.Firmicutes.Clostridia.uncultured.uncultured.uncultured'
p367
(lp368
F0.0
aF0.0
aF186.42961858194866
aF599.3461678169269
aF0.0
aF713.8395645578656
aF0.0
aF0.0
aF0.0
aF0.0
aF1295.7635121779808
aF0.0
asS'Bacteria.Firmicutes.Bacilli.Erysipelotrichales.Erysipelotrichaceae.Dubosiella'
p369
(lp370
F7591.385427840581
aF447.5234054741063
aF161.0073978662284
aF2488.194696694515
aF23906.8710959682
aF7049.165700008923
aF11566.77181913775
aF0.0
aF0.0
aF559.36787026189
aF3409.6150045022296
aF0.0
asS'Bacteria.Proteobacteria.Gammaproteobacteria.Burkholderiales.Comamonadaceae.Comamonas'
p371
(lp372
F0.0
aF0.0
aF0.0
aF326.91609153650563
aF0.0
aF0.0
aF0.0
aF0.0
aF0.0
aF0.0
aF0.0
aF0.0
asS'Bacteria.Firmicutes.Clostridia.Clostridia_UCG_014'
p373
(lp374
F92473.99188813497
aF221506.18477346364
aF53861.21162303935
aF336251.36215038144
aF128506.53038046566
aF97037.56580708486
aF74658.25446898003
aF0.0
aF488.86716145949066
aF0.0
aF395.3176816814179
aF1570.5282255061911
asS'Bacteria.Chloroflexi.Anaerolineae'
p375
(lp376
F0.0
aF0.0
aF0.0
aF0.0
aF454.2873367404884
aF0.0
aF0.0
aF0.0
aF0.0
aF0.0
aF0.0
aF0.0
asS'Bacteria.Firmicutes.Clostridia.Oscillospirales.Ruminococcaceae._Eubacterium__siraeum_group'
p377
(lp378
F0.0
aF0.0
aF0.0
aF236.1060661096985
aF23395.79784213515
aF1561.524047470331
aF0.0
aF0.0
aF0.0
aF0.0
aF0.0
aF0.0
asS'Bacteria.Firmicutes.Clostridia.Lachnospirales.Lachnospiraceae.Fusicatenibacter'
p379
(lp380
F0.0
aF0.0
aF0.0
aF189774.79113694152
aF0.0
aF187561.34558757918
aF159130.73957237997
aF0.0
aF0.0
aF0.0
aF0.0
aF0.0
asS'Bacteria.Firmicutes.Clostridia.Oscillospirales.Ruminococcaceae.Fournierella'
p381
(lp382
F330.0602359930688
aF0.0
aF0.0
aF0.0
aF0.0
aF0.0
aF0.0
aF0.0
aF0.0
aF0.0
aF0.0
aF0.0
asS'Bacteria.Firmicutes.Clostridia.Clostridia'
p383
(lp384
F57.125810075723436
aF0.0
aF0.0
aF0.0
aF0.0
aF0.0
aF0.0
aF0.0
aF0.0
aF0.0
aF0.0
aF0.0
asS'Bacteria.Firmicutes.Bacilli.Erysipelotrichales.Erysipelotrichaceae.Turicibacter'
p385
(lp386
F4500.244371520879
aF88591.73334765408
aF107247.87512605192
aF4068.2891391209587
aF9596.819988642817
aF1070.7593468367984
aF3855.5906063792504
aF0.0
aF0.0
aF0.0
aF208.63988755408167
aF0.0
asS'Bacteria.Acidobacteriota.Acidobacteriae.Bryobacterales.Bryobacteraceae'
p387
(lp388
F0.0
aF0.0
aF0.0
aF0.0
aF681.4310051107326
aF0.0
aF0.0
aF0.0
aF0.0
aF0.0
aF0.0
aF0.0
asS'Bacteria.Actinobacteriota.Actinobacteria.Pseudonocardiales.Pseudonocardiaceae'
p389
(lp390
F0.0
aF0.0
aF101.68888286288109
aF0.0
aF0.0
aF31988.935486749353
aF5257.623554153523
aF0.0
aF0.0
aF0.0
aF0.0
aF0.0
asS'Bacteria.Firmicutes.Bacilli.Lactobacillales.Streptococcaceae.Streptococcus'
p391
(lp392
F0.0
aF0.0
aF0.0
aF980.7482746095168
aF0.0
aF624.6096189881324
aF0.0
aF414.4254595373976
aF2133.238522732323
aF361.16665638956675
aF1877.758987986735
aF2294.8666743387876
asS'Bacteria.Actinobacteriota.Actinobacteria.Pseudonocardiales.Pseudonocardiaceae.Pseudonocardia'
p393
(lp394
F0.0
aF0.0
aF0.0
aF0.0
aF0.0
aF0.0
aF5257.623554153523
aF0.0
aF0.0
aF0.0
aF0.0
aF0.0
asS'Bacteria.Firmicutes.Bacilli.Lactobacillales.Streptococcaceae'
p395
(lp396
F0.0
aF0.0
aF0.0
aF980.7482746095168
aF0.0
aF624.6096189881324
aF0.0
aF414.4254595373976
aF2133.238522732323
aF361.16665638956675
aF1877.758987986735
aF2294.8666743387876
asS'Bacteria.Firmicutes.Clostridia.Lachnospirales.Lachnospiraceae.A2'
p397
(lp398
F18096.187169543056
aF4940.6583964341335
aF2821.86649944495
aF0.0
aF0.0
aF0.0
aF0.0
aF0.0
aF0.0
aF0.0
aF0.0
aF0.0
asS'Bacteria.Proteobacteria.Gammaproteobacteria.Burkholderiales.Alcaligenaceae'
p399
(lp400
F158.68280576589842
aF250.61310706549955
aF177.9555450100419
aF0.0
aF0.0
aF892.2994556973321
aF0.0
aF34.53545496144981
aF0.0
aF79.28048554892929
aF0.0
aF0.0
asS'Bacteria.Firmicutes.Clostridia.Lachnospirales.Lachnospiraceae._Eubacterium__hallii_group'
p401
(lp402
F0.0
aF0.0
aF0.0
aF0.0
aF0.0
aF0.0
aF0.0
aF781.3646685028018
aF0.0
aF167.3699139366285
aF0.0
aF352.01494709621517
asS'Bacteria.Bacteroidota.Bacteroidia.Bacteroidales.Muribaculaceae'
p403
(lp404
F237122.89031209736
aF15484.30982940408
aF11575.58449922463
aF78913.91209589539
aF462237.365133447
aF82225.39484250915
aF67998.59796705224
aF490658.15943292785
aF437387.96794216556
aF396891.3240721982
aF528539.7404080558
aF497106.03096377634
asS'Bacteria.Firmicutes.Bacilli.Exiguobacterales'
p405
(lp406
F0.0
aF0.0
aF0.0
aF0.0
aF0.0
aF713.8395645578656
aF0.0
aF0.0
aF0.0
aF0.0
aF0.0
aF0.0
asS'Bacteria.Bacteroidota.Bacteroidia.Bacteroidales.Prevotellaceae'
p407
(lp408
F5477.730455038814
aF304.3159157223923
aF110.16295643478784
aF6738.103886669089
aF13458.26235093697
aF19541.35807977157
aF17174.903610234844
aF216571.8380632517
aF107891.5011184688
aF81086.31883087712
aF31087.34324555817
aF94150.4593118108
asS'Bacteria.Firmicutes.Clostridia.Oscillospirales.Ruminococcaceae.Incertae_Sedis'
p409
(lp410
F18889.60119837255
aF161.10842597067827
aF161.0073978662284
aF19324.373410824555
aF8290.743895513913
aF1963.0588025341306
aF0.0
aF431.69318701812256
aF3866.494822452335
aF836.8495696831425
aF5320.317132629082
aF1875.1565451086847
asS'Bacteria.Firmicutes.Clostridia.Peptostreptococcales_Tissierellales.Peptostreptococcaceae.Romboutsia'
p411
(lp412
F9806.597396332523
aF201242.3249735961
aF235833.46750616503
aF25299.673083908467
aF7041.45371947757
aF5086.106897474792
aF5257.623554153523
aF1126.7192181172998
aF1748.0704561278758
aF3149.197064860247
aF53219.642896360885
aF4427.264911556245
asS'Bacteria.Bacteroidota.Bacteroidia.Flavobacteriales'
p413
(lp414
F0.0
aF0.0
aF0.0
aF254.26807119505992
aF0.0
aF0.0
aF0.0
aF0.0
aF0.0
aF0.0
aF0.0
aF0.0
asS'Bacteria.Proteobacteria.Gammaproteobacteria.Pasteurellales'
p415
(lp416
F285.62905037861714
aF0.0
aF0.0
aF0.0
aF0.0
aF669.224591772999
aF0.0
aF0.0
aF0.0
aF0.0
aF0.0
aF0.0
asS'Bacteria.Proteobacteria.Gammaproteobacteria.Burkholderiales.Burkholderiaceae'
p417
(lp418
F793.4140288294922
aF2112.3104738377815
aF1872.7702593913932
aF2560.842717035961
aF6076.093128904033
aF3792.2726867136607
aF10164.73887136348
aF0.0
aF0.0
aF110.11178548462401
aF538.0712889552633
aF135.39036426777508
asS'Bacteria.Firmicutes.Bacilli'
p419
(lp420
F0.0
aF1091.9571093568193
aF1262.6369622141067
aF563.0221576462042
aF738.2169222032937
aF847.6844829124655
aF0.0
aF5901.245866537735
aF1318.4599202998386
aF1435.8576827194972
aF6187.819822985527
aF2288.0971561253987
asS'Bacteria.Acidobacteriota.Acidobacteriae'
p421
(lp422
F0.0
aF0.0
aF0.0
aF0.0
aF681.4310051107326
aF0.0
aF0.0
aF0.0
aF0.0
aF0.0
aF0.0
aF0.0
asS'Bacteria.Firmicutes.Clostridia.Oscillospirales.Ruminococcaceae.Negativibacillus'
p423
(lp424
F0.0
aF0.0
aF0.0
aF671.9941881583726
aF0.0
aF0.0
aF0.0
aF0.0
aF0.0
aF0.0
aF0.0
aF0.0
asS'Bacteria.Actinobacteriota.Actinobacteria.Streptomycetales.Streptomycetaceae.Streptomyces'
p425
(lp426
F0.0
aF0.0
aF0.0
aF0.0
aF0.0
aF0.0
aF3505.0823694356823
aF0.0
aF0.0
aF0.0
aF0.0
aF0.0
asS'Bacteria.Proteobacteria.Gammaproteobacteria.Enterobacterales.Morganellaceae.Proteus'
p427
(lp428
F0.0
aF0.0
aF0.0
aF0.0
aF0.0
aF0.0
aF0.0
aF120.8740923650743
aF0.0
aF0.0
aF0.0
aF0.0
asS'Bacteria.Verrucomicrobiota.Verrucomicrobiae'
p429
(lp430
F87161.29155109268
aF5352.379929470311
aF6152.177413204306
aF1071.558300036324
aF908.5746734809768
aF55277.95128044972
aF142656.85243603226
aF137744.66211374255
aF0.0
aF0.0
aF269.03564447763165
aF40.61710928033252
asS'Bacteria.Firmicutes.Clostridia.Peptostreptococcales_Tissierellales.Anaerovoracaceae._Eubacterium__nodatum_group'
p431
(lp432
F0.0
aF0.0
aF0.0
aF417.72611696331273
aF0.0
aF0.0
aF0.0
aF0.0
aF0.0
aF246.6503994855578
aF71.37680363692269
aF142.15988248116383
asS'Bacteria.Firmicutes.Clostridia.Oscillospirales.Oscillospiraceae.Papillibacter'
p433
(lp434
F3840.1238995347417
aF1378.3720888602475
aF389.80738430771083
aF0.0
aF0.0
aF0.0
aF0.0
aF0.0
aF1022.1767921425715
aF0.0
aF0.0
aF907.115440594093
asS'Bacteria.Firmicutes.Clostridia.Lachnospirales.Lachnospiraceae.Eisenbergiella'
p435
(lp436
F0.0
aF0.0
aF0.0
aF508.53614239011983
aF0.0
aF0.0
aF0.0
aF0.0
aF0.0
aF0.0
aF0.0
aF0.0
asS'Bacteria.Firmicutes.Bacilli.Erysipelotrichales.Erysipelotrichaceae.Faecalitalea'
p437
(lp438
F0.0
aF0.0
aF0.0
aF0.0
aF0.0
aF0.0
aF0.0
aF69.07090992289962
aF0.0
aF0.0
aF0.0
aF0.0
asS'Bacteria.Deferribacterota.Deferribacteres.Deferribacterales.Deferribacteraceae'
p439
(lp440
F0.0
aF411.7215330361778
aF0.0
aF0.0
aF0.0
aF0.0
aF0.0
aF0.0
aF0.0
aF0.0
aF87.84837370698176
aF0.0
asS'Bacteria.Campilobacterota.Campylobacteria.Campylobacterales.Helicobacteraceae'
p441
(lp442
F0.0
aF0.0
aF0.0
aF2306.5746458409008
aF0.0
aF0.0
aF0.0
aF0.0
aF0.0
aF0.0
aF38.43366349680452
aF0.0
asS'Bacteria.Proteobacteria.Gammaproteobacteria.Enterobacterales.Enterobacteriaceae.Escherichia_Shigella'
p443
(lp444
F2018.4452893422279
aF7661.600701716699
aF7008.058843966888
aF5775.517617144933
aF21408.290743895515
aF12269.117515838316
aF30143.708377146868
aF8284.192258877772
aF1733.2562997200123
aF629.8394129720493
aF3113.126743241166
aF1441.9073794518047
asS'Bacteria.Verrucomicrobiota.Verrucomicrobiae.Verrucomicrobiales.Akkermansiaceae'
p445
(lp446
F87161.29155109268
aF5352.379929470311
aF6152.177413204306
aF1071.558300036324
aF908.5746734809768
aF55277.95128044972
aF142656.85243603226
aF137744.66211374255
aF0.0
aF0.0
aF269.03564447763165
aF40.61710928033252
asS'Bacteria.Firmicutes.Clostridia.Oscillospirales._Eubacterium__coprostanoligenes_group._Eubacterium__coprostanoligenes_group'
p447
(lp448
F26392.124254984228
aF48815.85306911552
aF38785.834738617225
aF25553.941155103523
aF6700.738216922205
aF13562.951726599447
aF0.0
aF0.0
aF19643.571396826806
aF52.85365703261953
aF16317.835416071863
aF2755.1939128492227
asS'Bacteria.Firmicutes.Bacilli.Exiguobacterales.Exiguobacteraceae'
p449
(lp450
F0.0
aF0.0
aF0.0
aF0.0
aF0.0
aF713.8395645578656
aF0.0
aF0.0
aF0.0
aF0.0
aF0.0
aF0.0
asS'Bacteria.Firmicutes.Clostridia.Lachnospirales.Lachnospiraceae.uncultured'
p451
(lp452
F139.64086907399061
aF250.61310706549955
aF347.437016448177
aF0.0
aF0.0
aF0.0
aF0.0
aF0.0
aF0.0
aF0.0
aF0.0
aF0.0
asS'Bacteria.Desulfobacterota.Desulfovibrionia.Desulfovibrionales.Desulfovibrionaceae'
p453
(lp454
F0.0
aF0.0
aF0.0
aF12041.409371594624
aF14366.837024417946
aF0.0
aF0.0
aF0.0
aF0.0
aF0.0
aF0.0
aF0.0
asS'Bacteria.Proteobacteria.Gammaproteobacteria.Pseudomonadales'
p455
(lp456
F355.44948491561246
aF1933.301111648139
aF457.5999728829649
aF1634.5804576825283
aF0.0
aF2766.1283126617295
aF15071.854188573434
aF0.0
aF0.0
aF290.6951136794074
aF164.7157007005908
aF148.9294006945526
asS'Bacteria.Firmicutes.Clostridia.Oscillospirales.Butyricicoccaceae.UCG_008'
p457
(lp458
F0.0
aF0.0
aF0.0
aF0.0
aF0.0
aF0.0
aF3505.0823694356823
aF0.0
aF0.0
aF0.0
aF0.0
aF0.0
asS'Bacteria.Firmicutes.Clostridia.Oscillospirales.Butyricicoccaceae.UCG_009'
p459
(lp460
F0.0
aF1109.8580455757835
aF262.69628072910945
aF1107.8823102070469
aF0.0
aF0.0
aF0.0
aF0.0
aF0.0
aF237.8414566467879
aF159.22517734390442
aF88.00373677405379
asS'Bacteria.Firmicutes.Clostridia.Oscillospirales.Butyricicoccaceae.Butyricicoccus'
p461
(lp462
F406.22798276069994
aF0.0
aF0.0
aF0.0
aF511.0732538330495
aF0.0
aF0.0
aF0.0
aF0.0
aF295.0995850987924
aF384.3366349680452
aF236.9331374686064
asS'Bacteria.Firmicutes.Clostridia.Peptostreptococcales_Tissierellales.Anaerovoracaceae.Family_XIII_AD3011_group'
p463
(lp464
F0.0
aF196.9102984086068
aF305.06664858864326
aF0.0
aF0.0
aF0.0
aF0.0
aF159.72647919670536
aF0.0
aF145.3475568397037
aF0.0
aF0.0
asS'Bacteria.Bacteroidota.Bacteroidia.Bacteroidales.Bacteroidaceae.Bacteroides'
p465
(lp466
F3294.2550477000514
aF250.61310706549955
aF720.2962536120743
aF2088.630584816564
aF31289.04031800114
aF4149.1924689925945
aF2804.065895548546
aF71350.2499503553
aF239841.1922433077
aF340461.23624703806
aF37577.14185316145
aF290100.9335165617
asS'Bacteria.Proteobacteria.Alphaproteobacteria'
p467
(lp468
F0.0
aF0.0
aF135.58517715050812
aF0.0
aF1249.2901760363432
aF223.07486392433302
aF0.0
aF38.85238683163103
aF0.0
aF74.87601412954433
aF126.28203720378629
aF0.0
asS'Bacteria.Firmicutes.Clostridia.Christensenellales.Christensenellaceae'
p469
(lp470
F4785.873421899497
aF787.6411936344272
aF525.3925614582189
aF13893.933890301489
aF21294.718909710395
aF1561.524047470331
aF0.0
aF146.77568358616165
aF0.0
aF0.0
aF263.5451211209453
aF74.4647003472763
asS'Bacteria.Actinobacteriota.Actinobacteria.Corynebacteriales.Corynebacteriaceae.Corynebacterium'
p471
(lp472
F0.0
aF0.0
aF0.0
aF0.0
aF0.0
aF0.0
aF0.0
aF0.0
aF0.0
aF0.0
aF0.0
aF372.32350173638144
asS'Bacteria.Deferribacterota.Deferribacteres'
p473
(lp474
F0.0
aF411.7215330361778
aF0.0
aF0.0
aF0.0
aF0.0
aF0.0
aF0.0
aF0.0
aF0.0
aF87.84837370698176
aF0.0
asS'Bacteria.Firmicutes.Clostridia.Clostridiales'
p475
(lp476
F25611.40485061601
aF190841.88103037787
aF293846.9751794387
aF10352.342898656012
aF14991.482112436119
aF1606.1390202551977
aF0.0
aF0.0
aF0.0
aF0.0
aF290.9977379043771
aF0.0
asS'Bacteria.Firmicutes.Clostridia.Eubacteriales.Anaerofustaceae.Anaerofustis'
p477
(lp478
F0.0
aF358.01872437928506
aF0.0
aF0.0
aF0.0
aF1695.368965824931
aF0.0
aF0.0
aF0.0
aF0.0
aF0.0
aF0.0
asS'Bacteria.Firmicutes.Bacilli.Lactobacillales'
p479
(lp480
F1294.8516950497312
aF25848.95190018438
aF59708.32238765501
aF6701.779876498365
aF13685.406019307213
aF5309.181761399126
aF0.0
aF9246.868065928184
aF124350.02888760499
aF18666.149875353465
aF89264.92873300685
aF39946.92697720703
asS'Bacteria.Actinobacteriota.Actinobacteria'
p481
(lp482
F1497.9656864300812
aF5943.110824696131
aF6863.999593244473
aF635.6701779876498
aF13798.977853492335
aF80931.56063174801
aF14370.837714686297
aF0.0
aF0.0
aF0.0
aF6138.40511277535
aF372.32350173638144
asS'Bacteria.Firmicutes.Clostridia.Clostridiales.Clostridiaceae'
p483
(lp484
F25611.40485061601
aF190841.88103037787
aF293846.9751794387
aF10352.342898656012
aF14991.482112436119
aF1606.1390202551977
aF0.0
aF0.0
aF0.0
aF0.0
aF290.9977379043771
aF0.0
asS'Bacteria.Firmicutes.Clostridia.Peptostreptococcales_Tissierellales.Anaerovoracaceae._Eubacterium__brachy_group'
p485
(lp486
F1231.3785727433717
aF358.01872437928506
aF211.85183929766893
aF0.0
aF0.0
aF0.0
aF0.0
aF0.0
aF0.0
aF48.44918561323457
aF214.13041091076803
aF0.0
asS'Bacteria.Actinobacteriota.Coriobacteriia.Coriobacteriales.uncultured'
p487
(lp488
F596.6473496797781
aF268.51404328446375
aF220.3259128695757
aF7246.640029059208
aF2385.0085178875643
aF3167.6630677255284
aF0.0
aF0.0
aF562.9379434988074
aF48.44918561323457
aF999.2752509169176
aF250.47217389538392
asS'Bacteria.Bacteroidota.Bacteroidia.Flavobacteriales.Weeksellaceae.Chryseobacterium'
p489
(lp490
F0.0
aF0.0
aF0.0
aF254.26807119505992
aF0.0
aF0.0
aF0.0
aF0.0
aF0.0
aF0.0
aF0.0
aF0.0
asS'Bacteria.Firmicutes.Clostridia.uncultured.uncultured'
p491
(lp492
F0.0
aF0.0
aF186.42961858194866
aF599.3461678169269
aF0.0
aF713.8395645578656
aF0.0
aF0.0
aF0.0
aF0.0
aF1295.7635121779808
aF0.0
asS'Bacteria.Firmicutes.Clostridia.Oscillospirales.Ruminococcaceae'
p493
(lp494
F19543.37435812805
aF608.6318314447846
aF1677.866567237538
aF1743.5524881946967
aF3747.8705281090297
aF9413.759257606853
aF4206.0988433228185
aF254.69898034069232
aF0.0
aF0.0
aF3722.574835833352
aF162.46843712133008
asS'Bacteria.Bacteroidota.Bacteroidia.Flavobacteriales.Weeksellaceae'
p495
(lp496
F0.0
aF0.0
aF0.0
aF254.26807119505992
aF0.0
aF0.0
aF0.0
aF0.0
aF0.0
aF0.0
aF0.0
aF0.0
asS'Bacteria.Firmicutes.Clostridia.Oscillospirales.Ruminococcaceae.DTU089'
p497
(lp498
F0.0
aF0.0
aF0.0
aF0.0
aF0.0
aF0.0
aF0.0
aF0.0
aF0.0
aF70.47154271015937
aF0.0
aF0.0
asS'Bacteria.Acidobacteriota.Acidobacteriae.Bryobacterales.Bryobacteraceae.Bryobacter'
p499
(lp500
F0.0
aF0.0
aF0.0
aF0.0
aF681.4310051107326
aF0.0
aF0.0
aF0.0
aF0.0
aF0.0
aF0.0
aF0.0
asS'Bacteria.Actinobacteriota.Actinobacteria.Pseudonocardiales.Pseudonocardiaceae.Saccharopolyspora'
p501
(lp502
F0.0
aF0.0
aF0.0
aF0.0
aF0.0
aF31988.935486749353
aF0.0
aF0.0
aF0.0
aF0.0
aF0.0
aF0.0
asS'Bacteria.Firmicutes.Clostridia.Oscillospirales.Ruminococcaceae.uncultured'
p503
(lp504
F234.85055253352968
aF0.0
aF0.0
aF1289.502361060661
aF1135.718341851221
aF0.0
aF0.0
aF0.0
aF0.0
aF83.68495696831425
aF2476.2260338655483
aF324.93687424266017
asS'Bacteria.Actinobacteriota.Actinobacteria.Bifidobacteriales.Bifidobacteriaceae'
p505
(lp506
F1497.9656864300812
aF5943.110824696131
aF6762.310710381592
aF0.0
aF13798.977853492335
aF48942.62514499866
aF5608.131791097092
aF0.0
aF0.0
aF0.0
aF6138.40511277535
aF0.0
asS'Bacteria.Firmicutes.Clostridia.Oscillospirales.Oscillospiraceae.Oscillibacter'
p507
(lp508
F1745.510863424883
aF286.41497950342807
aF127.11110357860136
aF835.4522339266255
aF567.8591709256106
aF490.76470063353264
aF0.0
aF185.62807041779269
aF0.0
aF2065.697095691546
aF0.0
aF0.0
asS'Bacteria.Firmicutes.Clostridia.Lachnospirales.Lachnospiraceae.Coprococcus'
p509
(lp510
F0.0
aF0.0
aF0.0
aF0.0
aF0.0
aF4238.4224145623275
aF4907.115317209955
aF0.0
aF0.0
aF0.0
aF0.0
aF0.0
asS'Bacteria.Patescibacteria.Saccharimonadia.Saccharimonadales.Saccharimonadaceae.Candidatus_Saccharimonas'
p511
(lp512
F2805.512005941084
aF1181.4617904516406
aF3830.281254501854
aF2306.5746458409008
aF28279.386712095402
aF847.6844829124655
aF0.0
aF0.0
aF0.0
aF0.0
aF949.8605407067403
aF0.0
asS'Bacteria.Firmicutes.Clostridia.Lachnospirales.Lachnospiraceae.Lachnospiraceae_FCS020_group'
p513
(lp514
F0.0
aF0.0
aF0.0
aF0.0
aF0.0
aF0.0
aF0.0
aF0.0
aF0.0
aF0.0
aF0.0
aF169.23795533471886
asS'Bacteria.Firmicutes.Clostridia.Lachnospirales.Lachnospiraceae'
p515
(lp516
F120224.44096047529
aF21892.84499579328
aF26057.77623361328
aF36796.222302942246
aF26859.738784781377
aF16016.775229767109
aF24185.068349106205
aF2715.3501463439907
aF2459.1499637053166
aF37596.56803587002
aF42370.36874354864
aF1827.7699176149636
asS'Bacteria.Firmicutes.Bacilli.Erysipelotrichales.Erysipelatoclostridiaceae.Erysipelatoclostridium'
p517
(lp518
F0.0
aF0.0
aF0.0
aF1434.7984017435524
aF0.0
aF0.0
aF0.0
aF142.4587517159804
aF0.0
aF321.5264136151021
aF60.39575692354996
aF291.08928317571645
asS'Bacteria.Proteobacteria.Gammaproteobacteria.Burkholderiales.Burkholderiaceae.Burkholderia_Caballeronia_Paraburkholderia'
p519
(lp520
F793.4140288294922
aF2112.3104738377815
aF1872.7702593913932
aF2560.842717035961
aF6076.093128904033
aF3792.2726867136607
aF10164.73887136348
aF0.0
aF0.0
aF110.11178548462401
aF538.0712889552633
aF135.39036426777508
asS'Bacteria.Patescibacteria.Saccharimonadia'
p521
(lp522
F2805.512005941084
aF1181.4617904516406
aF3830.281254501854
aF2415.5466763530694
aF28279.386712095402
aF847.6844829124655
aF0.0
aF0.0
aF0.0
aF0.0
aF949.8605407067403
aF0.0
asS'Bacteria.Bacteroidota.Bacteroidia.Bacteroidales.Tannerellaceae'
p523
(lp524
F7089.947761620341
aF0.0
aF152.53332429432163
aF217.9440610243371
aF0.0
aF5398.411706968859
aF0.0
aF25551.919739602672
aF2029.5394278772794
aF27545.564256833546
aF1658.1380537192806
aF2321.944747192342
asS'Bacteria.Actinobacteriota.Actinobacteria.Corynebacteriales'
p525
(lp526
F0.0
aF0.0
aF0.0
aF0.0
aF0.0
aF0.0
aF0.0
aF0.0
aF0.0
aF0.0
aF0.0
aF372.32350173638144
asS'Bacteria.Firmicutes.Bacilli.Erysipelotrichales.Erysipelotrichaceae.Holdemania'
p527
(lp528
F0.0
aF0.0
aF0.0
aF0.0
aF0.0
aF1249.2192379762648
aF0.0
aF479.179437590116
aF0.0
aF0.0
aF0.0
aF0.0
asS'Bacteria.Firmicutes.Clostridia.Peptococcales.Peptococcaceae.uncultured'
p529
(lp530
F1072.6957669774733
aF0.0
aF279.644427872923
aF780.9662186705413
aF0.0
aF847.6844829124655
aF0.0
aF228.79738911960493
aF0.0
aF1131.9491547819348
aF620.4291393055587
aF318.16735602927145
asS'Bacteria.Verrucomicrobiota.Verrucomicrobiae.Verrucomicrobiales'
p531
(lp532
F87161.29155109268
aF5352.379929470311
aF6152.177413204306
aF1071.558300036324
aF908.5746734809768
aF55277.95128044972
aF142656.85243603226
aF137744.66211374255
aF0.0
aF0.0
aF269.03564447763165
aF40.61710928033252
asS'Bacteria.Actinobacteriota.Coriobacteriia.Coriobacteriales.Eggerthellaceae.uncultured'
p533
(lp534
F260.23980145607345
aF0.0
aF0.0
aF0.0
aF0.0
aF0.0
aF0.0
aF0.0
aF0.0
aF0.0
aF0.0
aF0.0
asS'Bacteria.Actinobacteriota.Actinobacteria.Micrococcales.Dermabacteraceae.Brachybacterium'
p535
(lp536
F0.0
aF0.0
aF0.0
aF217.9440610243371
aF0.0
aF0.0
aF0.0
aF0.0
aF0.0
aF0.0
aF0.0
aF0.0
asS'Bacteria.Proteobacteria.Alphaproteobacteria.Caulobacterales'
p537
(lp538
F0.0
aF0.0
aF0.0
aF0.0
aF0.0
aF0.0
aF0.0
aF0.0
aF0.0
aF0.0
aF49.41471021017724
aF0.0
asS'Bacteria.Actinobacteriota.Actinobacteria.Pseudonocardiales'
p539
(lp540
F0.0
aF0.0
aF101.68888286288109
aF0.0
aF0.0
aF31988.935486749353
aF5257.623554153523
aF0.0
aF0.0
aF0.0
aF0.0
aF0.0
asS'Bacteria.Proteobacteria.Gammaproteobacteria.Enterobacterales.Morganellaceae'
p541
(lp542
F0.0
aF0.0
aF0.0
aF0.0
aF0.0
aF0.0
aF0.0
aF120.8740923650743
aF0.0
aF0.0
aF0.0
aF0.0
asS'Bacteria.Patescibacteria.Saccharimonadia.Saccharimonadales'
p543
(lp544
F0.0
aF0.0
aF0.0
aF108.97203051216854
aF0.0
aF0.0
aF0.0
aF0.0
aF0.0
aF0.0
aF0.0
aF0.0
asS'Bacteria.Firmicutes.Clostridia.Lachnospirales.Lachnospiraceae.Blautia'
p545
(lp546
F0.0
aF1074.056173137855
aF1398.222139364615
aF43897.56629131856
aF1078.9324247586599
aF73213.17033996609
aF51174.20259376096
aF64.75397805271838
aF340.72559738085715
aF1140.7580976207048
aF6319.592383546
aF961.2715863012031
asS'Bacteria.Firmicutes.Clostridia.uncultured'
p547
(lp548
F0.0
aF0.0
aF186.42961858194866
aF599.3461678169269
aF0.0
aF713.8395645578656
aF0.0
aF0.0
aF0.0
aF0.0
aF1295.7635121779808
aF0.0
asS'Bacteria.Proteobacteria.Gammaproteobacteria.Enterobacterales'
p549
(lp550
F2018.4452893422279
aF7661.600701716699
aF7008.058843966888
aF5775.517617144933
aF21408.290743895515
aF12269.117515838316
aF30143.708377146868
aF8405.066351242845
aF1733.2562997200123
aF629.8394129720493
aF3113.126743241166
aF1441.9073794518047
asS'Bacteria.Bacteroidota.Bacteroidia.Bacteroidales.Prevotellaceae.Prevotella'
p551
(lp552
F0.0
aF0.0
aF0.0
aF599.3461678169269
aF0.0
aF0.0
aF0.0
aF0.0
aF0.0
aF0.0
aF0.0
aF0.0
asS'Bacteria.Firmicutes.Clostridia.Oscillospirales.Ruminococcaceae.Subdoligranulum'
p553
(lp554
F0.0
aF0.0
aF0.0
aF944.424264438794
aF454.2873367404884
aF176496.83233693228
aF246757.79880827203
aF0.0
aF0.0
aF0.0
aF0.0
aF0.0
asS'Bacteria.Firmicutes.Clostridia.Clostridia_vadinBB60_group.Clostridia_vadinBB60_group.Clostridia_vadinBB60_group'
p555
(lp556
F387.18604606879217
aF340.1177881603208
aF67.79258857525406
aF563.0221576462042
aF0.0
aF0.0
aF0.0
aF0.0
aF474.05300505162734
aF114.51625690400897
aF351.39349482792704
aF264.0112103221614
asS'Bacteria.Proteobacteria.Gammaproteobacteria.Burkholderiales.Comamonadaceae.Delftia'
p557
(lp558
F0.0
aF0.0
aF161.0073978662284
aF1925.172539048311
aF2839.2958546280524
aF758.4545373427322
aF8412.197686645637
aF0.0
aF0.0
aF0.0
aF0.0
aF0.0
asS'Bacteria.Firmicutes.Clostridia.Oscillospirales.Ruminococcaceae.Harryflintia'
p559
(lp560
F177.72474245780623
aF0.0
aF0.0
aF0.0
aF0.0
aF0.0
aF0.0
aF0.0
aF0.0
aF189.39227103355333
aF1054.1804844837811
aF0.0
asS'Bacteria.Actinobacteriota.Actinobacteria.Micrococcales.Micrococcaceae'
p561
(lp562
F0.0
aF0.0
aF0.0
aF417.72611696331273
aF0.0
aF0.0
aF0.0
aF0.0
aF0.0
aF0.0
aF0.0
aF0.0
asS'Bacteria.Actinobacteriota.Actinobacteria.Corynebacteriales.Corynebacteriaceae'
p563
(lp564
F0.0
aF0.0
aF0.0
aF0.0
aF0.0
aF0.0
aF0.0
aF0.0
aF0.0
aF0.0
aF0.0
aF372.32350173638144
asS'Bacteria.Actinobacteriota.Coriobacteriia.Coriobacteriales.Eggerthellaceae.Adlercreutzia'
p565
(lp566
F806.108653290764
aF5459.785546784097
aF4211.614565237658
aF8572.466400290592
aF0.0
aF5086.106897474792
aF16123.378899404137
aF56.12011431235593
aF0.0
aF0.0
aF0.0
aF0.0
asS'Bacteria.Firmicutes.Bacilli.Lactobacillales.Aerococcaceae'
p567
(lp568
F0.0
aF0.0
aF0.0
aF272.43007628042136
aF0.0
aF0.0
aF0.0
aF250.38204847051105
aF0.0
aF83.68495696831425
aF0.0
aF148.9294006945526
asS'Bacteria.Firmicutes.Clostridia.Oscillospirales.Oscillospiraceae'
p569
(lp570
F13557.858924638362
aF8699.855002416627
aF3584.5331209165583
aF50944.42426443879
aF18625.780806360024
aF2810.7432854465956
aF0.0
aF2529.722075926198
aF4251.662889056783
aF22026.761568344187
aF8027.145147475458
aF3357.681033840822
asS'Bacteria.Firmicutes.Clostridia.Oscillospirales.Oscillospiraceae.UCG_003'
p571
(lp572
F158.68280576589842
aF0.0
aF0.0
aF0.0
aF0.0
aF0.0
aF0.0
aF0.0
aF814.7786024324845
aF0.0
aF0.0
aF0.0
asS'Bacteria.Firmicutes.Clostridia.Christensenellales.Christensenellaceae.uncultured'
p573
(lp574
F0.0
aF0.0
aF0.0
aF0.0
aF0.0
aF0.0
aF0.0
aF0.0
aF0.0
aF0.0
aF115.30099049041357
aF0.0
asS'Bacteria.Firmicutes.Clostridia.Oscillospirales.Oscillospiraceae.UCG_005'
p575
(lp576
F1358.3248173560905
aF13389.900291785261
aF2059.199877973342
aF1144.2063203777698
aF2668.9381033503696
aF4416.8823057017935
aF0.0
aF0.0
aF385.1680666044472
aF409.61584200280134
aF603.9575692354996
aF128.6208460543863
asS'Bacteria'
p577
(lp578
F1000000.0
aF1000000.0
aF1000000.0
aF1000000.0
aF1000000.0
aF1000000.0
aF1000000.0
aF1000000.0
aF1000000.0
aF1000000.0
aF1000000.0
aF1000000.0
asS'Bacteria.Actinobacteriota.Actinobacteria.Streptomycetales.Streptomycetaceae'
p579
(lp580
F0.0
aF0.0
aF0.0
aF0.0
aF0.0
aF0.0
aF3505.0823694356823
aF0.0
aF0.0
aF0.0
aF0.0
aF0.0
assS'subclass_sl'
p581
(dp582
g12
(I0
I7
tp583
sg10
(I7
I12
tp584
ssS'norm'
p585
F1000000.0
sS'cls'
p586
(dp587
S'class'
p588
(S'HSD-NR'
p589
S'HSD-NR'
p590
S'HSD-NR'
p591
S'HSD-NR'
p592
S'HSD-NR'
p593
S'HSD-NR'
p594
g5
S'NR'
p595
S'NR'
p596
S'NR'
p597
S'NR'
p598
g3
tp599
sS'subclass'
p600
(lp601
S'HSD-NR_subcl'
p602
aS'HSD-NR_subcl'
p603
aS'HSD-NR_subcl'
p604
aS'HSD-NR_subcl'
p605
aS'HSD-NR_subcl'
p606
aS'HSD-NR_subcl'
p607
ag12
aS'NR_subcl'
p608
aS'NR_subcl'
p609
aS'NR_subcl'
p610
aS'NR_subcl'
p611
ag10
asS'subject'
p612
(S'S210421121691'
p613
S'S210421121692'
p614
S'S210421121693'
p615
S'S210421121707'
p616
S'S210421121708'
p617
S'S210421121709'
p618
S'S210421121710'
p619
S'S210421121677'
p620
S'S210421121678'
p621
S'S210421121679'
p622
S'S210421121680'
p623
S'S210421121681'
p624
tp625
ss.