(dp0
S'class_sl'
p1
(dp2
S'NR'
p3
(I7
I12
tp4
sS'HSD-NR'
p5
(I0
I7
tp6
ssS'class_hierarchy'
p7
(dp8
g3
(lp9
S'NR_subcl'
p10
asg5
(lp11
S'HSD-NR_subcl'
p12
assS'feats'
p13
(dp14
S'Bacteria.Chloroflexi'
p15
(lp16
F0.0
aF0.0
aF0.0
aF0.0
aF454.2873367404884
aF0.0
aF0.0
aF0.0
aF0.0
aF0.0
aF0.0
aF0.0
asS'Bacteria.Campilobacterota'
p17
(lp18
F0.0
aF0.0
aF0.0
aF2306.5746458409008
aF0.0
aF0.0
aF0.0
aF0.0
aF0.0
aF0.0
aF38.43366349680452
aF0.0
asS'Bacteria.Firmicutes.Clostridia'
p19
(lp20
F618596.3553733171
aF819003.6338900524
aF771759.3024142636
aF826371.2313839447
aF314082.90743895515
aF656955.4742571607
aF596214.5110410094
aF27973.71851877434
aF78115.04673866348
aF115154.90525981976
aF284733.05075439793
aF63586.084578360555
asS'Bacteria.Campilobacterota.Campylobacteria'
p21
(lp22
F0.0
aF0.0
aF0.0
aF2306.5746458409008
aF0.0
aF0.0
aF0.0
aF0.0
aF0.0
aF0.0
aF38.43366349680452
aF0.0
asS'Bacteria.Acidobacteriota.Acidobacteriae'
p23
(lp24
F0.0
aF0.0
aF0.0
aF0.0
aF681.4310051107326
aF0.0
aF0.0
aF0.0
aF0.0
aF0.0
aF0.0
aF0.0
asS'Bacteria.Proteobacteria.Gammaproteobacteria'
p25
(lp26
F3719.5249671526594
aF12047.330075362941
aF9677.39201911751
aF12695.241554667637
aF30323.6797274276
aF29133.57722851789
aF63792.49912372941
aF14215.656648506774
aF2636.9198405996776
aF4593.863690418513
aF4073.9683306612787
aF3025.974641384773
asS'Bacteria.Deferribacterota.Deferribacteres'
p27
(lp28
F0.0
aF411.7215330361778
aF0.0
aF0.0
aF0.0
aF0.0
aF0.0
aF0.0
aF0.0
aF0.0
aF87.84837370698175
aF0.0
asS'Bacteria.Actinobacteriota'
p29
(lp30
F12224.923356204816
aF19368.812988919322
aF17422.695263840276
aF22466.400290592082
aF21521.862578080636
aF103462.12188810566
aF37854.88958990537
aF56.12011431235593
aF992.5484793268448
aF105.70731406523903
aF9191.136099092966
aF2355.792338259286
asS'Bacteria'
p31
(lp32
F1000000.0
aF1000000.0
aF1000000.0
aF1000000.0
aF1000000.0
aF1000000.0
aF1000000.0
aF1000000.0
aF1000000.0
aF1000000.0
aF1000000.0
aF1000000.0
asS'Bacteria.Firmicutes'
p33
(lp34
F637130.5070867741
aF944990.4229991229
aF949901.2770428873
aF856320.3777697057
aF393923.906871096
aF695458.1957705006
aF667718.1913774974
aF43812.54155046926
aF205487.1635334726
aF137489.9798275209
aF385791.623657567
aF109029.86034483925
asS'Bacteria.Actinobacteriota.Actinobacteria'
p35
(lp36
F1497.9656864300812
aF5943.110824696131
aF6863.999593244468
aF635.6701779876498
aF13798.977853492335
aF80931.56063174801
aF14370.837714686297
aF0.0
aF0.0
aF0.0
aF6138.405112775349
aF372.32350173638144
asS'Bacteria.Patescibacteria'
p37
(lp38
F2805.512005941084
aF1181.4617904516406
aF3830.2812545018514
aF2415.5466763530694
aF28279.386712095402
aF847.6844829124655
aF0.0
aF0.0
aF0.0
aF0.0
aF949.8605407067402
aF0.0
asS'Bacteria.Acidobacteriota'
p39
(lp40
F0.0
aF0.0
aF0.0
aF0.0
aF681.4310051107326
aF0.0
aF0.0
aF0.0
aF0.0
aF0.0
aF0.0
aF0.0
asS'Bacteria.Verrucomicrobiota'
p41
(lp42
F87161.29155109268
aF5352.379929470311
aF6152.177413204301
aF1071.558300036324
aF908.5746734809768
aF55277.95128044972
aF142656.85243603226
aF137744.66211374255
aF0.0
aF0.0
aF269.03564447763165
aF40.61710928033252
asS'Bacteria.Proteobacteria.Alphaproteobacteria'
p43
(lp44
F0.0
aF0.0
aF135.58517715050803
aF0.0
aF1249.2901760363432
aF223.07486392433302
aF0.0
aF38.85238683163103
aF0.0
aF74.87601412954432
aF126.28203720378627
aF0.0
asS'Bacteria.Actinobacteriota.Coriobacteriia'
p45
(lp46
F10726.957669774734
aF13425.702164223188
aF10558.695670595811
aF21830.730112604433
aF7722.884724588303
aF22530.561256357632
aF23484.05187521907
aF56.12011431235593
aF992.5484793268448
aF105.70731406523903
aF3052.7309863176156
aF1983.4688365229047
asS'Bacteria.Cyanobacteria'
p47
(lp48
F50.77849784508749
aF0.0
aF0.0
aF1325.826371231384
aF454.2873367404884
aF0.0
aF0.0
aF0.0
aF814.7786024324846
aF0.0
aF164.71570070059076
aF440.01868387026894
asS'Bacteria.Patescibacteria.Saccharimonadia'
p49
(lp50
F2805.512005941084
aF1181.4617904516406
aF3830.2812545018514
aF2415.5466763530694
aF28279.386712095402
aF847.6844829124655
aF0.0
aF0.0
aF0.0
aF0.0
aF949.8605407067402
aF0.0
asS'Bacteria.Proteobacteria'
p51
(lp52
F3719.5249671526594
aF12047.330075362941
aF9812.977196268019
aF12695.241554667637
aF31572.969903463945
aF29356.652092442222
aF63792.49912372941
aF14254.509035338406
aF2636.9198405996776
aF4668.7397045480575
aF4200.250367865065
aF3025.974641384773
asS'Bacteria.Bacteroidota.Bacteroidia'
p53
(lp54
F256907.46253498958
aF16647.870683636753
aF12880.591829298262
aF89357.0650199782
aF507836.45655877347
aF115597.39448558936
aF87977.56747283562
aF804132.1671861375
aF790068.5895441684
aF857735.5731538659
aF599307.0959523862
aF885107.7368823661
asS'Bacteria.Bacteroidota'
p55
(lp56
F256907.46253498958
aF16647.870683636753
aF12880.591829298262
aF89357.0650199782
aF507836.45655877347
aF115597.39448558936
aF87977.56747283562
aF804132.1671861375
aF790068.5895441684
aF857735.5731538659
aF599307.0959523862
aF885107.7368823661
asS'Bacteria.Desulfobacterota'
p57
(lp58
F0.0
aF0.0
aF0.0
aF12041.409371594624
aF14366.837024417946
aF0.0
aF0.0
aF0.0
aF0.0
aF0.0
aF0.0
aF0.0
asS'Bacteria.Desulfobacterota.Desulfovibrionia'
p59
(lp60
F0.0
aF0.0
aF0.0
aF12041.409371594624
aF14366.837024417946
aF0.0
aF0.0
aF0.0
aF0.0
aF0.0
aF0.0
aF0.0
asS'Bacteria.Firmicutes.Bacilli'
p61
(lp62
F18534.151713456937
aF125986.7891090704
aF178141.97462862372
aF29949.14638576099
aF79840.99943214084
aF38502.72151333987
aF71503.68033648792
aF15838.823031694914
aF127372.11679480913
aF22335.07456770113
aF101058.57290316913
aF45443.7757664787
asS'Bacteria.Cyanobacteria.Vampirivibrionia'
p63
(lp64
F50.77849784508749
aF0.0
aF0.0
aF1325.826371231384
aF0.0
aF0.0
aF0.0
aF0.0
aF814.7786024324846
aF0.0
aF164.71570070059076
aF440.01868387026894
asS'Bacteria.Verrucomicrobiota.Verrucomicrobiae'
p65
(lp66
F87161.29155109268
aF5352.379929470311
aF6152.177413204301
aF1071.558300036324
aF908.5746734809768
aF55277.95128044972
aF142656.85243603226
aF137744.66211374255
aF0.0
aF0.0
aF269.03564447763165
aF40.61710928033252
asS'Bacteria.Deferribacterota'
p67
(lp68
F0.0
aF411.7215330361778
aF0.0
aF0.0
aF0.0
aF0.0
aF0.0
aF0.0
aF0.0
aF0.0
aF87.84837370698175
aF0.0
asS'Bacteria.Cyanobacteria.Cyanobacteriia'
p69
(lp70
F0.0
aF0.0
aF0.0
aF0.0
aF454.2873367404884
aF0.0
aF0.0
aF0.0
aF0.0
aF0.0
aF0.0
aF0.0
asS'Bacteria.Chloroflexi.Anaerolineae'
p71
(lp72
F0.0
aF0.0
aF0.0
aF0.0
aF454.2873367404884
aF0.0
aF0.0
aF0.0
aF0.0
aF0.0
aF0.0
aF0.0
assS'subclass_sl'
p73
(dp74
g12
(I0
I7
tp75
sg10
(I7
I12
tp76
ssS'norm'
p77
F1000000.0
sS'cls'
p78
(dp79
S'class'
p80
(S'HSD-NR'
p81
S'HSD-NR'
p82
S'HSD-NR'
p83
S'HSD-NR'
p84
S'HSD-NR'
p85
S'HSD-NR'
p86
g5
S'NR'
p87
S'NR'
p88
S'NR'
p89
S'NR'
p90
g3
tp91
sS'subclass'
p92
(lp93
S'HSD-NR_subcl'
p94
aS'HSD-NR_subcl'
p95
aS'HSD-NR_subcl'
p96
aS'HSD-NR_subcl'
p97
aS'HSD-NR_subcl'
p98
aS'HSD-NR_subcl'
p99
ag12
aS'NR_subcl'
p100
aS'NR_subcl'
p101
aS'NR_subcl'
p102
aS'NR_subcl'
p103
ag10
asS'subject'
p104
(S'S210421121691'
p105
S'S210421121692'
p106
S'S210421121693'
p107
S'S210421121707'
p108
S'S210421121708'
p109
S'S210421121709'
p110
S'S210421121710'
p111
S'S210421121677'
p112
S'S210421121678'
p113
S'S210421121679'
p114
S'S210421121680'
p115
S'S210421121681'
p116
tp117
ss.