(dp0
S'class_sl'
p1
(dp2
S'NR'
p3
(I7
I12
tp4
sS'HSD-NR'
p5
(I0
I7
tp6
ssS'class_hierarchy'
p7
(dp8
g3
(lp9
S'NR_subcl'
p10
asg5
(lp11
S'HSD-NR_subcl'
p12
assS'feats'
p13
(dp14
S'Bacteria.Chloroflexi'
p15
(lp16
F0.0
aF0.0
aF0.0
aF0.0
aF227.14366837024417
aF0.0
aF0.0
aF0.0
aF0.0
aF0.0
aF0.0
aF0.0
asS'Bacteria.Desulfobacterota'
p17
(lp18
F0.0
aF0.0
aF0.0
aF6020.704685797312
aF7183.418512208972
aF0.0
aF0.0
aF0.0
aF0.0
aF0.0
aF0.0
aF0.0
asS'Bacteria.Actinobacteriota'
p19
(lp20
F6112.461678102407
aF9684.406494459661
aF8711.34763192014
aF11233.200145296041
aF10760.931289040318
aF51731.06094405283
aF18927.44479495268
aF28.06005715617796
aF496.27423966342235
aF52.853657032619516
aF4595.568049546482
aF1177.896169129643
asS'Bacteria'
p21
(lp22
F500000.0
aF500000.0
aF500000.0
aF500000.0
aF500000.0
aF500000.0
aF500000.0
aF500000.0
aF500000.0
aF500000.0
aF500000.0
aF500000.0
asS'Bacteria.Cyanobacteria'
p23
(lp24
F25.389248922543747
aF0.0
aF0.0
aF662.913185615692
aF227.14366837024417
aF0.0
aF0.0
aF0.0
aF407.38930121624225
aF0.0
aF82.35785035029537
aF220.00934193513447
asS'Bacteria.Firmicutes'
p25
(lp26
F318565.25354338705
aF472495.21149956144
aF474950.63852144365
aF428160.1888848529
aF196961.95343554797
aF347729.0978852503
aF333859.09568874864
aF21906.270775234625
aF102743.5817667363
aF68744.98991376045
aF192895.81182878348
aF54514.930172419634
asS'Bacteria.Patescibacteria'
p27
(lp28
F1402.756002970542
aF590.7308952258203
aF1915.1406272509257
aF1207.7733381765347
aF14139.693356047701
aF423.8422414562327
aF0.0
aF0.0
aF0.0
aF0.0
aF474.93027035336996
aF0.0
asS'Bacteria.Campilobacterota'
p29
(lp30
F0.0
aF0.0
aF0.0
aF1153.2873229204504
aF0.0
aF0.0
aF0.0
aF0.0
aF0.0
aF0.0
aF19.216831748402253
aF0.0
asS'Bacteria.Proteobacteria'
p31
(lp32
F1859.7624835763297
aF6023.6650376814705
aF4906.488598134009
aF6347.620777333818
aF15786.48495173197
aF14678.326046221113
aF31896.2495618647
aF7127.254517669202
aF1318.4599202998386
aF2334.3698522740283
aF2100.125183932532
aF1512.9873206923864
asS'Bacteria.Acidobacteriota'
p33
(lp34
F0.0
aF0.0
aF0.0
aF0.0
aF340.71550255536624
aF0.0
aF0.0
aF0.0
aF0.0
aF0.0
aF0.0
aF0.0
asS'Bacteria.Deferribacterota'
p35
(lp36
F0.0
aF205.8607665180889
aF0.0
aF0.0
aF0.0
aF0.0
aF0.0
aF0.0
aF0.0
aF0.0
aF43.92418685349086
aF0.0
asS'Bacteria.Verrucomicrobiota'
p37
(lp38
F43580.64577554634
aF2676.1899647351556
aF3076.0887066021505
aF535.779150018162
aF454.28733674048834
aF27638.97564022486
aF71328.42621801612
aF68872.33105687126
aF0.0
aF0.0
aF134.51782223881577
aF20.30855464016626
asS'Bacteria.Bacteroidota'
p39
(lp40
F128453.73126749479
aF8323.935341818376
aF6440.295914649131
aF44678.5325099891
aF253918.2282793867
aF57798.69724279468
aF43988.783736417805
aF402066.0835930687
aF395034.29477208416
aF428867.78657693294
aF299653.547976193
aF442553.86844118306
assS'subclass_sl'
p41
(dp42
g12
(I0
I7
tp43
sg10
(I7
I12
tp44
ssS'norm'
p45
F1000000.0
sS'cls'
p46
(dp47
S'class'
p48
(S'HSD-NR'
p49
S'HSD-NR'
p50
S'HSD-NR'
p51
S'HSD-NR'
p52
S'HSD-NR'
p53
S'HSD-NR'
p54
g5
S'NR'
p55
S'NR'
p56
S'NR'
p57
S'NR'
p58
g3
tp59
sS'subclass'
p60
(lp61
S'HSD-NR_subcl'
p62
aS'HSD-NR_subcl'
p63
aS'HSD-NR_subcl'
p64
aS'HSD-NR_subcl'
p65
aS'HSD-NR_subcl'
p66
aS'HSD-NR_subcl'
p67
ag12
aS'NR_subcl'
p68
aS'NR_subcl'
p69
aS'NR_subcl'
p70
aS'NR_subcl'
p71
ag10
asS'subject'
p72
(S'S210421121691'
p73
S'S210421121692'
p74
S'S210421121693'
p75
S'S210421121707'
p76
S'S210421121708'
p77
S'S210421121709'
p78
S'S210421121710'
p79
S'S210421121677'
p80
S'S210421121678'
p81
S'S210421121679'
p82
S'S210421121680'
p83
S'S210421121681'
p84
tp85
ss.